ARM GAS  /tmp/ccZyKULX.s 			page 1


   1              		.syntax unified
   2              		.cpu cortex-m4
   3              		.eabi_attribute 27, 3
   4              		.eabi_attribute 28, 1
   5              		.fpu fpv4-sp-d16
   6              		.eabi_attribute 20, 1
   7              		.eabi_attribute 21, 1
   8              		.eabi_attribute 23, 3
   9              		.eabi_attribute 24, 1
  10              		.eabi_attribute 25, 1
  11              		.eabi_attribute 26, 1
  12              		.eabi_attribute 30, 6
  13              		.eabi_attribute 34, 1
  14              		.eabi_attribute 18, 4
  15              		.thumb
  16              		.file	"stm32f3xx_hal_tim.c"
  17              		.text
  18              	.Ltext0:
  19              		.cfi_sections	.debug_frame
  20              		.section	.text.HAL_TIM_Base_Init,"ax",%progbits
  21              		.align	2
  22              		.global	HAL_TIM_Base_Init
  23              		.thumb
  24              		.thumb_func
  26              	HAL_TIM_Base_Init:
  27              	.LFB125:
  28              		.file 1 "Drivers/STM32F3xx_HAL_Driver/Src/stm32f3xx_hal_tim.c"
   1:Drivers/STM32F3xx_HAL_Driver/Src/stm32f3xx_hal_tim.c **** /**
   2:Drivers/STM32F3xx_HAL_Driver/Src/stm32f3xx_hal_tim.c ****   ******************************************************************************
   3:Drivers/STM32F3xx_HAL_Driver/Src/stm32f3xx_hal_tim.c ****   * @file    stm32f3xx_hal_tim.c
   4:Drivers/STM32F3xx_HAL_Driver/Src/stm32f3xx_hal_tim.c ****   * @author  MCD Application Team
   5:Drivers/STM32F3xx_HAL_Driver/Src/stm32f3xx_hal_tim.c ****   * @version V1.2.1
   6:Drivers/STM32F3xx_HAL_Driver/Src/stm32f3xx_hal_tim.c ****   * @date    29-April-2015
   7:Drivers/STM32F3xx_HAL_Driver/Src/stm32f3xx_hal_tim.c ****   * @brief   TIM HAL module driver.
   8:Drivers/STM32F3xx_HAL_Driver/Src/stm32f3xx_hal_tim.c ****   *          This file provides firmware functions to manage the following 
   9:Drivers/STM32F3xx_HAL_Driver/Src/stm32f3xx_hal_tim.c ****   *          functionalities of the Timer (TIM) peripheral:
  10:Drivers/STM32F3xx_HAL_Driver/Src/stm32f3xx_hal_tim.c ****   *           + Time Base Initialization
  11:Drivers/STM32F3xx_HAL_Driver/Src/stm32f3xx_hal_tim.c ****   *           + Time Base Start
  12:Drivers/STM32F3xx_HAL_Driver/Src/stm32f3xx_hal_tim.c ****   *           + Time Base Start Interruption
  13:Drivers/STM32F3xx_HAL_Driver/Src/stm32f3xx_hal_tim.c ****   *           + Time Base Start DMA
  14:Drivers/STM32F3xx_HAL_Driver/Src/stm32f3xx_hal_tim.c ****   *           + Time Output Compare/PWM Initialization
  15:Drivers/STM32F3xx_HAL_Driver/Src/stm32f3xx_hal_tim.c ****   *           + Time Output Compare/PWM Channel Configuration
  16:Drivers/STM32F3xx_HAL_Driver/Src/stm32f3xx_hal_tim.c ****   *           + Time Output Compare/PWM  Start
  17:Drivers/STM32F3xx_HAL_Driver/Src/stm32f3xx_hal_tim.c ****   *           + Time Output Compare/PWM  Start Interruption
  18:Drivers/STM32F3xx_HAL_Driver/Src/stm32f3xx_hal_tim.c ****   *           + Time Output Compare/PWM Start DMA
  19:Drivers/STM32F3xx_HAL_Driver/Src/stm32f3xx_hal_tim.c ****   *           + Time Input Capture Initialization
  20:Drivers/STM32F3xx_HAL_Driver/Src/stm32f3xx_hal_tim.c ****   *           + Time Input Capture Channel Configuration
  21:Drivers/STM32F3xx_HAL_Driver/Src/stm32f3xx_hal_tim.c ****   *           + Time Input Capture Start
  22:Drivers/STM32F3xx_HAL_Driver/Src/stm32f3xx_hal_tim.c ****   *           + Time Input Capture Start Interruption 
  23:Drivers/STM32F3xx_HAL_Driver/Src/stm32f3xx_hal_tim.c ****   *           + Time Input Capture Start DMA
  24:Drivers/STM32F3xx_HAL_Driver/Src/stm32f3xx_hal_tim.c ****   *           + Time One Pulse Initialization
  25:Drivers/STM32F3xx_HAL_Driver/Src/stm32f3xx_hal_tim.c ****   *           + Time One Pulse Channel Configuration
  26:Drivers/STM32F3xx_HAL_Driver/Src/stm32f3xx_hal_tim.c ****   *           + Time One Pulse Start 
  27:Drivers/STM32F3xx_HAL_Driver/Src/stm32f3xx_hal_tim.c ****   *           + Time Encoder Interface Initialization
  28:Drivers/STM32F3xx_HAL_Driver/Src/stm32f3xx_hal_tim.c ****   *           + Time Encoder Interface Start
  29:Drivers/STM32F3xx_HAL_Driver/Src/stm32f3xx_hal_tim.c ****   *           + Time Encoder Interface Start Interruption
  30:Drivers/STM32F3xx_HAL_Driver/Src/stm32f3xx_hal_tim.c ****   *           + Time Encoder Interface Start DMA
ARM GAS  /tmp/ccZyKULX.s 			page 2


  31:Drivers/STM32F3xx_HAL_Driver/Src/stm32f3xx_hal_tim.c ****   *           + Commutation Event configuration with Interruption and DMA
  32:Drivers/STM32F3xx_HAL_Driver/Src/stm32f3xx_hal_tim.c ****   *           + Time OCRef clear configuration
  33:Drivers/STM32F3xx_HAL_Driver/Src/stm32f3xx_hal_tim.c ****   *           + Time External Clock configuration
  34:Drivers/STM32F3xx_HAL_Driver/Src/stm32f3xx_hal_tim.c ****   @verbatim
  35:Drivers/STM32F3xx_HAL_Driver/Src/stm32f3xx_hal_tim.c ****   ==============================================================================
  36:Drivers/STM32F3xx_HAL_Driver/Src/stm32f3xx_hal_tim.c ****                       ##### TIMER Generic features #####
  37:Drivers/STM32F3xx_HAL_Driver/Src/stm32f3xx_hal_tim.c ****   ==============================================================================
  38:Drivers/STM32F3xx_HAL_Driver/Src/stm32f3xx_hal_tim.c ****   [..] The Timer features include: 
  39:Drivers/STM32F3xx_HAL_Driver/Src/stm32f3xx_hal_tim.c ****        (#) 16-bit up, down, up/down auto-reload counter.
  40:Drivers/STM32F3xx_HAL_Driver/Src/stm32f3xx_hal_tim.c ****        (#) 16-bit programmable prescaler allowing dividing (also on the fly) the 
  41:Drivers/STM32F3xx_HAL_Driver/Src/stm32f3xx_hal_tim.c ****            counter clock frequency either by any factor between 1 and 65536.
  42:Drivers/STM32F3xx_HAL_Driver/Src/stm32f3xx_hal_tim.c ****        (#) Up to 4 independent channels for:
  43:Drivers/STM32F3xx_HAL_Driver/Src/stm32f3xx_hal_tim.c ****            (++) Input Capture
  44:Drivers/STM32F3xx_HAL_Driver/Src/stm32f3xx_hal_tim.c ****            (++) Output Compare
  45:Drivers/STM32F3xx_HAL_Driver/Src/stm32f3xx_hal_tim.c ****            (++) PWM generation (Edge and Center-aligned Mode)
  46:Drivers/STM32F3xx_HAL_Driver/Src/stm32f3xx_hal_tim.c ****            (++) One-pulse mode output               
  47:Drivers/STM32F3xx_HAL_Driver/Src/stm32f3xx_hal_tim.c ****    
  48:Drivers/STM32F3xx_HAL_Driver/Src/stm32f3xx_hal_tim.c ****             ##### How to use this driver #####
  49:Drivers/STM32F3xx_HAL_Driver/Src/stm32f3xx_hal_tim.c ****   ==============================================================================
  50:Drivers/STM32F3xx_HAL_Driver/Src/stm32f3xx_hal_tim.c ****     [..]
  51:Drivers/STM32F3xx_HAL_Driver/Src/stm32f3xx_hal_tim.c ****      (#) Initialize the TIM low level resources by implementing the following functions 
  52:Drivers/STM32F3xx_HAL_Driver/Src/stm32f3xx_hal_tim.c ****          depending from feature used :
  53:Drivers/STM32F3xx_HAL_Driver/Src/stm32f3xx_hal_tim.c ****            (++) Time Base : HAL_TIM_Base_MspInit() 
  54:Drivers/STM32F3xx_HAL_Driver/Src/stm32f3xx_hal_tim.c ****            (++) Input Capture : HAL_TIM_IC_MspInit()
  55:Drivers/STM32F3xx_HAL_Driver/Src/stm32f3xx_hal_tim.c ****            (++) Output Compare : HAL_TIM_OC_MspInit()
  56:Drivers/STM32F3xx_HAL_Driver/Src/stm32f3xx_hal_tim.c ****            (++) PWM generation : HAL_TIM_PWM_MspInit()
  57:Drivers/STM32F3xx_HAL_Driver/Src/stm32f3xx_hal_tim.c ****            (++) One-pulse mode output : HAL_TIM_OnePulse_MspInit()
  58:Drivers/STM32F3xx_HAL_Driver/Src/stm32f3xx_hal_tim.c ****            (++) Encoder mode output : HAL_TIM_Encoder_MspInit()
  59:Drivers/STM32F3xx_HAL_Driver/Src/stm32f3xx_hal_tim.c ****            
  60:Drivers/STM32F3xx_HAL_Driver/Src/stm32f3xx_hal_tim.c ****      (#) Initialize the TIM low level resources :
  61:Drivers/STM32F3xx_HAL_Driver/Src/stm32f3xx_hal_tim.c ****         (##) Enable the TIM interface clock using __HAL_RCC_TIMx_CLK_ENABLE  (); 
  62:Drivers/STM32F3xx_HAL_Driver/Src/stm32f3xx_hal_tim.c ****         (##) TIM pins configuration
  63:Drivers/STM32F3xx_HAL_Driver/Src/stm32f3xx_hal_tim.c ****             (+++) Enable the clock for the TIM GPIOs using the following function:
  64:Drivers/STM32F3xx_HAL_Driver/Src/stm32f3xx_hal_tim.c ****              __HAL_RCC_GPIOx_CLK_ENABLE();   
  65:Drivers/STM32F3xx_HAL_Driver/Src/stm32f3xx_hal_tim.c ****             (+++) Configure these TIM pins in Alternate function mode using HAL_GPIO_Init();  
  66:Drivers/STM32F3xx_HAL_Driver/Src/stm32f3xx_hal_tim.c **** 
  67:Drivers/STM32F3xx_HAL_Driver/Src/stm32f3xx_hal_tim.c ****      (#) The external Clock can be configured, if needed (the default clock is the 
  68:Drivers/STM32F3xx_HAL_Driver/Src/stm32f3xx_hal_tim.c ****          internal clock from the APBx), using the following function:
  69:Drivers/STM32F3xx_HAL_Driver/Src/stm32f3xx_hal_tim.c ****          HAL_TIM_ConfigClockSource, the clock configuration should be done before 
  70:Drivers/STM32F3xx_HAL_Driver/Src/stm32f3xx_hal_tim.c ****          any start function.
  71:Drivers/STM32F3xx_HAL_Driver/Src/stm32f3xx_hal_tim.c ****   
  72:Drivers/STM32F3xx_HAL_Driver/Src/stm32f3xx_hal_tim.c ****      (#) Configure the TIM in the desired functioning mode using one of the 
  73:Drivers/STM32F3xx_HAL_Driver/Src/stm32f3xx_hal_tim.c ****        Initialization function of this driver:
  74:Drivers/STM32F3xx_HAL_Driver/Src/stm32f3xx_hal_tim.c ****        (++) HAL_TIM_Base_Init: to use the Timer to generate a simple time base
  75:Drivers/STM32F3xx_HAL_Driver/Src/stm32f3xx_hal_tim.c ****        (++) HAL_TIM_OC_Init and HAL_TIM_OC_ConfigChannel: to use the Timer to generate an 
  76:Drivers/STM32F3xx_HAL_Driver/Src/stm32f3xx_hal_tim.c ****             Output Compare signal.
  77:Drivers/STM32F3xx_HAL_Driver/Src/stm32f3xx_hal_tim.c ****        (++) HAL_TIM_PWM_Init and HAL_TIM_PWM_ConfigChannel: to use the Timer to generate a 
  78:Drivers/STM32F3xx_HAL_Driver/Src/stm32f3xx_hal_tim.c ****             PWM signal.
  79:Drivers/STM32F3xx_HAL_Driver/Src/stm32f3xx_hal_tim.c ****        (++) HAL_TIM_IC_Init and HAL_TIM_IC_ConfigChannel: to use the Timer to measure an 
  80:Drivers/STM32F3xx_HAL_Driver/Src/stm32f3xx_hal_tim.c ****             external signal.
  81:Drivers/STM32F3xx_HAL_Driver/Src/stm32f3xx_hal_tim.c ****          (++) HAL_TIM_OnePulse_Init and HAL_TIM_OnePulse_ConfigChannel: to use the Timer 
  82:Drivers/STM32F3xx_HAL_Driver/Src/stm32f3xx_hal_tim.c ****               in One Pulse Mode.
  83:Drivers/STM32F3xx_HAL_Driver/Src/stm32f3xx_hal_tim.c ****        (++) HAL_TIM_Encoder_Init: to use the Timer Encoder Interface.
  84:Drivers/STM32F3xx_HAL_Driver/Src/stm32f3xx_hal_tim.c **** 
  85:Drivers/STM32F3xx_HAL_Driver/Src/stm32f3xx_hal_tim.c ****      (#) Activate the TIM peripheral using one of the start functions depending from the feature us
  86:Drivers/STM32F3xx_HAL_Driver/Src/stm32f3xx_hal_tim.c ****            (++) Time Base : HAL_TIM_Base_Start(), HAL_TIM_Base_Start_DMA(), HAL_TIM_Base_Start_IT()
  87:Drivers/STM32F3xx_HAL_Driver/Src/stm32f3xx_hal_tim.c ****            (++) Input Capture :  HAL_TIM_IC_Start(), HAL_TIM_IC_Start_DMA(), HAL_TIM_IC_Start_IT()
ARM GAS  /tmp/ccZyKULX.s 			page 3


  88:Drivers/STM32F3xx_HAL_Driver/Src/stm32f3xx_hal_tim.c ****            (++) Output Compare : HAL_TIM_OC_Start(), HAL_TIM_OC_Start_DMA(), HAL_TIM_OC_Start_IT()
  89:Drivers/STM32F3xx_HAL_Driver/Src/stm32f3xx_hal_tim.c ****            (++) PWM generation : HAL_TIM_PWM_Start(), HAL_TIM_PWM_Start_DMA(), HAL_TIM_PWM_Start_IT
  90:Drivers/STM32F3xx_HAL_Driver/Src/stm32f3xx_hal_tim.c ****            (++) One-pulse mode output : HAL_TIM_OnePulse_Start(), HAL_TIM_OnePulse_Start_IT()
  91:Drivers/STM32F3xx_HAL_Driver/Src/stm32f3xx_hal_tim.c ****            (++) Encoder mode output : HAL_TIM_Encoder_Start(), HAL_TIM_Encoder_Start_DMA(), HAL_TIM
  92:Drivers/STM32F3xx_HAL_Driver/Src/stm32f3xx_hal_tim.c **** 
  93:Drivers/STM32F3xx_HAL_Driver/Src/stm32f3xx_hal_tim.c ****      (#) The DMA Burst is managed with the two following functions:
  94:Drivers/STM32F3xx_HAL_Driver/Src/stm32f3xx_hal_tim.c ****          HAL_TIM_DMABurst_WriteStart()
  95:Drivers/STM32F3xx_HAL_Driver/Src/stm32f3xx_hal_tim.c ****          HAL_TIM_DMABurst_ReadStart()
  96:Drivers/STM32F3xx_HAL_Driver/Src/stm32f3xx_hal_tim.c ****   
  97:Drivers/STM32F3xx_HAL_Driver/Src/stm32f3xx_hal_tim.c ****   @endverbatim
  98:Drivers/STM32F3xx_HAL_Driver/Src/stm32f3xx_hal_tim.c ****   ******************************************************************************
  99:Drivers/STM32F3xx_HAL_Driver/Src/stm32f3xx_hal_tim.c ****   * @attention
 100:Drivers/STM32F3xx_HAL_Driver/Src/stm32f3xx_hal_tim.c ****   *
 101:Drivers/STM32F3xx_HAL_Driver/Src/stm32f3xx_hal_tim.c ****   * <h2><center>&copy; COPYRIGHT(c) 2016 STMicroelectronics</center></h2>
 102:Drivers/STM32F3xx_HAL_Driver/Src/stm32f3xx_hal_tim.c ****   *
 103:Drivers/STM32F3xx_HAL_Driver/Src/stm32f3xx_hal_tim.c ****   * Redistribution and use in source and binary forms, with or without modification,
 104:Drivers/STM32F3xx_HAL_Driver/Src/stm32f3xx_hal_tim.c ****   * are permitted provided that the following conditions are met:
 105:Drivers/STM32F3xx_HAL_Driver/Src/stm32f3xx_hal_tim.c ****   *   1. Redistributions of source code must retain the above copyright notice,
 106:Drivers/STM32F3xx_HAL_Driver/Src/stm32f3xx_hal_tim.c ****   *      this list of conditions and the following disclaimer.
 107:Drivers/STM32F3xx_HAL_Driver/Src/stm32f3xx_hal_tim.c ****   *   2. Redistributions in binary form must reproduce the above copyright notice,
 108:Drivers/STM32F3xx_HAL_Driver/Src/stm32f3xx_hal_tim.c ****   *      this list of conditions and the following disclaimer in the documentation
 109:Drivers/STM32F3xx_HAL_Driver/Src/stm32f3xx_hal_tim.c ****   *      and/or other materials provided with the distribution.
 110:Drivers/STM32F3xx_HAL_Driver/Src/stm32f3xx_hal_tim.c ****   *   3. Neither the name of STMicroelectronics nor the names of its contributors
 111:Drivers/STM32F3xx_HAL_Driver/Src/stm32f3xx_hal_tim.c ****   *      may be used to endorse or promote products derived from this software
 112:Drivers/STM32F3xx_HAL_Driver/Src/stm32f3xx_hal_tim.c ****   *      without specific prior written permission.
 113:Drivers/STM32F3xx_HAL_Driver/Src/stm32f3xx_hal_tim.c ****   *
 114:Drivers/STM32F3xx_HAL_Driver/Src/stm32f3xx_hal_tim.c ****   * THIS SOFTWARE IS PROVIDED BY THE COPYRIGHT HOLDERS AND CONTRIBUTORS "AS IS"
 115:Drivers/STM32F3xx_HAL_Driver/Src/stm32f3xx_hal_tim.c ****   * AND ANY EXPRESS OR IMPLIED WARRANTIES, INCLUDING, BUT NOT LIMITED TO, THE
 116:Drivers/STM32F3xx_HAL_Driver/Src/stm32f3xx_hal_tim.c ****   * IMPLIED WARRANTIES OF MERCHANTABILITY AND FITNESS FOR A PARTICULAR PURPOSE ARE
 117:Drivers/STM32F3xx_HAL_Driver/Src/stm32f3xx_hal_tim.c ****   * DISCLAIMED. IN NO EVENT SHALL THE COPYRIGHT HOLDER OR CONTRIBUTORS BE LIABLE
 118:Drivers/STM32F3xx_HAL_Driver/Src/stm32f3xx_hal_tim.c ****   * FOR ANY DIRECT, INDIRECT, INCIDENTAL, SPECIAL, EXEMPLARY, OR CONSEQUENTIAL
 119:Drivers/STM32F3xx_HAL_Driver/Src/stm32f3xx_hal_tim.c ****   * DAMAGES (INCLUDING, BUT NOT LIMITED TO, PROCUREMENT OF SUBSTITUTE GOODS OR
 120:Drivers/STM32F3xx_HAL_Driver/Src/stm32f3xx_hal_tim.c ****   * SERVICES; LOSS OF USE, DATA, OR PROFITS; OR BUSINESS INTERRUPTION) HOWEVER
 121:Drivers/STM32F3xx_HAL_Driver/Src/stm32f3xx_hal_tim.c ****   * CAUSED AND ON ANY THEORY OF LIABILITY, WHETHER IN CONTRACT, STRICT LIABILITY,
 122:Drivers/STM32F3xx_HAL_Driver/Src/stm32f3xx_hal_tim.c ****   * OR TORT (INCLUDING NEGLIGENCE OR OTHERWISE) ARISING IN ANY WAY OUT OF THE USE
 123:Drivers/STM32F3xx_HAL_Driver/Src/stm32f3xx_hal_tim.c ****   * OF THIS SOFTWARE, EVEN IF ADVISED OF THE POSSIBILITY OF SUCH DAMAGE.
 124:Drivers/STM32F3xx_HAL_Driver/Src/stm32f3xx_hal_tim.c ****   *
 125:Drivers/STM32F3xx_HAL_Driver/Src/stm32f3xx_hal_tim.c ****   ******************************************************************************  
 126:Drivers/STM32F3xx_HAL_Driver/Src/stm32f3xx_hal_tim.c ****   */ 
 127:Drivers/STM32F3xx_HAL_Driver/Src/stm32f3xx_hal_tim.c **** 
 128:Drivers/STM32F3xx_HAL_Driver/Src/stm32f3xx_hal_tim.c **** /* Includes ------------------------------------------------------------------*/
 129:Drivers/STM32F3xx_HAL_Driver/Src/stm32f3xx_hal_tim.c **** #include "stm32f3xx_hal.h"
 130:Drivers/STM32F3xx_HAL_Driver/Src/stm32f3xx_hal_tim.c **** 
 131:Drivers/STM32F3xx_HAL_Driver/Src/stm32f3xx_hal_tim.c **** /** @addtogroup STM32F3xx_HAL_Driver
 132:Drivers/STM32F3xx_HAL_Driver/Src/stm32f3xx_hal_tim.c ****   * @{
 133:Drivers/STM32F3xx_HAL_Driver/Src/stm32f3xx_hal_tim.c ****   */
 134:Drivers/STM32F3xx_HAL_Driver/Src/stm32f3xx_hal_tim.c **** 
 135:Drivers/STM32F3xx_HAL_Driver/Src/stm32f3xx_hal_tim.c **** /** @defgroup TIM TIM
 136:Drivers/STM32F3xx_HAL_Driver/Src/stm32f3xx_hal_tim.c ****   * @brief TIM HAL module driver
 137:Drivers/STM32F3xx_HAL_Driver/Src/stm32f3xx_hal_tim.c ****   * @{
 138:Drivers/STM32F3xx_HAL_Driver/Src/stm32f3xx_hal_tim.c ****   */
 139:Drivers/STM32F3xx_HAL_Driver/Src/stm32f3xx_hal_tim.c **** 
 140:Drivers/STM32F3xx_HAL_Driver/Src/stm32f3xx_hal_tim.c **** #ifdef HAL_TIM_MODULE_ENABLED
 141:Drivers/STM32F3xx_HAL_Driver/Src/stm32f3xx_hal_tim.c **** 
 142:Drivers/STM32F3xx_HAL_Driver/Src/stm32f3xx_hal_tim.c **** /* Private typedef -----------------------------------------------------------*/
 143:Drivers/STM32F3xx_HAL_Driver/Src/stm32f3xx_hal_tim.c **** /* Private define ------------------------------------------------------------*/
 144:Drivers/STM32F3xx_HAL_Driver/Src/stm32f3xx_hal_tim.c **** /* Private macro -------------------------------------------------------------*/
ARM GAS  /tmp/ccZyKULX.s 			page 4


 145:Drivers/STM32F3xx_HAL_Driver/Src/stm32f3xx_hal_tim.c **** /* Private variables ---------------------------------------------------------*/
 146:Drivers/STM32F3xx_HAL_Driver/Src/stm32f3xx_hal_tim.c **** /* Private function prototypes -----------------------------------------------*/
 147:Drivers/STM32F3xx_HAL_Driver/Src/stm32f3xx_hal_tim.c **** 
 148:Drivers/STM32F3xx_HAL_Driver/Src/stm32f3xx_hal_tim.c **** /** @defgroup TIM_Private_Functions TIM Private Functions
 149:Drivers/STM32F3xx_HAL_Driver/Src/stm32f3xx_hal_tim.c ****   * @{
 150:Drivers/STM32F3xx_HAL_Driver/Src/stm32f3xx_hal_tim.c ****   */
 151:Drivers/STM32F3xx_HAL_Driver/Src/stm32f3xx_hal_tim.c **** static void TIM_TI1_ConfigInputStage(TIM_TypeDef *TIMx, uint32_t TIM_ICPolarity, uint32_t TIM_ICFil
 152:Drivers/STM32F3xx_HAL_Driver/Src/stm32f3xx_hal_tim.c **** static void TIM_TI2_SetConfig(TIM_TypeDef *TIMx, uint32_t TIM_ICPolarity, uint32_t TIM_ICSelection,
 153:Drivers/STM32F3xx_HAL_Driver/Src/stm32f3xx_hal_tim.c ****                        uint32_t TIM_ICFilter);
 154:Drivers/STM32F3xx_HAL_Driver/Src/stm32f3xx_hal_tim.c **** static void TIM_TI2_ConfigInputStage(TIM_TypeDef *TIMx, uint32_t TIM_ICPolarity, uint32_t TIM_ICFil
 155:Drivers/STM32F3xx_HAL_Driver/Src/stm32f3xx_hal_tim.c **** static void TIM_TI3_SetConfig(TIM_TypeDef *TIMx, uint32_t TIM_ICPolarity, uint32_t TIM_ICSelection,
 156:Drivers/STM32F3xx_HAL_Driver/Src/stm32f3xx_hal_tim.c ****                        uint32_t TIM_ICFilter);
 157:Drivers/STM32F3xx_HAL_Driver/Src/stm32f3xx_hal_tim.c **** static void TIM_TI4_SetConfig(TIM_TypeDef *TIMx, uint32_t TIM_ICPolarity, uint32_t TIM_ICSelection,
 158:Drivers/STM32F3xx_HAL_Driver/Src/stm32f3xx_hal_tim.c ****                        uint32_t TIM_ICFilter);
 159:Drivers/STM32F3xx_HAL_Driver/Src/stm32f3xx_hal_tim.c **** static void TIM_ITRx_SetConfig(TIM_TypeDef* TIMx, uint16_t InputTriggerSource);
 160:Drivers/STM32F3xx_HAL_Driver/Src/stm32f3xx_hal_tim.c **** static void TIM_DMAPeriodElapsedCplt(DMA_HandleTypeDef *hdma);
 161:Drivers/STM32F3xx_HAL_Driver/Src/stm32f3xx_hal_tim.c **** static void TIM_DMATriggerCplt(DMA_HandleTypeDef *hdma);
 162:Drivers/STM32F3xx_HAL_Driver/Src/stm32f3xx_hal_tim.c **** static void TIM_SlaveTimer_SetConfig(TIM_HandleTypeDef *htim,
 163:Drivers/STM32F3xx_HAL_Driver/Src/stm32f3xx_hal_tim.c ****                                      TIM_SlaveConfigTypeDef * sSlaveConfig);
 164:Drivers/STM32F3xx_HAL_Driver/Src/stm32f3xx_hal_tim.c **** 
 165:Drivers/STM32F3xx_HAL_Driver/Src/stm32f3xx_hal_tim.c **** /**
 166:Drivers/STM32F3xx_HAL_Driver/Src/stm32f3xx_hal_tim.c ****   * @}
 167:Drivers/STM32F3xx_HAL_Driver/Src/stm32f3xx_hal_tim.c ****   */
 168:Drivers/STM32F3xx_HAL_Driver/Src/stm32f3xx_hal_tim.c **** 
 169:Drivers/STM32F3xx_HAL_Driver/Src/stm32f3xx_hal_tim.c **** /* Exported functions ---------------------------------------------------------*/
 170:Drivers/STM32F3xx_HAL_Driver/Src/stm32f3xx_hal_tim.c **** 
 171:Drivers/STM32F3xx_HAL_Driver/Src/stm32f3xx_hal_tim.c **** /** @defgroup TIM_Exported_Functions TIM Exported Functions
 172:Drivers/STM32F3xx_HAL_Driver/Src/stm32f3xx_hal_tim.c ****   * @{
 173:Drivers/STM32F3xx_HAL_Driver/Src/stm32f3xx_hal_tim.c ****   */
 174:Drivers/STM32F3xx_HAL_Driver/Src/stm32f3xx_hal_tim.c **** 
 175:Drivers/STM32F3xx_HAL_Driver/Src/stm32f3xx_hal_tim.c **** /** @defgroup TIM_Exported_Functions_Group1 Time Base functions 
 176:Drivers/STM32F3xx_HAL_Driver/Src/stm32f3xx_hal_tim.c ****  *  @brief    Time Base functions 
 177:Drivers/STM32F3xx_HAL_Driver/Src/stm32f3xx_hal_tim.c ****  *
 178:Drivers/STM32F3xx_HAL_Driver/Src/stm32f3xx_hal_tim.c **** @verbatim    
 179:Drivers/STM32F3xx_HAL_Driver/Src/stm32f3xx_hal_tim.c ****   ==============================================================================
 180:Drivers/STM32F3xx_HAL_Driver/Src/stm32f3xx_hal_tim.c ****               ##### Time Base functions #####
 181:Drivers/STM32F3xx_HAL_Driver/Src/stm32f3xx_hal_tim.c ****   ==============================================================================
 182:Drivers/STM32F3xx_HAL_Driver/Src/stm32f3xx_hal_tim.c ****   [..]  
 183:Drivers/STM32F3xx_HAL_Driver/Src/stm32f3xx_hal_tim.c ****     This section provides functions allowing to:
 184:Drivers/STM32F3xx_HAL_Driver/Src/stm32f3xx_hal_tim.c ****     (+) Initialize and configure the TIM base. 
 185:Drivers/STM32F3xx_HAL_Driver/Src/stm32f3xx_hal_tim.c ****     (+) De-initialize the TIM base.
 186:Drivers/STM32F3xx_HAL_Driver/Src/stm32f3xx_hal_tim.c ****     (+) Start the Time Base.
 187:Drivers/STM32F3xx_HAL_Driver/Src/stm32f3xx_hal_tim.c ****     (+) Stop the Time Base.
 188:Drivers/STM32F3xx_HAL_Driver/Src/stm32f3xx_hal_tim.c ****     (+) Start the Time Base and enable interrupt.
 189:Drivers/STM32F3xx_HAL_Driver/Src/stm32f3xx_hal_tim.c ****     (+) Stop the Time Base and disable interrupt.
 190:Drivers/STM32F3xx_HAL_Driver/Src/stm32f3xx_hal_tim.c ****     (+) Start the Time Base and enable DMA transfer.
 191:Drivers/STM32F3xx_HAL_Driver/Src/stm32f3xx_hal_tim.c ****     (+) Stop the Time Base and disable DMA transfer.
 192:Drivers/STM32F3xx_HAL_Driver/Src/stm32f3xx_hal_tim.c ****  
 193:Drivers/STM32F3xx_HAL_Driver/Src/stm32f3xx_hal_tim.c **** @endverbatim
 194:Drivers/STM32F3xx_HAL_Driver/Src/stm32f3xx_hal_tim.c ****   * @{
 195:Drivers/STM32F3xx_HAL_Driver/Src/stm32f3xx_hal_tim.c ****   */
 196:Drivers/STM32F3xx_HAL_Driver/Src/stm32f3xx_hal_tim.c **** /**
 197:Drivers/STM32F3xx_HAL_Driver/Src/stm32f3xx_hal_tim.c ****   * @brief  Initializes the TIM Time base Unit according to the specified
 198:Drivers/STM32F3xx_HAL_Driver/Src/stm32f3xx_hal_tim.c ****   *         parameters in the TIM_HandleTypeDef and create the associated handle.
 199:Drivers/STM32F3xx_HAL_Driver/Src/stm32f3xx_hal_tim.c ****   * @param  htim: TIM Base handle
 200:Drivers/STM32F3xx_HAL_Driver/Src/stm32f3xx_hal_tim.c ****   * @retval HAL status
 201:Drivers/STM32F3xx_HAL_Driver/Src/stm32f3xx_hal_tim.c ****   */
ARM GAS  /tmp/ccZyKULX.s 			page 5


 202:Drivers/STM32F3xx_HAL_Driver/Src/stm32f3xx_hal_tim.c **** HAL_StatusTypeDef HAL_TIM_Base_Init(TIM_HandleTypeDef *htim)
 203:Drivers/STM32F3xx_HAL_Driver/Src/stm32f3xx_hal_tim.c **** { 
  29              		.loc 1 203 0
  30              		.cfi_startproc
  31              		@ args = 0, pretend = 0, frame = 8
  32              		@ frame_needed = 1, uses_anonymous_args = 0
  33 0000 80B5     		push	{r7, lr}
  34              	.LCFI0:
  35              		.cfi_def_cfa_offset 8
  36              		.cfi_offset 7, -8
  37              		.cfi_offset 14, -4
  38 0002 82B0     		sub	sp, sp, #8
  39              	.LCFI1:
  40              		.cfi_def_cfa_offset 16
  41 0004 00AF     		add	r7, sp, #0
  42              	.LCFI2:
  43              		.cfi_def_cfa_register 7
  44 0006 7860     		str	r0, [r7, #4]
 204:Drivers/STM32F3xx_HAL_Driver/Src/stm32f3xx_hal_tim.c ****   /* Check the TIM handle allocation */
 205:Drivers/STM32F3xx_HAL_Driver/Src/stm32f3xx_hal_tim.c ****   if(htim == NULL)
  45              		.loc 1 205 0
  46 0008 7B68     		ldr	r3, [r7, #4]
  47 000a 002B     		cmp	r3, #0
  48 000c 01D1     		bne	.L2
 206:Drivers/STM32F3xx_HAL_Driver/Src/stm32f3xx_hal_tim.c ****   {
 207:Drivers/STM32F3xx_HAL_Driver/Src/stm32f3xx_hal_tim.c ****     return HAL_ERROR;
  49              		.loc 1 207 0
  50 000e 0123     		movs	r3, #1
  51 0010 1DE0     		b	.L3
  52              	.L2:
 208:Drivers/STM32F3xx_HAL_Driver/Src/stm32f3xx_hal_tim.c ****   }
 209:Drivers/STM32F3xx_HAL_Driver/Src/stm32f3xx_hal_tim.c ****   
 210:Drivers/STM32F3xx_HAL_Driver/Src/stm32f3xx_hal_tim.c ****   /* Check the parameters */
 211:Drivers/STM32F3xx_HAL_Driver/Src/stm32f3xx_hal_tim.c ****   assert_param(IS_TIM_INSTANCE(htim->Instance)); 
 212:Drivers/STM32F3xx_HAL_Driver/Src/stm32f3xx_hal_tim.c ****   assert_param(IS_TIM_COUNTER_MODE(htim->Init.CounterMode));
 213:Drivers/STM32F3xx_HAL_Driver/Src/stm32f3xx_hal_tim.c ****   assert_param(IS_TIM_CLOCKDIVISION_DIV(htim->Init.ClockDivision));
 214:Drivers/STM32F3xx_HAL_Driver/Src/stm32f3xx_hal_tim.c ****   
 215:Drivers/STM32F3xx_HAL_Driver/Src/stm32f3xx_hal_tim.c ****   if(htim->State == HAL_TIM_STATE_RESET)
  53              		.loc 1 215 0
  54 0012 7B68     		ldr	r3, [r7, #4]
  55 0014 93F83930 		ldrb	r3, [r3, #57]
  56 0018 DBB2     		uxtb	r3, r3
  57 001a 002B     		cmp	r3, #0
  58 001c 06D1     		bne	.L4
 216:Drivers/STM32F3xx_HAL_Driver/Src/stm32f3xx_hal_tim.c ****   {  
 217:Drivers/STM32F3xx_HAL_Driver/Src/stm32f3xx_hal_tim.c ****     /* Allocate lock resource and initialize it */
 218:Drivers/STM32F3xx_HAL_Driver/Src/stm32f3xx_hal_tim.c ****     htim->Lock = HAL_UNLOCKED;
  59              		.loc 1 218 0
  60 001e 7B68     		ldr	r3, [r7, #4]
  61 0020 0022     		movs	r2, #0
  62 0022 83F83820 		strb	r2, [r3, #56]
 219:Drivers/STM32F3xx_HAL_Driver/Src/stm32f3xx_hal_tim.c **** 
 220:Drivers/STM32F3xx_HAL_Driver/Src/stm32f3xx_hal_tim.c ****     /* Init the low level hardware : GPIO, CLOCK, NVIC */
 221:Drivers/STM32F3xx_HAL_Driver/Src/stm32f3xx_hal_tim.c ****     HAL_TIM_Base_MspInit(htim);
  63              		.loc 1 221 0
  64 0026 7868     		ldr	r0, [r7, #4]
  65 0028 FFF7FEFF 		bl	HAL_TIM_Base_MspInit
ARM GAS  /tmp/ccZyKULX.s 			page 6


  66              	.L4:
 222:Drivers/STM32F3xx_HAL_Driver/Src/stm32f3xx_hal_tim.c ****   }
 223:Drivers/STM32F3xx_HAL_Driver/Src/stm32f3xx_hal_tim.c ****   
 224:Drivers/STM32F3xx_HAL_Driver/Src/stm32f3xx_hal_tim.c ****   /* Set the TIM state */
 225:Drivers/STM32F3xx_HAL_Driver/Src/stm32f3xx_hal_tim.c ****   htim->State= HAL_TIM_STATE_BUSY;
  67              		.loc 1 225 0
  68 002c 7B68     		ldr	r3, [r7, #4]
  69 002e 0222     		movs	r2, #2
  70 0030 83F83920 		strb	r2, [r3, #57]
 226:Drivers/STM32F3xx_HAL_Driver/Src/stm32f3xx_hal_tim.c ****   
 227:Drivers/STM32F3xx_HAL_Driver/Src/stm32f3xx_hal_tim.c ****   /* Set the Time Base configuration */
 228:Drivers/STM32F3xx_HAL_Driver/Src/stm32f3xx_hal_tim.c ****   TIM_Base_SetConfig(htim->Instance, &htim->Init); 
  71              		.loc 1 228 0
  72 0034 7B68     		ldr	r3, [r7, #4]
  73 0036 1A68     		ldr	r2, [r3]
  74 0038 7B68     		ldr	r3, [r7, #4]
  75 003a 0433     		adds	r3, r3, #4
  76 003c 1046     		mov	r0, r2
  77 003e 1946     		mov	r1, r3
  78 0040 FFF7FEFF 		bl	TIM_Base_SetConfig
 229:Drivers/STM32F3xx_HAL_Driver/Src/stm32f3xx_hal_tim.c ****   
 230:Drivers/STM32F3xx_HAL_Driver/Src/stm32f3xx_hal_tim.c ****   /* Initialize the TIM state*/
 231:Drivers/STM32F3xx_HAL_Driver/Src/stm32f3xx_hal_tim.c ****   htim->State= HAL_TIM_STATE_READY;
  79              		.loc 1 231 0
  80 0044 7B68     		ldr	r3, [r7, #4]
  81 0046 0122     		movs	r2, #1
  82 0048 83F83920 		strb	r2, [r3, #57]
 232:Drivers/STM32F3xx_HAL_Driver/Src/stm32f3xx_hal_tim.c ****   
 233:Drivers/STM32F3xx_HAL_Driver/Src/stm32f3xx_hal_tim.c ****   return HAL_OK;
  83              		.loc 1 233 0
  84 004c 0023     		movs	r3, #0
  85              	.L3:
 234:Drivers/STM32F3xx_HAL_Driver/Src/stm32f3xx_hal_tim.c **** }
  86              		.loc 1 234 0
  87 004e 1846     		mov	r0, r3
  88 0050 0837     		adds	r7, r7, #8
  89 0052 BD46     		mov	sp, r7
  90              		@ sp needed
  91 0054 80BD     		pop	{r7, pc}
  92              		.cfi_endproc
  93              	.LFE125:
  95 0056 00BF     		.section	.text.HAL_TIM_Base_DeInit,"ax",%progbits
  96              		.align	2
  97              		.global	HAL_TIM_Base_DeInit
  98              		.thumb
  99              		.thumb_func
 101              	HAL_TIM_Base_DeInit:
 102              	.LFB126:
 235:Drivers/STM32F3xx_HAL_Driver/Src/stm32f3xx_hal_tim.c **** 
 236:Drivers/STM32F3xx_HAL_Driver/Src/stm32f3xx_hal_tim.c **** /**
 237:Drivers/STM32F3xx_HAL_Driver/Src/stm32f3xx_hal_tim.c ****   * @brief  DeInitializes the TIM Base peripheral 
 238:Drivers/STM32F3xx_HAL_Driver/Src/stm32f3xx_hal_tim.c ****   * @param  htim: TIM Base handle
 239:Drivers/STM32F3xx_HAL_Driver/Src/stm32f3xx_hal_tim.c ****   * @retval HAL status
 240:Drivers/STM32F3xx_HAL_Driver/Src/stm32f3xx_hal_tim.c ****   */
 241:Drivers/STM32F3xx_HAL_Driver/Src/stm32f3xx_hal_tim.c **** HAL_StatusTypeDef HAL_TIM_Base_DeInit(TIM_HandleTypeDef *htim)
 242:Drivers/STM32F3xx_HAL_Driver/Src/stm32f3xx_hal_tim.c **** {
 103              		.loc 1 242 0
ARM GAS  /tmp/ccZyKULX.s 			page 7


 104              		.cfi_startproc
 105              		@ args = 0, pretend = 0, frame = 8
 106              		@ frame_needed = 1, uses_anonymous_args = 0
 107 0000 80B5     		push	{r7, lr}
 108              	.LCFI3:
 109              		.cfi_def_cfa_offset 8
 110              		.cfi_offset 7, -8
 111              		.cfi_offset 14, -4
 112 0002 82B0     		sub	sp, sp, #8
 113              	.LCFI4:
 114              		.cfi_def_cfa_offset 16
 115 0004 00AF     		add	r7, sp, #0
 116              	.LCFI5:
 117              		.cfi_def_cfa_register 7
 118 0006 7860     		str	r0, [r7, #4]
 243:Drivers/STM32F3xx_HAL_Driver/Src/stm32f3xx_hal_tim.c ****   /* Check the parameters */
 244:Drivers/STM32F3xx_HAL_Driver/Src/stm32f3xx_hal_tim.c ****   assert_param(IS_TIM_INSTANCE(htim->Instance));
 245:Drivers/STM32F3xx_HAL_Driver/Src/stm32f3xx_hal_tim.c ****    
 246:Drivers/STM32F3xx_HAL_Driver/Src/stm32f3xx_hal_tim.c ****   htim->State = HAL_TIM_STATE_BUSY;
 119              		.loc 1 246 0
 120 0008 7B68     		ldr	r3, [r7, #4]
 121 000a 0222     		movs	r2, #2
 122 000c 83F83920 		strb	r2, [r3, #57]
 247:Drivers/STM32F3xx_HAL_Driver/Src/stm32f3xx_hal_tim.c ****    
 248:Drivers/STM32F3xx_HAL_Driver/Src/stm32f3xx_hal_tim.c ****   /* Disable the TIM Peripheral Clock */
 249:Drivers/STM32F3xx_HAL_Driver/Src/stm32f3xx_hal_tim.c ****   __HAL_TIM_DISABLE(htim);
 123              		.loc 1 249 0
 124 0010 7B68     		ldr	r3, [r7, #4]
 125 0012 1B68     		ldr	r3, [r3]
 126 0014 1A6A     		ldr	r2, [r3, #32]
 127 0016 41F21113 		movw	r3, #4369
 128 001a 1340     		ands	r3, r3, r2
 129 001c 002B     		cmp	r3, #0
 130 001e 0FD1     		bne	.L6
 131              		.loc 1 249 0 is_stmt 0 discriminator 1
 132 0020 7B68     		ldr	r3, [r7, #4]
 133 0022 1B68     		ldr	r3, [r3]
 134 0024 1A6A     		ldr	r2, [r3, #32]
 135 0026 40F24443 		movw	r3, #1092
 136 002a 1340     		ands	r3, r3, r2
 137 002c 002B     		cmp	r3, #0
 138 002e 07D1     		bne	.L6
 139 0030 7B68     		ldr	r3, [r7, #4]
 140 0032 1B68     		ldr	r3, [r3]
 141 0034 7A68     		ldr	r2, [r7, #4]
 142 0036 1268     		ldr	r2, [r2]
 143 0038 1268     		ldr	r2, [r2]
 144 003a 22F00102 		bic	r2, r2, #1
 145 003e 1A60     		str	r2, [r3]
 146              	.L6:
 250:Drivers/STM32F3xx_HAL_Driver/Src/stm32f3xx_hal_tim.c ****     
 251:Drivers/STM32F3xx_HAL_Driver/Src/stm32f3xx_hal_tim.c ****   /* DeInit the low level hardware: GPIO, CLOCK, NVIC */
 252:Drivers/STM32F3xx_HAL_Driver/Src/stm32f3xx_hal_tim.c ****   HAL_TIM_Base_MspDeInit(htim);
 147              		.loc 1 252 0 is_stmt 1
 148 0040 7868     		ldr	r0, [r7, #4]
 149 0042 FFF7FEFF 		bl	HAL_TIM_Base_MspDeInit
 253:Drivers/STM32F3xx_HAL_Driver/Src/stm32f3xx_hal_tim.c ****     
ARM GAS  /tmp/ccZyKULX.s 			page 8


 254:Drivers/STM32F3xx_HAL_Driver/Src/stm32f3xx_hal_tim.c ****   /* Change TIM state */  
 255:Drivers/STM32F3xx_HAL_Driver/Src/stm32f3xx_hal_tim.c ****   htim->State = HAL_TIM_STATE_RESET; 
 150              		.loc 1 255 0
 151 0046 7B68     		ldr	r3, [r7, #4]
 152 0048 0022     		movs	r2, #0
 153 004a 83F83920 		strb	r2, [r3, #57]
 256:Drivers/STM32F3xx_HAL_Driver/Src/stm32f3xx_hal_tim.c ****   
 257:Drivers/STM32F3xx_HAL_Driver/Src/stm32f3xx_hal_tim.c ****   /* Release Lock */
 258:Drivers/STM32F3xx_HAL_Driver/Src/stm32f3xx_hal_tim.c ****   __HAL_UNLOCK(htim);
 154              		.loc 1 258 0
 155 004e 7B68     		ldr	r3, [r7, #4]
 156 0050 0022     		movs	r2, #0
 157 0052 83F83820 		strb	r2, [r3, #56]
 259:Drivers/STM32F3xx_HAL_Driver/Src/stm32f3xx_hal_tim.c **** 
 260:Drivers/STM32F3xx_HAL_Driver/Src/stm32f3xx_hal_tim.c ****   return HAL_OK;
 158              		.loc 1 260 0
 159 0056 0023     		movs	r3, #0
 261:Drivers/STM32F3xx_HAL_Driver/Src/stm32f3xx_hal_tim.c **** }
 160              		.loc 1 261 0
 161 0058 1846     		mov	r0, r3
 162 005a 0837     		adds	r7, r7, #8
 163 005c BD46     		mov	sp, r7
 164              		@ sp needed
 165 005e 80BD     		pop	{r7, pc}
 166              		.cfi_endproc
 167              	.LFE126:
 169              		.section	.text.HAL_TIM_Base_MspInit,"ax",%progbits
 170              		.align	2
 171              		.weak	HAL_TIM_Base_MspInit
 172              		.thumb
 173              		.thumb_func
 175              	HAL_TIM_Base_MspInit:
 176              	.LFB127:
 262:Drivers/STM32F3xx_HAL_Driver/Src/stm32f3xx_hal_tim.c **** 
 263:Drivers/STM32F3xx_HAL_Driver/Src/stm32f3xx_hal_tim.c **** /**
 264:Drivers/STM32F3xx_HAL_Driver/Src/stm32f3xx_hal_tim.c ****   * @brief  Initializes the TIM Base MSP.
 265:Drivers/STM32F3xx_HAL_Driver/Src/stm32f3xx_hal_tim.c ****   * @param  htim: TIM handle
 266:Drivers/STM32F3xx_HAL_Driver/Src/stm32f3xx_hal_tim.c ****   * @retval None
 267:Drivers/STM32F3xx_HAL_Driver/Src/stm32f3xx_hal_tim.c ****   */
 268:Drivers/STM32F3xx_HAL_Driver/Src/stm32f3xx_hal_tim.c **** __weak void HAL_TIM_Base_MspInit(TIM_HandleTypeDef *htim)
 269:Drivers/STM32F3xx_HAL_Driver/Src/stm32f3xx_hal_tim.c **** {
 177              		.loc 1 269 0
 178              		.cfi_startproc
 179              		@ args = 0, pretend = 0, frame = 8
 180              		@ frame_needed = 1, uses_anonymous_args = 0
 181              		@ link register save eliminated.
 182 0000 80B4     		push	{r7}
 183              	.LCFI6:
 184              		.cfi_def_cfa_offset 4
 185              		.cfi_offset 7, -4
 186 0002 83B0     		sub	sp, sp, #12
 187              	.LCFI7:
 188              		.cfi_def_cfa_offset 16
 189 0004 00AF     		add	r7, sp, #0
 190              	.LCFI8:
 191              		.cfi_def_cfa_register 7
 192 0006 7860     		str	r0, [r7, #4]
ARM GAS  /tmp/ccZyKULX.s 			page 9


 270:Drivers/STM32F3xx_HAL_Driver/Src/stm32f3xx_hal_tim.c ****   /* Prevent unused argument(s) compilation warning */
 271:Drivers/STM32F3xx_HAL_Driver/Src/stm32f3xx_hal_tim.c ****   UNUSED(htim);
 272:Drivers/STM32F3xx_HAL_Driver/Src/stm32f3xx_hal_tim.c **** 
 273:Drivers/STM32F3xx_HAL_Driver/Src/stm32f3xx_hal_tim.c ****   /* NOTE : This function Should not be modified, when the callback is needed,
 274:Drivers/STM32F3xx_HAL_Driver/Src/stm32f3xx_hal_tim.c ****             the HAL_TIM_Base_MspInit could be implemented in the user file
 275:Drivers/STM32F3xx_HAL_Driver/Src/stm32f3xx_hal_tim.c ****    */
 276:Drivers/STM32F3xx_HAL_Driver/Src/stm32f3xx_hal_tim.c **** }
 193              		.loc 1 276 0
 194 0008 0C37     		adds	r7, r7, #12
 195 000a BD46     		mov	sp, r7
 196              		@ sp needed
 197 000c 5DF8047B 		ldr	r7, [sp], #4
 198 0010 7047     		bx	lr
 199              		.cfi_endproc
 200              	.LFE127:
 202 0012 00BF     		.section	.text.HAL_TIM_Base_MspDeInit,"ax",%progbits
 203              		.align	2
 204              		.weak	HAL_TIM_Base_MspDeInit
 205              		.thumb
 206              		.thumb_func
 208              	HAL_TIM_Base_MspDeInit:
 209              	.LFB128:
 277:Drivers/STM32F3xx_HAL_Driver/Src/stm32f3xx_hal_tim.c **** 
 278:Drivers/STM32F3xx_HAL_Driver/Src/stm32f3xx_hal_tim.c **** /**
 279:Drivers/STM32F3xx_HAL_Driver/Src/stm32f3xx_hal_tim.c ****   * @brief  DeInitializes TIM Base MSP.
 280:Drivers/STM32F3xx_HAL_Driver/Src/stm32f3xx_hal_tim.c ****   * @param  htim: TIM handle
 281:Drivers/STM32F3xx_HAL_Driver/Src/stm32f3xx_hal_tim.c ****   * @retval None
 282:Drivers/STM32F3xx_HAL_Driver/Src/stm32f3xx_hal_tim.c ****   */
 283:Drivers/STM32F3xx_HAL_Driver/Src/stm32f3xx_hal_tim.c **** __weak void HAL_TIM_Base_MspDeInit(TIM_HandleTypeDef *htim)
 284:Drivers/STM32F3xx_HAL_Driver/Src/stm32f3xx_hal_tim.c **** {
 210              		.loc 1 284 0
 211              		.cfi_startproc
 212              		@ args = 0, pretend = 0, frame = 8
 213              		@ frame_needed = 1, uses_anonymous_args = 0
 214              		@ link register save eliminated.
 215 0000 80B4     		push	{r7}
 216              	.LCFI9:
 217              		.cfi_def_cfa_offset 4
 218              		.cfi_offset 7, -4
 219 0002 83B0     		sub	sp, sp, #12
 220              	.LCFI10:
 221              		.cfi_def_cfa_offset 16
 222 0004 00AF     		add	r7, sp, #0
 223              	.LCFI11:
 224              		.cfi_def_cfa_register 7
 225 0006 7860     		str	r0, [r7, #4]
 285:Drivers/STM32F3xx_HAL_Driver/Src/stm32f3xx_hal_tim.c ****   /* Prevent unused argument(s) compilation warning */
 286:Drivers/STM32F3xx_HAL_Driver/Src/stm32f3xx_hal_tim.c ****   UNUSED(htim);
 287:Drivers/STM32F3xx_HAL_Driver/Src/stm32f3xx_hal_tim.c **** 
 288:Drivers/STM32F3xx_HAL_Driver/Src/stm32f3xx_hal_tim.c ****   /* NOTE : This function Should not be modified, when the callback is needed,
 289:Drivers/STM32F3xx_HAL_Driver/Src/stm32f3xx_hal_tim.c ****             the HAL_TIM_Base_MspDeInit could be implemented in the user file
 290:Drivers/STM32F3xx_HAL_Driver/Src/stm32f3xx_hal_tim.c ****    */
 291:Drivers/STM32F3xx_HAL_Driver/Src/stm32f3xx_hal_tim.c **** }
 226              		.loc 1 291 0
 227 0008 0C37     		adds	r7, r7, #12
 228 000a BD46     		mov	sp, r7
 229              		@ sp needed
ARM GAS  /tmp/ccZyKULX.s 			page 10


 230 000c 5DF8047B 		ldr	r7, [sp], #4
 231 0010 7047     		bx	lr
 232              		.cfi_endproc
 233              	.LFE128:
 235 0012 00BF     		.section	.text.HAL_TIM_Base_Start,"ax",%progbits
 236              		.align	2
 237              		.global	HAL_TIM_Base_Start
 238              		.thumb
 239              		.thumb_func
 241              	HAL_TIM_Base_Start:
 242              	.LFB129:
 292:Drivers/STM32F3xx_HAL_Driver/Src/stm32f3xx_hal_tim.c **** 
 293:Drivers/STM32F3xx_HAL_Driver/Src/stm32f3xx_hal_tim.c **** 
 294:Drivers/STM32F3xx_HAL_Driver/Src/stm32f3xx_hal_tim.c **** /**
 295:Drivers/STM32F3xx_HAL_Driver/Src/stm32f3xx_hal_tim.c ****   * @brief  Starts the TIM Base generation.
 296:Drivers/STM32F3xx_HAL_Driver/Src/stm32f3xx_hal_tim.c ****   * @param  htim: TIM handle
 297:Drivers/STM32F3xx_HAL_Driver/Src/stm32f3xx_hal_tim.c ****   * @retval HAL status
 298:Drivers/STM32F3xx_HAL_Driver/Src/stm32f3xx_hal_tim.c **** */
 299:Drivers/STM32F3xx_HAL_Driver/Src/stm32f3xx_hal_tim.c **** HAL_StatusTypeDef HAL_TIM_Base_Start(TIM_HandleTypeDef *htim)
 300:Drivers/STM32F3xx_HAL_Driver/Src/stm32f3xx_hal_tim.c **** {
 243              		.loc 1 300 0
 244              		.cfi_startproc
 245              		@ args = 0, pretend = 0, frame = 8
 246              		@ frame_needed = 1, uses_anonymous_args = 0
 247              		@ link register save eliminated.
 248 0000 80B4     		push	{r7}
 249              	.LCFI12:
 250              		.cfi_def_cfa_offset 4
 251              		.cfi_offset 7, -4
 252 0002 83B0     		sub	sp, sp, #12
 253              	.LCFI13:
 254              		.cfi_def_cfa_offset 16
 255 0004 00AF     		add	r7, sp, #0
 256              	.LCFI14:
 257              		.cfi_def_cfa_register 7
 258 0006 7860     		str	r0, [r7, #4]
 301:Drivers/STM32F3xx_HAL_Driver/Src/stm32f3xx_hal_tim.c ****   /* Check the parameters */
 302:Drivers/STM32F3xx_HAL_Driver/Src/stm32f3xx_hal_tim.c ****   assert_param(IS_TIM_INSTANCE(htim->Instance));
 303:Drivers/STM32F3xx_HAL_Driver/Src/stm32f3xx_hal_tim.c ****   
 304:Drivers/STM32F3xx_HAL_Driver/Src/stm32f3xx_hal_tim.c ****   /* Set the TIM state */
 305:Drivers/STM32F3xx_HAL_Driver/Src/stm32f3xx_hal_tim.c ****   htim->State= HAL_TIM_STATE_BUSY;
 259              		.loc 1 305 0
 260 0008 7B68     		ldr	r3, [r7, #4]
 261 000a 0222     		movs	r2, #2
 262 000c 83F83920 		strb	r2, [r3, #57]
 306:Drivers/STM32F3xx_HAL_Driver/Src/stm32f3xx_hal_tim.c ****   
 307:Drivers/STM32F3xx_HAL_Driver/Src/stm32f3xx_hal_tim.c ****   /* Enable the Peripheral */
 308:Drivers/STM32F3xx_HAL_Driver/Src/stm32f3xx_hal_tim.c ****   __HAL_TIM_ENABLE(htim);
 263              		.loc 1 308 0
 264 0010 7B68     		ldr	r3, [r7, #4]
 265 0012 1B68     		ldr	r3, [r3]
 266 0014 7A68     		ldr	r2, [r7, #4]
 267 0016 1268     		ldr	r2, [r2]
 268 0018 1268     		ldr	r2, [r2]
 269 001a 42F00102 		orr	r2, r2, #1
 270 001e 1A60     		str	r2, [r3]
 309:Drivers/STM32F3xx_HAL_Driver/Src/stm32f3xx_hal_tim.c ****   
ARM GAS  /tmp/ccZyKULX.s 			page 11


 310:Drivers/STM32F3xx_HAL_Driver/Src/stm32f3xx_hal_tim.c ****   /* Change the TIM state*/
 311:Drivers/STM32F3xx_HAL_Driver/Src/stm32f3xx_hal_tim.c ****   htim->State= HAL_TIM_STATE_READY;
 271              		.loc 1 311 0
 272 0020 7B68     		ldr	r3, [r7, #4]
 273 0022 0122     		movs	r2, #1
 274 0024 83F83920 		strb	r2, [r3, #57]
 312:Drivers/STM32F3xx_HAL_Driver/Src/stm32f3xx_hal_tim.c ****   
 313:Drivers/STM32F3xx_HAL_Driver/Src/stm32f3xx_hal_tim.c ****   /* Return function status */
 314:Drivers/STM32F3xx_HAL_Driver/Src/stm32f3xx_hal_tim.c ****   return HAL_OK;
 275              		.loc 1 314 0
 276 0028 0023     		movs	r3, #0
 315:Drivers/STM32F3xx_HAL_Driver/Src/stm32f3xx_hal_tim.c **** }
 277              		.loc 1 315 0
 278 002a 1846     		mov	r0, r3
 279 002c 0C37     		adds	r7, r7, #12
 280 002e BD46     		mov	sp, r7
 281              		@ sp needed
 282 0030 5DF8047B 		ldr	r7, [sp], #4
 283 0034 7047     		bx	lr
 284              		.cfi_endproc
 285              	.LFE129:
 287 0036 00BF     		.section	.text.HAL_TIM_Base_Stop,"ax",%progbits
 288              		.align	2
 289              		.global	HAL_TIM_Base_Stop
 290              		.thumb
 291              		.thumb_func
 293              	HAL_TIM_Base_Stop:
 294              	.LFB130:
 316:Drivers/STM32F3xx_HAL_Driver/Src/stm32f3xx_hal_tim.c **** 
 317:Drivers/STM32F3xx_HAL_Driver/Src/stm32f3xx_hal_tim.c **** /**
 318:Drivers/STM32F3xx_HAL_Driver/Src/stm32f3xx_hal_tim.c ****   * @brief  Stops the TIM Base generation.
 319:Drivers/STM32F3xx_HAL_Driver/Src/stm32f3xx_hal_tim.c ****   * @param  htim: TIM handle
 320:Drivers/STM32F3xx_HAL_Driver/Src/stm32f3xx_hal_tim.c ****   * @retval HAL status
 321:Drivers/STM32F3xx_HAL_Driver/Src/stm32f3xx_hal_tim.c **** */
 322:Drivers/STM32F3xx_HAL_Driver/Src/stm32f3xx_hal_tim.c **** HAL_StatusTypeDef HAL_TIM_Base_Stop(TIM_HandleTypeDef *htim)
 323:Drivers/STM32F3xx_HAL_Driver/Src/stm32f3xx_hal_tim.c **** {
 295              		.loc 1 323 0
 296              		.cfi_startproc
 297              		@ args = 0, pretend = 0, frame = 8
 298              		@ frame_needed = 1, uses_anonymous_args = 0
 299              		@ link register save eliminated.
 300 0000 80B4     		push	{r7}
 301              	.LCFI15:
 302              		.cfi_def_cfa_offset 4
 303              		.cfi_offset 7, -4
 304 0002 83B0     		sub	sp, sp, #12
 305              	.LCFI16:
 306              		.cfi_def_cfa_offset 16
 307 0004 00AF     		add	r7, sp, #0
 308              	.LCFI17:
 309              		.cfi_def_cfa_register 7
 310 0006 7860     		str	r0, [r7, #4]
 324:Drivers/STM32F3xx_HAL_Driver/Src/stm32f3xx_hal_tim.c ****   /* Check the parameters */
 325:Drivers/STM32F3xx_HAL_Driver/Src/stm32f3xx_hal_tim.c ****   assert_param(IS_TIM_INSTANCE(htim->Instance));
 326:Drivers/STM32F3xx_HAL_Driver/Src/stm32f3xx_hal_tim.c ****   
 327:Drivers/STM32F3xx_HAL_Driver/Src/stm32f3xx_hal_tim.c ****   /* Set the TIM state */
 328:Drivers/STM32F3xx_HAL_Driver/Src/stm32f3xx_hal_tim.c ****   htim->State= HAL_TIM_STATE_BUSY;
ARM GAS  /tmp/ccZyKULX.s 			page 12


 311              		.loc 1 328 0
 312 0008 7B68     		ldr	r3, [r7, #4]
 313 000a 0222     		movs	r2, #2
 314 000c 83F83920 		strb	r2, [r3, #57]
 329:Drivers/STM32F3xx_HAL_Driver/Src/stm32f3xx_hal_tim.c ****   
 330:Drivers/STM32F3xx_HAL_Driver/Src/stm32f3xx_hal_tim.c ****   /* Disable the Peripheral */
 331:Drivers/STM32F3xx_HAL_Driver/Src/stm32f3xx_hal_tim.c ****   __HAL_TIM_DISABLE(htim);
 315              		.loc 1 331 0
 316 0010 7B68     		ldr	r3, [r7, #4]
 317 0012 1B68     		ldr	r3, [r3]
 318 0014 1A6A     		ldr	r2, [r3, #32]
 319 0016 41F21113 		movw	r3, #4369
 320 001a 1340     		ands	r3, r3, r2
 321 001c 002B     		cmp	r3, #0
 322 001e 0FD1     		bne	.L13
 323              		.loc 1 331 0 is_stmt 0 discriminator 1
 324 0020 7B68     		ldr	r3, [r7, #4]
 325 0022 1B68     		ldr	r3, [r3]
 326 0024 1A6A     		ldr	r2, [r3, #32]
 327 0026 40F24443 		movw	r3, #1092
 328 002a 1340     		ands	r3, r3, r2
 329 002c 002B     		cmp	r3, #0
 330 002e 07D1     		bne	.L13
 331 0030 7B68     		ldr	r3, [r7, #4]
 332 0032 1B68     		ldr	r3, [r3]
 333 0034 7A68     		ldr	r2, [r7, #4]
 334 0036 1268     		ldr	r2, [r2]
 335 0038 1268     		ldr	r2, [r2]
 336 003a 22F00102 		bic	r2, r2, #1
 337 003e 1A60     		str	r2, [r3]
 338              	.L13:
 332:Drivers/STM32F3xx_HAL_Driver/Src/stm32f3xx_hal_tim.c ****   
 333:Drivers/STM32F3xx_HAL_Driver/Src/stm32f3xx_hal_tim.c ****   /* Change the TIM state*/
 334:Drivers/STM32F3xx_HAL_Driver/Src/stm32f3xx_hal_tim.c ****   htim->State= HAL_TIM_STATE_READY;
 339              		.loc 1 334 0 is_stmt 1
 340 0040 7B68     		ldr	r3, [r7, #4]
 341 0042 0122     		movs	r2, #1
 342 0044 83F83920 		strb	r2, [r3, #57]
 335:Drivers/STM32F3xx_HAL_Driver/Src/stm32f3xx_hal_tim.c ****   
 336:Drivers/STM32F3xx_HAL_Driver/Src/stm32f3xx_hal_tim.c ****   /* Return function status */
 337:Drivers/STM32F3xx_HAL_Driver/Src/stm32f3xx_hal_tim.c ****   return HAL_OK;
 343              		.loc 1 337 0
 344 0048 0023     		movs	r3, #0
 338:Drivers/STM32F3xx_HAL_Driver/Src/stm32f3xx_hal_tim.c **** }
 345              		.loc 1 338 0
 346 004a 1846     		mov	r0, r3
 347 004c 0C37     		adds	r7, r7, #12
 348 004e BD46     		mov	sp, r7
 349              		@ sp needed
 350 0050 5DF8047B 		ldr	r7, [sp], #4
 351 0054 7047     		bx	lr
 352              		.cfi_endproc
 353              	.LFE130:
 355 0056 00BF     		.section	.text.HAL_TIM_Base_Start_IT,"ax",%progbits
 356              		.align	2
 357              		.global	HAL_TIM_Base_Start_IT
 358              		.thumb
ARM GAS  /tmp/ccZyKULX.s 			page 13


 359              		.thumb_func
 361              	HAL_TIM_Base_Start_IT:
 362              	.LFB131:
 339:Drivers/STM32F3xx_HAL_Driver/Src/stm32f3xx_hal_tim.c **** 
 340:Drivers/STM32F3xx_HAL_Driver/Src/stm32f3xx_hal_tim.c **** /**
 341:Drivers/STM32F3xx_HAL_Driver/Src/stm32f3xx_hal_tim.c ****   * @brief  Starts the TIM Base generation in interrupt mode.
 342:Drivers/STM32F3xx_HAL_Driver/Src/stm32f3xx_hal_tim.c ****   * @param  htim: TIM handle
 343:Drivers/STM32F3xx_HAL_Driver/Src/stm32f3xx_hal_tim.c ****   * @retval HAL status
 344:Drivers/STM32F3xx_HAL_Driver/Src/stm32f3xx_hal_tim.c **** */
 345:Drivers/STM32F3xx_HAL_Driver/Src/stm32f3xx_hal_tim.c **** HAL_StatusTypeDef HAL_TIM_Base_Start_IT(TIM_HandleTypeDef *htim)
 346:Drivers/STM32F3xx_HAL_Driver/Src/stm32f3xx_hal_tim.c **** {
 363              		.loc 1 346 0
 364              		.cfi_startproc
 365              		@ args = 0, pretend = 0, frame = 8
 366              		@ frame_needed = 1, uses_anonymous_args = 0
 367              		@ link register save eliminated.
 368 0000 80B4     		push	{r7}
 369              	.LCFI18:
 370              		.cfi_def_cfa_offset 4
 371              		.cfi_offset 7, -4
 372 0002 83B0     		sub	sp, sp, #12
 373              	.LCFI19:
 374              		.cfi_def_cfa_offset 16
 375 0004 00AF     		add	r7, sp, #0
 376              	.LCFI20:
 377              		.cfi_def_cfa_register 7
 378 0006 7860     		str	r0, [r7, #4]
 347:Drivers/STM32F3xx_HAL_Driver/Src/stm32f3xx_hal_tim.c ****   /* Check the parameters */
 348:Drivers/STM32F3xx_HAL_Driver/Src/stm32f3xx_hal_tim.c ****   assert_param(IS_TIM_INSTANCE(htim->Instance));
 349:Drivers/STM32F3xx_HAL_Driver/Src/stm32f3xx_hal_tim.c ****   
 350:Drivers/STM32F3xx_HAL_Driver/Src/stm32f3xx_hal_tim.c ****    /* Enable the TIM Update interrupt */
 351:Drivers/STM32F3xx_HAL_Driver/Src/stm32f3xx_hal_tim.c ****    __HAL_TIM_ENABLE_IT(htim, TIM_IT_UPDATE);
 379              		.loc 1 351 0
 380 0008 7B68     		ldr	r3, [r7, #4]
 381 000a 1B68     		ldr	r3, [r3]
 382 000c 7A68     		ldr	r2, [r7, #4]
 383 000e 1268     		ldr	r2, [r2]
 384 0010 D268     		ldr	r2, [r2, #12]
 385 0012 42F00102 		orr	r2, r2, #1
 386 0016 DA60     		str	r2, [r3, #12]
 352:Drivers/STM32F3xx_HAL_Driver/Src/stm32f3xx_hal_tim.c ****       
 353:Drivers/STM32F3xx_HAL_Driver/Src/stm32f3xx_hal_tim.c ****    /* Enable the Peripheral */
 354:Drivers/STM32F3xx_HAL_Driver/Src/stm32f3xx_hal_tim.c ****   __HAL_TIM_ENABLE(htim);
 387              		.loc 1 354 0
 388 0018 7B68     		ldr	r3, [r7, #4]
 389 001a 1B68     		ldr	r3, [r3]
 390 001c 7A68     		ldr	r2, [r7, #4]
 391 001e 1268     		ldr	r2, [r2]
 392 0020 1268     		ldr	r2, [r2]
 393 0022 42F00102 		orr	r2, r2, #1
 394 0026 1A60     		str	r2, [r3]
 355:Drivers/STM32F3xx_HAL_Driver/Src/stm32f3xx_hal_tim.c ****       
 356:Drivers/STM32F3xx_HAL_Driver/Src/stm32f3xx_hal_tim.c ****   /* Return function status */
 357:Drivers/STM32F3xx_HAL_Driver/Src/stm32f3xx_hal_tim.c ****   return HAL_OK;
 395              		.loc 1 357 0
 396 0028 0023     		movs	r3, #0
 358:Drivers/STM32F3xx_HAL_Driver/Src/stm32f3xx_hal_tim.c **** }
ARM GAS  /tmp/ccZyKULX.s 			page 14


 397              		.loc 1 358 0
 398 002a 1846     		mov	r0, r3
 399 002c 0C37     		adds	r7, r7, #12
 400 002e BD46     		mov	sp, r7
 401              		@ sp needed
 402 0030 5DF8047B 		ldr	r7, [sp], #4
 403 0034 7047     		bx	lr
 404              		.cfi_endproc
 405              	.LFE131:
 407 0036 00BF     		.section	.text.HAL_TIM_Base_Stop_IT,"ax",%progbits
 408              		.align	2
 409              		.global	HAL_TIM_Base_Stop_IT
 410              		.thumb
 411              		.thumb_func
 413              	HAL_TIM_Base_Stop_IT:
 414              	.LFB132:
 359:Drivers/STM32F3xx_HAL_Driver/Src/stm32f3xx_hal_tim.c **** 
 360:Drivers/STM32F3xx_HAL_Driver/Src/stm32f3xx_hal_tim.c **** /**
 361:Drivers/STM32F3xx_HAL_Driver/Src/stm32f3xx_hal_tim.c ****   * @brief  Stops the TIM Base generation in interrupt mode.
 362:Drivers/STM32F3xx_HAL_Driver/Src/stm32f3xx_hal_tim.c ****   * @param  htim: TIM handle
 363:Drivers/STM32F3xx_HAL_Driver/Src/stm32f3xx_hal_tim.c ****   * @retval HAL status
 364:Drivers/STM32F3xx_HAL_Driver/Src/stm32f3xx_hal_tim.c **** */
 365:Drivers/STM32F3xx_HAL_Driver/Src/stm32f3xx_hal_tim.c **** HAL_StatusTypeDef HAL_TIM_Base_Stop_IT(TIM_HandleTypeDef *htim)
 366:Drivers/STM32F3xx_HAL_Driver/Src/stm32f3xx_hal_tim.c **** {
 415              		.loc 1 366 0
 416              		.cfi_startproc
 417              		@ args = 0, pretend = 0, frame = 8
 418              		@ frame_needed = 1, uses_anonymous_args = 0
 419              		@ link register save eliminated.
 420 0000 80B4     		push	{r7}
 421              	.LCFI21:
 422              		.cfi_def_cfa_offset 4
 423              		.cfi_offset 7, -4
 424 0002 83B0     		sub	sp, sp, #12
 425              	.LCFI22:
 426              		.cfi_def_cfa_offset 16
 427 0004 00AF     		add	r7, sp, #0
 428              	.LCFI23:
 429              		.cfi_def_cfa_register 7
 430 0006 7860     		str	r0, [r7, #4]
 367:Drivers/STM32F3xx_HAL_Driver/Src/stm32f3xx_hal_tim.c ****   /* Check the parameters */
 368:Drivers/STM32F3xx_HAL_Driver/Src/stm32f3xx_hal_tim.c ****   assert_param(IS_TIM_INSTANCE(htim->Instance));
 369:Drivers/STM32F3xx_HAL_Driver/Src/stm32f3xx_hal_tim.c ****   /* Disable the TIM Update interrupt */
 370:Drivers/STM32F3xx_HAL_Driver/Src/stm32f3xx_hal_tim.c ****   __HAL_TIM_DISABLE_IT(htim, TIM_IT_UPDATE);
 431              		.loc 1 370 0
 432 0008 7B68     		ldr	r3, [r7, #4]
 433 000a 1B68     		ldr	r3, [r3]
 434 000c 7A68     		ldr	r2, [r7, #4]
 435 000e 1268     		ldr	r2, [r2]
 436 0010 D268     		ldr	r2, [r2, #12]
 437 0012 22F00102 		bic	r2, r2, #1
 438 0016 DA60     		str	r2, [r3, #12]
 371:Drivers/STM32F3xx_HAL_Driver/Src/stm32f3xx_hal_tim.c ****       
 372:Drivers/STM32F3xx_HAL_Driver/Src/stm32f3xx_hal_tim.c ****   /* Disable the Peripheral */
 373:Drivers/STM32F3xx_HAL_Driver/Src/stm32f3xx_hal_tim.c ****   __HAL_TIM_DISABLE(htim);
 439              		.loc 1 373 0
 440 0018 7B68     		ldr	r3, [r7, #4]
ARM GAS  /tmp/ccZyKULX.s 			page 15


 441 001a 1B68     		ldr	r3, [r3]
 442 001c 1A6A     		ldr	r2, [r3, #32]
 443 001e 41F21113 		movw	r3, #4369
 444 0022 1340     		ands	r3, r3, r2
 445 0024 002B     		cmp	r3, #0
 446 0026 0FD1     		bne	.L18
 447              		.loc 1 373 0 is_stmt 0 discriminator 1
 448 0028 7B68     		ldr	r3, [r7, #4]
 449 002a 1B68     		ldr	r3, [r3]
 450 002c 1A6A     		ldr	r2, [r3, #32]
 451 002e 40F24443 		movw	r3, #1092
 452 0032 1340     		ands	r3, r3, r2
 453 0034 002B     		cmp	r3, #0
 454 0036 07D1     		bne	.L18
 455 0038 7B68     		ldr	r3, [r7, #4]
 456 003a 1B68     		ldr	r3, [r3]
 457 003c 7A68     		ldr	r2, [r7, #4]
 458 003e 1268     		ldr	r2, [r2]
 459 0040 1268     		ldr	r2, [r2]
 460 0042 22F00102 		bic	r2, r2, #1
 461 0046 1A60     		str	r2, [r3]
 462              	.L18:
 374:Drivers/STM32F3xx_HAL_Driver/Src/stm32f3xx_hal_tim.c ****     
 375:Drivers/STM32F3xx_HAL_Driver/Src/stm32f3xx_hal_tim.c ****   /* Return function status */
 376:Drivers/STM32F3xx_HAL_Driver/Src/stm32f3xx_hal_tim.c ****   return HAL_OK;
 463              		.loc 1 376 0 is_stmt 1
 464 0048 0023     		movs	r3, #0
 377:Drivers/STM32F3xx_HAL_Driver/Src/stm32f3xx_hal_tim.c **** }
 465              		.loc 1 377 0
 466 004a 1846     		mov	r0, r3
 467 004c 0C37     		adds	r7, r7, #12
 468 004e BD46     		mov	sp, r7
 469              		@ sp needed
 470 0050 5DF8047B 		ldr	r7, [sp], #4
 471 0054 7047     		bx	lr
 472              		.cfi_endproc
 473              	.LFE132:
 475 0056 00BF     		.section	.text.HAL_TIM_Base_Start_DMA,"ax",%progbits
 476              		.align	2
 477              		.global	HAL_TIM_Base_Start_DMA
 478              		.thumb
 479              		.thumb_func
 481              	HAL_TIM_Base_Start_DMA:
 482              	.LFB133:
 378:Drivers/STM32F3xx_HAL_Driver/Src/stm32f3xx_hal_tim.c **** 
 379:Drivers/STM32F3xx_HAL_Driver/Src/stm32f3xx_hal_tim.c **** /**
 380:Drivers/STM32F3xx_HAL_Driver/Src/stm32f3xx_hal_tim.c ****   * @brief  Starts the TIM Base generation in DMA mode.
 381:Drivers/STM32F3xx_HAL_Driver/Src/stm32f3xx_hal_tim.c ****   * @param  htim: TIM handle
 382:Drivers/STM32F3xx_HAL_Driver/Src/stm32f3xx_hal_tim.c ****   * @param  pData: The source Buffer address.
 383:Drivers/STM32F3xx_HAL_Driver/Src/stm32f3xx_hal_tim.c ****   * @param  Length: The length of data to be transferred from memory to peripheral.
 384:Drivers/STM32F3xx_HAL_Driver/Src/stm32f3xx_hal_tim.c ****   * @retval HAL status
 385:Drivers/STM32F3xx_HAL_Driver/Src/stm32f3xx_hal_tim.c **** */
 386:Drivers/STM32F3xx_HAL_Driver/Src/stm32f3xx_hal_tim.c **** HAL_StatusTypeDef HAL_TIM_Base_Start_DMA(TIM_HandleTypeDef *htim, uint32_t *pData, uint16_t Length)
 387:Drivers/STM32F3xx_HAL_Driver/Src/stm32f3xx_hal_tim.c **** { 
 483              		.loc 1 387 0
 484              		.cfi_startproc
 485              		@ args = 0, pretend = 0, frame = 16
ARM GAS  /tmp/ccZyKULX.s 			page 16


 486              		@ frame_needed = 1, uses_anonymous_args = 0
 487 0000 80B5     		push	{r7, lr}
 488              	.LCFI24:
 489              		.cfi_def_cfa_offset 8
 490              		.cfi_offset 7, -8
 491              		.cfi_offset 14, -4
 492 0002 84B0     		sub	sp, sp, #16
 493              	.LCFI25:
 494              		.cfi_def_cfa_offset 24
 495 0004 00AF     		add	r7, sp, #0
 496              	.LCFI26:
 497              		.cfi_def_cfa_register 7
 498 0006 F860     		str	r0, [r7, #12]
 499 0008 B960     		str	r1, [r7, #8]
 500 000a 1346     		mov	r3, r2
 501 000c FB80     		strh	r3, [r7, #6]	@ movhi
 388:Drivers/STM32F3xx_HAL_Driver/Src/stm32f3xx_hal_tim.c ****   /* Check the parameters */
 389:Drivers/STM32F3xx_HAL_Driver/Src/stm32f3xx_hal_tim.c ****   assert_param(IS_TIM_DMA_INSTANCE(htim->Instance)); 
 390:Drivers/STM32F3xx_HAL_Driver/Src/stm32f3xx_hal_tim.c ****   
 391:Drivers/STM32F3xx_HAL_Driver/Src/stm32f3xx_hal_tim.c ****   if((htim->State == HAL_TIM_STATE_BUSY))
 502              		.loc 1 391 0
 503 000e FB68     		ldr	r3, [r7, #12]
 504 0010 93F83930 		ldrb	r3, [r3, #57]
 505 0014 DBB2     		uxtb	r3, r3
 506 0016 022B     		cmp	r3, #2
 507 0018 01D1     		bne	.L21
 392:Drivers/STM32F3xx_HAL_Driver/Src/stm32f3xx_hal_tim.c ****   {
 393:Drivers/STM32F3xx_HAL_Driver/Src/stm32f3xx_hal_tim.c ****      return HAL_BUSY;
 508              		.loc 1 393 0
 509 001a 0223     		movs	r3, #2
 510 001c 34E0     		b	.L22
 511              	.L21:
 394:Drivers/STM32F3xx_HAL_Driver/Src/stm32f3xx_hal_tim.c ****   }
 395:Drivers/STM32F3xx_HAL_Driver/Src/stm32f3xx_hal_tim.c ****   else if((htim->State == HAL_TIM_STATE_READY))
 512              		.loc 1 395 0
 513 001e FB68     		ldr	r3, [r7, #12]
 514 0020 93F83930 		ldrb	r3, [r3, #57]
 515 0024 DBB2     		uxtb	r3, r3
 516 0026 012B     		cmp	r3, #1
 517 0028 0BD1     		bne	.L23
 396:Drivers/STM32F3xx_HAL_Driver/Src/stm32f3xx_hal_tim.c ****   {
 397:Drivers/STM32F3xx_HAL_Driver/Src/stm32f3xx_hal_tim.c ****     if((pData == 0 ) && (Length > 0)) 
 518              		.loc 1 397 0
 519 002a BB68     		ldr	r3, [r7, #8]
 520 002c 002B     		cmp	r3, #0
 521 002e 04D1     		bne	.L24
 522              		.loc 1 397 0 is_stmt 0 discriminator 1
 523 0030 FB88     		ldrh	r3, [r7, #6]
 524 0032 002B     		cmp	r3, #0
 525 0034 01D0     		beq	.L24
 398:Drivers/STM32F3xx_HAL_Driver/Src/stm32f3xx_hal_tim.c ****     {
 399:Drivers/STM32F3xx_HAL_Driver/Src/stm32f3xx_hal_tim.c ****       return HAL_ERROR;                                    
 526              		.loc 1 399 0 is_stmt 1
 527 0036 0123     		movs	r3, #1
 528 0038 26E0     		b	.L22
 529              	.L24:
 400:Drivers/STM32F3xx_HAL_Driver/Src/stm32f3xx_hal_tim.c ****     }
ARM GAS  /tmp/ccZyKULX.s 			page 17


 401:Drivers/STM32F3xx_HAL_Driver/Src/stm32f3xx_hal_tim.c ****     else
 402:Drivers/STM32F3xx_HAL_Driver/Src/stm32f3xx_hal_tim.c ****     {
 403:Drivers/STM32F3xx_HAL_Driver/Src/stm32f3xx_hal_tim.c ****       htim->State = HAL_TIM_STATE_BUSY;
 530              		.loc 1 403 0
 531 003a FB68     		ldr	r3, [r7, #12]
 532 003c 0222     		movs	r2, #2
 533 003e 83F83920 		strb	r2, [r3, #57]
 534              	.L23:
 404:Drivers/STM32F3xx_HAL_Driver/Src/stm32f3xx_hal_tim.c ****     }
 405:Drivers/STM32F3xx_HAL_Driver/Src/stm32f3xx_hal_tim.c ****   }  
 406:Drivers/STM32F3xx_HAL_Driver/Src/stm32f3xx_hal_tim.c ****   /* Set the DMA Period elapsed callback */
 407:Drivers/STM32F3xx_HAL_Driver/Src/stm32f3xx_hal_tim.c ****   htim->hdma[TIM_DMA_ID_UPDATE]->XferCpltCallback = TIM_DMAPeriodElapsedCplt;
 535              		.loc 1 407 0
 536 0042 FB68     		ldr	r3, [r7, #12]
 537 0044 DB69     		ldr	r3, [r3, #28]
 538 0046 124A     		ldr	r2, .L25
 539 0048 9A62     		str	r2, [r3, #40]
 408:Drivers/STM32F3xx_HAL_Driver/Src/stm32f3xx_hal_tim.c ****      
 409:Drivers/STM32F3xx_HAL_Driver/Src/stm32f3xx_hal_tim.c ****   /* Set the DMA error callback */
 410:Drivers/STM32F3xx_HAL_Driver/Src/stm32f3xx_hal_tim.c ****   htim->hdma[TIM_DMA_ID_UPDATE]->XferErrorCallback = TIM_DMAError ;
 540              		.loc 1 410 0
 541 004a FB68     		ldr	r3, [r7, #12]
 542 004c DB69     		ldr	r3, [r3, #28]
 543 004e 114A     		ldr	r2, .L25+4
 544 0050 1A63     		str	r2, [r3, #48]
 411:Drivers/STM32F3xx_HAL_Driver/Src/stm32f3xx_hal_tim.c ****   
 412:Drivers/STM32F3xx_HAL_Driver/Src/stm32f3xx_hal_tim.c ****   /* Enable the DMA channel */
 413:Drivers/STM32F3xx_HAL_Driver/Src/stm32f3xx_hal_tim.c ****   HAL_DMA_Start_IT(htim->hdma[TIM_DMA_ID_UPDATE], (uint32_t)pData, (uint32_t)&htim->Instance->ARR, 
 545              		.loc 1 413 0
 546 0052 FB68     		ldr	r3, [r7, #12]
 547 0054 D869     		ldr	r0, [r3, #28]
 548 0056 B968     		ldr	r1, [r7, #8]
 549 0058 FB68     		ldr	r3, [r7, #12]
 550 005a 1B68     		ldr	r3, [r3]
 551 005c 2C33     		adds	r3, r3, #44
 552 005e 1A46     		mov	r2, r3
 553 0060 FB88     		ldrh	r3, [r7, #6]
 554 0062 FFF7FEFF 		bl	HAL_DMA_Start_IT
 414:Drivers/STM32F3xx_HAL_Driver/Src/stm32f3xx_hal_tim.c ****   
 415:Drivers/STM32F3xx_HAL_Driver/Src/stm32f3xx_hal_tim.c ****   /* Enable the TIM Update DMA request */
 416:Drivers/STM32F3xx_HAL_Driver/Src/stm32f3xx_hal_tim.c ****   __HAL_TIM_ENABLE_DMA(htim, TIM_DMA_UPDATE);
 555              		.loc 1 416 0
 556 0066 FB68     		ldr	r3, [r7, #12]
 557 0068 1B68     		ldr	r3, [r3]
 558 006a FA68     		ldr	r2, [r7, #12]
 559 006c 1268     		ldr	r2, [r2]
 560 006e D268     		ldr	r2, [r2, #12]
 561 0070 42F48072 		orr	r2, r2, #256
 562 0074 DA60     		str	r2, [r3, #12]
 417:Drivers/STM32F3xx_HAL_Driver/Src/stm32f3xx_hal_tim.c **** 
 418:Drivers/STM32F3xx_HAL_Driver/Src/stm32f3xx_hal_tim.c ****   /* Enable the Peripheral */
 419:Drivers/STM32F3xx_HAL_Driver/Src/stm32f3xx_hal_tim.c ****   __HAL_TIM_ENABLE(htim);  
 563              		.loc 1 419 0
 564 0076 FB68     		ldr	r3, [r7, #12]
 565 0078 1B68     		ldr	r3, [r3]
 566 007a FA68     		ldr	r2, [r7, #12]
 567 007c 1268     		ldr	r2, [r2]
ARM GAS  /tmp/ccZyKULX.s 			page 18


 568 007e 1268     		ldr	r2, [r2]
 569 0080 42F00102 		orr	r2, r2, #1
 570 0084 1A60     		str	r2, [r3]
 420:Drivers/STM32F3xx_HAL_Driver/Src/stm32f3xx_hal_tim.c ****   
 421:Drivers/STM32F3xx_HAL_Driver/Src/stm32f3xx_hal_tim.c ****   /* Return function status */
 422:Drivers/STM32F3xx_HAL_Driver/Src/stm32f3xx_hal_tim.c ****   return HAL_OK;
 571              		.loc 1 422 0
 572 0086 0023     		movs	r3, #0
 573              	.L22:
 423:Drivers/STM32F3xx_HAL_Driver/Src/stm32f3xx_hal_tim.c **** }
 574              		.loc 1 423 0
 575 0088 1846     		mov	r0, r3
 576 008a 1037     		adds	r7, r7, #16
 577 008c BD46     		mov	sp, r7
 578              		@ sp needed
 579 008e 80BD     		pop	{r7, pc}
 580              	.L26:
 581              		.align	2
 582              	.L25:
 583 0090 00000000 		.word	TIM_DMAPeriodElapsedCplt
 584 0094 00000000 		.word	TIM_DMAError
 585              		.cfi_endproc
 586              	.LFE133:
 588              		.section	.text.HAL_TIM_Base_Stop_DMA,"ax",%progbits
 589              		.align	2
 590              		.global	HAL_TIM_Base_Stop_DMA
 591              		.thumb
 592              		.thumb_func
 594              	HAL_TIM_Base_Stop_DMA:
 595              	.LFB134:
 424:Drivers/STM32F3xx_HAL_Driver/Src/stm32f3xx_hal_tim.c **** 
 425:Drivers/STM32F3xx_HAL_Driver/Src/stm32f3xx_hal_tim.c **** /**
 426:Drivers/STM32F3xx_HAL_Driver/Src/stm32f3xx_hal_tim.c ****   * @brief  Stops the TIM Base generation in DMA mode.
 427:Drivers/STM32F3xx_HAL_Driver/Src/stm32f3xx_hal_tim.c ****   * @param  htim: TIM handle
 428:Drivers/STM32F3xx_HAL_Driver/Src/stm32f3xx_hal_tim.c ****   * @retval HAL status
 429:Drivers/STM32F3xx_HAL_Driver/Src/stm32f3xx_hal_tim.c **** */
 430:Drivers/STM32F3xx_HAL_Driver/Src/stm32f3xx_hal_tim.c **** HAL_StatusTypeDef HAL_TIM_Base_Stop_DMA(TIM_HandleTypeDef *htim)
 431:Drivers/STM32F3xx_HAL_Driver/Src/stm32f3xx_hal_tim.c **** {
 596              		.loc 1 431 0
 597              		.cfi_startproc
 598              		@ args = 0, pretend = 0, frame = 8
 599              		@ frame_needed = 1, uses_anonymous_args = 0
 600              		@ link register save eliminated.
 601 0000 80B4     		push	{r7}
 602              	.LCFI27:
 603              		.cfi_def_cfa_offset 4
 604              		.cfi_offset 7, -4
 605 0002 83B0     		sub	sp, sp, #12
 606              	.LCFI28:
 607              		.cfi_def_cfa_offset 16
 608 0004 00AF     		add	r7, sp, #0
 609              	.LCFI29:
 610              		.cfi_def_cfa_register 7
 611 0006 7860     		str	r0, [r7, #4]
 432:Drivers/STM32F3xx_HAL_Driver/Src/stm32f3xx_hal_tim.c ****   /* Check the parameters */
 433:Drivers/STM32F3xx_HAL_Driver/Src/stm32f3xx_hal_tim.c ****   assert_param(IS_TIM_DMA_INSTANCE(htim->Instance));
 434:Drivers/STM32F3xx_HAL_Driver/Src/stm32f3xx_hal_tim.c ****   
ARM GAS  /tmp/ccZyKULX.s 			page 19


 435:Drivers/STM32F3xx_HAL_Driver/Src/stm32f3xx_hal_tim.c ****   /* Disable the TIM Update DMA request */
 436:Drivers/STM32F3xx_HAL_Driver/Src/stm32f3xx_hal_tim.c ****   __HAL_TIM_DISABLE_DMA(htim, TIM_DMA_UPDATE);
 612              		.loc 1 436 0
 613 0008 7B68     		ldr	r3, [r7, #4]
 614 000a 1B68     		ldr	r3, [r3]
 615 000c 7A68     		ldr	r2, [r7, #4]
 616 000e 1268     		ldr	r2, [r2]
 617 0010 D268     		ldr	r2, [r2, #12]
 618 0012 22F48072 		bic	r2, r2, #256
 619 0016 DA60     		str	r2, [r3, #12]
 437:Drivers/STM32F3xx_HAL_Driver/Src/stm32f3xx_hal_tim.c ****       
 438:Drivers/STM32F3xx_HAL_Driver/Src/stm32f3xx_hal_tim.c ****   /* Disable the Peripheral */
 439:Drivers/STM32F3xx_HAL_Driver/Src/stm32f3xx_hal_tim.c ****   __HAL_TIM_DISABLE(htim);
 620              		.loc 1 439 0
 621 0018 7B68     		ldr	r3, [r7, #4]
 622 001a 1B68     		ldr	r3, [r3]
 623 001c 1A6A     		ldr	r2, [r3, #32]
 624 001e 41F21113 		movw	r3, #4369
 625 0022 1340     		ands	r3, r3, r2
 626 0024 002B     		cmp	r3, #0
 627 0026 0FD1     		bne	.L28
 628              		.loc 1 439 0 is_stmt 0 discriminator 1
 629 0028 7B68     		ldr	r3, [r7, #4]
 630 002a 1B68     		ldr	r3, [r3]
 631 002c 1A6A     		ldr	r2, [r3, #32]
 632 002e 40F24443 		movw	r3, #1092
 633 0032 1340     		ands	r3, r3, r2
 634 0034 002B     		cmp	r3, #0
 635 0036 07D1     		bne	.L28
 636 0038 7B68     		ldr	r3, [r7, #4]
 637 003a 1B68     		ldr	r3, [r3]
 638 003c 7A68     		ldr	r2, [r7, #4]
 639 003e 1268     		ldr	r2, [r2]
 640 0040 1268     		ldr	r2, [r2]
 641 0042 22F00102 		bic	r2, r2, #1
 642 0046 1A60     		str	r2, [r3]
 643              	.L28:
 440:Drivers/STM32F3xx_HAL_Driver/Src/stm32f3xx_hal_tim.c ****     
 441:Drivers/STM32F3xx_HAL_Driver/Src/stm32f3xx_hal_tim.c ****   /* Change the htim state */
 442:Drivers/STM32F3xx_HAL_Driver/Src/stm32f3xx_hal_tim.c ****   htim->State = HAL_TIM_STATE_READY;
 644              		.loc 1 442 0 is_stmt 1
 645 0048 7B68     		ldr	r3, [r7, #4]
 646 004a 0122     		movs	r2, #1
 647 004c 83F83920 		strb	r2, [r3, #57]
 443:Drivers/STM32F3xx_HAL_Driver/Src/stm32f3xx_hal_tim.c ****       
 444:Drivers/STM32F3xx_HAL_Driver/Src/stm32f3xx_hal_tim.c ****   /* Return function status */
 445:Drivers/STM32F3xx_HAL_Driver/Src/stm32f3xx_hal_tim.c ****   return HAL_OK;
 648              		.loc 1 445 0
 649 0050 0023     		movs	r3, #0
 446:Drivers/STM32F3xx_HAL_Driver/Src/stm32f3xx_hal_tim.c **** }
 650              		.loc 1 446 0
 651 0052 1846     		mov	r0, r3
 652 0054 0C37     		adds	r7, r7, #12
 653 0056 BD46     		mov	sp, r7
 654              		@ sp needed
 655 0058 5DF8047B 		ldr	r7, [sp], #4
 656 005c 7047     		bx	lr
ARM GAS  /tmp/ccZyKULX.s 			page 20


 657              		.cfi_endproc
 658              	.LFE134:
 660 005e 00BF     		.section	.text.HAL_TIM_OC_Init,"ax",%progbits
 661              		.align	2
 662              		.global	HAL_TIM_OC_Init
 663              		.thumb
 664              		.thumb_func
 666              	HAL_TIM_OC_Init:
 667              	.LFB135:
 447:Drivers/STM32F3xx_HAL_Driver/Src/stm32f3xx_hal_tim.c **** 
 448:Drivers/STM32F3xx_HAL_Driver/Src/stm32f3xx_hal_tim.c **** /**
 449:Drivers/STM32F3xx_HAL_Driver/Src/stm32f3xx_hal_tim.c ****   * @}
 450:Drivers/STM32F3xx_HAL_Driver/Src/stm32f3xx_hal_tim.c ****   */
 451:Drivers/STM32F3xx_HAL_Driver/Src/stm32f3xx_hal_tim.c ****   
 452:Drivers/STM32F3xx_HAL_Driver/Src/stm32f3xx_hal_tim.c **** /** @defgroup TIM_Exported_Functions_Group2 Time Output Compare functions 
 453:Drivers/STM32F3xx_HAL_Driver/Src/stm32f3xx_hal_tim.c ****  *  @brief    Time Output Compare functions 
 454:Drivers/STM32F3xx_HAL_Driver/Src/stm32f3xx_hal_tim.c ****  *
 455:Drivers/STM32F3xx_HAL_Driver/Src/stm32f3xx_hal_tim.c **** @verbatim    
 456:Drivers/STM32F3xx_HAL_Driver/Src/stm32f3xx_hal_tim.c ****   ==============================================================================
 457:Drivers/STM32F3xx_HAL_Driver/Src/stm32f3xx_hal_tim.c ****                   ##### Time Output Compare functions #####
 458:Drivers/STM32F3xx_HAL_Driver/Src/stm32f3xx_hal_tim.c ****   ==============================================================================
 459:Drivers/STM32F3xx_HAL_Driver/Src/stm32f3xx_hal_tim.c ****   [..]
 460:Drivers/STM32F3xx_HAL_Driver/Src/stm32f3xx_hal_tim.c ****     This section provides functions allowing to:
 461:Drivers/STM32F3xx_HAL_Driver/Src/stm32f3xx_hal_tim.c ****     (+) Initialize and configure the TIM Output Compare. 
 462:Drivers/STM32F3xx_HAL_Driver/Src/stm32f3xx_hal_tim.c ****     (+) De-initialize the TIM Output Compare.
 463:Drivers/STM32F3xx_HAL_Driver/Src/stm32f3xx_hal_tim.c ****     (+) Start the Time Output Compare.
 464:Drivers/STM32F3xx_HAL_Driver/Src/stm32f3xx_hal_tim.c ****     (+) Stop the Time Output Compare.
 465:Drivers/STM32F3xx_HAL_Driver/Src/stm32f3xx_hal_tim.c ****     (+) Start the Time Output Compare and enable interrupt.
 466:Drivers/STM32F3xx_HAL_Driver/Src/stm32f3xx_hal_tim.c ****     (+) Stop the Time Output Compare and disable interrupt.
 467:Drivers/STM32F3xx_HAL_Driver/Src/stm32f3xx_hal_tim.c ****     (+) Start the Time Output Compare and enable DMA transfer.
 468:Drivers/STM32F3xx_HAL_Driver/Src/stm32f3xx_hal_tim.c ****     (+) Stop the Time Output Compare and disable DMA transfer.
 469:Drivers/STM32F3xx_HAL_Driver/Src/stm32f3xx_hal_tim.c ****  
 470:Drivers/STM32F3xx_HAL_Driver/Src/stm32f3xx_hal_tim.c **** @endverbatim
 471:Drivers/STM32F3xx_HAL_Driver/Src/stm32f3xx_hal_tim.c ****   * @{
 472:Drivers/STM32F3xx_HAL_Driver/Src/stm32f3xx_hal_tim.c ****   */
 473:Drivers/STM32F3xx_HAL_Driver/Src/stm32f3xx_hal_tim.c **** /**
 474:Drivers/STM32F3xx_HAL_Driver/Src/stm32f3xx_hal_tim.c ****   * @brief  Initializes the TIM Output Compare according to the specified
 475:Drivers/STM32F3xx_HAL_Driver/Src/stm32f3xx_hal_tim.c ****   *         parameters in the TIM_HandleTypeDef and create the associated handle.
 476:Drivers/STM32F3xx_HAL_Driver/Src/stm32f3xx_hal_tim.c ****   * @param  htim: TIM Output Compare handle
 477:Drivers/STM32F3xx_HAL_Driver/Src/stm32f3xx_hal_tim.c ****   * @retval HAL status
 478:Drivers/STM32F3xx_HAL_Driver/Src/stm32f3xx_hal_tim.c ****   */
 479:Drivers/STM32F3xx_HAL_Driver/Src/stm32f3xx_hal_tim.c **** HAL_StatusTypeDef HAL_TIM_OC_Init(TIM_HandleTypeDef* htim)
 480:Drivers/STM32F3xx_HAL_Driver/Src/stm32f3xx_hal_tim.c **** {
 668              		.loc 1 480 0
 669              		.cfi_startproc
 670              		@ args = 0, pretend = 0, frame = 8
 671              		@ frame_needed = 1, uses_anonymous_args = 0
 672 0000 80B5     		push	{r7, lr}
 673              	.LCFI30:
 674              		.cfi_def_cfa_offset 8
 675              		.cfi_offset 7, -8
 676              		.cfi_offset 14, -4
 677 0002 82B0     		sub	sp, sp, #8
 678              	.LCFI31:
 679              		.cfi_def_cfa_offset 16
 680 0004 00AF     		add	r7, sp, #0
 681              	.LCFI32:
ARM GAS  /tmp/ccZyKULX.s 			page 21


 682              		.cfi_def_cfa_register 7
 683 0006 7860     		str	r0, [r7, #4]
 481:Drivers/STM32F3xx_HAL_Driver/Src/stm32f3xx_hal_tim.c ****   /* Check the TIM handle allocation */
 482:Drivers/STM32F3xx_HAL_Driver/Src/stm32f3xx_hal_tim.c ****   if(htim == NULL)
 684              		.loc 1 482 0
 685 0008 7B68     		ldr	r3, [r7, #4]
 686 000a 002B     		cmp	r3, #0
 687 000c 01D1     		bne	.L31
 483:Drivers/STM32F3xx_HAL_Driver/Src/stm32f3xx_hal_tim.c ****   {
 484:Drivers/STM32F3xx_HAL_Driver/Src/stm32f3xx_hal_tim.c ****     return HAL_ERROR;
 688              		.loc 1 484 0
 689 000e 0123     		movs	r3, #1
 690 0010 1DE0     		b	.L32
 691              	.L31:
 485:Drivers/STM32F3xx_HAL_Driver/Src/stm32f3xx_hal_tim.c ****   }
 486:Drivers/STM32F3xx_HAL_Driver/Src/stm32f3xx_hal_tim.c **** 
 487:Drivers/STM32F3xx_HAL_Driver/Src/stm32f3xx_hal_tim.c ****   /* Check the parameters */
 488:Drivers/STM32F3xx_HAL_Driver/Src/stm32f3xx_hal_tim.c ****   assert_param(IS_TIM_INSTANCE(htim->Instance));
 489:Drivers/STM32F3xx_HAL_Driver/Src/stm32f3xx_hal_tim.c ****   assert_param(IS_TIM_COUNTER_MODE(htim->Init.CounterMode));
 490:Drivers/STM32F3xx_HAL_Driver/Src/stm32f3xx_hal_tim.c ****   assert_param(IS_TIM_CLOCKDIVISION_DIV(htim->Init.ClockDivision));
 491:Drivers/STM32F3xx_HAL_Driver/Src/stm32f3xx_hal_tim.c ****  
 492:Drivers/STM32F3xx_HAL_Driver/Src/stm32f3xx_hal_tim.c ****   if(htim->State == HAL_TIM_STATE_RESET)
 692              		.loc 1 492 0
 693 0012 7B68     		ldr	r3, [r7, #4]
 694 0014 93F83930 		ldrb	r3, [r3, #57]
 695 0018 DBB2     		uxtb	r3, r3
 696 001a 002B     		cmp	r3, #0
 697 001c 06D1     		bne	.L33
 493:Drivers/STM32F3xx_HAL_Driver/Src/stm32f3xx_hal_tim.c ****   {   
 494:Drivers/STM32F3xx_HAL_Driver/Src/stm32f3xx_hal_tim.c ****     /* Allocate lock resource and initialize it */
 495:Drivers/STM32F3xx_HAL_Driver/Src/stm32f3xx_hal_tim.c ****     htim->Lock = HAL_UNLOCKED;
 698              		.loc 1 495 0
 699 001e 7B68     		ldr	r3, [r7, #4]
 700 0020 0022     		movs	r2, #0
 701 0022 83F83820 		strb	r2, [r3, #56]
 496:Drivers/STM32F3xx_HAL_Driver/Src/stm32f3xx_hal_tim.c **** 
 497:Drivers/STM32F3xx_HAL_Driver/Src/stm32f3xx_hal_tim.c ****     /* Init the low level hardware : GPIO, CLOCK, NVIC and DMA */
 498:Drivers/STM32F3xx_HAL_Driver/Src/stm32f3xx_hal_tim.c ****     HAL_TIM_OC_MspInit(htim);
 702              		.loc 1 498 0
 703 0026 7868     		ldr	r0, [r7, #4]
 704 0028 FFF7FEFF 		bl	HAL_TIM_OC_MspInit
 705              	.L33:
 499:Drivers/STM32F3xx_HAL_Driver/Src/stm32f3xx_hal_tim.c ****   }
 500:Drivers/STM32F3xx_HAL_Driver/Src/stm32f3xx_hal_tim.c ****   
 501:Drivers/STM32F3xx_HAL_Driver/Src/stm32f3xx_hal_tim.c ****   /* Set the TIM state */
 502:Drivers/STM32F3xx_HAL_Driver/Src/stm32f3xx_hal_tim.c ****   htim->State= HAL_TIM_STATE_BUSY;
 706              		.loc 1 502 0
 707 002c 7B68     		ldr	r3, [r7, #4]
 708 002e 0222     		movs	r2, #2
 709 0030 83F83920 		strb	r2, [r3, #57]
 503:Drivers/STM32F3xx_HAL_Driver/Src/stm32f3xx_hal_tim.c **** 
 504:Drivers/STM32F3xx_HAL_Driver/Src/stm32f3xx_hal_tim.c ****   /* Init the base time for the Output Compare */  
 505:Drivers/STM32F3xx_HAL_Driver/Src/stm32f3xx_hal_tim.c ****   TIM_Base_SetConfig(htim->Instance,  &htim->Init); 
 710              		.loc 1 505 0
 711 0034 7B68     		ldr	r3, [r7, #4]
 712 0036 1A68     		ldr	r2, [r3]
 713 0038 7B68     		ldr	r3, [r7, #4]
ARM GAS  /tmp/ccZyKULX.s 			page 22


 714 003a 0433     		adds	r3, r3, #4
 715 003c 1046     		mov	r0, r2
 716 003e 1946     		mov	r1, r3
 717 0040 FFF7FEFF 		bl	TIM_Base_SetConfig
 506:Drivers/STM32F3xx_HAL_Driver/Src/stm32f3xx_hal_tim.c ****   
 507:Drivers/STM32F3xx_HAL_Driver/Src/stm32f3xx_hal_tim.c ****   /* Initialize the TIM state*/
 508:Drivers/STM32F3xx_HAL_Driver/Src/stm32f3xx_hal_tim.c ****   htim->State= HAL_TIM_STATE_READY;
 718              		.loc 1 508 0
 719 0044 7B68     		ldr	r3, [r7, #4]
 720 0046 0122     		movs	r2, #1
 721 0048 83F83920 		strb	r2, [r3, #57]
 509:Drivers/STM32F3xx_HAL_Driver/Src/stm32f3xx_hal_tim.c ****   
 510:Drivers/STM32F3xx_HAL_Driver/Src/stm32f3xx_hal_tim.c ****   return HAL_OK;
 722              		.loc 1 510 0
 723 004c 0023     		movs	r3, #0
 724              	.L32:
 511:Drivers/STM32F3xx_HAL_Driver/Src/stm32f3xx_hal_tim.c **** }
 725              		.loc 1 511 0
 726 004e 1846     		mov	r0, r3
 727 0050 0837     		adds	r7, r7, #8
 728 0052 BD46     		mov	sp, r7
 729              		@ sp needed
 730 0054 80BD     		pop	{r7, pc}
 731              		.cfi_endproc
 732              	.LFE135:
 734 0056 00BF     		.section	.text.HAL_TIM_OC_DeInit,"ax",%progbits
 735              		.align	2
 736              		.global	HAL_TIM_OC_DeInit
 737              		.thumb
 738              		.thumb_func
 740              	HAL_TIM_OC_DeInit:
 741              	.LFB136:
 512:Drivers/STM32F3xx_HAL_Driver/Src/stm32f3xx_hal_tim.c **** 
 513:Drivers/STM32F3xx_HAL_Driver/Src/stm32f3xx_hal_tim.c **** /**
 514:Drivers/STM32F3xx_HAL_Driver/Src/stm32f3xx_hal_tim.c ****   * @brief  DeInitializes the TIM peripheral 
 515:Drivers/STM32F3xx_HAL_Driver/Src/stm32f3xx_hal_tim.c ****   * @param  htim: TIM Output Compare handle
 516:Drivers/STM32F3xx_HAL_Driver/Src/stm32f3xx_hal_tim.c ****   * @retval HAL status
 517:Drivers/STM32F3xx_HAL_Driver/Src/stm32f3xx_hal_tim.c ****   */
 518:Drivers/STM32F3xx_HAL_Driver/Src/stm32f3xx_hal_tim.c **** HAL_StatusTypeDef HAL_TIM_OC_DeInit(TIM_HandleTypeDef *htim)
 519:Drivers/STM32F3xx_HAL_Driver/Src/stm32f3xx_hal_tim.c **** {
 742              		.loc 1 519 0
 743              		.cfi_startproc
 744              		@ args = 0, pretend = 0, frame = 8
 745              		@ frame_needed = 1, uses_anonymous_args = 0
 746 0000 80B5     		push	{r7, lr}
 747              	.LCFI33:
 748              		.cfi_def_cfa_offset 8
 749              		.cfi_offset 7, -8
 750              		.cfi_offset 14, -4
 751 0002 82B0     		sub	sp, sp, #8
 752              	.LCFI34:
 753              		.cfi_def_cfa_offset 16
 754 0004 00AF     		add	r7, sp, #0
 755              	.LCFI35:
 756              		.cfi_def_cfa_register 7
 757 0006 7860     		str	r0, [r7, #4]
 520:Drivers/STM32F3xx_HAL_Driver/Src/stm32f3xx_hal_tim.c ****   /* Check the parameters */
ARM GAS  /tmp/ccZyKULX.s 			page 23


 521:Drivers/STM32F3xx_HAL_Driver/Src/stm32f3xx_hal_tim.c ****   assert_param(IS_TIM_INSTANCE(htim->Instance));
 522:Drivers/STM32F3xx_HAL_Driver/Src/stm32f3xx_hal_tim.c ****   
 523:Drivers/STM32F3xx_HAL_Driver/Src/stm32f3xx_hal_tim.c ****    htim->State = HAL_TIM_STATE_BUSY;
 758              		.loc 1 523 0
 759 0008 7B68     		ldr	r3, [r7, #4]
 760 000a 0222     		movs	r2, #2
 761 000c 83F83920 		strb	r2, [r3, #57]
 524:Drivers/STM32F3xx_HAL_Driver/Src/stm32f3xx_hal_tim.c ****    
 525:Drivers/STM32F3xx_HAL_Driver/Src/stm32f3xx_hal_tim.c ****   /* Disable the TIM Peripheral Clock */
 526:Drivers/STM32F3xx_HAL_Driver/Src/stm32f3xx_hal_tim.c ****   __HAL_TIM_DISABLE(htim);
 762              		.loc 1 526 0
 763 0010 7B68     		ldr	r3, [r7, #4]
 764 0012 1B68     		ldr	r3, [r3]
 765 0014 1A6A     		ldr	r2, [r3, #32]
 766 0016 41F21113 		movw	r3, #4369
 767 001a 1340     		ands	r3, r3, r2
 768 001c 002B     		cmp	r3, #0
 769 001e 0FD1     		bne	.L35
 770              		.loc 1 526 0 is_stmt 0 discriminator 1
 771 0020 7B68     		ldr	r3, [r7, #4]
 772 0022 1B68     		ldr	r3, [r3]
 773 0024 1A6A     		ldr	r2, [r3, #32]
 774 0026 40F24443 		movw	r3, #1092
 775 002a 1340     		ands	r3, r3, r2
 776 002c 002B     		cmp	r3, #0
 777 002e 07D1     		bne	.L35
 778 0030 7B68     		ldr	r3, [r7, #4]
 779 0032 1B68     		ldr	r3, [r3]
 780 0034 7A68     		ldr	r2, [r7, #4]
 781 0036 1268     		ldr	r2, [r2]
 782 0038 1268     		ldr	r2, [r2]
 783 003a 22F00102 		bic	r2, r2, #1
 784 003e 1A60     		str	r2, [r3]
 785              	.L35:
 527:Drivers/STM32F3xx_HAL_Driver/Src/stm32f3xx_hal_tim.c ****   
 528:Drivers/STM32F3xx_HAL_Driver/Src/stm32f3xx_hal_tim.c ****   /* DeInit the low level hardware: GPIO, CLOCK, NVIC and DMA */
 529:Drivers/STM32F3xx_HAL_Driver/Src/stm32f3xx_hal_tim.c ****   HAL_TIM_OC_MspDeInit(htim);
 786              		.loc 1 529 0 is_stmt 1
 787 0040 7868     		ldr	r0, [r7, #4]
 788 0042 FFF7FEFF 		bl	HAL_TIM_OC_MspDeInit
 530:Drivers/STM32F3xx_HAL_Driver/Src/stm32f3xx_hal_tim.c ****     
 531:Drivers/STM32F3xx_HAL_Driver/Src/stm32f3xx_hal_tim.c ****   /* Change TIM state */  
 532:Drivers/STM32F3xx_HAL_Driver/Src/stm32f3xx_hal_tim.c ****   htim->State = HAL_TIM_STATE_RESET; 
 789              		.loc 1 532 0
 790 0046 7B68     		ldr	r3, [r7, #4]
 791 0048 0022     		movs	r2, #0
 792 004a 83F83920 		strb	r2, [r3, #57]
 533:Drivers/STM32F3xx_HAL_Driver/Src/stm32f3xx_hal_tim.c ****   
 534:Drivers/STM32F3xx_HAL_Driver/Src/stm32f3xx_hal_tim.c ****   /* Release Lock */
 535:Drivers/STM32F3xx_HAL_Driver/Src/stm32f3xx_hal_tim.c ****   __HAL_UNLOCK(htim);
 793              		.loc 1 535 0
 794 004e 7B68     		ldr	r3, [r7, #4]
 795 0050 0022     		movs	r2, #0
 796 0052 83F83820 		strb	r2, [r3, #56]
 536:Drivers/STM32F3xx_HAL_Driver/Src/stm32f3xx_hal_tim.c **** 
 537:Drivers/STM32F3xx_HAL_Driver/Src/stm32f3xx_hal_tim.c ****   return HAL_OK;
 797              		.loc 1 537 0
ARM GAS  /tmp/ccZyKULX.s 			page 24


 798 0056 0023     		movs	r3, #0
 538:Drivers/STM32F3xx_HAL_Driver/Src/stm32f3xx_hal_tim.c **** }
 799              		.loc 1 538 0
 800 0058 1846     		mov	r0, r3
 801 005a 0837     		adds	r7, r7, #8
 802 005c BD46     		mov	sp, r7
 803              		@ sp needed
 804 005e 80BD     		pop	{r7, pc}
 805              		.cfi_endproc
 806              	.LFE136:
 808              		.section	.text.HAL_TIM_OC_MspInit,"ax",%progbits
 809              		.align	2
 810              		.weak	HAL_TIM_OC_MspInit
 811              		.thumb
 812              		.thumb_func
 814              	HAL_TIM_OC_MspInit:
 815              	.LFB137:
 539:Drivers/STM32F3xx_HAL_Driver/Src/stm32f3xx_hal_tim.c **** 
 540:Drivers/STM32F3xx_HAL_Driver/Src/stm32f3xx_hal_tim.c **** /**
 541:Drivers/STM32F3xx_HAL_Driver/Src/stm32f3xx_hal_tim.c ****   * @brief  Initializes the TIM Output Compare MSP.
 542:Drivers/STM32F3xx_HAL_Driver/Src/stm32f3xx_hal_tim.c ****   * @param  htim: TIM handle
 543:Drivers/STM32F3xx_HAL_Driver/Src/stm32f3xx_hal_tim.c ****   * @retval None
 544:Drivers/STM32F3xx_HAL_Driver/Src/stm32f3xx_hal_tim.c ****   */
 545:Drivers/STM32F3xx_HAL_Driver/Src/stm32f3xx_hal_tim.c **** __weak void HAL_TIM_OC_MspInit(TIM_HandleTypeDef *htim)
 546:Drivers/STM32F3xx_HAL_Driver/Src/stm32f3xx_hal_tim.c **** {
 816              		.loc 1 546 0
 817              		.cfi_startproc
 818              		@ args = 0, pretend = 0, frame = 8
 819              		@ frame_needed = 1, uses_anonymous_args = 0
 820              		@ link register save eliminated.
 821 0000 80B4     		push	{r7}
 822              	.LCFI36:
 823              		.cfi_def_cfa_offset 4
 824              		.cfi_offset 7, -4
 825 0002 83B0     		sub	sp, sp, #12
 826              	.LCFI37:
 827              		.cfi_def_cfa_offset 16
 828 0004 00AF     		add	r7, sp, #0
 829              	.LCFI38:
 830              		.cfi_def_cfa_register 7
 831 0006 7860     		str	r0, [r7, #4]
 547:Drivers/STM32F3xx_HAL_Driver/Src/stm32f3xx_hal_tim.c ****   /* Prevent unused argument(s) compilation warning */
 548:Drivers/STM32F3xx_HAL_Driver/Src/stm32f3xx_hal_tim.c ****   UNUSED(htim);
 549:Drivers/STM32F3xx_HAL_Driver/Src/stm32f3xx_hal_tim.c **** 
 550:Drivers/STM32F3xx_HAL_Driver/Src/stm32f3xx_hal_tim.c ****   /* NOTE : This function Should not be modified, when the callback is needed,
 551:Drivers/STM32F3xx_HAL_Driver/Src/stm32f3xx_hal_tim.c ****             the HAL_TIM_OC_MspInit could be implemented in the user file
 552:Drivers/STM32F3xx_HAL_Driver/Src/stm32f3xx_hal_tim.c ****    */
 553:Drivers/STM32F3xx_HAL_Driver/Src/stm32f3xx_hal_tim.c **** }
 832              		.loc 1 553 0
 833 0008 0C37     		adds	r7, r7, #12
 834 000a BD46     		mov	sp, r7
 835              		@ sp needed
 836 000c 5DF8047B 		ldr	r7, [sp], #4
 837 0010 7047     		bx	lr
 838              		.cfi_endproc
 839              	.LFE137:
 841 0012 00BF     		.section	.text.HAL_TIM_OC_MspDeInit,"ax",%progbits
ARM GAS  /tmp/ccZyKULX.s 			page 25


 842              		.align	2
 843              		.weak	HAL_TIM_OC_MspDeInit
 844              		.thumb
 845              		.thumb_func
 847              	HAL_TIM_OC_MspDeInit:
 848              	.LFB138:
 554:Drivers/STM32F3xx_HAL_Driver/Src/stm32f3xx_hal_tim.c **** 
 555:Drivers/STM32F3xx_HAL_Driver/Src/stm32f3xx_hal_tim.c **** /**
 556:Drivers/STM32F3xx_HAL_Driver/Src/stm32f3xx_hal_tim.c ****   * @brief  DeInitializes TIM Output Compare MSP.
 557:Drivers/STM32F3xx_HAL_Driver/Src/stm32f3xx_hal_tim.c ****   * @param  htim: TIM handle
 558:Drivers/STM32F3xx_HAL_Driver/Src/stm32f3xx_hal_tim.c ****   * @retval None
 559:Drivers/STM32F3xx_HAL_Driver/Src/stm32f3xx_hal_tim.c ****   */
 560:Drivers/STM32F3xx_HAL_Driver/Src/stm32f3xx_hal_tim.c **** __weak void HAL_TIM_OC_MspDeInit(TIM_HandleTypeDef *htim)
 561:Drivers/STM32F3xx_HAL_Driver/Src/stm32f3xx_hal_tim.c **** {
 849              		.loc 1 561 0
 850              		.cfi_startproc
 851              		@ args = 0, pretend = 0, frame = 8
 852              		@ frame_needed = 1, uses_anonymous_args = 0
 853              		@ link register save eliminated.
 854 0000 80B4     		push	{r7}
 855              	.LCFI39:
 856              		.cfi_def_cfa_offset 4
 857              		.cfi_offset 7, -4
 858 0002 83B0     		sub	sp, sp, #12
 859              	.LCFI40:
 860              		.cfi_def_cfa_offset 16
 861 0004 00AF     		add	r7, sp, #0
 862              	.LCFI41:
 863              		.cfi_def_cfa_register 7
 864 0006 7860     		str	r0, [r7, #4]
 562:Drivers/STM32F3xx_HAL_Driver/Src/stm32f3xx_hal_tim.c ****   /* Prevent unused argument(s) compilation warning */
 563:Drivers/STM32F3xx_HAL_Driver/Src/stm32f3xx_hal_tim.c ****   UNUSED(htim);
 564:Drivers/STM32F3xx_HAL_Driver/Src/stm32f3xx_hal_tim.c **** 
 565:Drivers/STM32F3xx_HAL_Driver/Src/stm32f3xx_hal_tim.c ****   /* NOTE : This function Should not be modified, when the callback is needed,
 566:Drivers/STM32F3xx_HAL_Driver/Src/stm32f3xx_hal_tim.c ****             the HAL_TIM_OC_MspDeInit could be implemented in the user file
 567:Drivers/STM32F3xx_HAL_Driver/Src/stm32f3xx_hal_tim.c ****    */
 568:Drivers/STM32F3xx_HAL_Driver/Src/stm32f3xx_hal_tim.c **** }
 865              		.loc 1 568 0
 866 0008 0C37     		adds	r7, r7, #12
 867 000a BD46     		mov	sp, r7
 868              		@ sp needed
 869 000c 5DF8047B 		ldr	r7, [sp], #4
 870 0010 7047     		bx	lr
 871              		.cfi_endproc
 872              	.LFE138:
 874 0012 00BF     		.section	.text.HAL_TIM_OC_Start,"ax",%progbits
 875              		.align	2
 876              		.global	HAL_TIM_OC_Start
 877              		.thumb
 878              		.thumb_func
 880              	HAL_TIM_OC_Start:
 881              	.LFB139:
 569:Drivers/STM32F3xx_HAL_Driver/Src/stm32f3xx_hal_tim.c **** 
 570:Drivers/STM32F3xx_HAL_Driver/Src/stm32f3xx_hal_tim.c **** /**
 571:Drivers/STM32F3xx_HAL_Driver/Src/stm32f3xx_hal_tim.c ****   * @brief  Starts the TIM Output Compare signal generation.
 572:Drivers/STM32F3xx_HAL_Driver/Src/stm32f3xx_hal_tim.c ****   * @param  htim: TIM Output Compare handle  
 573:Drivers/STM32F3xx_HAL_Driver/Src/stm32f3xx_hal_tim.c ****   * @param  Channel: TIM Channel to be enabled
ARM GAS  /tmp/ccZyKULX.s 			page 26


 574:Drivers/STM32F3xx_HAL_Driver/Src/stm32f3xx_hal_tim.c ****   *          This parameter can be one of the following values:
 575:Drivers/STM32F3xx_HAL_Driver/Src/stm32f3xx_hal_tim.c ****   *            @arg TIM_CHANNEL_1: TIM Channel 1 selected
 576:Drivers/STM32F3xx_HAL_Driver/Src/stm32f3xx_hal_tim.c ****   *            @arg TIM_CHANNEL_2: TIM Channel 2 selected
 577:Drivers/STM32F3xx_HAL_Driver/Src/stm32f3xx_hal_tim.c ****   *            @arg TIM_CHANNEL_3: TIM Channel 3 selected
 578:Drivers/STM32F3xx_HAL_Driver/Src/stm32f3xx_hal_tim.c ****   *            @arg TIM_CHANNEL_4: TIM Channel 4 selected   
 579:Drivers/STM32F3xx_HAL_Driver/Src/stm32f3xx_hal_tim.c ****   * @retval HAL status
 580:Drivers/STM32F3xx_HAL_Driver/Src/stm32f3xx_hal_tim.c **** */
 581:Drivers/STM32F3xx_HAL_Driver/Src/stm32f3xx_hal_tim.c **** HAL_StatusTypeDef HAL_TIM_OC_Start(TIM_HandleTypeDef *htim, uint32_t Channel)
 582:Drivers/STM32F3xx_HAL_Driver/Src/stm32f3xx_hal_tim.c **** {
 882              		.loc 1 582 0
 883              		.cfi_startproc
 884              		@ args = 0, pretend = 0, frame = 8
 885              		@ frame_needed = 1, uses_anonymous_args = 0
 886 0000 80B5     		push	{r7, lr}
 887              	.LCFI42:
 888              		.cfi_def_cfa_offset 8
 889              		.cfi_offset 7, -8
 890              		.cfi_offset 14, -4
 891 0002 82B0     		sub	sp, sp, #8
 892              	.LCFI43:
 893              		.cfi_def_cfa_offset 16
 894 0004 00AF     		add	r7, sp, #0
 895              	.LCFI44:
 896              		.cfi_def_cfa_register 7
 897 0006 7860     		str	r0, [r7, #4]
 898 0008 3960     		str	r1, [r7]
 583:Drivers/STM32F3xx_HAL_Driver/Src/stm32f3xx_hal_tim.c ****   /* Check the parameters */
 584:Drivers/STM32F3xx_HAL_Driver/Src/stm32f3xx_hal_tim.c ****   assert_param(IS_TIM_CCX_INSTANCE(htim->Instance, Channel));
 585:Drivers/STM32F3xx_HAL_Driver/Src/stm32f3xx_hal_tim.c ****   
 586:Drivers/STM32F3xx_HAL_Driver/Src/stm32f3xx_hal_tim.c ****   /* Enable the Output compare channel */
 587:Drivers/STM32F3xx_HAL_Driver/Src/stm32f3xx_hal_tim.c ****   TIM_CCxChannelCmd(htim->Instance, Channel, TIM_CCx_ENABLE);
 899              		.loc 1 587 0
 900 000a 7B68     		ldr	r3, [r7, #4]
 901 000c 1B68     		ldr	r3, [r3]
 902 000e 1846     		mov	r0, r3
 903 0010 3968     		ldr	r1, [r7]
 904 0012 0122     		movs	r2, #1
 905 0014 FFF7FEFF 		bl	TIM_CCxChannelCmd
 588:Drivers/STM32F3xx_HAL_Driver/Src/stm32f3xx_hal_tim.c ****   
 589:Drivers/STM32F3xx_HAL_Driver/Src/stm32f3xx_hal_tim.c ****   if(IS_TIM_BREAK_INSTANCE(htim->Instance) != RESET)  
 906              		.loc 1 589 0
 907 0018 7B68     		ldr	r3, [r7, #4]
 908 001a 1A68     		ldr	r2, [r3]
 909 001c 184B     		ldr	r3, .L45
 910 001e 9A42     		cmp	r2, r3
 911 0020 13D0     		beq	.L40
 912              		.loc 1 589 0 is_stmt 0 discriminator 2
 913 0022 7B68     		ldr	r3, [r7, #4]
 914 0024 1A68     		ldr	r2, [r3]
 915 0026 174B     		ldr	r3, .L45+4
 916 0028 9A42     		cmp	r2, r3
 917 002a 0ED0     		beq	.L40
 918              		.loc 1 589 0 discriminator 1
 919 002c 7B68     		ldr	r3, [r7, #4]
 920 002e 1A68     		ldr	r2, [r3]
 921 0030 154B     		ldr	r3, .L45+8
 922 0032 9A42     		cmp	r2, r3
ARM GAS  /tmp/ccZyKULX.s 			page 27


 923 0034 09D0     		beq	.L40
 924 0036 7B68     		ldr	r3, [r7, #4]
 925 0038 1A68     		ldr	r2, [r3]
 926 003a 144B     		ldr	r3, .L45+12
 927 003c 9A42     		cmp	r2, r3
 928 003e 04D0     		beq	.L40
 929 0040 7B68     		ldr	r3, [r7, #4]
 930 0042 1A68     		ldr	r2, [r3]
 931 0044 124B     		ldr	r3, .L45+16
 932 0046 9A42     		cmp	r2, r3
 933 0048 01D1     		bne	.L41
 934              	.L40:
 935 004a 0123     		movs	r3, #1
 936 004c 00E0     		b	.L42
 937              	.L41:
 938              		.loc 1 589 0 discriminator 3
 939 004e 0023     		movs	r3, #0
 940              	.L42:
 941              		.loc 1 589 0 discriminator 4
 942 0050 002B     		cmp	r3, #0
 943 0052 07D0     		beq	.L43
 590:Drivers/STM32F3xx_HAL_Driver/Src/stm32f3xx_hal_tim.c ****   {
 591:Drivers/STM32F3xx_HAL_Driver/Src/stm32f3xx_hal_tim.c ****     /* Enable the main output */
 592:Drivers/STM32F3xx_HAL_Driver/Src/stm32f3xx_hal_tim.c ****     __HAL_TIM_MOE_ENABLE(htim);
 944              		.loc 1 592 0 is_stmt 1
 945 0054 7B68     		ldr	r3, [r7, #4]
 946 0056 1B68     		ldr	r3, [r3]
 947 0058 7A68     		ldr	r2, [r7, #4]
 948 005a 1268     		ldr	r2, [r2]
 949 005c 526C     		ldr	r2, [r2, #68]
 950 005e 42F40042 		orr	r2, r2, #32768
 951 0062 5A64     		str	r2, [r3, #68]
 952              	.L43:
 593:Drivers/STM32F3xx_HAL_Driver/Src/stm32f3xx_hal_tim.c ****   }
 594:Drivers/STM32F3xx_HAL_Driver/Src/stm32f3xx_hal_tim.c ****   
 595:Drivers/STM32F3xx_HAL_Driver/Src/stm32f3xx_hal_tim.c ****   /* Enable the Peripheral */
 596:Drivers/STM32F3xx_HAL_Driver/Src/stm32f3xx_hal_tim.c ****   __HAL_TIM_ENABLE(htim); 
 953              		.loc 1 596 0
 954 0064 7B68     		ldr	r3, [r7, #4]
 955 0066 1B68     		ldr	r3, [r3]
 956 0068 7A68     		ldr	r2, [r7, #4]
 957 006a 1268     		ldr	r2, [r2]
 958 006c 1268     		ldr	r2, [r2]
 959 006e 42F00102 		orr	r2, r2, #1
 960 0072 1A60     		str	r2, [r3]
 597:Drivers/STM32F3xx_HAL_Driver/Src/stm32f3xx_hal_tim.c ****   
 598:Drivers/STM32F3xx_HAL_Driver/Src/stm32f3xx_hal_tim.c ****   /* Return function status */
 599:Drivers/STM32F3xx_HAL_Driver/Src/stm32f3xx_hal_tim.c ****   return HAL_OK;
 961              		.loc 1 599 0
 962 0074 0023     		movs	r3, #0
 600:Drivers/STM32F3xx_HAL_Driver/Src/stm32f3xx_hal_tim.c **** }
 963              		.loc 1 600 0
 964 0076 1846     		mov	r0, r3
 965 0078 0837     		adds	r7, r7, #8
 966 007a BD46     		mov	sp, r7
 967              		@ sp needed
 968 007c 80BD     		pop	{r7, pc}
ARM GAS  /tmp/ccZyKULX.s 			page 28


 969              	.L46:
 970 007e 00BF     		.align	2
 971              	.L45:
 972 0080 002C0140 		.word	1073818624
 973 0084 00340140 		.word	1073820672
 974 0088 00400140 		.word	1073823744
 975 008c 00440140 		.word	1073824768
 976 0090 00480140 		.word	1073825792
 977              		.cfi_endproc
 978              	.LFE139:
 980              		.section	.text.HAL_TIM_OC_Stop,"ax",%progbits
 981              		.align	2
 982              		.global	HAL_TIM_OC_Stop
 983              		.thumb
 984              		.thumb_func
 986              	HAL_TIM_OC_Stop:
 987              	.LFB140:
 601:Drivers/STM32F3xx_HAL_Driver/Src/stm32f3xx_hal_tim.c **** 
 602:Drivers/STM32F3xx_HAL_Driver/Src/stm32f3xx_hal_tim.c **** /**
 603:Drivers/STM32F3xx_HAL_Driver/Src/stm32f3xx_hal_tim.c ****   * @brief  Stops the TIM Output Compare signal generation.
 604:Drivers/STM32F3xx_HAL_Driver/Src/stm32f3xx_hal_tim.c ****   * @param  htim: TIM handle
 605:Drivers/STM32F3xx_HAL_Driver/Src/stm32f3xx_hal_tim.c ****   * @param  Channel: TIM Channel to be disabled
 606:Drivers/STM32F3xx_HAL_Driver/Src/stm32f3xx_hal_tim.c ****   *          This parameter can be one of the following values:
 607:Drivers/STM32F3xx_HAL_Driver/Src/stm32f3xx_hal_tim.c ****   *            @arg TIM_CHANNEL_1: TIM Channel 1 selected
 608:Drivers/STM32F3xx_HAL_Driver/Src/stm32f3xx_hal_tim.c ****   *            @arg TIM_CHANNEL_2: TIM Channel 2 selected
 609:Drivers/STM32F3xx_HAL_Driver/Src/stm32f3xx_hal_tim.c ****   *            @arg TIM_CHANNEL_3: TIM Channel 3 selected
 610:Drivers/STM32F3xx_HAL_Driver/Src/stm32f3xx_hal_tim.c ****   *            @arg TIM_CHANNEL_4: TIM Channel 4 selected
 611:Drivers/STM32F3xx_HAL_Driver/Src/stm32f3xx_hal_tim.c ****   * @retval HAL status
 612:Drivers/STM32F3xx_HAL_Driver/Src/stm32f3xx_hal_tim.c **** */
 613:Drivers/STM32F3xx_HAL_Driver/Src/stm32f3xx_hal_tim.c **** HAL_StatusTypeDef HAL_TIM_OC_Stop(TIM_HandleTypeDef *htim, uint32_t Channel)
 614:Drivers/STM32F3xx_HAL_Driver/Src/stm32f3xx_hal_tim.c **** {
 988              		.loc 1 614 0
 989              		.cfi_startproc
 990              		@ args = 0, pretend = 0, frame = 8
 991              		@ frame_needed = 1, uses_anonymous_args = 0
 992 0000 80B5     		push	{r7, lr}
 993              	.LCFI45:
 994              		.cfi_def_cfa_offset 8
 995              		.cfi_offset 7, -8
 996              		.cfi_offset 14, -4
 997 0002 82B0     		sub	sp, sp, #8
 998              	.LCFI46:
 999              		.cfi_def_cfa_offset 16
 1000 0004 00AF     		add	r7, sp, #0
 1001              	.LCFI47:
 1002              		.cfi_def_cfa_register 7
 1003 0006 7860     		str	r0, [r7, #4]
 1004 0008 3960     		str	r1, [r7]
 615:Drivers/STM32F3xx_HAL_Driver/Src/stm32f3xx_hal_tim.c ****   /* Check the parameters */
 616:Drivers/STM32F3xx_HAL_Driver/Src/stm32f3xx_hal_tim.c ****   assert_param(IS_TIM_CCX_INSTANCE(htim->Instance, Channel));
 617:Drivers/STM32F3xx_HAL_Driver/Src/stm32f3xx_hal_tim.c ****   
 618:Drivers/STM32F3xx_HAL_Driver/Src/stm32f3xx_hal_tim.c ****   /* Disable the Output compare channel */
 619:Drivers/STM32F3xx_HAL_Driver/Src/stm32f3xx_hal_tim.c ****   TIM_CCxChannelCmd(htim->Instance, Channel, TIM_CCx_DISABLE);
 1005              		.loc 1 619 0
 1006 000a 7B68     		ldr	r3, [r7, #4]
 1007 000c 1B68     		ldr	r3, [r3]
 1008 000e 1846     		mov	r0, r3
ARM GAS  /tmp/ccZyKULX.s 			page 29


 1009 0010 3968     		ldr	r1, [r7]
 1010 0012 0022     		movs	r2, #0
 1011 0014 FFF7FEFF 		bl	TIM_CCxChannelCmd
 620:Drivers/STM32F3xx_HAL_Driver/Src/stm32f3xx_hal_tim.c ****   
 621:Drivers/STM32F3xx_HAL_Driver/Src/stm32f3xx_hal_tim.c ****   if(IS_TIM_BREAK_INSTANCE(htim->Instance) != RESET)  
 1012              		.loc 1 621 0
 1013 0018 7B68     		ldr	r3, [r7, #4]
 1014 001a 1A68     		ldr	r2, [r3]
 1015 001c 284B     		ldr	r3, .L54
 1016 001e 9A42     		cmp	r2, r3
 1017 0020 13D0     		beq	.L48
 1018              		.loc 1 621 0 is_stmt 0 discriminator 2
 1019 0022 7B68     		ldr	r3, [r7, #4]
 1020 0024 1A68     		ldr	r2, [r3]
 1021 0026 274B     		ldr	r3, .L54+4
 1022 0028 9A42     		cmp	r2, r3
 1023 002a 0ED0     		beq	.L48
 1024              		.loc 1 621 0 discriminator 1
 1025 002c 7B68     		ldr	r3, [r7, #4]
 1026 002e 1A68     		ldr	r2, [r3]
 1027 0030 254B     		ldr	r3, .L54+8
 1028 0032 9A42     		cmp	r2, r3
 1029 0034 09D0     		beq	.L48
 1030 0036 7B68     		ldr	r3, [r7, #4]
 1031 0038 1A68     		ldr	r2, [r3]
 1032 003a 244B     		ldr	r3, .L54+12
 1033 003c 9A42     		cmp	r2, r3
 1034 003e 04D0     		beq	.L48
 1035 0040 7B68     		ldr	r3, [r7, #4]
 1036 0042 1A68     		ldr	r2, [r3]
 1037 0044 224B     		ldr	r3, .L54+16
 1038 0046 9A42     		cmp	r2, r3
 1039 0048 01D1     		bne	.L49
 1040              	.L48:
 1041 004a 0123     		movs	r3, #1
 1042 004c 00E0     		b	.L50
 1043              	.L49:
 1044              		.loc 1 621 0 discriminator 3
 1045 004e 0023     		movs	r3, #0
 1046              	.L50:
 1047              		.loc 1 621 0 discriminator 4
 1048 0050 002B     		cmp	r3, #0
 1049 0052 17D0     		beq	.L51
 622:Drivers/STM32F3xx_HAL_Driver/Src/stm32f3xx_hal_tim.c ****   {
 623:Drivers/STM32F3xx_HAL_Driver/Src/stm32f3xx_hal_tim.c ****     /* Disable the Main Ouput */
 624:Drivers/STM32F3xx_HAL_Driver/Src/stm32f3xx_hal_tim.c ****     __HAL_TIM_MOE_DISABLE(htim);
 1050              		.loc 1 624 0 is_stmt 1
 1051 0054 7B68     		ldr	r3, [r7, #4]
 1052 0056 1B68     		ldr	r3, [r3]
 1053 0058 1A6A     		ldr	r2, [r3, #32]
 1054 005a 41F21113 		movw	r3, #4369
 1055 005e 1340     		ands	r3, r3, r2
 1056 0060 002B     		cmp	r3, #0
 1057 0062 0FD1     		bne	.L51
 1058              		.loc 1 624 0 is_stmt 0 discriminator 1
 1059 0064 7B68     		ldr	r3, [r7, #4]
 1060 0066 1B68     		ldr	r3, [r3]
ARM GAS  /tmp/ccZyKULX.s 			page 30


 1061 0068 1A6A     		ldr	r2, [r3, #32]
 1062 006a 40F24443 		movw	r3, #1092
 1063 006e 1340     		ands	r3, r3, r2
 1064 0070 002B     		cmp	r3, #0
 1065 0072 07D1     		bne	.L51
 1066 0074 7B68     		ldr	r3, [r7, #4]
 1067 0076 1B68     		ldr	r3, [r3]
 1068 0078 7A68     		ldr	r2, [r7, #4]
 1069 007a 1268     		ldr	r2, [r2]
 1070 007c 526C     		ldr	r2, [r2, #68]
 1071 007e 22F40042 		bic	r2, r2, #32768
 1072 0082 5A64     		str	r2, [r3, #68]
 1073              	.L51:
 625:Drivers/STM32F3xx_HAL_Driver/Src/stm32f3xx_hal_tim.c ****   }  
 626:Drivers/STM32F3xx_HAL_Driver/Src/stm32f3xx_hal_tim.c ****   
 627:Drivers/STM32F3xx_HAL_Driver/Src/stm32f3xx_hal_tim.c ****   /* Disable the Peripheral */
 628:Drivers/STM32F3xx_HAL_Driver/Src/stm32f3xx_hal_tim.c ****   __HAL_TIM_DISABLE(htim);  
 1074              		.loc 1 628 0 is_stmt 1
 1075 0084 7B68     		ldr	r3, [r7, #4]
 1076 0086 1B68     		ldr	r3, [r3]
 1077 0088 1A6A     		ldr	r2, [r3, #32]
 1078 008a 41F21113 		movw	r3, #4369
 1079 008e 1340     		ands	r3, r3, r2
 1080 0090 002B     		cmp	r3, #0
 1081 0092 0FD1     		bne	.L52
 1082              		.loc 1 628 0 is_stmt 0 discriminator 1
 1083 0094 7B68     		ldr	r3, [r7, #4]
 1084 0096 1B68     		ldr	r3, [r3]
 1085 0098 1A6A     		ldr	r2, [r3, #32]
 1086 009a 40F24443 		movw	r3, #1092
 1087 009e 1340     		ands	r3, r3, r2
 1088 00a0 002B     		cmp	r3, #0
 1089 00a2 07D1     		bne	.L52
 1090 00a4 7B68     		ldr	r3, [r7, #4]
 1091 00a6 1B68     		ldr	r3, [r3]
 1092 00a8 7A68     		ldr	r2, [r7, #4]
 1093 00aa 1268     		ldr	r2, [r2]
 1094 00ac 1268     		ldr	r2, [r2]
 1095 00ae 22F00102 		bic	r2, r2, #1
 1096 00b2 1A60     		str	r2, [r3]
 1097              	.L52:
 629:Drivers/STM32F3xx_HAL_Driver/Src/stm32f3xx_hal_tim.c ****   
 630:Drivers/STM32F3xx_HAL_Driver/Src/stm32f3xx_hal_tim.c ****   /* Return function status */
 631:Drivers/STM32F3xx_HAL_Driver/Src/stm32f3xx_hal_tim.c ****   return HAL_OK;
 1098              		.loc 1 631 0 is_stmt 1
 1099 00b4 0023     		movs	r3, #0
 632:Drivers/STM32F3xx_HAL_Driver/Src/stm32f3xx_hal_tim.c **** }  
 1100              		.loc 1 632 0
 1101 00b6 1846     		mov	r0, r3
 1102 00b8 0837     		adds	r7, r7, #8
 1103 00ba BD46     		mov	sp, r7
 1104              		@ sp needed
 1105 00bc 80BD     		pop	{r7, pc}
 1106              	.L55:
 1107 00be 00BF     		.align	2
 1108              	.L54:
 1109 00c0 002C0140 		.word	1073818624
ARM GAS  /tmp/ccZyKULX.s 			page 31


 1110 00c4 00340140 		.word	1073820672
 1111 00c8 00400140 		.word	1073823744
 1112 00cc 00440140 		.word	1073824768
 1113 00d0 00480140 		.word	1073825792
 1114              		.cfi_endproc
 1115              	.LFE140:
 1117              		.section	.text.HAL_TIM_OC_Start_IT,"ax",%progbits
 1118              		.align	2
 1119              		.global	HAL_TIM_OC_Start_IT
 1120              		.thumb
 1121              		.thumb_func
 1123              	HAL_TIM_OC_Start_IT:
 1124              	.LFB141:
 633:Drivers/STM32F3xx_HAL_Driver/Src/stm32f3xx_hal_tim.c **** 
 634:Drivers/STM32F3xx_HAL_Driver/Src/stm32f3xx_hal_tim.c **** /**
 635:Drivers/STM32F3xx_HAL_Driver/Src/stm32f3xx_hal_tim.c ****   * @brief  Starts the TIM Output Compare signal generation in interrupt mode.
 636:Drivers/STM32F3xx_HAL_Driver/Src/stm32f3xx_hal_tim.c ****   * @param  htim: TIM OC handle
 637:Drivers/STM32F3xx_HAL_Driver/Src/stm32f3xx_hal_tim.c ****   * @param  Channel: TIM Channel to be enabled
 638:Drivers/STM32F3xx_HAL_Driver/Src/stm32f3xx_hal_tim.c ****   *          This parameter can be one of the following values:
 639:Drivers/STM32F3xx_HAL_Driver/Src/stm32f3xx_hal_tim.c ****   *            @arg TIM_CHANNEL_1: TIM Channel 1 selected
 640:Drivers/STM32F3xx_HAL_Driver/Src/stm32f3xx_hal_tim.c ****   *            @arg TIM_CHANNEL_2: TIM Channel 2 selected
 641:Drivers/STM32F3xx_HAL_Driver/Src/stm32f3xx_hal_tim.c ****   *            @arg TIM_CHANNEL_3: TIM Channel 3 selected
 642:Drivers/STM32F3xx_HAL_Driver/Src/stm32f3xx_hal_tim.c ****   *            @arg TIM_CHANNEL_4: TIM Channel 4 selected
 643:Drivers/STM32F3xx_HAL_Driver/Src/stm32f3xx_hal_tim.c ****   * @retval HAL status
 644:Drivers/STM32F3xx_HAL_Driver/Src/stm32f3xx_hal_tim.c **** */
 645:Drivers/STM32F3xx_HAL_Driver/Src/stm32f3xx_hal_tim.c **** HAL_StatusTypeDef HAL_TIM_OC_Start_IT(TIM_HandleTypeDef *htim, uint32_t Channel)
 646:Drivers/STM32F3xx_HAL_Driver/Src/stm32f3xx_hal_tim.c **** {
 1125              		.loc 1 646 0
 1126              		.cfi_startproc
 1127              		@ args = 0, pretend = 0, frame = 8
 1128              		@ frame_needed = 1, uses_anonymous_args = 0
 1129 0000 80B5     		push	{r7, lr}
 1130              	.LCFI48:
 1131              		.cfi_def_cfa_offset 8
 1132              		.cfi_offset 7, -8
 1133              		.cfi_offset 14, -4
 1134 0002 82B0     		sub	sp, sp, #8
 1135              	.LCFI49:
 1136              		.cfi_def_cfa_offset 16
 1137 0004 00AF     		add	r7, sp, #0
 1138              	.LCFI50:
 1139              		.cfi_def_cfa_register 7
 1140 0006 7860     		str	r0, [r7, #4]
 1141 0008 3960     		str	r1, [r7]
 647:Drivers/STM32F3xx_HAL_Driver/Src/stm32f3xx_hal_tim.c ****   /* Check the parameters */
 648:Drivers/STM32F3xx_HAL_Driver/Src/stm32f3xx_hal_tim.c ****   assert_param(IS_TIM_CCX_INSTANCE(htim->Instance, Channel));
 649:Drivers/STM32F3xx_HAL_Driver/Src/stm32f3xx_hal_tim.c ****   
 650:Drivers/STM32F3xx_HAL_Driver/Src/stm32f3xx_hal_tim.c ****   switch (Channel)
 1142              		.loc 1 650 0
 1143 000a 3B68     		ldr	r3, [r7]
 1144 000c 0C2B     		cmp	r3, #12
 1145 000e 41D8     		bhi	.L69
 1146 0010 01A2     		adr	r2, .L59
 1147 0012 52F823F0 		ldr	pc, [r2, r3, lsl #2]
 1148 0016 00BF     		.p2align 2
 1149              	.L59:
 1150 0018 4D000000 		.word	.L58+1
ARM GAS  /tmp/ccZyKULX.s 			page 32


 1151 001c 95000000 		.word	.L69+1
 1152 0020 95000000 		.word	.L69+1
 1153 0024 95000000 		.word	.L69+1
 1154 0028 5F000000 		.word	.L60+1
 1155 002c 95000000 		.word	.L69+1
 1156 0030 95000000 		.word	.L69+1
 1157 0034 95000000 		.word	.L69+1
 1158 0038 71000000 		.word	.L61+1
 1159 003c 95000000 		.word	.L69+1
 1160 0040 95000000 		.word	.L69+1
 1161 0044 95000000 		.word	.L69+1
 1162 0048 83000000 		.word	.L62+1
 1163              		.p2align 1
 1164              	.L58:
 651:Drivers/STM32F3xx_HAL_Driver/Src/stm32f3xx_hal_tim.c ****   {
 652:Drivers/STM32F3xx_HAL_Driver/Src/stm32f3xx_hal_tim.c ****     case TIM_CHANNEL_1:
 653:Drivers/STM32F3xx_HAL_Driver/Src/stm32f3xx_hal_tim.c ****     {       
 654:Drivers/STM32F3xx_HAL_Driver/Src/stm32f3xx_hal_tim.c ****       /* Enable the TIM Capture/Compare 1 interrupt */
 655:Drivers/STM32F3xx_HAL_Driver/Src/stm32f3xx_hal_tim.c ****       __HAL_TIM_ENABLE_IT(htim, TIM_IT_CC1);
 1165              		.loc 1 655 0
 1166 004c 7B68     		ldr	r3, [r7, #4]
 1167 004e 1B68     		ldr	r3, [r3]
 1168 0050 7A68     		ldr	r2, [r7, #4]
 1169 0052 1268     		ldr	r2, [r2]
 1170 0054 D268     		ldr	r2, [r2, #12]
 1171 0056 42F00202 		orr	r2, r2, #2
 1172 005a DA60     		str	r2, [r3, #12]
 656:Drivers/STM32F3xx_HAL_Driver/Src/stm32f3xx_hal_tim.c ****     }
 657:Drivers/STM32F3xx_HAL_Driver/Src/stm32f3xx_hal_tim.c ****     break;
 1173              		.loc 1 657 0
 1174 005c 1BE0     		b	.L63
 1175              	.L60:
 658:Drivers/STM32F3xx_HAL_Driver/Src/stm32f3xx_hal_tim.c ****     
 659:Drivers/STM32F3xx_HAL_Driver/Src/stm32f3xx_hal_tim.c ****     case TIM_CHANNEL_2:
 660:Drivers/STM32F3xx_HAL_Driver/Src/stm32f3xx_hal_tim.c ****     {
 661:Drivers/STM32F3xx_HAL_Driver/Src/stm32f3xx_hal_tim.c ****       /* Enable the TIM Capture/Compare 2 interrupt */
 662:Drivers/STM32F3xx_HAL_Driver/Src/stm32f3xx_hal_tim.c ****       __HAL_TIM_ENABLE_IT(htim, TIM_IT_CC2);
 1176              		.loc 1 662 0
 1177 005e 7B68     		ldr	r3, [r7, #4]
 1178 0060 1B68     		ldr	r3, [r3]
 1179 0062 7A68     		ldr	r2, [r7, #4]
 1180 0064 1268     		ldr	r2, [r2]
 1181 0066 D268     		ldr	r2, [r2, #12]
 1182 0068 42F00402 		orr	r2, r2, #4
 1183 006c DA60     		str	r2, [r3, #12]
 663:Drivers/STM32F3xx_HAL_Driver/Src/stm32f3xx_hal_tim.c ****     }
 664:Drivers/STM32F3xx_HAL_Driver/Src/stm32f3xx_hal_tim.c ****     break;
 1184              		.loc 1 664 0
 1185 006e 12E0     		b	.L63
 1186              	.L61:
 665:Drivers/STM32F3xx_HAL_Driver/Src/stm32f3xx_hal_tim.c ****     
 666:Drivers/STM32F3xx_HAL_Driver/Src/stm32f3xx_hal_tim.c ****     case TIM_CHANNEL_3:
 667:Drivers/STM32F3xx_HAL_Driver/Src/stm32f3xx_hal_tim.c ****     {
 668:Drivers/STM32F3xx_HAL_Driver/Src/stm32f3xx_hal_tim.c ****       /* Enable the TIM Capture/Compare 3 interrupt */
 669:Drivers/STM32F3xx_HAL_Driver/Src/stm32f3xx_hal_tim.c ****       __HAL_TIM_ENABLE_IT(htim, TIM_IT_CC3);
 1187              		.loc 1 669 0
 1188 0070 7B68     		ldr	r3, [r7, #4]
ARM GAS  /tmp/ccZyKULX.s 			page 33


 1189 0072 1B68     		ldr	r3, [r3]
 1190 0074 7A68     		ldr	r2, [r7, #4]
 1191 0076 1268     		ldr	r2, [r2]
 1192 0078 D268     		ldr	r2, [r2, #12]
 1193 007a 42F00802 		orr	r2, r2, #8
 1194 007e DA60     		str	r2, [r3, #12]
 670:Drivers/STM32F3xx_HAL_Driver/Src/stm32f3xx_hal_tim.c ****     }
 671:Drivers/STM32F3xx_HAL_Driver/Src/stm32f3xx_hal_tim.c ****     break;
 1195              		.loc 1 671 0
 1196 0080 09E0     		b	.L63
 1197              	.L62:
 672:Drivers/STM32F3xx_HAL_Driver/Src/stm32f3xx_hal_tim.c ****     
 673:Drivers/STM32F3xx_HAL_Driver/Src/stm32f3xx_hal_tim.c ****     case TIM_CHANNEL_4:
 674:Drivers/STM32F3xx_HAL_Driver/Src/stm32f3xx_hal_tim.c ****     {
 675:Drivers/STM32F3xx_HAL_Driver/Src/stm32f3xx_hal_tim.c ****       /* Enable the TIM Capture/Compare 4 interrupt */
 676:Drivers/STM32F3xx_HAL_Driver/Src/stm32f3xx_hal_tim.c ****       __HAL_TIM_ENABLE_IT(htim, TIM_IT_CC4);
 1198              		.loc 1 676 0
 1199 0082 7B68     		ldr	r3, [r7, #4]
 1200 0084 1B68     		ldr	r3, [r3]
 1201 0086 7A68     		ldr	r2, [r7, #4]
 1202 0088 1268     		ldr	r2, [r2]
 1203 008a D268     		ldr	r2, [r2, #12]
 1204 008c 42F01002 		orr	r2, r2, #16
 1205 0090 DA60     		str	r2, [r3, #12]
 677:Drivers/STM32F3xx_HAL_Driver/Src/stm32f3xx_hal_tim.c ****     }
 678:Drivers/STM32F3xx_HAL_Driver/Src/stm32f3xx_hal_tim.c ****     break;
 1206              		.loc 1 678 0
 1207 0092 00E0     		b	.L63
 1208              	.L69:
 679:Drivers/STM32F3xx_HAL_Driver/Src/stm32f3xx_hal_tim.c ****     
 680:Drivers/STM32F3xx_HAL_Driver/Src/stm32f3xx_hal_tim.c ****     default:
 681:Drivers/STM32F3xx_HAL_Driver/Src/stm32f3xx_hal_tim.c ****     break;
 1209              		.loc 1 681 0
 1210 0094 00BF     		nop
 1211              	.L63:
 682:Drivers/STM32F3xx_HAL_Driver/Src/stm32f3xx_hal_tim.c ****   } 
 683:Drivers/STM32F3xx_HAL_Driver/Src/stm32f3xx_hal_tim.c **** 
 684:Drivers/STM32F3xx_HAL_Driver/Src/stm32f3xx_hal_tim.c ****   /* Enable the Output compare channel */
 685:Drivers/STM32F3xx_HAL_Driver/Src/stm32f3xx_hal_tim.c ****   TIM_CCxChannelCmd(htim->Instance, Channel, TIM_CCx_ENABLE);
 1212              		.loc 1 685 0
 1213 0096 7B68     		ldr	r3, [r7, #4]
 1214 0098 1B68     		ldr	r3, [r3]
 1215 009a 1846     		mov	r0, r3
 1216 009c 3968     		ldr	r1, [r7]
 1217 009e 0122     		movs	r2, #1
 1218 00a0 FFF7FEFF 		bl	TIM_CCxChannelCmd
 686:Drivers/STM32F3xx_HAL_Driver/Src/stm32f3xx_hal_tim.c ****   
 687:Drivers/STM32F3xx_HAL_Driver/Src/stm32f3xx_hal_tim.c ****   if(IS_TIM_BREAK_INSTANCE(htim->Instance) != RESET)  
 1219              		.loc 1 687 0
 1220 00a4 7B68     		ldr	r3, [r7, #4]
 1221 00a6 1A68     		ldr	r2, [r3]
 1222 00a8 184B     		ldr	r3, .L70
 1223 00aa 9A42     		cmp	r2, r3
 1224 00ac 13D0     		beq	.L64
 1225              		.loc 1 687 0 is_stmt 0 discriminator 2
 1226 00ae 7B68     		ldr	r3, [r7, #4]
 1227 00b0 1A68     		ldr	r2, [r3]
ARM GAS  /tmp/ccZyKULX.s 			page 34


 1228 00b2 174B     		ldr	r3, .L70+4
 1229 00b4 9A42     		cmp	r2, r3
 1230 00b6 0ED0     		beq	.L64
 1231              		.loc 1 687 0 discriminator 1
 1232 00b8 7B68     		ldr	r3, [r7, #4]
 1233 00ba 1A68     		ldr	r2, [r3]
 1234 00bc 154B     		ldr	r3, .L70+8
 1235 00be 9A42     		cmp	r2, r3
 1236 00c0 09D0     		beq	.L64
 1237 00c2 7B68     		ldr	r3, [r7, #4]
 1238 00c4 1A68     		ldr	r2, [r3]
 1239 00c6 144B     		ldr	r3, .L70+12
 1240 00c8 9A42     		cmp	r2, r3
 1241 00ca 04D0     		beq	.L64
 1242 00cc 7B68     		ldr	r3, [r7, #4]
 1243 00ce 1A68     		ldr	r2, [r3]
 1244 00d0 124B     		ldr	r3, .L70+16
 1245 00d2 9A42     		cmp	r2, r3
 1246 00d4 01D1     		bne	.L65
 1247              	.L64:
 1248 00d6 0123     		movs	r3, #1
 1249 00d8 00E0     		b	.L66
 1250              	.L65:
 1251              		.loc 1 687 0 discriminator 3
 1252 00da 0023     		movs	r3, #0
 1253              	.L66:
 1254              		.loc 1 687 0 discriminator 4
 1255 00dc 002B     		cmp	r3, #0
 1256 00de 07D0     		beq	.L67
 688:Drivers/STM32F3xx_HAL_Driver/Src/stm32f3xx_hal_tim.c ****   {
 689:Drivers/STM32F3xx_HAL_Driver/Src/stm32f3xx_hal_tim.c ****     /* Enable the main output */
 690:Drivers/STM32F3xx_HAL_Driver/Src/stm32f3xx_hal_tim.c ****     __HAL_TIM_MOE_ENABLE(htim);
 1257              		.loc 1 690 0 is_stmt 1
 1258 00e0 7B68     		ldr	r3, [r7, #4]
 1259 00e2 1B68     		ldr	r3, [r3]
 1260 00e4 7A68     		ldr	r2, [r7, #4]
 1261 00e6 1268     		ldr	r2, [r2]
 1262 00e8 526C     		ldr	r2, [r2, #68]
 1263 00ea 42F40042 		orr	r2, r2, #32768
 1264 00ee 5A64     		str	r2, [r3, #68]
 1265              	.L67:
 691:Drivers/STM32F3xx_HAL_Driver/Src/stm32f3xx_hal_tim.c ****   }
 692:Drivers/STM32F3xx_HAL_Driver/Src/stm32f3xx_hal_tim.c **** 
 693:Drivers/STM32F3xx_HAL_Driver/Src/stm32f3xx_hal_tim.c ****   /* Enable the Peripheral */
 694:Drivers/STM32F3xx_HAL_Driver/Src/stm32f3xx_hal_tim.c ****   __HAL_TIM_ENABLE(htim);
 1266              		.loc 1 694 0
 1267 00f0 7B68     		ldr	r3, [r7, #4]
 1268 00f2 1B68     		ldr	r3, [r3]
 1269 00f4 7A68     		ldr	r2, [r7, #4]
 1270 00f6 1268     		ldr	r2, [r2]
 1271 00f8 1268     		ldr	r2, [r2]
 1272 00fa 42F00102 		orr	r2, r2, #1
 1273 00fe 1A60     		str	r2, [r3]
 695:Drivers/STM32F3xx_HAL_Driver/Src/stm32f3xx_hal_tim.c ****   
 696:Drivers/STM32F3xx_HAL_Driver/Src/stm32f3xx_hal_tim.c ****   /* Return function status */
 697:Drivers/STM32F3xx_HAL_Driver/Src/stm32f3xx_hal_tim.c ****   return HAL_OK;
 1274              		.loc 1 697 0
ARM GAS  /tmp/ccZyKULX.s 			page 35


 1275 0100 0023     		movs	r3, #0
 698:Drivers/STM32F3xx_HAL_Driver/Src/stm32f3xx_hal_tim.c **** }
 1276              		.loc 1 698 0
 1277 0102 1846     		mov	r0, r3
 1278 0104 0837     		adds	r7, r7, #8
 1279 0106 BD46     		mov	sp, r7
 1280              		@ sp needed
 1281 0108 80BD     		pop	{r7, pc}
 1282              	.L71:
 1283 010a 00BF     		.align	2
 1284              	.L70:
 1285 010c 002C0140 		.word	1073818624
 1286 0110 00340140 		.word	1073820672
 1287 0114 00400140 		.word	1073823744
 1288 0118 00440140 		.word	1073824768
 1289 011c 00480140 		.word	1073825792
 1290              		.cfi_endproc
 1291              	.LFE141:
 1293              		.section	.text.HAL_TIM_OC_Stop_IT,"ax",%progbits
 1294              		.align	2
 1295              		.global	HAL_TIM_OC_Stop_IT
 1296              		.thumb
 1297              		.thumb_func
 1299              	HAL_TIM_OC_Stop_IT:
 1300              	.LFB142:
 699:Drivers/STM32F3xx_HAL_Driver/Src/stm32f3xx_hal_tim.c **** 
 700:Drivers/STM32F3xx_HAL_Driver/Src/stm32f3xx_hal_tim.c **** /**
 701:Drivers/STM32F3xx_HAL_Driver/Src/stm32f3xx_hal_tim.c ****   * @brief  Stops the TIM Output Compare signal generation in interrupt mode.
 702:Drivers/STM32F3xx_HAL_Driver/Src/stm32f3xx_hal_tim.c ****   * @param  htim: TIM Output Compare handle
 703:Drivers/STM32F3xx_HAL_Driver/Src/stm32f3xx_hal_tim.c ****   * @param  Channel: TIM Channel to be disabled
 704:Drivers/STM32F3xx_HAL_Driver/Src/stm32f3xx_hal_tim.c ****   *          This parameter can be one of the following values:
 705:Drivers/STM32F3xx_HAL_Driver/Src/stm32f3xx_hal_tim.c ****   *            @arg TIM_CHANNEL_1: TIM Channel 1 selected
 706:Drivers/STM32F3xx_HAL_Driver/Src/stm32f3xx_hal_tim.c ****   *            @arg TIM_CHANNEL_2: TIM Channel 2 selected
 707:Drivers/STM32F3xx_HAL_Driver/Src/stm32f3xx_hal_tim.c ****   *            @arg TIM_CHANNEL_3: TIM Channel 3 selected
 708:Drivers/STM32F3xx_HAL_Driver/Src/stm32f3xx_hal_tim.c ****   *            @arg TIM_CHANNEL_4: TIM Channel 4 selected
 709:Drivers/STM32F3xx_HAL_Driver/Src/stm32f3xx_hal_tim.c ****   * @retval HAL status
 710:Drivers/STM32F3xx_HAL_Driver/Src/stm32f3xx_hal_tim.c **** */
 711:Drivers/STM32F3xx_HAL_Driver/Src/stm32f3xx_hal_tim.c **** HAL_StatusTypeDef HAL_TIM_OC_Stop_IT(TIM_HandleTypeDef *htim, uint32_t Channel)
 712:Drivers/STM32F3xx_HAL_Driver/Src/stm32f3xx_hal_tim.c **** {
 1301              		.loc 1 712 0
 1302              		.cfi_startproc
 1303              		@ args = 0, pretend = 0, frame = 8
 1304              		@ frame_needed = 1, uses_anonymous_args = 0
 1305 0000 80B5     		push	{r7, lr}
 1306              	.LCFI51:
 1307              		.cfi_def_cfa_offset 8
 1308              		.cfi_offset 7, -8
 1309              		.cfi_offset 14, -4
 1310 0002 82B0     		sub	sp, sp, #8
 1311              	.LCFI52:
 1312              		.cfi_def_cfa_offset 16
 1313 0004 00AF     		add	r7, sp, #0
 1314              	.LCFI53:
 1315              		.cfi_def_cfa_register 7
 1316 0006 7860     		str	r0, [r7, #4]
 1317 0008 3960     		str	r1, [r7]
 713:Drivers/STM32F3xx_HAL_Driver/Src/stm32f3xx_hal_tim.c ****   /* Check the parameters */
ARM GAS  /tmp/ccZyKULX.s 			page 36


 714:Drivers/STM32F3xx_HAL_Driver/Src/stm32f3xx_hal_tim.c ****   assert_param(IS_TIM_CCX_INSTANCE(htim->Instance, Channel));
 715:Drivers/STM32F3xx_HAL_Driver/Src/stm32f3xx_hal_tim.c ****   
 716:Drivers/STM32F3xx_HAL_Driver/Src/stm32f3xx_hal_tim.c ****   switch (Channel)
 1318              		.loc 1 716 0
 1319 000a 3B68     		ldr	r3, [r7]
 1320 000c 0C2B     		cmp	r3, #12
 1321 000e 41D8     		bhi	.L86
 1322 0010 01A2     		adr	r2, .L75
 1323 0012 52F823F0 		ldr	pc, [r2, r3, lsl #2]
 1324 0016 00BF     		.p2align 2
 1325              	.L75:
 1326 0018 4D000000 		.word	.L74+1
 1327 001c 95000000 		.word	.L86+1
 1328 0020 95000000 		.word	.L86+1
 1329 0024 95000000 		.word	.L86+1
 1330 0028 5F000000 		.word	.L76+1
 1331 002c 95000000 		.word	.L86+1
 1332 0030 95000000 		.word	.L86+1
 1333 0034 95000000 		.word	.L86+1
 1334 0038 71000000 		.word	.L77+1
 1335 003c 95000000 		.word	.L86+1
 1336 0040 95000000 		.word	.L86+1
 1337 0044 95000000 		.word	.L86+1
 1338 0048 83000000 		.word	.L78+1
 1339              		.p2align 1
 1340              	.L74:
 717:Drivers/STM32F3xx_HAL_Driver/Src/stm32f3xx_hal_tim.c ****   {
 718:Drivers/STM32F3xx_HAL_Driver/Src/stm32f3xx_hal_tim.c ****     case TIM_CHANNEL_1:
 719:Drivers/STM32F3xx_HAL_Driver/Src/stm32f3xx_hal_tim.c ****     {       
 720:Drivers/STM32F3xx_HAL_Driver/Src/stm32f3xx_hal_tim.c ****       /* Disable the TIM Capture/Compare 1 interrupt */
 721:Drivers/STM32F3xx_HAL_Driver/Src/stm32f3xx_hal_tim.c ****       __HAL_TIM_DISABLE_IT(htim, TIM_IT_CC1);
 1341              		.loc 1 721 0
 1342 004c 7B68     		ldr	r3, [r7, #4]
 1343 004e 1B68     		ldr	r3, [r3]
 1344 0050 7A68     		ldr	r2, [r7, #4]
 1345 0052 1268     		ldr	r2, [r2]
 1346 0054 D268     		ldr	r2, [r2, #12]
 1347 0056 22F00202 		bic	r2, r2, #2
 1348 005a DA60     		str	r2, [r3, #12]
 722:Drivers/STM32F3xx_HAL_Driver/Src/stm32f3xx_hal_tim.c ****     }
 723:Drivers/STM32F3xx_HAL_Driver/Src/stm32f3xx_hal_tim.c ****     break;
 1349              		.loc 1 723 0
 1350 005c 1BE0     		b	.L79
 1351              	.L76:
 724:Drivers/STM32F3xx_HAL_Driver/Src/stm32f3xx_hal_tim.c ****     
 725:Drivers/STM32F3xx_HAL_Driver/Src/stm32f3xx_hal_tim.c ****     case TIM_CHANNEL_2:
 726:Drivers/STM32F3xx_HAL_Driver/Src/stm32f3xx_hal_tim.c ****     {
 727:Drivers/STM32F3xx_HAL_Driver/Src/stm32f3xx_hal_tim.c ****       /* Disable the TIM Capture/Compare 2 interrupt */
 728:Drivers/STM32F3xx_HAL_Driver/Src/stm32f3xx_hal_tim.c ****       __HAL_TIM_DISABLE_IT(htim, TIM_IT_CC2);
 1352              		.loc 1 728 0
 1353 005e 7B68     		ldr	r3, [r7, #4]
 1354 0060 1B68     		ldr	r3, [r3]
 1355 0062 7A68     		ldr	r2, [r7, #4]
 1356 0064 1268     		ldr	r2, [r2]
 1357 0066 D268     		ldr	r2, [r2, #12]
 1358 0068 22F00402 		bic	r2, r2, #4
 1359 006c DA60     		str	r2, [r3, #12]
ARM GAS  /tmp/ccZyKULX.s 			page 37


 729:Drivers/STM32F3xx_HAL_Driver/Src/stm32f3xx_hal_tim.c ****     }
 730:Drivers/STM32F3xx_HAL_Driver/Src/stm32f3xx_hal_tim.c ****     break;
 1360              		.loc 1 730 0
 1361 006e 12E0     		b	.L79
 1362              	.L77:
 731:Drivers/STM32F3xx_HAL_Driver/Src/stm32f3xx_hal_tim.c ****     
 732:Drivers/STM32F3xx_HAL_Driver/Src/stm32f3xx_hal_tim.c ****     case TIM_CHANNEL_3:
 733:Drivers/STM32F3xx_HAL_Driver/Src/stm32f3xx_hal_tim.c ****     {
 734:Drivers/STM32F3xx_HAL_Driver/Src/stm32f3xx_hal_tim.c ****       /* Disable the TIM Capture/Compare 3 interrupt */
 735:Drivers/STM32F3xx_HAL_Driver/Src/stm32f3xx_hal_tim.c ****       __HAL_TIM_DISABLE_IT(htim, TIM_IT_CC3);
 1363              		.loc 1 735 0
 1364 0070 7B68     		ldr	r3, [r7, #4]
 1365 0072 1B68     		ldr	r3, [r3]
 1366 0074 7A68     		ldr	r2, [r7, #4]
 1367 0076 1268     		ldr	r2, [r2]
 1368 0078 D268     		ldr	r2, [r2, #12]
 1369 007a 22F00802 		bic	r2, r2, #8
 1370 007e DA60     		str	r2, [r3, #12]
 736:Drivers/STM32F3xx_HAL_Driver/Src/stm32f3xx_hal_tim.c ****     }
 737:Drivers/STM32F3xx_HAL_Driver/Src/stm32f3xx_hal_tim.c ****     break;
 1371              		.loc 1 737 0
 1372 0080 09E0     		b	.L79
 1373              	.L78:
 738:Drivers/STM32F3xx_HAL_Driver/Src/stm32f3xx_hal_tim.c ****     
 739:Drivers/STM32F3xx_HAL_Driver/Src/stm32f3xx_hal_tim.c ****     case TIM_CHANNEL_4:
 740:Drivers/STM32F3xx_HAL_Driver/Src/stm32f3xx_hal_tim.c ****     {
 741:Drivers/STM32F3xx_HAL_Driver/Src/stm32f3xx_hal_tim.c ****       /* Disable the TIM Capture/Compare 4 interrupt */
 742:Drivers/STM32F3xx_HAL_Driver/Src/stm32f3xx_hal_tim.c ****       __HAL_TIM_DISABLE_IT(htim, TIM_IT_CC4);
 1374              		.loc 1 742 0
 1375 0082 7B68     		ldr	r3, [r7, #4]
 1376 0084 1B68     		ldr	r3, [r3]
 1377 0086 7A68     		ldr	r2, [r7, #4]
 1378 0088 1268     		ldr	r2, [r2]
 1379 008a D268     		ldr	r2, [r2, #12]
 1380 008c 22F01002 		bic	r2, r2, #16
 1381 0090 DA60     		str	r2, [r3, #12]
 743:Drivers/STM32F3xx_HAL_Driver/Src/stm32f3xx_hal_tim.c ****     }
 744:Drivers/STM32F3xx_HAL_Driver/Src/stm32f3xx_hal_tim.c ****     break;
 1382              		.loc 1 744 0
 1383 0092 00E0     		b	.L79
 1384              	.L86:
 745:Drivers/STM32F3xx_HAL_Driver/Src/stm32f3xx_hal_tim.c ****     
 746:Drivers/STM32F3xx_HAL_Driver/Src/stm32f3xx_hal_tim.c ****     default:
 747:Drivers/STM32F3xx_HAL_Driver/Src/stm32f3xx_hal_tim.c ****     break; 
 1385              		.loc 1 747 0
 1386 0094 00BF     		nop
 1387              	.L79:
 748:Drivers/STM32F3xx_HAL_Driver/Src/stm32f3xx_hal_tim.c ****   } 
 749:Drivers/STM32F3xx_HAL_Driver/Src/stm32f3xx_hal_tim.c ****   
 750:Drivers/STM32F3xx_HAL_Driver/Src/stm32f3xx_hal_tim.c ****   /* Disable the Output compare channel */
 751:Drivers/STM32F3xx_HAL_Driver/Src/stm32f3xx_hal_tim.c ****   TIM_CCxChannelCmd(htim->Instance, Channel, TIM_CCx_DISABLE); 
 1388              		.loc 1 751 0
 1389 0096 7B68     		ldr	r3, [r7, #4]
 1390 0098 1B68     		ldr	r3, [r3]
 1391 009a 1846     		mov	r0, r3
 1392 009c 3968     		ldr	r1, [r7]
 1393 009e 0022     		movs	r2, #0
ARM GAS  /tmp/ccZyKULX.s 			page 38


 1394 00a0 FFF7FEFF 		bl	TIM_CCxChannelCmd
 752:Drivers/STM32F3xx_HAL_Driver/Src/stm32f3xx_hal_tim.c ****   
 753:Drivers/STM32F3xx_HAL_Driver/Src/stm32f3xx_hal_tim.c ****   if(IS_TIM_BREAK_INSTANCE(htim->Instance) != RESET)  
 1395              		.loc 1 753 0
 1396 00a4 7B68     		ldr	r3, [r7, #4]
 1397 00a6 1A68     		ldr	r2, [r3]
 1398 00a8 284B     		ldr	r3, .L87
 1399 00aa 9A42     		cmp	r2, r3
 1400 00ac 13D0     		beq	.L80
 1401              		.loc 1 753 0 is_stmt 0 discriminator 2
 1402 00ae 7B68     		ldr	r3, [r7, #4]
 1403 00b0 1A68     		ldr	r2, [r3]
 1404 00b2 274B     		ldr	r3, .L87+4
 1405 00b4 9A42     		cmp	r2, r3
 1406 00b6 0ED0     		beq	.L80
 1407              		.loc 1 753 0 discriminator 1
 1408 00b8 7B68     		ldr	r3, [r7, #4]
 1409 00ba 1A68     		ldr	r2, [r3]
 1410 00bc 254B     		ldr	r3, .L87+8
 1411 00be 9A42     		cmp	r2, r3
 1412 00c0 09D0     		beq	.L80
 1413 00c2 7B68     		ldr	r3, [r7, #4]
 1414 00c4 1A68     		ldr	r2, [r3]
 1415 00c6 244B     		ldr	r3, .L87+12
 1416 00c8 9A42     		cmp	r2, r3
 1417 00ca 04D0     		beq	.L80
 1418 00cc 7B68     		ldr	r3, [r7, #4]
 1419 00ce 1A68     		ldr	r2, [r3]
 1420 00d0 224B     		ldr	r3, .L87+16
 1421 00d2 9A42     		cmp	r2, r3
 1422 00d4 01D1     		bne	.L81
 1423              	.L80:
 1424 00d6 0123     		movs	r3, #1
 1425 00d8 00E0     		b	.L82
 1426              	.L81:
 1427              		.loc 1 753 0 discriminator 3
 1428 00da 0023     		movs	r3, #0
 1429              	.L82:
 1430              		.loc 1 753 0 discriminator 4
 1431 00dc 002B     		cmp	r3, #0
 1432 00de 17D0     		beq	.L83
 754:Drivers/STM32F3xx_HAL_Driver/Src/stm32f3xx_hal_tim.c ****   {
 755:Drivers/STM32F3xx_HAL_Driver/Src/stm32f3xx_hal_tim.c ****     /* Disable the Main Ouput */
 756:Drivers/STM32F3xx_HAL_Driver/Src/stm32f3xx_hal_tim.c ****     __HAL_TIM_MOE_DISABLE(htim);
 1433              		.loc 1 756 0 is_stmt 1
 1434 00e0 7B68     		ldr	r3, [r7, #4]
 1435 00e2 1B68     		ldr	r3, [r3]
 1436 00e4 1A6A     		ldr	r2, [r3, #32]
 1437 00e6 41F21113 		movw	r3, #4369
 1438 00ea 1340     		ands	r3, r3, r2
 1439 00ec 002B     		cmp	r3, #0
 1440 00ee 0FD1     		bne	.L83
 1441              		.loc 1 756 0 is_stmt 0 discriminator 1
 1442 00f0 7B68     		ldr	r3, [r7, #4]
 1443 00f2 1B68     		ldr	r3, [r3]
 1444 00f4 1A6A     		ldr	r2, [r3, #32]
 1445 00f6 40F24443 		movw	r3, #1092
ARM GAS  /tmp/ccZyKULX.s 			page 39


 1446 00fa 1340     		ands	r3, r3, r2
 1447 00fc 002B     		cmp	r3, #0
 1448 00fe 07D1     		bne	.L83
 1449 0100 7B68     		ldr	r3, [r7, #4]
 1450 0102 1B68     		ldr	r3, [r3]
 1451 0104 7A68     		ldr	r2, [r7, #4]
 1452 0106 1268     		ldr	r2, [r2]
 1453 0108 526C     		ldr	r2, [r2, #68]
 1454 010a 22F40042 		bic	r2, r2, #32768
 1455 010e 5A64     		str	r2, [r3, #68]
 1456              	.L83:
 757:Drivers/STM32F3xx_HAL_Driver/Src/stm32f3xx_hal_tim.c ****   }
 758:Drivers/STM32F3xx_HAL_Driver/Src/stm32f3xx_hal_tim.c ****   
 759:Drivers/STM32F3xx_HAL_Driver/Src/stm32f3xx_hal_tim.c ****   /* Disable the Peripheral */
 760:Drivers/STM32F3xx_HAL_Driver/Src/stm32f3xx_hal_tim.c ****   __HAL_TIM_DISABLE(htim);  
 1457              		.loc 1 760 0 is_stmt 1
 1458 0110 7B68     		ldr	r3, [r7, #4]
 1459 0112 1B68     		ldr	r3, [r3]
 1460 0114 1A6A     		ldr	r2, [r3, #32]
 1461 0116 41F21113 		movw	r3, #4369
 1462 011a 1340     		ands	r3, r3, r2
 1463 011c 002B     		cmp	r3, #0
 1464 011e 0FD1     		bne	.L84
 1465              		.loc 1 760 0 is_stmt 0 discriminator 1
 1466 0120 7B68     		ldr	r3, [r7, #4]
 1467 0122 1B68     		ldr	r3, [r3]
 1468 0124 1A6A     		ldr	r2, [r3, #32]
 1469 0126 40F24443 		movw	r3, #1092
 1470 012a 1340     		ands	r3, r3, r2
 1471 012c 002B     		cmp	r3, #0
 1472 012e 07D1     		bne	.L84
 1473 0130 7B68     		ldr	r3, [r7, #4]
 1474 0132 1B68     		ldr	r3, [r3]
 1475 0134 7A68     		ldr	r2, [r7, #4]
 1476 0136 1268     		ldr	r2, [r2]
 1477 0138 1268     		ldr	r2, [r2]
 1478 013a 22F00102 		bic	r2, r2, #1
 1479 013e 1A60     		str	r2, [r3]
 1480              	.L84:
 761:Drivers/STM32F3xx_HAL_Driver/Src/stm32f3xx_hal_tim.c ****   
 762:Drivers/STM32F3xx_HAL_Driver/Src/stm32f3xx_hal_tim.c ****   /* Return function status */
 763:Drivers/STM32F3xx_HAL_Driver/Src/stm32f3xx_hal_tim.c ****   return HAL_OK;
 1481              		.loc 1 763 0 is_stmt 1
 1482 0140 0023     		movs	r3, #0
 764:Drivers/STM32F3xx_HAL_Driver/Src/stm32f3xx_hal_tim.c **** }
 1483              		.loc 1 764 0
 1484 0142 1846     		mov	r0, r3
 1485 0144 0837     		adds	r7, r7, #8
 1486 0146 BD46     		mov	sp, r7
 1487              		@ sp needed
 1488 0148 80BD     		pop	{r7, pc}
 1489              	.L88:
 1490 014a 00BF     		.align	2
 1491              	.L87:
 1492 014c 002C0140 		.word	1073818624
 1493 0150 00340140 		.word	1073820672
 1494 0154 00400140 		.word	1073823744
ARM GAS  /tmp/ccZyKULX.s 			page 40


 1495 0158 00440140 		.word	1073824768
 1496 015c 00480140 		.word	1073825792
 1497              		.cfi_endproc
 1498              	.LFE142:
 1500              		.section	.text.HAL_TIM_OC_Start_DMA,"ax",%progbits
 1501              		.align	2
 1502              		.global	HAL_TIM_OC_Start_DMA
 1503              		.thumb
 1504              		.thumb_func
 1506              	HAL_TIM_OC_Start_DMA:
 1507              	.LFB143:
 765:Drivers/STM32F3xx_HAL_Driver/Src/stm32f3xx_hal_tim.c **** 
 766:Drivers/STM32F3xx_HAL_Driver/Src/stm32f3xx_hal_tim.c **** /**
 767:Drivers/STM32F3xx_HAL_Driver/Src/stm32f3xx_hal_tim.c ****   * @brief  Starts the TIM Output Compare signal generation in DMA mode.
 768:Drivers/STM32F3xx_HAL_Driver/Src/stm32f3xx_hal_tim.c ****   * @param  htim: TIM Output Compare handle
 769:Drivers/STM32F3xx_HAL_Driver/Src/stm32f3xx_hal_tim.c ****   * @param  Channel: TIM Channel to be enabled
 770:Drivers/STM32F3xx_HAL_Driver/Src/stm32f3xx_hal_tim.c ****   *          This parameter can be one of the following values:
 771:Drivers/STM32F3xx_HAL_Driver/Src/stm32f3xx_hal_tim.c ****   *            @arg TIM_CHANNEL_1: TIM Channel 1 selected
 772:Drivers/STM32F3xx_HAL_Driver/Src/stm32f3xx_hal_tim.c ****   *            @arg TIM_CHANNEL_2: TIM Channel 2 selected
 773:Drivers/STM32F3xx_HAL_Driver/Src/stm32f3xx_hal_tim.c ****   *            @arg TIM_CHANNEL_3: TIM Channel 3 selected
 774:Drivers/STM32F3xx_HAL_Driver/Src/stm32f3xx_hal_tim.c ****   *            @arg TIM_CHANNEL_4: TIM Channel 4 selected
 775:Drivers/STM32F3xx_HAL_Driver/Src/stm32f3xx_hal_tim.c ****   * @param  pData: The source Buffer address.
 776:Drivers/STM32F3xx_HAL_Driver/Src/stm32f3xx_hal_tim.c ****   * @param  Length: The length of data to be transferred from memory to TIM peripheral
 777:Drivers/STM32F3xx_HAL_Driver/Src/stm32f3xx_hal_tim.c ****   * @retval HAL status
 778:Drivers/STM32F3xx_HAL_Driver/Src/stm32f3xx_hal_tim.c **** */
 779:Drivers/STM32F3xx_HAL_Driver/Src/stm32f3xx_hal_tim.c **** HAL_StatusTypeDef HAL_TIM_OC_Start_DMA(TIM_HandleTypeDef *htim, uint32_t Channel, uint32_t *pData, 
 780:Drivers/STM32F3xx_HAL_Driver/Src/stm32f3xx_hal_tim.c **** {
 1508              		.loc 1 780 0
 1509              		.cfi_startproc
 1510              		@ args = 0, pretend = 0, frame = 16
 1511              		@ frame_needed = 1, uses_anonymous_args = 0
 1512 0000 80B5     		push	{r7, lr}
 1513              	.LCFI54:
 1514              		.cfi_def_cfa_offset 8
 1515              		.cfi_offset 7, -8
 1516              		.cfi_offset 14, -4
 1517 0002 84B0     		sub	sp, sp, #16
 1518              	.LCFI55:
 1519              		.cfi_def_cfa_offset 24
 1520 0004 00AF     		add	r7, sp, #0
 1521              	.LCFI56:
 1522              		.cfi_def_cfa_register 7
 1523 0006 F860     		str	r0, [r7, #12]
 1524 0008 B960     		str	r1, [r7, #8]
 1525 000a 7A60     		str	r2, [r7, #4]
 1526 000c 7B80     		strh	r3, [r7, #2]	@ movhi
 781:Drivers/STM32F3xx_HAL_Driver/Src/stm32f3xx_hal_tim.c ****   /* Check the parameters */
 782:Drivers/STM32F3xx_HAL_Driver/Src/stm32f3xx_hal_tim.c ****   assert_param(IS_TIM_CCX_INSTANCE(htim->Instance, Channel));
 783:Drivers/STM32F3xx_HAL_Driver/Src/stm32f3xx_hal_tim.c ****   
 784:Drivers/STM32F3xx_HAL_Driver/Src/stm32f3xx_hal_tim.c ****   if((htim->State == HAL_TIM_STATE_BUSY))
 1527              		.loc 1 784 0
 1528 000e FB68     		ldr	r3, [r7, #12]
 1529 0010 93F83930 		ldrb	r3, [r3, #57]
 1530 0014 DBB2     		uxtb	r3, r3
 1531 0016 022B     		cmp	r3, #2
 1532 0018 01D1     		bne	.L90
 785:Drivers/STM32F3xx_HAL_Driver/Src/stm32f3xx_hal_tim.c ****   {
ARM GAS  /tmp/ccZyKULX.s 			page 41


 786:Drivers/STM32F3xx_HAL_Driver/Src/stm32f3xx_hal_tim.c ****      return HAL_BUSY;
 1533              		.loc 1 786 0
 1534 001a 0223     		movs	r3, #2
 1535 001c D5E0     		b	.L91
 1536              	.L90:
 787:Drivers/STM32F3xx_HAL_Driver/Src/stm32f3xx_hal_tim.c ****   }
 788:Drivers/STM32F3xx_HAL_Driver/Src/stm32f3xx_hal_tim.c ****   else if((htim->State == HAL_TIM_STATE_READY))
 1537              		.loc 1 788 0
 1538 001e FB68     		ldr	r3, [r7, #12]
 1539 0020 93F83930 		ldrb	r3, [r3, #57]
 1540 0024 DBB2     		uxtb	r3, r3
 1541 0026 012B     		cmp	r3, #1
 1542 0028 0BD1     		bne	.L92
 789:Drivers/STM32F3xx_HAL_Driver/Src/stm32f3xx_hal_tim.c ****   {
 790:Drivers/STM32F3xx_HAL_Driver/Src/stm32f3xx_hal_tim.c ****     if(((uint32_t)pData == 0 ) && (Length > 0)) 
 1543              		.loc 1 790 0
 1544 002a 7B68     		ldr	r3, [r7, #4]
 1545 002c 002B     		cmp	r3, #0
 1546 002e 04D1     		bne	.L93
 1547              		.loc 1 790 0 is_stmt 0 discriminator 1
 1548 0030 7B88     		ldrh	r3, [r7, #2]
 1549 0032 002B     		cmp	r3, #0
 1550 0034 01D0     		beq	.L93
 791:Drivers/STM32F3xx_HAL_Driver/Src/stm32f3xx_hal_tim.c ****     {
 792:Drivers/STM32F3xx_HAL_Driver/Src/stm32f3xx_hal_tim.c ****       return HAL_ERROR;                                    
 1551              		.loc 1 792 0 is_stmt 1
 1552 0036 0123     		movs	r3, #1
 1553 0038 C7E0     		b	.L91
 1554              	.L93:
 793:Drivers/STM32F3xx_HAL_Driver/Src/stm32f3xx_hal_tim.c ****     }
 794:Drivers/STM32F3xx_HAL_Driver/Src/stm32f3xx_hal_tim.c ****     else
 795:Drivers/STM32F3xx_HAL_Driver/Src/stm32f3xx_hal_tim.c ****     {
 796:Drivers/STM32F3xx_HAL_Driver/Src/stm32f3xx_hal_tim.c ****       htim->State = HAL_TIM_STATE_BUSY;
 1555              		.loc 1 796 0
 1556 003a FB68     		ldr	r3, [r7, #12]
 1557 003c 0222     		movs	r2, #2
 1558 003e 83F83920 		strb	r2, [r3, #57]
 1559              	.L92:
 797:Drivers/STM32F3xx_HAL_Driver/Src/stm32f3xx_hal_tim.c ****     }
 798:Drivers/STM32F3xx_HAL_Driver/Src/stm32f3xx_hal_tim.c ****   }    
 799:Drivers/STM32F3xx_HAL_Driver/Src/stm32f3xx_hal_tim.c ****   switch (Channel)
 1560              		.loc 1 799 0
 1561 0042 BB68     		ldr	r3, [r7, #8]
 1562 0044 0C2B     		cmp	r3, #12
 1563 0046 00F28980 		bhi	.L105
 1564 004a 01A2     		adr	r2, .L96
 1565 004c 52F823F0 		ldr	pc, [r2, r3, lsl #2]
 1566              		.p2align 2
 1567              	.L96:
 1568 0050 85000000 		.word	.L95+1
 1569 0054 5D010000 		.word	.L105+1
 1570 0058 5D010000 		.word	.L105+1
 1571 005c 5D010000 		.word	.L105+1
 1572 0060 BB000000 		.word	.L97+1
 1573 0064 5D010000 		.word	.L105+1
 1574 0068 5D010000 		.word	.L105+1
 1575 006c 5D010000 		.word	.L105+1
ARM GAS  /tmp/ccZyKULX.s 			page 42


 1576 0070 F1000000 		.word	.L98+1
 1577 0074 5D010000 		.word	.L105+1
 1578 0078 5D010000 		.word	.L105+1
 1579 007c 5D010000 		.word	.L105+1
 1580 0080 27010000 		.word	.L99+1
 1581              		.p2align 1
 1582              	.L95:
 800:Drivers/STM32F3xx_HAL_Driver/Src/stm32f3xx_hal_tim.c ****   {
 801:Drivers/STM32F3xx_HAL_Driver/Src/stm32f3xx_hal_tim.c ****     case TIM_CHANNEL_1:
 802:Drivers/STM32F3xx_HAL_Driver/Src/stm32f3xx_hal_tim.c ****     {
 803:Drivers/STM32F3xx_HAL_Driver/Src/stm32f3xx_hal_tim.c ****       /* Set the DMA Period elapsed callback */
 804:Drivers/STM32F3xx_HAL_Driver/Src/stm32f3xx_hal_tim.c ****       htim->hdma[TIM_DMA_ID_CC1]->XferCpltCallback = TIM_DMADelayPulseCplt;
 1583              		.loc 1 804 0
 1584 0084 FB68     		ldr	r3, [r7, #12]
 1585 0086 1B6A     		ldr	r3, [r3, #32]
 1586 0088 524A     		ldr	r2, .L106
 1587 008a 9A62     		str	r2, [r3, #40]
 805:Drivers/STM32F3xx_HAL_Driver/Src/stm32f3xx_hal_tim.c ****      
 806:Drivers/STM32F3xx_HAL_Driver/Src/stm32f3xx_hal_tim.c ****       /* Set the DMA error callback */
 807:Drivers/STM32F3xx_HAL_Driver/Src/stm32f3xx_hal_tim.c ****       htim->hdma[TIM_DMA_ID_CC1]->XferErrorCallback = TIM_DMAError ;
 1588              		.loc 1 807 0
 1589 008c FB68     		ldr	r3, [r7, #12]
 1590 008e 1B6A     		ldr	r3, [r3, #32]
 1591 0090 514A     		ldr	r2, .L106+4
 1592 0092 1A63     		str	r2, [r3, #48]
 808:Drivers/STM32F3xx_HAL_Driver/Src/stm32f3xx_hal_tim.c ****       
 809:Drivers/STM32F3xx_HAL_Driver/Src/stm32f3xx_hal_tim.c ****       /* Enable the DMA channel */
 810:Drivers/STM32F3xx_HAL_Driver/Src/stm32f3xx_hal_tim.c ****       HAL_DMA_Start_IT(htim->hdma[TIM_DMA_ID_CC1], (uint32_t)pData, (uint32_t)&htim->Instance->CCR1
 1593              		.loc 1 810 0
 1594 0094 FB68     		ldr	r3, [r7, #12]
 1595 0096 186A     		ldr	r0, [r3, #32]
 1596 0098 7968     		ldr	r1, [r7, #4]
 1597 009a FB68     		ldr	r3, [r7, #12]
 1598 009c 1B68     		ldr	r3, [r3]
 1599 009e 3433     		adds	r3, r3, #52
 1600 00a0 1A46     		mov	r2, r3
 1601 00a2 7B88     		ldrh	r3, [r7, #2]
 1602 00a4 FFF7FEFF 		bl	HAL_DMA_Start_IT
 811:Drivers/STM32F3xx_HAL_Driver/Src/stm32f3xx_hal_tim.c ****       
 812:Drivers/STM32F3xx_HAL_Driver/Src/stm32f3xx_hal_tim.c ****       /* Enable the TIM Capture/Compare 1 DMA request */
 813:Drivers/STM32F3xx_HAL_Driver/Src/stm32f3xx_hal_tim.c ****       __HAL_TIM_ENABLE_DMA(htim, TIM_DMA_CC1);
 1603              		.loc 1 813 0
 1604 00a8 FB68     		ldr	r3, [r7, #12]
 1605 00aa 1B68     		ldr	r3, [r3]
 1606 00ac FA68     		ldr	r2, [r7, #12]
 1607 00ae 1268     		ldr	r2, [r2]
 1608 00b0 D268     		ldr	r2, [r2, #12]
 1609 00b2 42F40072 		orr	r2, r2, #512
 1610 00b6 DA60     		str	r2, [r3, #12]
 814:Drivers/STM32F3xx_HAL_Driver/Src/stm32f3xx_hal_tim.c ****     }
 815:Drivers/STM32F3xx_HAL_Driver/Src/stm32f3xx_hal_tim.c ****     break;
 1611              		.loc 1 815 0
 1612 00b8 51E0     		b	.L100
 1613              	.L97:
 816:Drivers/STM32F3xx_HAL_Driver/Src/stm32f3xx_hal_tim.c ****     
 817:Drivers/STM32F3xx_HAL_Driver/Src/stm32f3xx_hal_tim.c ****     case TIM_CHANNEL_2:
 818:Drivers/STM32F3xx_HAL_Driver/Src/stm32f3xx_hal_tim.c ****     {
ARM GAS  /tmp/ccZyKULX.s 			page 43


 819:Drivers/STM32F3xx_HAL_Driver/Src/stm32f3xx_hal_tim.c ****       /* Set the DMA Period elapsed callback */
 820:Drivers/STM32F3xx_HAL_Driver/Src/stm32f3xx_hal_tim.c ****       htim->hdma[TIM_DMA_ID_CC2]->XferCpltCallback = TIM_DMADelayPulseCplt;
 1614              		.loc 1 820 0
 1615 00ba FB68     		ldr	r3, [r7, #12]
 1616 00bc 5B6A     		ldr	r3, [r3, #36]
 1617 00be 454A     		ldr	r2, .L106
 1618 00c0 9A62     		str	r2, [r3, #40]
 821:Drivers/STM32F3xx_HAL_Driver/Src/stm32f3xx_hal_tim.c ****      
 822:Drivers/STM32F3xx_HAL_Driver/Src/stm32f3xx_hal_tim.c ****       /* Set the DMA error callback */
 823:Drivers/STM32F3xx_HAL_Driver/Src/stm32f3xx_hal_tim.c ****       htim->hdma[TIM_DMA_ID_CC2]->XferErrorCallback = TIM_DMAError ;
 1619              		.loc 1 823 0
 1620 00c2 FB68     		ldr	r3, [r7, #12]
 1621 00c4 5B6A     		ldr	r3, [r3, #36]
 1622 00c6 444A     		ldr	r2, .L106+4
 1623 00c8 1A63     		str	r2, [r3, #48]
 824:Drivers/STM32F3xx_HAL_Driver/Src/stm32f3xx_hal_tim.c ****       
 825:Drivers/STM32F3xx_HAL_Driver/Src/stm32f3xx_hal_tim.c ****       /* Enable the DMA channel */
 826:Drivers/STM32F3xx_HAL_Driver/Src/stm32f3xx_hal_tim.c ****       HAL_DMA_Start_IT(htim->hdma[TIM_DMA_ID_CC2], (uint32_t)pData, (uint32_t)&htim->Instance->CCR2
 1624              		.loc 1 826 0
 1625 00ca FB68     		ldr	r3, [r7, #12]
 1626 00cc 586A     		ldr	r0, [r3, #36]
 1627 00ce 7968     		ldr	r1, [r7, #4]
 1628 00d0 FB68     		ldr	r3, [r7, #12]
 1629 00d2 1B68     		ldr	r3, [r3]
 1630 00d4 3833     		adds	r3, r3, #56
 1631 00d6 1A46     		mov	r2, r3
 1632 00d8 7B88     		ldrh	r3, [r7, #2]
 1633 00da FFF7FEFF 		bl	HAL_DMA_Start_IT
 827:Drivers/STM32F3xx_HAL_Driver/Src/stm32f3xx_hal_tim.c ****       
 828:Drivers/STM32F3xx_HAL_Driver/Src/stm32f3xx_hal_tim.c ****       /* Enable the TIM Capture/Compare 2 DMA request */
 829:Drivers/STM32F3xx_HAL_Driver/Src/stm32f3xx_hal_tim.c ****       __HAL_TIM_ENABLE_DMA(htim, TIM_DMA_CC2);
 1634              		.loc 1 829 0
 1635 00de FB68     		ldr	r3, [r7, #12]
 1636 00e0 1B68     		ldr	r3, [r3]
 1637 00e2 FA68     		ldr	r2, [r7, #12]
 1638 00e4 1268     		ldr	r2, [r2]
 1639 00e6 D268     		ldr	r2, [r2, #12]
 1640 00e8 42F48062 		orr	r2, r2, #1024
 1641 00ec DA60     		str	r2, [r3, #12]
 830:Drivers/STM32F3xx_HAL_Driver/Src/stm32f3xx_hal_tim.c ****     }
 831:Drivers/STM32F3xx_HAL_Driver/Src/stm32f3xx_hal_tim.c ****     break;
 1642              		.loc 1 831 0
 1643 00ee 36E0     		b	.L100
 1644              	.L98:
 832:Drivers/STM32F3xx_HAL_Driver/Src/stm32f3xx_hal_tim.c ****     
 833:Drivers/STM32F3xx_HAL_Driver/Src/stm32f3xx_hal_tim.c ****     case TIM_CHANNEL_3:
 834:Drivers/STM32F3xx_HAL_Driver/Src/stm32f3xx_hal_tim.c ****     {
 835:Drivers/STM32F3xx_HAL_Driver/Src/stm32f3xx_hal_tim.c ****       /* Set the DMA Period elapsed callback */
 836:Drivers/STM32F3xx_HAL_Driver/Src/stm32f3xx_hal_tim.c ****       htim->hdma[TIM_DMA_ID_CC3]->XferCpltCallback = TIM_DMADelayPulseCplt;
 1645              		.loc 1 836 0
 1646 00f0 FB68     		ldr	r3, [r7, #12]
 1647 00f2 9B6A     		ldr	r3, [r3, #40]
 1648 00f4 374A     		ldr	r2, .L106
 1649 00f6 9A62     		str	r2, [r3, #40]
 837:Drivers/STM32F3xx_HAL_Driver/Src/stm32f3xx_hal_tim.c ****      
 838:Drivers/STM32F3xx_HAL_Driver/Src/stm32f3xx_hal_tim.c ****       /* Set the DMA error callback */
 839:Drivers/STM32F3xx_HAL_Driver/Src/stm32f3xx_hal_tim.c ****       htim->hdma[TIM_DMA_ID_CC3]->XferErrorCallback = TIM_DMAError ;
ARM GAS  /tmp/ccZyKULX.s 			page 44


 1650              		.loc 1 839 0
 1651 00f8 FB68     		ldr	r3, [r7, #12]
 1652 00fa 9B6A     		ldr	r3, [r3, #40]
 1653 00fc 364A     		ldr	r2, .L106+4
 1654 00fe 1A63     		str	r2, [r3, #48]
 840:Drivers/STM32F3xx_HAL_Driver/Src/stm32f3xx_hal_tim.c ****       
 841:Drivers/STM32F3xx_HAL_Driver/Src/stm32f3xx_hal_tim.c ****       /* Enable the DMA channel */
 842:Drivers/STM32F3xx_HAL_Driver/Src/stm32f3xx_hal_tim.c ****       HAL_DMA_Start_IT(htim->hdma[TIM_DMA_ID_CC3], (uint32_t)pData, (uint32_t)&htim->Instance->CCR3
 1655              		.loc 1 842 0
 1656 0100 FB68     		ldr	r3, [r7, #12]
 1657 0102 986A     		ldr	r0, [r3, #40]
 1658 0104 7968     		ldr	r1, [r7, #4]
 1659 0106 FB68     		ldr	r3, [r7, #12]
 1660 0108 1B68     		ldr	r3, [r3]
 1661 010a 3C33     		adds	r3, r3, #60
 1662 010c 1A46     		mov	r2, r3
 1663 010e 7B88     		ldrh	r3, [r7, #2]
 1664 0110 FFF7FEFF 		bl	HAL_DMA_Start_IT
 843:Drivers/STM32F3xx_HAL_Driver/Src/stm32f3xx_hal_tim.c ****       
 844:Drivers/STM32F3xx_HAL_Driver/Src/stm32f3xx_hal_tim.c ****       /* Enable the TIM Capture/Compare 3 DMA request */
 845:Drivers/STM32F3xx_HAL_Driver/Src/stm32f3xx_hal_tim.c ****       __HAL_TIM_ENABLE_DMA(htim, TIM_DMA_CC3);
 1665              		.loc 1 845 0
 1666 0114 FB68     		ldr	r3, [r7, #12]
 1667 0116 1B68     		ldr	r3, [r3]
 1668 0118 FA68     		ldr	r2, [r7, #12]
 1669 011a 1268     		ldr	r2, [r2]
 1670 011c D268     		ldr	r2, [r2, #12]
 1671 011e 42F40062 		orr	r2, r2, #2048
 1672 0122 DA60     		str	r2, [r3, #12]
 846:Drivers/STM32F3xx_HAL_Driver/Src/stm32f3xx_hal_tim.c ****     }
 847:Drivers/STM32F3xx_HAL_Driver/Src/stm32f3xx_hal_tim.c ****     break;
 1673              		.loc 1 847 0
 1674 0124 1BE0     		b	.L100
 1675              	.L99:
 848:Drivers/STM32F3xx_HAL_Driver/Src/stm32f3xx_hal_tim.c ****     
 849:Drivers/STM32F3xx_HAL_Driver/Src/stm32f3xx_hal_tim.c ****     case TIM_CHANNEL_4:
 850:Drivers/STM32F3xx_HAL_Driver/Src/stm32f3xx_hal_tim.c ****     {
 851:Drivers/STM32F3xx_HAL_Driver/Src/stm32f3xx_hal_tim.c ****      /* Set the DMA Period elapsed callback */
 852:Drivers/STM32F3xx_HAL_Driver/Src/stm32f3xx_hal_tim.c ****       htim->hdma[TIM_DMA_ID_CC4]->XferCpltCallback = TIM_DMADelayPulseCplt;
 1676              		.loc 1 852 0
 1677 0126 FB68     		ldr	r3, [r7, #12]
 1678 0128 DB6A     		ldr	r3, [r3, #44]
 1679 012a 2A4A     		ldr	r2, .L106
 1680 012c 9A62     		str	r2, [r3, #40]
 853:Drivers/STM32F3xx_HAL_Driver/Src/stm32f3xx_hal_tim.c ****      
 854:Drivers/STM32F3xx_HAL_Driver/Src/stm32f3xx_hal_tim.c ****       /* Set the DMA error callback */
 855:Drivers/STM32F3xx_HAL_Driver/Src/stm32f3xx_hal_tim.c ****       htim->hdma[TIM_DMA_ID_CC4]->XferErrorCallback = TIM_DMAError ;
 1681              		.loc 1 855 0
 1682 012e FB68     		ldr	r3, [r7, #12]
 1683 0130 DB6A     		ldr	r3, [r3, #44]
 1684 0132 294A     		ldr	r2, .L106+4
 1685 0134 1A63     		str	r2, [r3, #48]
 856:Drivers/STM32F3xx_HAL_Driver/Src/stm32f3xx_hal_tim.c ****       
 857:Drivers/STM32F3xx_HAL_Driver/Src/stm32f3xx_hal_tim.c ****       /* Enable the DMA channel */
 858:Drivers/STM32F3xx_HAL_Driver/Src/stm32f3xx_hal_tim.c ****       HAL_DMA_Start_IT(htim->hdma[TIM_DMA_ID_CC4], (uint32_t)pData, (uint32_t)&htim->Instance->CCR4
 1686              		.loc 1 858 0
 1687 0136 FB68     		ldr	r3, [r7, #12]
ARM GAS  /tmp/ccZyKULX.s 			page 45


 1688 0138 D86A     		ldr	r0, [r3, #44]
 1689 013a 7968     		ldr	r1, [r7, #4]
 1690 013c FB68     		ldr	r3, [r7, #12]
 1691 013e 1B68     		ldr	r3, [r3]
 1692 0140 4033     		adds	r3, r3, #64
 1693 0142 1A46     		mov	r2, r3
 1694 0144 7B88     		ldrh	r3, [r7, #2]
 1695 0146 FFF7FEFF 		bl	HAL_DMA_Start_IT
 859:Drivers/STM32F3xx_HAL_Driver/Src/stm32f3xx_hal_tim.c ****       
 860:Drivers/STM32F3xx_HAL_Driver/Src/stm32f3xx_hal_tim.c ****       /* Enable the TIM Capture/Compare 4 DMA request */
 861:Drivers/STM32F3xx_HAL_Driver/Src/stm32f3xx_hal_tim.c ****       __HAL_TIM_ENABLE_DMA(htim, TIM_DMA_CC4);
 1696              		.loc 1 861 0
 1697 014a FB68     		ldr	r3, [r7, #12]
 1698 014c 1B68     		ldr	r3, [r3]
 1699 014e FA68     		ldr	r2, [r7, #12]
 1700 0150 1268     		ldr	r2, [r2]
 1701 0152 D268     		ldr	r2, [r2, #12]
 1702 0154 42F48052 		orr	r2, r2, #4096
 1703 0158 DA60     		str	r2, [r3, #12]
 862:Drivers/STM32F3xx_HAL_Driver/Src/stm32f3xx_hal_tim.c ****     }
 863:Drivers/STM32F3xx_HAL_Driver/Src/stm32f3xx_hal_tim.c ****     break;
 1704              		.loc 1 863 0
 1705 015a 00E0     		b	.L100
 1706              	.L105:
 864:Drivers/STM32F3xx_HAL_Driver/Src/stm32f3xx_hal_tim.c ****     
 865:Drivers/STM32F3xx_HAL_Driver/Src/stm32f3xx_hal_tim.c ****     default:
 866:Drivers/STM32F3xx_HAL_Driver/Src/stm32f3xx_hal_tim.c ****     break;
 1707              		.loc 1 866 0
 1708 015c 00BF     		nop
 1709              	.L100:
 867:Drivers/STM32F3xx_HAL_Driver/Src/stm32f3xx_hal_tim.c ****   }
 868:Drivers/STM32F3xx_HAL_Driver/Src/stm32f3xx_hal_tim.c **** 
 869:Drivers/STM32F3xx_HAL_Driver/Src/stm32f3xx_hal_tim.c ****   /* Enable the Output compare channel */
 870:Drivers/STM32F3xx_HAL_Driver/Src/stm32f3xx_hal_tim.c ****   TIM_CCxChannelCmd(htim->Instance, Channel, TIM_CCx_ENABLE);
 1710              		.loc 1 870 0
 1711 015e FB68     		ldr	r3, [r7, #12]
 1712 0160 1B68     		ldr	r3, [r3]
 1713 0162 1846     		mov	r0, r3
 1714 0164 B968     		ldr	r1, [r7, #8]
 1715 0166 0122     		movs	r2, #1
 1716 0168 FFF7FEFF 		bl	TIM_CCxChannelCmd
 871:Drivers/STM32F3xx_HAL_Driver/Src/stm32f3xx_hal_tim.c ****   
 872:Drivers/STM32F3xx_HAL_Driver/Src/stm32f3xx_hal_tim.c ****   if(IS_TIM_BREAK_INSTANCE(htim->Instance) != RESET)  
 1717              		.loc 1 872 0
 1718 016c FB68     		ldr	r3, [r7, #12]
 1719 016e 1A68     		ldr	r2, [r3]
 1720 0170 1A4B     		ldr	r3, .L106+8
 1721 0172 9A42     		cmp	r2, r3
 1722 0174 13D0     		beq	.L101
 1723              		.loc 1 872 0 is_stmt 0 discriminator 2
 1724 0176 FB68     		ldr	r3, [r7, #12]
 1725 0178 1A68     		ldr	r2, [r3]
 1726 017a 194B     		ldr	r3, .L106+12
 1727 017c 9A42     		cmp	r2, r3
 1728 017e 0ED0     		beq	.L101
 1729              		.loc 1 872 0 discriminator 1
 1730 0180 FB68     		ldr	r3, [r7, #12]
ARM GAS  /tmp/ccZyKULX.s 			page 46


 1731 0182 1A68     		ldr	r2, [r3]
 1732 0184 174B     		ldr	r3, .L106+16
 1733 0186 9A42     		cmp	r2, r3
 1734 0188 09D0     		beq	.L101
 1735 018a FB68     		ldr	r3, [r7, #12]
 1736 018c 1A68     		ldr	r2, [r3]
 1737 018e 164B     		ldr	r3, .L106+20
 1738 0190 9A42     		cmp	r2, r3
 1739 0192 04D0     		beq	.L101
 1740 0194 FB68     		ldr	r3, [r7, #12]
 1741 0196 1A68     		ldr	r2, [r3]
 1742 0198 144B     		ldr	r3, .L106+24
 1743 019a 9A42     		cmp	r2, r3
 1744 019c 01D1     		bne	.L102
 1745              	.L101:
 1746 019e 0123     		movs	r3, #1
 1747 01a0 00E0     		b	.L103
 1748              	.L102:
 1749              		.loc 1 872 0 discriminator 3
 1750 01a2 0023     		movs	r3, #0
 1751              	.L103:
 1752              		.loc 1 872 0 discriminator 4
 1753 01a4 002B     		cmp	r3, #0
 1754 01a6 07D0     		beq	.L104
 873:Drivers/STM32F3xx_HAL_Driver/Src/stm32f3xx_hal_tim.c ****   {
 874:Drivers/STM32F3xx_HAL_Driver/Src/stm32f3xx_hal_tim.c ****     /* Enable the main output */
 875:Drivers/STM32F3xx_HAL_Driver/Src/stm32f3xx_hal_tim.c ****     __HAL_TIM_MOE_ENABLE(htim);
 1755              		.loc 1 875 0 is_stmt 1
 1756 01a8 FB68     		ldr	r3, [r7, #12]
 1757 01aa 1B68     		ldr	r3, [r3]
 1758 01ac FA68     		ldr	r2, [r7, #12]
 1759 01ae 1268     		ldr	r2, [r2]
 1760 01b0 526C     		ldr	r2, [r2, #68]
 1761 01b2 42F40042 		orr	r2, r2, #32768
 1762 01b6 5A64     		str	r2, [r3, #68]
 1763              	.L104:
 876:Drivers/STM32F3xx_HAL_Driver/Src/stm32f3xx_hal_tim.c ****   }  
 877:Drivers/STM32F3xx_HAL_Driver/Src/stm32f3xx_hal_tim.c ****   
 878:Drivers/STM32F3xx_HAL_Driver/Src/stm32f3xx_hal_tim.c ****   /* Enable the Peripheral */
 879:Drivers/STM32F3xx_HAL_Driver/Src/stm32f3xx_hal_tim.c ****   __HAL_TIM_ENABLE(htim); 
 1764              		.loc 1 879 0
 1765 01b8 FB68     		ldr	r3, [r7, #12]
 1766 01ba 1B68     		ldr	r3, [r3]
 1767 01bc FA68     		ldr	r2, [r7, #12]
 1768 01be 1268     		ldr	r2, [r2]
 1769 01c0 1268     		ldr	r2, [r2]
 1770 01c2 42F00102 		orr	r2, r2, #1
 1771 01c6 1A60     		str	r2, [r3]
 880:Drivers/STM32F3xx_HAL_Driver/Src/stm32f3xx_hal_tim.c ****   
 881:Drivers/STM32F3xx_HAL_Driver/Src/stm32f3xx_hal_tim.c ****   /* Return function status */
 882:Drivers/STM32F3xx_HAL_Driver/Src/stm32f3xx_hal_tim.c ****   return HAL_OK;
 1772              		.loc 1 882 0
 1773 01c8 0023     		movs	r3, #0
 1774              	.L91:
 883:Drivers/STM32F3xx_HAL_Driver/Src/stm32f3xx_hal_tim.c **** }
 1775              		.loc 1 883 0
 1776 01ca 1846     		mov	r0, r3
ARM GAS  /tmp/ccZyKULX.s 			page 47


 1777 01cc 1037     		adds	r7, r7, #16
 1778 01ce BD46     		mov	sp, r7
 1779              		@ sp needed
 1780 01d0 80BD     		pop	{r7, pc}
 1781              	.L107:
 1782 01d2 00BF     		.align	2
 1783              	.L106:
 1784 01d4 00000000 		.word	TIM_DMADelayPulseCplt
 1785 01d8 00000000 		.word	TIM_DMAError
 1786 01dc 002C0140 		.word	1073818624
 1787 01e0 00340140 		.word	1073820672
 1788 01e4 00400140 		.word	1073823744
 1789 01e8 00440140 		.word	1073824768
 1790 01ec 00480140 		.word	1073825792
 1791              		.cfi_endproc
 1792              	.LFE143:
 1794              		.section	.text.HAL_TIM_OC_Stop_DMA,"ax",%progbits
 1795              		.align	2
 1796              		.global	HAL_TIM_OC_Stop_DMA
 1797              		.thumb
 1798              		.thumb_func
 1800              	HAL_TIM_OC_Stop_DMA:
 1801              	.LFB144:
 884:Drivers/STM32F3xx_HAL_Driver/Src/stm32f3xx_hal_tim.c **** 
 885:Drivers/STM32F3xx_HAL_Driver/Src/stm32f3xx_hal_tim.c **** /**
 886:Drivers/STM32F3xx_HAL_Driver/Src/stm32f3xx_hal_tim.c ****   * @brief  Stops the TIM Output Compare signal generation in DMA mode.
 887:Drivers/STM32F3xx_HAL_Driver/Src/stm32f3xx_hal_tim.c ****   * @param  htim: TIM Output Compare handle
 888:Drivers/STM32F3xx_HAL_Driver/Src/stm32f3xx_hal_tim.c ****   * @param  Channel: TIM Channel to be disabled
 889:Drivers/STM32F3xx_HAL_Driver/Src/stm32f3xx_hal_tim.c ****   *          This parameter can be one of the following values:
 890:Drivers/STM32F3xx_HAL_Driver/Src/stm32f3xx_hal_tim.c ****   *            @arg TIM_CHANNEL_1: TIM Channel 1 selected
 891:Drivers/STM32F3xx_HAL_Driver/Src/stm32f3xx_hal_tim.c ****   *            @arg TIM_CHANNEL_2: TIM Channel 2 selected
 892:Drivers/STM32F3xx_HAL_Driver/Src/stm32f3xx_hal_tim.c ****   *            @arg TIM_CHANNEL_3: TIM Channel 3 selected
 893:Drivers/STM32F3xx_HAL_Driver/Src/stm32f3xx_hal_tim.c ****   *            @arg TIM_CHANNEL_4: TIM Channel 4 selected
 894:Drivers/STM32F3xx_HAL_Driver/Src/stm32f3xx_hal_tim.c ****   * @retval HAL status
 895:Drivers/STM32F3xx_HAL_Driver/Src/stm32f3xx_hal_tim.c **** */
 896:Drivers/STM32F3xx_HAL_Driver/Src/stm32f3xx_hal_tim.c **** HAL_StatusTypeDef HAL_TIM_OC_Stop_DMA(TIM_HandleTypeDef *htim, uint32_t Channel)
 897:Drivers/STM32F3xx_HAL_Driver/Src/stm32f3xx_hal_tim.c **** {
 1802              		.loc 1 897 0
 1803              		.cfi_startproc
 1804              		@ args = 0, pretend = 0, frame = 8
 1805              		@ frame_needed = 1, uses_anonymous_args = 0
 1806 0000 80B5     		push	{r7, lr}
 1807              	.LCFI57:
 1808              		.cfi_def_cfa_offset 8
 1809              		.cfi_offset 7, -8
 1810              		.cfi_offset 14, -4
 1811 0002 82B0     		sub	sp, sp, #8
 1812              	.LCFI58:
 1813              		.cfi_def_cfa_offset 16
 1814 0004 00AF     		add	r7, sp, #0
 1815              	.LCFI59:
 1816              		.cfi_def_cfa_register 7
 1817 0006 7860     		str	r0, [r7, #4]
 1818 0008 3960     		str	r1, [r7]
 898:Drivers/STM32F3xx_HAL_Driver/Src/stm32f3xx_hal_tim.c ****   /* Check the parameters */
 899:Drivers/STM32F3xx_HAL_Driver/Src/stm32f3xx_hal_tim.c ****   assert_param(IS_TIM_CCX_INSTANCE(htim->Instance, Channel));
 900:Drivers/STM32F3xx_HAL_Driver/Src/stm32f3xx_hal_tim.c ****   
ARM GAS  /tmp/ccZyKULX.s 			page 48


 901:Drivers/STM32F3xx_HAL_Driver/Src/stm32f3xx_hal_tim.c ****   switch (Channel)
 1819              		.loc 1 901 0
 1820 000a 3B68     		ldr	r3, [r7]
 1821 000c 0C2B     		cmp	r3, #12
 1822 000e 41D8     		bhi	.L122
 1823 0010 01A2     		adr	r2, .L111
 1824 0012 52F823F0 		ldr	pc, [r2, r3, lsl #2]
 1825 0016 00BF     		.p2align 2
 1826              	.L111:
 1827 0018 4D000000 		.word	.L110+1
 1828 001c 95000000 		.word	.L122+1
 1829 0020 95000000 		.word	.L122+1
 1830 0024 95000000 		.word	.L122+1
 1831 0028 5F000000 		.word	.L112+1
 1832 002c 95000000 		.word	.L122+1
 1833 0030 95000000 		.word	.L122+1
 1834 0034 95000000 		.word	.L122+1
 1835 0038 71000000 		.word	.L113+1
 1836 003c 95000000 		.word	.L122+1
 1837 0040 95000000 		.word	.L122+1
 1838 0044 95000000 		.word	.L122+1
 1839 0048 83000000 		.word	.L114+1
 1840              		.p2align 1
 1841              	.L110:
 902:Drivers/STM32F3xx_HAL_Driver/Src/stm32f3xx_hal_tim.c ****   {
 903:Drivers/STM32F3xx_HAL_Driver/Src/stm32f3xx_hal_tim.c ****     case TIM_CHANNEL_1:
 904:Drivers/STM32F3xx_HAL_Driver/Src/stm32f3xx_hal_tim.c ****     {       
 905:Drivers/STM32F3xx_HAL_Driver/Src/stm32f3xx_hal_tim.c ****       /* Disable the TIM Capture/Compare 1 DMA request */
 906:Drivers/STM32F3xx_HAL_Driver/Src/stm32f3xx_hal_tim.c ****       __HAL_TIM_DISABLE_DMA(htim, TIM_DMA_CC1);
 1842              		.loc 1 906 0
 1843 004c 7B68     		ldr	r3, [r7, #4]
 1844 004e 1B68     		ldr	r3, [r3]
 1845 0050 7A68     		ldr	r2, [r7, #4]
 1846 0052 1268     		ldr	r2, [r2]
 1847 0054 D268     		ldr	r2, [r2, #12]
 1848 0056 22F40072 		bic	r2, r2, #512
 1849 005a DA60     		str	r2, [r3, #12]
 907:Drivers/STM32F3xx_HAL_Driver/Src/stm32f3xx_hal_tim.c ****     }
 908:Drivers/STM32F3xx_HAL_Driver/Src/stm32f3xx_hal_tim.c ****     break;
 1850              		.loc 1 908 0
 1851 005c 1BE0     		b	.L115
 1852              	.L112:
 909:Drivers/STM32F3xx_HAL_Driver/Src/stm32f3xx_hal_tim.c ****     
 910:Drivers/STM32F3xx_HAL_Driver/Src/stm32f3xx_hal_tim.c ****     case TIM_CHANNEL_2:
 911:Drivers/STM32F3xx_HAL_Driver/Src/stm32f3xx_hal_tim.c ****     {
 912:Drivers/STM32F3xx_HAL_Driver/Src/stm32f3xx_hal_tim.c ****       /* Disable the TIM Capture/Compare 2 DMA request */
 913:Drivers/STM32F3xx_HAL_Driver/Src/stm32f3xx_hal_tim.c ****       __HAL_TIM_DISABLE_DMA(htim, TIM_DMA_CC2);
 1853              		.loc 1 913 0
 1854 005e 7B68     		ldr	r3, [r7, #4]
 1855 0060 1B68     		ldr	r3, [r3]
 1856 0062 7A68     		ldr	r2, [r7, #4]
 1857 0064 1268     		ldr	r2, [r2]
 1858 0066 D268     		ldr	r2, [r2, #12]
 1859 0068 22F48062 		bic	r2, r2, #1024
 1860 006c DA60     		str	r2, [r3, #12]
 914:Drivers/STM32F3xx_HAL_Driver/Src/stm32f3xx_hal_tim.c ****     }
 915:Drivers/STM32F3xx_HAL_Driver/Src/stm32f3xx_hal_tim.c ****     break;
ARM GAS  /tmp/ccZyKULX.s 			page 49


 1861              		.loc 1 915 0
 1862 006e 12E0     		b	.L115
 1863              	.L113:
 916:Drivers/STM32F3xx_HAL_Driver/Src/stm32f3xx_hal_tim.c ****     
 917:Drivers/STM32F3xx_HAL_Driver/Src/stm32f3xx_hal_tim.c ****     case TIM_CHANNEL_3:
 918:Drivers/STM32F3xx_HAL_Driver/Src/stm32f3xx_hal_tim.c ****     {
 919:Drivers/STM32F3xx_HAL_Driver/Src/stm32f3xx_hal_tim.c ****       /* Disable the TIM Capture/Compare 3 DMA request */
 920:Drivers/STM32F3xx_HAL_Driver/Src/stm32f3xx_hal_tim.c ****       __HAL_TIM_DISABLE_DMA(htim, TIM_DMA_CC3);
 1864              		.loc 1 920 0
 1865 0070 7B68     		ldr	r3, [r7, #4]
 1866 0072 1B68     		ldr	r3, [r3]
 1867 0074 7A68     		ldr	r2, [r7, #4]
 1868 0076 1268     		ldr	r2, [r2]
 1869 0078 D268     		ldr	r2, [r2, #12]
 1870 007a 22F40062 		bic	r2, r2, #2048
 1871 007e DA60     		str	r2, [r3, #12]
 921:Drivers/STM32F3xx_HAL_Driver/Src/stm32f3xx_hal_tim.c ****     }
 922:Drivers/STM32F3xx_HAL_Driver/Src/stm32f3xx_hal_tim.c ****     break;
 1872              		.loc 1 922 0
 1873 0080 09E0     		b	.L115
 1874              	.L114:
 923:Drivers/STM32F3xx_HAL_Driver/Src/stm32f3xx_hal_tim.c ****     
 924:Drivers/STM32F3xx_HAL_Driver/Src/stm32f3xx_hal_tim.c ****     case TIM_CHANNEL_4:
 925:Drivers/STM32F3xx_HAL_Driver/Src/stm32f3xx_hal_tim.c ****     {
 926:Drivers/STM32F3xx_HAL_Driver/Src/stm32f3xx_hal_tim.c ****       /* Disable the TIM Capture/Compare 4 interrupt */
 927:Drivers/STM32F3xx_HAL_Driver/Src/stm32f3xx_hal_tim.c ****       __HAL_TIM_DISABLE_DMA(htim, TIM_DMA_CC4);
 1875              		.loc 1 927 0
 1876 0082 7B68     		ldr	r3, [r7, #4]
 1877 0084 1B68     		ldr	r3, [r3]
 1878 0086 7A68     		ldr	r2, [r7, #4]
 1879 0088 1268     		ldr	r2, [r2]
 1880 008a D268     		ldr	r2, [r2, #12]
 1881 008c 22F48052 		bic	r2, r2, #4096
 1882 0090 DA60     		str	r2, [r3, #12]
 928:Drivers/STM32F3xx_HAL_Driver/Src/stm32f3xx_hal_tim.c ****     }
 929:Drivers/STM32F3xx_HAL_Driver/Src/stm32f3xx_hal_tim.c ****     break;
 1883              		.loc 1 929 0
 1884 0092 00E0     		b	.L115
 1885              	.L122:
 930:Drivers/STM32F3xx_HAL_Driver/Src/stm32f3xx_hal_tim.c ****     
 931:Drivers/STM32F3xx_HAL_Driver/Src/stm32f3xx_hal_tim.c ****     default:
 932:Drivers/STM32F3xx_HAL_Driver/Src/stm32f3xx_hal_tim.c ****     break;
 1886              		.loc 1 932 0
 1887 0094 00BF     		nop
 1888              	.L115:
 933:Drivers/STM32F3xx_HAL_Driver/Src/stm32f3xx_hal_tim.c ****   } 
 934:Drivers/STM32F3xx_HAL_Driver/Src/stm32f3xx_hal_tim.c ****   
 935:Drivers/STM32F3xx_HAL_Driver/Src/stm32f3xx_hal_tim.c ****   /* Disable the Output compare channel */
 936:Drivers/STM32F3xx_HAL_Driver/Src/stm32f3xx_hal_tim.c ****   TIM_CCxChannelCmd(htim->Instance, Channel, TIM_CCx_DISABLE);
 1889              		.loc 1 936 0
 1890 0096 7B68     		ldr	r3, [r7, #4]
 1891 0098 1B68     		ldr	r3, [r3]
 1892 009a 1846     		mov	r0, r3
 1893 009c 3968     		ldr	r1, [r7]
 1894 009e 0022     		movs	r2, #0
 1895 00a0 FFF7FEFF 		bl	TIM_CCxChannelCmd
 937:Drivers/STM32F3xx_HAL_Driver/Src/stm32f3xx_hal_tim.c ****   
ARM GAS  /tmp/ccZyKULX.s 			page 50


 938:Drivers/STM32F3xx_HAL_Driver/Src/stm32f3xx_hal_tim.c ****   if(IS_TIM_BREAK_INSTANCE(htim->Instance) != RESET)  
 1896              		.loc 1 938 0
 1897 00a4 7B68     		ldr	r3, [r7, #4]
 1898 00a6 1A68     		ldr	r2, [r3]
 1899 00a8 2A4B     		ldr	r3, .L123
 1900 00aa 9A42     		cmp	r2, r3
 1901 00ac 13D0     		beq	.L116
 1902              		.loc 1 938 0 is_stmt 0 discriminator 2
 1903 00ae 7B68     		ldr	r3, [r7, #4]
 1904 00b0 1A68     		ldr	r2, [r3]
 1905 00b2 294B     		ldr	r3, .L123+4
 1906 00b4 9A42     		cmp	r2, r3
 1907 00b6 0ED0     		beq	.L116
 1908              		.loc 1 938 0 discriminator 1
 1909 00b8 7B68     		ldr	r3, [r7, #4]
 1910 00ba 1A68     		ldr	r2, [r3]
 1911 00bc 274B     		ldr	r3, .L123+8
 1912 00be 9A42     		cmp	r2, r3
 1913 00c0 09D0     		beq	.L116
 1914 00c2 7B68     		ldr	r3, [r7, #4]
 1915 00c4 1A68     		ldr	r2, [r3]
 1916 00c6 264B     		ldr	r3, .L123+12
 1917 00c8 9A42     		cmp	r2, r3
 1918 00ca 04D0     		beq	.L116
 1919 00cc 7B68     		ldr	r3, [r7, #4]
 1920 00ce 1A68     		ldr	r2, [r3]
 1921 00d0 244B     		ldr	r3, .L123+16
 1922 00d2 9A42     		cmp	r2, r3
 1923 00d4 01D1     		bne	.L117
 1924              	.L116:
 1925 00d6 0123     		movs	r3, #1
 1926 00d8 00E0     		b	.L118
 1927              	.L117:
 1928              		.loc 1 938 0 discriminator 3
 1929 00da 0023     		movs	r3, #0
 1930              	.L118:
 1931              		.loc 1 938 0 discriminator 4
 1932 00dc 002B     		cmp	r3, #0
 1933 00de 17D0     		beq	.L119
 939:Drivers/STM32F3xx_HAL_Driver/Src/stm32f3xx_hal_tim.c ****   {
 940:Drivers/STM32F3xx_HAL_Driver/Src/stm32f3xx_hal_tim.c ****     /* Disable the Main Ouput */
 941:Drivers/STM32F3xx_HAL_Driver/Src/stm32f3xx_hal_tim.c ****     __HAL_TIM_MOE_DISABLE(htim);
 1934              		.loc 1 941 0 is_stmt 1
 1935 00e0 7B68     		ldr	r3, [r7, #4]
 1936 00e2 1B68     		ldr	r3, [r3]
 1937 00e4 1A6A     		ldr	r2, [r3, #32]
 1938 00e6 41F21113 		movw	r3, #4369
 1939 00ea 1340     		ands	r3, r3, r2
 1940 00ec 002B     		cmp	r3, #0
 1941 00ee 0FD1     		bne	.L119
 1942              		.loc 1 941 0 is_stmt 0 discriminator 1
 1943 00f0 7B68     		ldr	r3, [r7, #4]
 1944 00f2 1B68     		ldr	r3, [r3]
 1945 00f4 1A6A     		ldr	r2, [r3, #32]
 1946 00f6 40F24443 		movw	r3, #1092
 1947 00fa 1340     		ands	r3, r3, r2
 1948 00fc 002B     		cmp	r3, #0
ARM GAS  /tmp/ccZyKULX.s 			page 51


 1949 00fe 07D1     		bne	.L119
 1950 0100 7B68     		ldr	r3, [r7, #4]
 1951 0102 1B68     		ldr	r3, [r3]
 1952 0104 7A68     		ldr	r2, [r7, #4]
 1953 0106 1268     		ldr	r2, [r2]
 1954 0108 526C     		ldr	r2, [r2, #68]
 1955 010a 22F40042 		bic	r2, r2, #32768
 1956 010e 5A64     		str	r2, [r3, #68]
 1957              	.L119:
 942:Drivers/STM32F3xx_HAL_Driver/Src/stm32f3xx_hal_tim.c ****   }
 943:Drivers/STM32F3xx_HAL_Driver/Src/stm32f3xx_hal_tim.c ****   
 944:Drivers/STM32F3xx_HAL_Driver/Src/stm32f3xx_hal_tim.c ****   /* Disable the Peripheral */
 945:Drivers/STM32F3xx_HAL_Driver/Src/stm32f3xx_hal_tim.c ****   __HAL_TIM_DISABLE(htim);
 1958              		.loc 1 945 0 is_stmt 1
 1959 0110 7B68     		ldr	r3, [r7, #4]
 1960 0112 1B68     		ldr	r3, [r3]
 1961 0114 1A6A     		ldr	r2, [r3, #32]
 1962 0116 41F21113 		movw	r3, #4369
 1963 011a 1340     		ands	r3, r3, r2
 1964 011c 002B     		cmp	r3, #0
 1965 011e 0FD1     		bne	.L120
 1966              		.loc 1 945 0 is_stmt 0 discriminator 1
 1967 0120 7B68     		ldr	r3, [r7, #4]
 1968 0122 1B68     		ldr	r3, [r3]
 1969 0124 1A6A     		ldr	r2, [r3, #32]
 1970 0126 40F24443 		movw	r3, #1092
 1971 012a 1340     		ands	r3, r3, r2
 1972 012c 002B     		cmp	r3, #0
 1973 012e 07D1     		bne	.L120
 1974 0130 7B68     		ldr	r3, [r7, #4]
 1975 0132 1B68     		ldr	r3, [r3]
 1976 0134 7A68     		ldr	r2, [r7, #4]
 1977 0136 1268     		ldr	r2, [r2]
 1978 0138 1268     		ldr	r2, [r2]
 1979 013a 22F00102 		bic	r2, r2, #1
 1980 013e 1A60     		str	r2, [r3]
 1981              	.L120:
 946:Drivers/STM32F3xx_HAL_Driver/Src/stm32f3xx_hal_tim.c ****   
 947:Drivers/STM32F3xx_HAL_Driver/Src/stm32f3xx_hal_tim.c ****   /* Change the htim state */
 948:Drivers/STM32F3xx_HAL_Driver/Src/stm32f3xx_hal_tim.c ****   htim->State = HAL_TIM_STATE_READY;
 1982              		.loc 1 948 0 is_stmt 1
 1983 0140 7B68     		ldr	r3, [r7, #4]
 1984 0142 0122     		movs	r2, #1
 1985 0144 83F83920 		strb	r2, [r3, #57]
 949:Drivers/STM32F3xx_HAL_Driver/Src/stm32f3xx_hal_tim.c ****   
 950:Drivers/STM32F3xx_HAL_Driver/Src/stm32f3xx_hal_tim.c ****   /* Return function status */
 951:Drivers/STM32F3xx_HAL_Driver/Src/stm32f3xx_hal_tim.c ****   return HAL_OK;
 1986              		.loc 1 951 0
 1987 0148 0023     		movs	r3, #0
 952:Drivers/STM32F3xx_HAL_Driver/Src/stm32f3xx_hal_tim.c **** }
 1988              		.loc 1 952 0
 1989 014a 1846     		mov	r0, r3
 1990 014c 0837     		adds	r7, r7, #8
 1991 014e BD46     		mov	sp, r7
 1992              		@ sp needed
 1993 0150 80BD     		pop	{r7, pc}
 1994              	.L124:
ARM GAS  /tmp/ccZyKULX.s 			page 52


 1995 0152 00BF     		.align	2
 1996              	.L123:
 1997 0154 002C0140 		.word	1073818624
 1998 0158 00340140 		.word	1073820672
 1999 015c 00400140 		.word	1073823744
 2000 0160 00440140 		.word	1073824768
 2001 0164 00480140 		.word	1073825792
 2002              		.cfi_endproc
 2003              	.LFE144:
 2005              		.section	.text.HAL_TIM_PWM_Init,"ax",%progbits
 2006              		.align	2
 2007              		.global	HAL_TIM_PWM_Init
 2008              		.thumb
 2009              		.thumb_func
 2011              	HAL_TIM_PWM_Init:
 2012              	.LFB145:
 953:Drivers/STM32F3xx_HAL_Driver/Src/stm32f3xx_hal_tim.c **** 
 954:Drivers/STM32F3xx_HAL_Driver/Src/stm32f3xx_hal_tim.c **** /**
 955:Drivers/STM32F3xx_HAL_Driver/Src/stm32f3xx_hal_tim.c ****   * @}
 956:Drivers/STM32F3xx_HAL_Driver/Src/stm32f3xx_hal_tim.c ****   */
 957:Drivers/STM32F3xx_HAL_Driver/Src/stm32f3xx_hal_tim.c **** 
 958:Drivers/STM32F3xx_HAL_Driver/Src/stm32f3xx_hal_tim.c **** /** @defgroup TIM_Exported_Functions_Group3 Time PWM functions 
 959:Drivers/STM32F3xx_HAL_Driver/Src/stm32f3xx_hal_tim.c ****  *  @brief    Time PWM functions 
 960:Drivers/STM32F3xx_HAL_Driver/Src/stm32f3xx_hal_tim.c ****  *
 961:Drivers/STM32F3xx_HAL_Driver/Src/stm32f3xx_hal_tim.c **** @verbatim    
 962:Drivers/STM32F3xx_HAL_Driver/Src/stm32f3xx_hal_tim.c ****   ==============================================================================
 963:Drivers/STM32F3xx_HAL_Driver/Src/stm32f3xx_hal_tim.c ****                           ##### Time PWM functions #####
 964:Drivers/STM32F3xx_HAL_Driver/Src/stm32f3xx_hal_tim.c ****   ==============================================================================
 965:Drivers/STM32F3xx_HAL_Driver/Src/stm32f3xx_hal_tim.c ****   [..]  
 966:Drivers/STM32F3xx_HAL_Driver/Src/stm32f3xx_hal_tim.c ****     This section provides functions allowing to:
 967:Drivers/STM32F3xx_HAL_Driver/Src/stm32f3xx_hal_tim.c ****     (+) Initialize and configure the TIM OPWM. 
 968:Drivers/STM32F3xx_HAL_Driver/Src/stm32f3xx_hal_tim.c ****     (+) De-initialize the TIM PWM.
 969:Drivers/STM32F3xx_HAL_Driver/Src/stm32f3xx_hal_tim.c ****     (+) Start the Time PWM.
 970:Drivers/STM32F3xx_HAL_Driver/Src/stm32f3xx_hal_tim.c ****     (+) Stop the Time PWM.
 971:Drivers/STM32F3xx_HAL_Driver/Src/stm32f3xx_hal_tim.c ****     (+) Start the Time PWM and enable interrupt.
 972:Drivers/STM32F3xx_HAL_Driver/Src/stm32f3xx_hal_tim.c ****     (+) Stop the Time PWM and disable interrupt.
 973:Drivers/STM32F3xx_HAL_Driver/Src/stm32f3xx_hal_tim.c ****     (+) Start the Time PWM and enable DMA transfer.
 974:Drivers/STM32F3xx_HAL_Driver/Src/stm32f3xx_hal_tim.c ****     (+) Stop the Time PWM and disable DMA transfer.
 975:Drivers/STM32F3xx_HAL_Driver/Src/stm32f3xx_hal_tim.c ****  
 976:Drivers/STM32F3xx_HAL_Driver/Src/stm32f3xx_hal_tim.c **** @endverbatim
 977:Drivers/STM32F3xx_HAL_Driver/Src/stm32f3xx_hal_tim.c ****   * @{
 978:Drivers/STM32F3xx_HAL_Driver/Src/stm32f3xx_hal_tim.c ****   */
 979:Drivers/STM32F3xx_HAL_Driver/Src/stm32f3xx_hal_tim.c **** /**
 980:Drivers/STM32F3xx_HAL_Driver/Src/stm32f3xx_hal_tim.c ****   * @brief  Initializes the TIM PWM Time Base according to the specified
 981:Drivers/STM32F3xx_HAL_Driver/Src/stm32f3xx_hal_tim.c ****   *         parameters in the TIM_HandleTypeDef and create the associated handle.
 982:Drivers/STM32F3xx_HAL_Driver/Src/stm32f3xx_hal_tim.c ****   * @param  htim: TIM handle
 983:Drivers/STM32F3xx_HAL_Driver/Src/stm32f3xx_hal_tim.c ****   * @retval HAL status
 984:Drivers/STM32F3xx_HAL_Driver/Src/stm32f3xx_hal_tim.c ****   */
 985:Drivers/STM32F3xx_HAL_Driver/Src/stm32f3xx_hal_tim.c **** HAL_StatusTypeDef HAL_TIM_PWM_Init(TIM_HandleTypeDef *htim)
 986:Drivers/STM32F3xx_HAL_Driver/Src/stm32f3xx_hal_tim.c **** {
 2013              		.loc 1 986 0
 2014              		.cfi_startproc
 2015              		@ args = 0, pretend = 0, frame = 8
 2016              		@ frame_needed = 1, uses_anonymous_args = 0
 2017 0000 80B5     		push	{r7, lr}
 2018              	.LCFI60:
 2019              		.cfi_def_cfa_offset 8
ARM GAS  /tmp/ccZyKULX.s 			page 53


 2020              		.cfi_offset 7, -8
 2021              		.cfi_offset 14, -4
 2022 0002 82B0     		sub	sp, sp, #8
 2023              	.LCFI61:
 2024              		.cfi_def_cfa_offset 16
 2025 0004 00AF     		add	r7, sp, #0
 2026              	.LCFI62:
 2027              		.cfi_def_cfa_register 7
 2028 0006 7860     		str	r0, [r7, #4]
 987:Drivers/STM32F3xx_HAL_Driver/Src/stm32f3xx_hal_tim.c ****   /* Check the TIM handle allocation */
 988:Drivers/STM32F3xx_HAL_Driver/Src/stm32f3xx_hal_tim.c ****   if(htim == NULL)
 2029              		.loc 1 988 0
 2030 0008 7B68     		ldr	r3, [r7, #4]
 2031 000a 002B     		cmp	r3, #0
 2032 000c 01D1     		bne	.L126
 989:Drivers/STM32F3xx_HAL_Driver/Src/stm32f3xx_hal_tim.c ****   {
 990:Drivers/STM32F3xx_HAL_Driver/Src/stm32f3xx_hal_tim.c ****     return HAL_ERROR;
 2033              		.loc 1 990 0
 2034 000e 0123     		movs	r3, #1
 2035 0010 1DE0     		b	.L127
 2036              	.L126:
 991:Drivers/STM32F3xx_HAL_Driver/Src/stm32f3xx_hal_tim.c ****   }
 992:Drivers/STM32F3xx_HAL_Driver/Src/stm32f3xx_hal_tim.c **** 
 993:Drivers/STM32F3xx_HAL_Driver/Src/stm32f3xx_hal_tim.c ****   /* Check the parameters */
 994:Drivers/STM32F3xx_HAL_Driver/Src/stm32f3xx_hal_tim.c ****   assert_param(IS_TIM_INSTANCE(htim->Instance));
 995:Drivers/STM32F3xx_HAL_Driver/Src/stm32f3xx_hal_tim.c ****   assert_param(IS_TIM_COUNTER_MODE(htim->Init.CounterMode));
 996:Drivers/STM32F3xx_HAL_Driver/Src/stm32f3xx_hal_tim.c ****   assert_param(IS_TIM_CLOCKDIVISION_DIV(htim->Init.ClockDivision));
 997:Drivers/STM32F3xx_HAL_Driver/Src/stm32f3xx_hal_tim.c **** 
 998:Drivers/STM32F3xx_HAL_Driver/Src/stm32f3xx_hal_tim.c ****   if(htim->State == HAL_TIM_STATE_RESET)
 2037              		.loc 1 998 0
 2038 0012 7B68     		ldr	r3, [r7, #4]
 2039 0014 93F83930 		ldrb	r3, [r3, #57]
 2040 0018 DBB2     		uxtb	r3, r3
 2041 001a 002B     		cmp	r3, #0
 2042 001c 06D1     		bne	.L128
 999:Drivers/STM32F3xx_HAL_Driver/Src/stm32f3xx_hal_tim.c ****   {
1000:Drivers/STM32F3xx_HAL_Driver/Src/stm32f3xx_hal_tim.c ****     /* Allocate lock resource and initialize it */
1001:Drivers/STM32F3xx_HAL_Driver/Src/stm32f3xx_hal_tim.c ****     htim->Lock = HAL_UNLOCKED;
 2043              		.loc 1 1001 0
 2044 001e 7B68     		ldr	r3, [r7, #4]
 2045 0020 0022     		movs	r2, #0
 2046 0022 83F83820 		strb	r2, [r3, #56]
1002:Drivers/STM32F3xx_HAL_Driver/Src/stm32f3xx_hal_tim.c **** 
1003:Drivers/STM32F3xx_HAL_Driver/Src/stm32f3xx_hal_tim.c ****     /* Init the low level hardware : GPIO, CLOCK, NVIC and DMA */
1004:Drivers/STM32F3xx_HAL_Driver/Src/stm32f3xx_hal_tim.c ****     HAL_TIM_PWM_MspInit(htim);
 2047              		.loc 1 1004 0
 2048 0026 7868     		ldr	r0, [r7, #4]
 2049 0028 FFF7FEFF 		bl	HAL_TIM_PWM_MspInit
 2050              	.L128:
1005:Drivers/STM32F3xx_HAL_Driver/Src/stm32f3xx_hal_tim.c ****   }
1006:Drivers/STM32F3xx_HAL_Driver/Src/stm32f3xx_hal_tim.c **** 
1007:Drivers/STM32F3xx_HAL_Driver/Src/stm32f3xx_hal_tim.c ****   /* Set the TIM state */
1008:Drivers/STM32F3xx_HAL_Driver/Src/stm32f3xx_hal_tim.c ****   htim->State= HAL_TIM_STATE_BUSY;
 2051              		.loc 1 1008 0
 2052 002c 7B68     		ldr	r3, [r7, #4]
 2053 002e 0222     		movs	r2, #2
 2054 0030 83F83920 		strb	r2, [r3, #57]
ARM GAS  /tmp/ccZyKULX.s 			page 54


1009:Drivers/STM32F3xx_HAL_Driver/Src/stm32f3xx_hal_tim.c ****  
1010:Drivers/STM32F3xx_HAL_Driver/Src/stm32f3xx_hal_tim.c ****   /* Init the base time for the PWM */  
1011:Drivers/STM32F3xx_HAL_Driver/Src/stm32f3xx_hal_tim.c ****   TIM_Base_SetConfig(htim->Instance, &htim->Init); 
 2055              		.loc 1 1011 0
 2056 0034 7B68     		ldr	r3, [r7, #4]
 2057 0036 1A68     		ldr	r2, [r3]
 2058 0038 7B68     		ldr	r3, [r7, #4]
 2059 003a 0433     		adds	r3, r3, #4
 2060 003c 1046     		mov	r0, r2
 2061 003e 1946     		mov	r1, r3
 2062 0040 FFF7FEFF 		bl	TIM_Base_SetConfig
1012:Drivers/STM32F3xx_HAL_Driver/Src/stm32f3xx_hal_tim.c ****    
1013:Drivers/STM32F3xx_HAL_Driver/Src/stm32f3xx_hal_tim.c ****   /* Initialize the TIM state*/
1014:Drivers/STM32F3xx_HAL_Driver/Src/stm32f3xx_hal_tim.c ****   htim->State= HAL_TIM_STATE_READY;
 2063              		.loc 1 1014 0
 2064 0044 7B68     		ldr	r3, [r7, #4]
 2065 0046 0122     		movs	r2, #1
 2066 0048 83F83920 		strb	r2, [r3, #57]
1015:Drivers/STM32F3xx_HAL_Driver/Src/stm32f3xx_hal_tim.c ****   
1016:Drivers/STM32F3xx_HAL_Driver/Src/stm32f3xx_hal_tim.c ****   return HAL_OK;
 2067              		.loc 1 1016 0
 2068 004c 0023     		movs	r3, #0
 2069              	.L127:
1017:Drivers/STM32F3xx_HAL_Driver/Src/stm32f3xx_hal_tim.c **** }
 2070              		.loc 1 1017 0
 2071 004e 1846     		mov	r0, r3
 2072 0050 0837     		adds	r7, r7, #8
 2073 0052 BD46     		mov	sp, r7
 2074              		@ sp needed
 2075 0054 80BD     		pop	{r7, pc}
 2076              		.cfi_endproc
 2077              	.LFE145:
 2079 0056 00BF     		.section	.text.HAL_TIM_PWM_DeInit,"ax",%progbits
 2080              		.align	2
 2081              		.global	HAL_TIM_PWM_DeInit
 2082              		.thumb
 2083              		.thumb_func
 2085              	HAL_TIM_PWM_DeInit:
 2086              	.LFB146:
1018:Drivers/STM32F3xx_HAL_Driver/Src/stm32f3xx_hal_tim.c **** 
1019:Drivers/STM32F3xx_HAL_Driver/Src/stm32f3xx_hal_tim.c **** /**
1020:Drivers/STM32F3xx_HAL_Driver/Src/stm32f3xx_hal_tim.c ****   * @brief  DeInitializes the TIM peripheral 
1021:Drivers/STM32F3xx_HAL_Driver/Src/stm32f3xx_hal_tim.c ****   * @param  htim: TIM handle
1022:Drivers/STM32F3xx_HAL_Driver/Src/stm32f3xx_hal_tim.c ****   * @retval HAL status
1023:Drivers/STM32F3xx_HAL_Driver/Src/stm32f3xx_hal_tim.c ****   */
1024:Drivers/STM32F3xx_HAL_Driver/Src/stm32f3xx_hal_tim.c **** HAL_StatusTypeDef HAL_TIM_PWM_DeInit(TIM_HandleTypeDef *htim)
1025:Drivers/STM32F3xx_HAL_Driver/Src/stm32f3xx_hal_tim.c **** {
 2087              		.loc 1 1025 0
 2088              		.cfi_startproc
 2089              		@ args = 0, pretend = 0, frame = 8
 2090              		@ frame_needed = 1, uses_anonymous_args = 0
 2091 0000 80B5     		push	{r7, lr}
 2092              	.LCFI63:
 2093              		.cfi_def_cfa_offset 8
 2094              		.cfi_offset 7, -8
 2095              		.cfi_offset 14, -4
 2096 0002 82B0     		sub	sp, sp, #8
ARM GAS  /tmp/ccZyKULX.s 			page 55


 2097              	.LCFI64:
 2098              		.cfi_def_cfa_offset 16
 2099 0004 00AF     		add	r7, sp, #0
 2100              	.LCFI65:
 2101              		.cfi_def_cfa_register 7
 2102 0006 7860     		str	r0, [r7, #4]
1026:Drivers/STM32F3xx_HAL_Driver/Src/stm32f3xx_hal_tim.c ****   /* Check the parameters */
1027:Drivers/STM32F3xx_HAL_Driver/Src/stm32f3xx_hal_tim.c ****   assert_param(IS_TIM_INSTANCE(htim->Instance));
1028:Drivers/STM32F3xx_HAL_Driver/Src/stm32f3xx_hal_tim.c ****   
1029:Drivers/STM32F3xx_HAL_Driver/Src/stm32f3xx_hal_tim.c ****   htim->State = HAL_TIM_STATE_BUSY;
 2103              		.loc 1 1029 0
 2104 0008 7B68     		ldr	r3, [r7, #4]
 2105 000a 0222     		movs	r2, #2
 2106 000c 83F83920 		strb	r2, [r3, #57]
1030:Drivers/STM32F3xx_HAL_Driver/Src/stm32f3xx_hal_tim.c ****   
1031:Drivers/STM32F3xx_HAL_Driver/Src/stm32f3xx_hal_tim.c ****   /* Disable the TIM Peripheral Clock */
1032:Drivers/STM32F3xx_HAL_Driver/Src/stm32f3xx_hal_tim.c ****   __HAL_TIM_DISABLE(htim);
 2107              		.loc 1 1032 0
 2108 0010 7B68     		ldr	r3, [r7, #4]
 2109 0012 1B68     		ldr	r3, [r3]
 2110 0014 1A6A     		ldr	r2, [r3, #32]
 2111 0016 41F21113 		movw	r3, #4369
 2112 001a 1340     		ands	r3, r3, r2
 2113 001c 002B     		cmp	r3, #0
 2114 001e 0FD1     		bne	.L130
 2115              		.loc 1 1032 0 is_stmt 0 discriminator 1
 2116 0020 7B68     		ldr	r3, [r7, #4]
 2117 0022 1B68     		ldr	r3, [r3]
 2118 0024 1A6A     		ldr	r2, [r3, #32]
 2119 0026 40F24443 		movw	r3, #1092
 2120 002a 1340     		ands	r3, r3, r2
 2121 002c 002B     		cmp	r3, #0
 2122 002e 07D1     		bne	.L130
 2123 0030 7B68     		ldr	r3, [r7, #4]
 2124 0032 1B68     		ldr	r3, [r3]
 2125 0034 7A68     		ldr	r2, [r7, #4]
 2126 0036 1268     		ldr	r2, [r2]
 2127 0038 1268     		ldr	r2, [r2]
 2128 003a 22F00102 		bic	r2, r2, #1
 2129 003e 1A60     		str	r2, [r3]
 2130              	.L130:
1033:Drivers/STM32F3xx_HAL_Driver/Src/stm32f3xx_hal_tim.c ****     
1034:Drivers/STM32F3xx_HAL_Driver/Src/stm32f3xx_hal_tim.c ****   /* DeInit the low level hardware: GPIO, CLOCK, NVIC and DMA */
1035:Drivers/STM32F3xx_HAL_Driver/Src/stm32f3xx_hal_tim.c ****   HAL_TIM_PWM_MspDeInit(htim);
 2131              		.loc 1 1035 0 is_stmt 1
 2132 0040 7868     		ldr	r0, [r7, #4]
 2133 0042 FFF7FEFF 		bl	HAL_TIM_PWM_MspDeInit
1036:Drivers/STM32F3xx_HAL_Driver/Src/stm32f3xx_hal_tim.c ****     
1037:Drivers/STM32F3xx_HAL_Driver/Src/stm32f3xx_hal_tim.c ****   /* Change TIM state */  
1038:Drivers/STM32F3xx_HAL_Driver/Src/stm32f3xx_hal_tim.c ****   htim->State = HAL_TIM_STATE_RESET; 
 2134              		.loc 1 1038 0
 2135 0046 7B68     		ldr	r3, [r7, #4]
 2136 0048 0022     		movs	r2, #0
 2137 004a 83F83920 		strb	r2, [r3, #57]
1039:Drivers/STM32F3xx_HAL_Driver/Src/stm32f3xx_hal_tim.c ****   
1040:Drivers/STM32F3xx_HAL_Driver/Src/stm32f3xx_hal_tim.c ****   /* Release Lock */
1041:Drivers/STM32F3xx_HAL_Driver/Src/stm32f3xx_hal_tim.c ****   __HAL_UNLOCK(htim);
ARM GAS  /tmp/ccZyKULX.s 			page 56


 2138              		.loc 1 1041 0
 2139 004e 7B68     		ldr	r3, [r7, #4]
 2140 0050 0022     		movs	r2, #0
 2141 0052 83F83820 		strb	r2, [r3, #56]
1042:Drivers/STM32F3xx_HAL_Driver/Src/stm32f3xx_hal_tim.c **** 
1043:Drivers/STM32F3xx_HAL_Driver/Src/stm32f3xx_hal_tim.c ****   return HAL_OK;
 2142              		.loc 1 1043 0
 2143 0056 0023     		movs	r3, #0
1044:Drivers/STM32F3xx_HAL_Driver/Src/stm32f3xx_hal_tim.c **** }
 2144              		.loc 1 1044 0
 2145 0058 1846     		mov	r0, r3
 2146 005a 0837     		adds	r7, r7, #8
 2147 005c BD46     		mov	sp, r7
 2148              		@ sp needed
 2149 005e 80BD     		pop	{r7, pc}
 2150              		.cfi_endproc
 2151              	.LFE146:
 2153              		.section	.text.HAL_TIM_PWM_MspInit,"ax",%progbits
 2154              		.align	2
 2155              		.weak	HAL_TIM_PWM_MspInit
 2156              		.thumb
 2157              		.thumb_func
 2159              	HAL_TIM_PWM_MspInit:
 2160              	.LFB147:
1045:Drivers/STM32F3xx_HAL_Driver/Src/stm32f3xx_hal_tim.c **** 
1046:Drivers/STM32F3xx_HAL_Driver/Src/stm32f3xx_hal_tim.c **** /**
1047:Drivers/STM32F3xx_HAL_Driver/Src/stm32f3xx_hal_tim.c ****   * @brief  Initializes the TIM PWM MSP.
1048:Drivers/STM32F3xx_HAL_Driver/Src/stm32f3xx_hal_tim.c ****   * @param  htim: TIM handle
1049:Drivers/STM32F3xx_HAL_Driver/Src/stm32f3xx_hal_tim.c ****   * @retval None
1050:Drivers/STM32F3xx_HAL_Driver/Src/stm32f3xx_hal_tim.c ****   */
1051:Drivers/STM32F3xx_HAL_Driver/Src/stm32f3xx_hal_tim.c **** __weak void HAL_TIM_PWM_MspInit(TIM_HandleTypeDef *htim)
1052:Drivers/STM32F3xx_HAL_Driver/Src/stm32f3xx_hal_tim.c **** {
 2161              		.loc 1 1052 0
 2162              		.cfi_startproc
 2163              		@ args = 0, pretend = 0, frame = 8
 2164              		@ frame_needed = 1, uses_anonymous_args = 0
 2165              		@ link register save eliminated.
 2166 0000 80B4     		push	{r7}
 2167              	.LCFI66:
 2168              		.cfi_def_cfa_offset 4
 2169              		.cfi_offset 7, -4
 2170 0002 83B0     		sub	sp, sp, #12
 2171              	.LCFI67:
 2172              		.cfi_def_cfa_offset 16
 2173 0004 00AF     		add	r7, sp, #0
 2174              	.LCFI68:
 2175              		.cfi_def_cfa_register 7
 2176 0006 7860     		str	r0, [r7, #4]
1053:Drivers/STM32F3xx_HAL_Driver/Src/stm32f3xx_hal_tim.c ****   /* Prevent unused argument(s) compilation warning */
1054:Drivers/STM32F3xx_HAL_Driver/Src/stm32f3xx_hal_tim.c ****   UNUSED(htim);
1055:Drivers/STM32F3xx_HAL_Driver/Src/stm32f3xx_hal_tim.c **** 
1056:Drivers/STM32F3xx_HAL_Driver/Src/stm32f3xx_hal_tim.c ****   /* NOTE : This function Should not be modified, when the callback is needed,
1057:Drivers/STM32F3xx_HAL_Driver/Src/stm32f3xx_hal_tim.c ****             the HAL_TIM_PWM_MspInit could be implemented in the user file
1058:Drivers/STM32F3xx_HAL_Driver/Src/stm32f3xx_hal_tim.c ****    */
1059:Drivers/STM32F3xx_HAL_Driver/Src/stm32f3xx_hal_tim.c **** }
 2177              		.loc 1 1059 0
 2178 0008 0C37     		adds	r7, r7, #12
ARM GAS  /tmp/ccZyKULX.s 			page 57


 2179 000a BD46     		mov	sp, r7
 2180              		@ sp needed
 2181 000c 5DF8047B 		ldr	r7, [sp], #4
 2182 0010 7047     		bx	lr
 2183              		.cfi_endproc
 2184              	.LFE147:
 2186 0012 00BF     		.section	.text.HAL_TIM_PWM_MspDeInit,"ax",%progbits
 2187              		.align	2
 2188              		.weak	HAL_TIM_PWM_MspDeInit
 2189              		.thumb
 2190              		.thumb_func
 2192              	HAL_TIM_PWM_MspDeInit:
 2193              	.LFB148:
1060:Drivers/STM32F3xx_HAL_Driver/Src/stm32f3xx_hal_tim.c **** 
1061:Drivers/STM32F3xx_HAL_Driver/Src/stm32f3xx_hal_tim.c **** /**
1062:Drivers/STM32F3xx_HAL_Driver/Src/stm32f3xx_hal_tim.c ****   * @brief  DeInitializes TIM PWM MSP.
1063:Drivers/STM32F3xx_HAL_Driver/Src/stm32f3xx_hal_tim.c ****   * @param  htim: TIM handle
1064:Drivers/STM32F3xx_HAL_Driver/Src/stm32f3xx_hal_tim.c ****   * @retval None
1065:Drivers/STM32F3xx_HAL_Driver/Src/stm32f3xx_hal_tim.c ****   */
1066:Drivers/STM32F3xx_HAL_Driver/Src/stm32f3xx_hal_tim.c **** __weak void HAL_TIM_PWM_MspDeInit(TIM_HandleTypeDef *htim)
1067:Drivers/STM32F3xx_HAL_Driver/Src/stm32f3xx_hal_tim.c **** {
 2194              		.loc 1 1067 0
 2195              		.cfi_startproc
 2196              		@ args = 0, pretend = 0, frame = 8
 2197              		@ frame_needed = 1, uses_anonymous_args = 0
 2198              		@ link register save eliminated.
 2199 0000 80B4     		push	{r7}
 2200              	.LCFI69:
 2201              		.cfi_def_cfa_offset 4
 2202              		.cfi_offset 7, -4
 2203 0002 83B0     		sub	sp, sp, #12
 2204              	.LCFI70:
 2205              		.cfi_def_cfa_offset 16
 2206 0004 00AF     		add	r7, sp, #0
 2207              	.LCFI71:
 2208              		.cfi_def_cfa_register 7
 2209 0006 7860     		str	r0, [r7, #4]
1068:Drivers/STM32F3xx_HAL_Driver/Src/stm32f3xx_hal_tim.c ****   /* Prevent unused argument(s) compilation warning */
1069:Drivers/STM32F3xx_HAL_Driver/Src/stm32f3xx_hal_tim.c ****   UNUSED(htim);
1070:Drivers/STM32F3xx_HAL_Driver/Src/stm32f3xx_hal_tim.c **** 
1071:Drivers/STM32F3xx_HAL_Driver/Src/stm32f3xx_hal_tim.c ****   /* NOTE : This function Should not be modified, when the callback is needed,
1072:Drivers/STM32F3xx_HAL_Driver/Src/stm32f3xx_hal_tim.c ****             the HAL_TIM_PWM_MspDeInit could be implemented in the user file
1073:Drivers/STM32F3xx_HAL_Driver/Src/stm32f3xx_hal_tim.c ****    */
1074:Drivers/STM32F3xx_HAL_Driver/Src/stm32f3xx_hal_tim.c **** }
 2210              		.loc 1 1074 0
 2211 0008 0C37     		adds	r7, r7, #12
 2212 000a BD46     		mov	sp, r7
 2213              		@ sp needed
 2214 000c 5DF8047B 		ldr	r7, [sp], #4
 2215 0010 7047     		bx	lr
 2216              		.cfi_endproc
 2217              	.LFE148:
 2219 0012 00BF     		.section	.text.HAL_TIM_PWM_Start,"ax",%progbits
 2220              		.align	2
 2221              		.global	HAL_TIM_PWM_Start
 2222              		.thumb
 2223              		.thumb_func
ARM GAS  /tmp/ccZyKULX.s 			page 58


 2225              	HAL_TIM_PWM_Start:
 2226              	.LFB149:
1075:Drivers/STM32F3xx_HAL_Driver/Src/stm32f3xx_hal_tim.c **** 
1076:Drivers/STM32F3xx_HAL_Driver/Src/stm32f3xx_hal_tim.c **** /**
1077:Drivers/STM32F3xx_HAL_Driver/Src/stm32f3xx_hal_tim.c ****   * @brief  Starts the PWM signal generation.
1078:Drivers/STM32F3xx_HAL_Driver/Src/stm32f3xx_hal_tim.c ****   * @param  htim: TIM handle
1079:Drivers/STM32F3xx_HAL_Driver/Src/stm32f3xx_hal_tim.c ****   * @param  Channel: TIM Channels to be enabled
1080:Drivers/STM32F3xx_HAL_Driver/Src/stm32f3xx_hal_tim.c ****   *          This parameter can be one of the following values:
1081:Drivers/STM32F3xx_HAL_Driver/Src/stm32f3xx_hal_tim.c ****   *            @arg TIM_CHANNEL_1: TIM Channel 1 selected
1082:Drivers/STM32F3xx_HAL_Driver/Src/stm32f3xx_hal_tim.c ****   *            @arg TIM_CHANNEL_2: TIM Channel 2 selected
1083:Drivers/STM32F3xx_HAL_Driver/Src/stm32f3xx_hal_tim.c ****   *            @arg TIM_CHANNEL_3: TIM Channel 3 selected
1084:Drivers/STM32F3xx_HAL_Driver/Src/stm32f3xx_hal_tim.c ****   *            @arg TIM_CHANNEL_4: TIM Channel 4 selected
1085:Drivers/STM32F3xx_HAL_Driver/Src/stm32f3xx_hal_tim.c ****   * @retval HAL status
1086:Drivers/STM32F3xx_HAL_Driver/Src/stm32f3xx_hal_tim.c **** */
1087:Drivers/STM32F3xx_HAL_Driver/Src/stm32f3xx_hal_tim.c **** HAL_StatusTypeDef HAL_TIM_PWM_Start(TIM_HandleTypeDef *htim, uint32_t Channel)
1088:Drivers/STM32F3xx_HAL_Driver/Src/stm32f3xx_hal_tim.c **** {
 2227              		.loc 1 1088 0
 2228              		.cfi_startproc
 2229              		@ args = 0, pretend = 0, frame = 8
 2230              		@ frame_needed = 1, uses_anonymous_args = 0
 2231 0000 80B5     		push	{r7, lr}
 2232              	.LCFI72:
 2233              		.cfi_def_cfa_offset 8
 2234              		.cfi_offset 7, -8
 2235              		.cfi_offset 14, -4
 2236 0002 82B0     		sub	sp, sp, #8
 2237              	.LCFI73:
 2238              		.cfi_def_cfa_offset 16
 2239 0004 00AF     		add	r7, sp, #0
 2240              	.LCFI74:
 2241              		.cfi_def_cfa_register 7
 2242 0006 7860     		str	r0, [r7, #4]
 2243 0008 3960     		str	r1, [r7]
1089:Drivers/STM32F3xx_HAL_Driver/Src/stm32f3xx_hal_tim.c ****   /* Check the parameters */
1090:Drivers/STM32F3xx_HAL_Driver/Src/stm32f3xx_hal_tim.c ****   assert_param(IS_TIM_CCX_INSTANCE(htim->Instance, Channel));
1091:Drivers/STM32F3xx_HAL_Driver/Src/stm32f3xx_hal_tim.c ****   
1092:Drivers/STM32F3xx_HAL_Driver/Src/stm32f3xx_hal_tim.c ****   /* Enable the Capture compare channel */
1093:Drivers/STM32F3xx_HAL_Driver/Src/stm32f3xx_hal_tim.c ****   TIM_CCxChannelCmd(htim->Instance, Channel, TIM_CCx_ENABLE);
 2244              		.loc 1 1093 0
 2245 000a 7B68     		ldr	r3, [r7, #4]
 2246 000c 1B68     		ldr	r3, [r3]
 2247 000e 1846     		mov	r0, r3
 2248 0010 3968     		ldr	r1, [r7]
 2249 0012 0122     		movs	r2, #1
 2250 0014 FFF7FEFF 		bl	TIM_CCxChannelCmd
1094:Drivers/STM32F3xx_HAL_Driver/Src/stm32f3xx_hal_tim.c ****   
1095:Drivers/STM32F3xx_HAL_Driver/Src/stm32f3xx_hal_tim.c ****   if(IS_TIM_BREAK_INSTANCE(htim->Instance) != RESET)  
 2251              		.loc 1 1095 0
 2252 0018 7B68     		ldr	r3, [r7, #4]
 2253 001a 1A68     		ldr	r2, [r3]
 2254 001c 184B     		ldr	r3, .L140
 2255 001e 9A42     		cmp	r2, r3
 2256 0020 13D0     		beq	.L135
 2257              		.loc 1 1095 0 is_stmt 0 discriminator 2
 2258 0022 7B68     		ldr	r3, [r7, #4]
 2259 0024 1A68     		ldr	r2, [r3]
 2260 0026 174B     		ldr	r3, .L140+4
ARM GAS  /tmp/ccZyKULX.s 			page 59


 2261 0028 9A42     		cmp	r2, r3
 2262 002a 0ED0     		beq	.L135
 2263              		.loc 1 1095 0 discriminator 1
 2264 002c 7B68     		ldr	r3, [r7, #4]
 2265 002e 1A68     		ldr	r2, [r3]
 2266 0030 154B     		ldr	r3, .L140+8
 2267 0032 9A42     		cmp	r2, r3
 2268 0034 09D0     		beq	.L135
 2269 0036 7B68     		ldr	r3, [r7, #4]
 2270 0038 1A68     		ldr	r2, [r3]
 2271 003a 144B     		ldr	r3, .L140+12
 2272 003c 9A42     		cmp	r2, r3
 2273 003e 04D0     		beq	.L135
 2274 0040 7B68     		ldr	r3, [r7, #4]
 2275 0042 1A68     		ldr	r2, [r3]
 2276 0044 124B     		ldr	r3, .L140+16
 2277 0046 9A42     		cmp	r2, r3
 2278 0048 01D1     		bne	.L136
 2279              	.L135:
 2280 004a 0123     		movs	r3, #1
 2281 004c 00E0     		b	.L137
 2282              	.L136:
 2283              		.loc 1 1095 0 discriminator 3
 2284 004e 0023     		movs	r3, #0
 2285              	.L137:
 2286              		.loc 1 1095 0 discriminator 4
 2287 0050 002B     		cmp	r3, #0
 2288 0052 07D0     		beq	.L138
1096:Drivers/STM32F3xx_HAL_Driver/Src/stm32f3xx_hal_tim.c ****   {
1097:Drivers/STM32F3xx_HAL_Driver/Src/stm32f3xx_hal_tim.c ****     /* Enable the main output */
1098:Drivers/STM32F3xx_HAL_Driver/Src/stm32f3xx_hal_tim.c ****     __HAL_TIM_MOE_ENABLE(htim);
 2289              		.loc 1 1098 0 is_stmt 1
 2290 0054 7B68     		ldr	r3, [r7, #4]
 2291 0056 1B68     		ldr	r3, [r3]
 2292 0058 7A68     		ldr	r2, [r7, #4]
 2293 005a 1268     		ldr	r2, [r2]
 2294 005c 526C     		ldr	r2, [r2, #68]
 2295 005e 42F40042 		orr	r2, r2, #32768
 2296 0062 5A64     		str	r2, [r3, #68]
 2297              	.L138:
1099:Drivers/STM32F3xx_HAL_Driver/Src/stm32f3xx_hal_tim.c ****   }
1100:Drivers/STM32F3xx_HAL_Driver/Src/stm32f3xx_hal_tim.c ****     
1101:Drivers/STM32F3xx_HAL_Driver/Src/stm32f3xx_hal_tim.c ****   /* Enable the Peripheral */
1102:Drivers/STM32F3xx_HAL_Driver/Src/stm32f3xx_hal_tim.c ****   __HAL_TIM_ENABLE(htim);
 2298              		.loc 1 1102 0
 2299 0064 7B68     		ldr	r3, [r7, #4]
 2300 0066 1B68     		ldr	r3, [r3]
 2301 0068 7A68     		ldr	r2, [r7, #4]
 2302 006a 1268     		ldr	r2, [r2]
 2303 006c 1268     		ldr	r2, [r2]
 2304 006e 42F00102 		orr	r2, r2, #1
 2305 0072 1A60     		str	r2, [r3]
1103:Drivers/STM32F3xx_HAL_Driver/Src/stm32f3xx_hal_tim.c ****   
1104:Drivers/STM32F3xx_HAL_Driver/Src/stm32f3xx_hal_tim.c ****   /* Return function status */
1105:Drivers/STM32F3xx_HAL_Driver/Src/stm32f3xx_hal_tim.c ****   return HAL_OK;
 2306              		.loc 1 1105 0
 2307 0074 0023     		movs	r3, #0
ARM GAS  /tmp/ccZyKULX.s 			page 60


1106:Drivers/STM32F3xx_HAL_Driver/Src/stm32f3xx_hal_tim.c **** } 
 2308              		.loc 1 1106 0
 2309 0076 1846     		mov	r0, r3
 2310 0078 0837     		adds	r7, r7, #8
 2311 007a BD46     		mov	sp, r7
 2312              		@ sp needed
 2313 007c 80BD     		pop	{r7, pc}
 2314              	.L141:
 2315 007e 00BF     		.align	2
 2316              	.L140:
 2317 0080 002C0140 		.word	1073818624
 2318 0084 00340140 		.word	1073820672
 2319 0088 00400140 		.word	1073823744
 2320 008c 00440140 		.word	1073824768
 2321 0090 00480140 		.word	1073825792
 2322              		.cfi_endproc
 2323              	.LFE149:
 2325              		.section	.text.HAL_TIM_PWM_Stop,"ax",%progbits
 2326              		.align	2
 2327              		.global	HAL_TIM_PWM_Stop
 2328              		.thumb
 2329              		.thumb_func
 2331              	HAL_TIM_PWM_Stop:
 2332              	.LFB150:
1107:Drivers/STM32F3xx_HAL_Driver/Src/stm32f3xx_hal_tim.c **** 
1108:Drivers/STM32F3xx_HAL_Driver/Src/stm32f3xx_hal_tim.c **** /**
1109:Drivers/STM32F3xx_HAL_Driver/Src/stm32f3xx_hal_tim.c ****   * @brief  Stops the PWM signal generation.
1110:Drivers/STM32F3xx_HAL_Driver/Src/stm32f3xx_hal_tim.c ****   * @param  htim: TIM handle
1111:Drivers/STM32F3xx_HAL_Driver/Src/stm32f3xx_hal_tim.c ****   * @param  Channel: TIM Channels to be disabled
1112:Drivers/STM32F3xx_HAL_Driver/Src/stm32f3xx_hal_tim.c ****   *          This parameter can be one of the following values:
1113:Drivers/STM32F3xx_HAL_Driver/Src/stm32f3xx_hal_tim.c ****   *            @arg TIM_CHANNEL_1: TIM Channel 1 selected
1114:Drivers/STM32F3xx_HAL_Driver/Src/stm32f3xx_hal_tim.c ****   *            @arg TIM_CHANNEL_2: TIM Channel 2 selected
1115:Drivers/STM32F3xx_HAL_Driver/Src/stm32f3xx_hal_tim.c ****   *            @arg TIM_CHANNEL_3: TIM Channel 3 selected
1116:Drivers/STM32F3xx_HAL_Driver/Src/stm32f3xx_hal_tim.c ****   *            @arg TIM_CHANNEL_4: TIM Channel 4 selected
1117:Drivers/STM32F3xx_HAL_Driver/Src/stm32f3xx_hal_tim.c ****   * @retval HAL status
1118:Drivers/STM32F3xx_HAL_Driver/Src/stm32f3xx_hal_tim.c **** */
1119:Drivers/STM32F3xx_HAL_Driver/Src/stm32f3xx_hal_tim.c **** HAL_StatusTypeDef HAL_TIM_PWM_Stop(TIM_HandleTypeDef *htim, uint32_t Channel)
1120:Drivers/STM32F3xx_HAL_Driver/Src/stm32f3xx_hal_tim.c **** {   
 2333              		.loc 1 1120 0
 2334              		.cfi_startproc
 2335              		@ args = 0, pretend = 0, frame = 8
 2336              		@ frame_needed = 1, uses_anonymous_args = 0
 2337 0000 80B5     		push	{r7, lr}
 2338              	.LCFI75:
 2339              		.cfi_def_cfa_offset 8
 2340              		.cfi_offset 7, -8
 2341              		.cfi_offset 14, -4
 2342 0002 82B0     		sub	sp, sp, #8
 2343              	.LCFI76:
 2344              		.cfi_def_cfa_offset 16
 2345 0004 00AF     		add	r7, sp, #0
 2346              	.LCFI77:
 2347              		.cfi_def_cfa_register 7
 2348 0006 7860     		str	r0, [r7, #4]
 2349 0008 3960     		str	r1, [r7]
1121:Drivers/STM32F3xx_HAL_Driver/Src/stm32f3xx_hal_tim.c ****   /* Check the parameters */
1122:Drivers/STM32F3xx_HAL_Driver/Src/stm32f3xx_hal_tim.c ****   assert_param(IS_TIM_CCX_INSTANCE(htim->Instance, Channel));
ARM GAS  /tmp/ccZyKULX.s 			page 61


1123:Drivers/STM32F3xx_HAL_Driver/Src/stm32f3xx_hal_tim.c ****     
1124:Drivers/STM32F3xx_HAL_Driver/Src/stm32f3xx_hal_tim.c ****   /* Disable the Capture compare channel */
1125:Drivers/STM32F3xx_HAL_Driver/Src/stm32f3xx_hal_tim.c ****   TIM_CCxChannelCmd(htim->Instance, Channel, TIM_CCx_DISABLE);
 2350              		.loc 1 1125 0
 2351 000a 7B68     		ldr	r3, [r7, #4]
 2352 000c 1B68     		ldr	r3, [r3]
 2353 000e 1846     		mov	r0, r3
 2354 0010 3968     		ldr	r1, [r7]
 2355 0012 0022     		movs	r2, #0
 2356 0014 FFF7FEFF 		bl	TIM_CCxChannelCmd
1126:Drivers/STM32F3xx_HAL_Driver/Src/stm32f3xx_hal_tim.c ****   
1127:Drivers/STM32F3xx_HAL_Driver/Src/stm32f3xx_hal_tim.c ****   if(IS_TIM_BREAK_INSTANCE(htim->Instance) != RESET)  
 2357              		.loc 1 1127 0
 2358 0018 7B68     		ldr	r3, [r7, #4]
 2359 001a 1A68     		ldr	r2, [r3]
 2360 001c 2A4B     		ldr	r3, .L149
 2361 001e 9A42     		cmp	r2, r3
 2362 0020 13D0     		beq	.L143
 2363              		.loc 1 1127 0 is_stmt 0 discriminator 2
 2364 0022 7B68     		ldr	r3, [r7, #4]
 2365 0024 1A68     		ldr	r2, [r3]
 2366 0026 294B     		ldr	r3, .L149+4
 2367 0028 9A42     		cmp	r2, r3
 2368 002a 0ED0     		beq	.L143
 2369              		.loc 1 1127 0 discriminator 1
 2370 002c 7B68     		ldr	r3, [r7, #4]
 2371 002e 1A68     		ldr	r2, [r3]
 2372 0030 274B     		ldr	r3, .L149+8
 2373 0032 9A42     		cmp	r2, r3
 2374 0034 09D0     		beq	.L143
 2375 0036 7B68     		ldr	r3, [r7, #4]
 2376 0038 1A68     		ldr	r2, [r3]
 2377 003a 264B     		ldr	r3, .L149+12
 2378 003c 9A42     		cmp	r2, r3
 2379 003e 04D0     		beq	.L143
 2380 0040 7B68     		ldr	r3, [r7, #4]
 2381 0042 1A68     		ldr	r2, [r3]
 2382 0044 244B     		ldr	r3, .L149+16
 2383 0046 9A42     		cmp	r2, r3
 2384 0048 01D1     		bne	.L144
 2385              	.L143:
 2386 004a 0123     		movs	r3, #1
 2387 004c 00E0     		b	.L145
 2388              	.L144:
 2389              		.loc 1 1127 0 discriminator 3
 2390 004e 0023     		movs	r3, #0
 2391              	.L145:
 2392              		.loc 1 1127 0 discriminator 4
 2393 0050 002B     		cmp	r3, #0
 2394 0052 17D0     		beq	.L146
1128:Drivers/STM32F3xx_HAL_Driver/Src/stm32f3xx_hal_tim.c ****   {
1129:Drivers/STM32F3xx_HAL_Driver/Src/stm32f3xx_hal_tim.c ****     /* Disable the Main Ouput */
1130:Drivers/STM32F3xx_HAL_Driver/Src/stm32f3xx_hal_tim.c ****     __HAL_TIM_MOE_DISABLE(htim);
 2395              		.loc 1 1130 0 is_stmt 1
 2396 0054 7B68     		ldr	r3, [r7, #4]
 2397 0056 1B68     		ldr	r3, [r3]
 2398 0058 1A6A     		ldr	r2, [r3, #32]
ARM GAS  /tmp/ccZyKULX.s 			page 62


 2399 005a 41F21113 		movw	r3, #4369
 2400 005e 1340     		ands	r3, r3, r2
 2401 0060 002B     		cmp	r3, #0
 2402 0062 0FD1     		bne	.L146
 2403              		.loc 1 1130 0 is_stmt 0 discriminator 1
 2404 0064 7B68     		ldr	r3, [r7, #4]
 2405 0066 1B68     		ldr	r3, [r3]
 2406 0068 1A6A     		ldr	r2, [r3, #32]
 2407 006a 40F24443 		movw	r3, #1092
 2408 006e 1340     		ands	r3, r3, r2
 2409 0070 002B     		cmp	r3, #0
 2410 0072 07D1     		bne	.L146
 2411 0074 7B68     		ldr	r3, [r7, #4]
 2412 0076 1B68     		ldr	r3, [r3]
 2413 0078 7A68     		ldr	r2, [r7, #4]
 2414 007a 1268     		ldr	r2, [r2]
 2415 007c 526C     		ldr	r2, [r2, #68]
 2416 007e 22F40042 		bic	r2, r2, #32768
 2417 0082 5A64     		str	r2, [r3, #68]
 2418              	.L146:
1131:Drivers/STM32F3xx_HAL_Driver/Src/stm32f3xx_hal_tim.c ****   }
1132:Drivers/STM32F3xx_HAL_Driver/Src/stm32f3xx_hal_tim.c ****   
1133:Drivers/STM32F3xx_HAL_Driver/Src/stm32f3xx_hal_tim.c ****   /* Disable the Peripheral */
1134:Drivers/STM32F3xx_HAL_Driver/Src/stm32f3xx_hal_tim.c ****   __HAL_TIM_DISABLE(htim);
 2419              		.loc 1 1134 0 is_stmt 1
 2420 0084 7B68     		ldr	r3, [r7, #4]
 2421 0086 1B68     		ldr	r3, [r3]
 2422 0088 1A6A     		ldr	r2, [r3, #32]
 2423 008a 41F21113 		movw	r3, #4369
 2424 008e 1340     		ands	r3, r3, r2
 2425 0090 002B     		cmp	r3, #0
 2426 0092 0FD1     		bne	.L147
 2427              		.loc 1 1134 0 is_stmt 0 discriminator 1
 2428 0094 7B68     		ldr	r3, [r7, #4]
 2429 0096 1B68     		ldr	r3, [r3]
 2430 0098 1A6A     		ldr	r2, [r3, #32]
 2431 009a 40F24443 		movw	r3, #1092
 2432 009e 1340     		ands	r3, r3, r2
 2433 00a0 002B     		cmp	r3, #0
 2434 00a2 07D1     		bne	.L147
 2435 00a4 7B68     		ldr	r3, [r7, #4]
 2436 00a6 1B68     		ldr	r3, [r3]
 2437 00a8 7A68     		ldr	r2, [r7, #4]
 2438 00aa 1268     		ldr	r2, [r2]
 2439 00ac 1268     		ldr	r2, [r2]
 2440 00ae 22F00102 		bic	r2, r2, #1
 2441 00b2 1A60     		str	r2, [r3]
 2442              	.L147:
1135:Drivers/STM32F3xx_HAL_Driver/Src/stm32f3xx_hal_tim.c ****   
1136:Drivers/STM32F3xx_HAL_Driver/Src/stm32f3xx_hal_tim.c ****   /* Change the htim state */
1137:Drivers/STM32F3xx_HAL_Driver/Src/stm32f3xx_hal_tim.c ****   htim->State = HAL_TIM_STATE_READY;
 2443              		.loc 1 1137 0 is_stmt 1
 2444 00b4 7B68     		ldr	r3, [r7, #4]
 2445 00b6 0122     		movs	r2, #1
 2446 00b8 83F83920 		strb	r2, [r3, #57]
1138:Drivers/STM32F3xx_HAL_Driver/Src/stm32f3xx_hal_tim.c ****   
1139:Drivers/STM32F3xx_HAL_Driver/Src/stm32f3xx_hal_tim.c ****   /* Return function status */
ARM GAS  /tmp/ccZyKULX.s 			page 63


1140:Drivers/STM32F3xx_HAL_Driver/Src/stm32f3xx_hal_tim.c ****   return HAL_OK;
 2447              		.loc 1 1140 0
 2448 00bc 0023     		movs	r3, #0
1141:Drivers/STM32F3xx_HAL_Driver/Src/stm32f3xx_hal_tim.c **** } 
 2449              		.loc 1 1141 0
 2450 00be 1846     		mov	r0, r3
 2451 00c0 0837     		adds	r7, r7, #8
 2452 00c2 BD46     		mov	sp, r7
 2453              		@ sp needed
 2454 00c4 80BD     		pop	{r7, pc}
 2455              	.L150:
 2456 00c6 00BF     		.align	2
 2457              	.L149:
 2458 00c8 002C0140 		.word	1073818624
 2459 00cc 00340140 		.word	1073820672
 2460 00d0 00400140 		.word	1073823744
 2461 00d4 00440140 		.word	1073824768
 2462 00d8 00480140 		.word	1073825792
 2463              		.cfi_endproc
 2464              	.LFE150:
 2466              		.section	.text.HAL_TIM_PWM_Start_IT,"ax",%progbits
 2467              		.align	2
 2468              		.global	HAL_TIM_PWM_Start_IT
 2469              		.thumb
 2470              		.thumb_func
 2472              	HAL_TIM_PWM_Start_IT:
 2473              	.LFB151:
1142:Drivers/STM32F3xx_HAL_Driver/Src/stm32f3xx_hal_tim.c **** 
1143:Drivers/STM32F3xx_HAL_Driver/Src/stm32f3xx_hal_tim.c **** /**
1144:Drivers/STM32F3xx_HAL_Driver/Src/stm32f3xx_hal_tim.c ****   * @brief  Starts the PWM signal generation in interrupt mode.
1145:Drivers/STM32F3xx_HAL_Driver/Src/stm32f3xx_hal_tim.c ****   * @param  htim: TIM handle
1146:Drivers/STM32F3xx_HAL_Driver/Src/stm32f3xx_hal_tim.c ****   * @param  Channel: TIM Channel to be disabled
1147:Drivers/STM32F3xx_HAL_Driver/Src/stm32f3xx_hal_tim.c ****   *          This parameter can be one of the following values:
1148:Drivers/STM32F3xx_HAL_Driver/Src/stm32f3xx_hal_tim.c ****   *            @arg TIM_CHANNEL_1: TIM Channel 1 selected
1149:Drivers/STM32F3xx_HAL_Driver/Src/stm32f3xx_hal_tim.c ****   *            @arg TIM_CHANNEL_2: TIM Channel 2 selected
1150:Drivers/STM32F3xx_HAL_Driver/Src/stm32f3xx_hal_tim.c ****   *            @arg TIM_CHANNEL_3: TIM Channel 3 selected
1151:Drivers/STM32F3xx_HAL_Driver/Src/stm32f3xx_hal_tim.c ****   *            @arg TIM_CHANNEL_4: TIM Channel 4 selected
1152:Drivers/STM32F3xx_HAL_Driver/Src/stm32f3xx_hal_tim.c ****   * @retval HAL status
1153:Drivers/STM32F3xx_HAL_Driver/Src/stm32f3xx_hal_tim.c **** */
1154:Drivers/STM32F3xx_HAL_Driver/Src/stm32f3xx_hal_tim.c **** HAL_StatusTypeDef HAL_TIM_PWM_Start_IT(TIM_HandleTypeDef *htim, uint32_t Channel)
1155:Drivers/STM32F3xx_HAL_Driver/Src/stm32f3xx_hal_tim.c **** {
 2474              		.loc 1 1155 0
 2475              		.cfi_startproc
 2476              		@ args = 0, pretend = 0, frame = 8
 2477              		@ frame_needed = 1, uses_anonymous_args = 0
 2478 0000 80B5     		push	{r7, lr}
 2479              	.LCFI78:
 2480              		.cfi_def_cfa_offset 8
 2481              		.cfi_offset 7, -8
 2482              		.cfi_offset 14, -4
 2483 0002 82B0     		sub	sp, sp, #8
 2484              	.LCFI79:
 2485              		.cfi_def_cfa_offset 16
 2486 0004 00AF     		add	r7, sp, #0
 2487              	.LCFI80:
 2488              		.cfi_def_cfa_register 7
 2489 0006 7860     		str	r0, [r7, #4]
ARM GAS  /tmp/ccZyKULX.s 			page 64


 2490 0008 3960     		str	r1, [r7]
1156:Drivers/STM32F3xx_HAL_Driver/Src/stm32f3xx_hal_tim.c ****   /* Check the parameters */
1157:Drivers/STM32F3xx_HAL_Driver/Src/stm32f3xx_hal_tim.c ****   assert_param(IS_TIM_CCX_INSTANCE(htim->Instance, Channel));
1158:Drivers/STM32F3xx_HAL_Driver/Src/stm32f3xx_hal_tim.c ****   
1159:Drivers/STM32F3xx_HAL_Driver/Src/stm32f3xx_hal_tim.c ****   switch (Channel)
 2491              		.loc 1 1159 0
 2492 000a 3B68     		ldr	r3, [r7]
 2493 000c 0C2B     		cmp	r3, #12
 2494 000e 41D8     		bhi	.L164
 2495 0010 01A2     		adr	r2, .L154
 2496 0012 52F823F0 		ldr	pc, [r2, r3, lsl #2]
 2497 0016 00BF     		.p2align 2
 2498              	.L154:
 2499 0018 4D000000 		.word	.L153+1
 2500 001c 95000000 		.word	.L164+1
 2501 0020 95000000 		.word	.L164+1
 2502 0024 95000000 		.word	.L164+1
 2503 0028 5F000000 		.word	.L155+1
 2504 002c 95000000 		.word	.L164+1
 2505 0030 95000000 		.word	.L164+1
 2506 0034 95000000 		.word	.L164+1
 2507 0038 71000000 		.word	.L156+1
 2508 003c 95000000 		.word	.L164+1
 2509 0040 95000000 		.word	.L164+1
 2510 0044 95000000 		.word	.L164+1
 2511 0048 83000000 		.word	.L157+1
 2512              		.p2align 1
 2513              	.L153:
1160:Drivers/STM32F3xx_HAL_Driver/Src/stm32f3xx_hal_tim.c ****   {
1161:Drivers/STM32F3xx_HAL_Driver/Src/stm32f3xx_hal_tim.c ****     case TIM_CHANNEL_1:
1162:Drivers/STM32F3xx_HAL_Driver/Src/stm32f3xx_hal_tim.c ****     {       
1163:Drivers/STM32F3xx_HAL_Driver/Src/stm32f3xx_hal_tim.c ****       /* Enable the TIM Capture/Compare 1 interrupt */
1164:Drivers/STM32F3xx_HAL_Driver/Src/stm32f3xx_hal_tim.c ****       __HAL_TIM_ENABLE_IT(htim, TIM_IT_CC1);
 2514              		.loc 1 1164 0
 2515 004c 7B68     		ldr	r3, [r7, #4]
 2516 004e 1B68     		ldr	r3, [r3]
 2517 0050 7A68     		ldr	r2, [r7, #4]
 2518 0052 1268     		ldr	r2, [r2]
 2519 0054 D268     		ldr	r2, [r2, #12]
 2520 0056 42F00202 		orr	r2, r2, #2
 2521 005a DA60     		str	r2, [r3, #12]
1165:Drivers/STM32F3xx_HAL_Driver/Src/stm32f3xx_hal_tim.c ****     }
1166:Drivers/STM32F3xx_HAL_Driver/Src/stm32f3xx_hal_tim.c ****     break;
 2522              		.loc 1 1166 0
 2523 005c 1BE0     		b	.L158
 2524              	.L155:
1167:Drivers/STM32F3xx_HAL_Driver/Src/stm32f3xx_hal_tim.c ****     
1168:Drivers/STM32F3xx_HAL_Driver/Src/stm32f3xx_hal_tim.c ****     case TIM_CHANNEL_2:
1169:Drivers/STM32F3xx_HAL_Driver/Src/stm32f3xx_hal_tim.c ****     {
1170:Drivers/STM32F3xx_HAL_Driver/Src/stm32f3xx_hal_tim.c ****       /* Enable the TIM Capture/Compare 2 interrupt */
1171:Drivers/STM32F3xx_HAL_Driver/Src/stm32f3xx_hal_tim.c ****       __HAL_TIM_ENABLE_IT(htim, TIM_IT_CC2);
 2525              		.loc 1 1171 0
 2526 005e 7B68     		ldr	r3, [r7, #4]
 2527 0060 1B68     		ldr	r3, [r3]
 2528 0062 7A68     		ldr	r2, [r7, #4]
 2529 0064 1268     		ldr	r2, [r2]
 2530 0066 D268     		ldr	r2, [r2, #12]
ARM GAS  /tmp/ccZyKULX.s 			page 65


 2531 0068 42F00402 		orr	r2, r2, #4
 2532 006c DA60     		str	r2, [r3, #12]
1172:Drivers/STM32F3xx_HAL_Driver/Src/stm32f3xx_hal_tim.c ****     }
1173:Drivers/STM32F3xx_HAL_Driver/Src/stm32f3xx_hal_tim.c ****     break;
 2533              		.loc 1 1173 0
 2534 006e 12E0     		b	.L158
 2535              	.L156:
1174:Drivers/STM32F3xx_HAL_Driver/Src/stm32f3xx_hal_tim.c ****     
1175:Drivers/STM32F3xx_HAL_Driver/Src/stm32f3xx_hal_tim.c ****     case TIM_CHANNEL_3:
1176:Drivers/STM32F3xx_HAL_Driver/Src/stm32f3xx_hal_tim.c ****     {
1177:Drivers/STM32F3xx_HAL_Driver/Src/stm32f3xx_hal_tim.c ****       /* Enable the TIM Capture/Compare 3 interrupt */
1178:Drivers/STM32F3xx_HAL_Driver/Src/stm32f3xx_hal_tim.c ****       __HAL_TIM_ENABLE_IT(htim, TIM_IT_CC3);
 2536              		.loc 1 1178 0
 2537 0070 7B68     		ldr	r3, [r7, #4]
 2538 0072 1B68     		ldr	r3, [r3]
 2539 0074 7A68     		ldr	r2, [r7, #4]
 2540 0076 1268     		ldr	r2, [r2]
 2541 0078 D268     		ldr	r2, [r2, #12]
 2542 007a 42F00802 		orr	r2, r2, #8
 2543 007e DA60     		str	r2, [r3, #12]
1179:Drivers/STM32F3xx_HAL_Driver/Src/stm32f3xx_hal_tim.c ****     }
1180:Drivers/STM32F3xx_HAL_Driver/Src/stm32f3xx_hal_tim.c ****     break;
 2544              		.loc 1 1180 0
 2545 0080 09E0     		b	.L158
 2546              	.L157:
1181:Drivers/STM32F3xx_HAL_Driver/Src/stm32f3xx_hal_tim.c ****     
1182:Drivers/STM32F3xx_HAL_Driver/Src/stm32f3xx_hal_tim.c ****     case TIM_CHANNEL_4:
1183:Drivers/STM32F3xx_HAL_Driver/Src/stm32f3xx_hal_tim.c ****     {
1184:Drivers/STM32F3xx_HAL_Driver/Src/stm32f3xx_hal_tim.c ****       /* Enable the TIM Capture/Compare 4 interrupt */
1185:Drivers/STM32F3xx_HAL_Driver/Src/stm32f3xx_hal_tim.c ****       __HAL_TIM_ENABLE_IT(htim, TIM_IT_CC4);
 2547              		.loc 1 1185 0
 2548 0082 7B68     		ldr	r3, [r7, #4]
 2549 0084 1B68     		ldr	r3, [r3]
 2550 0086 7A68     		ldr	r2, [r7, #4]
 2551 0088 1268     		ldr	r2, [r2]
 2552 008a D268     		ldr	r2, [r2, #12]
 2553 008c 42F01002 		orr	r2, r2, #16
 2554 0090 DA60     		str	r2, [r3, #12]
1186:Drivers/STM32F3xx_HAL_Driver/Src/stm32f3xx_hal_tim.c ****     }
1187:Drivers/STM32F3xx_HAL_Driver/Src/stm32f3xx_hal_tim.c ****     break;
 2555              		.loc 1 1187 0
 2556 0092 00E0     		b	.L158
 2557              	.L164:
1188:Drivers/STM32F3xx_HAL_Driver/Src/stm32f3xx_hal_tim.c ****     
1189:Drivers/STM32F3xx_HAL_Driver/Src/stm32f3xx_hal_tim.c ****     default:
1190:Drivers/STM32F3xx_HAL_Driver/Src/stm32f3xx_hal_tim.c ****     break;
 2558              		.loc 1 1190 0
 2559 0094 00BF     		nop
 2560              	.L158:
1191:Drivers/STM32F3xx_HAL_Driver/Src/stm32f3xx_hal_tim.c ****   } 
1192:Drivers/STM32F3xx_HAL_Driver/Src/stm32f3xx_hal_tim.c ****   
1193:Drivers/STM32F3xx_HAL_Driver/Src/stm32f3xx_hal_tim.c ****   /* Enable the Capture compare channel */
1194:Drivers/STM32F3xx_HAL_Driver/Src/stm32f3xx_hal_tim.c ****   TIM_CCxChannelCmd(htim->Instance, Channel, TIM_CCx_ENABLE);
 2561              		.loc 1 1194 0
 2562 0096 7B68     		ldr	r3, [r7, #4]
 2563 0098 1B68     		ldr	r3, [r3]
 2564 009a 1846     		mov	r0, r3
ARM GAS  /tmp/ccZyKULX.s 			page 66


 2565 009c 3968     		ldr	r1, [r7]
 2566 009e 0122     		movs	r2, #1
 2567 00a0 FFF7FEFF 		bl	TIM_CCxChannelCmd
1195:Drivers/STM32F3xx_HAL_Driver/Src/stm32f3xx_hal_tim.c ****   
1196:Drivers/STM32F3xx_HAL_Driver/Src/stm32f3xx_hal_tim.c ****   if(IS_TIM_BREAK_INSTANCE(htim->Instance) != RESET)  
 2568              		.loc 1 1196 0
 2569 00a4 7B68     		ldr	r3, [r7, #4]
 2570 00a6 1A68     		ldr	r2, [r3]
 2571 00a8 184B     		ldr	r3, .L165
 2572 00aa 9A42     		cmp	r2, r3
 2573 00ac 13D0     		beq	.L159
 2574              		.loc 1 1196 0 is_stmt 0 discriminator 2
 2575 00ae 7B68     		ldr	r3, [r7, #4]
 2576 00b0 1A68     		ldr	r2, [r3]
 2577 00b2 174B     		ldr	r3, .L165+4
 2578 00b4 9A42     		cmp	r2, r3
 2579 00b6 0ED0     		beq	.L159
 2580              		.loc 1 1196 0 discriminator 1
 2581 00b8 7B68     		ldr	r3, [r7, #4]
 2582 00ba 1A68     		ldr	r2, [r3]
 2583 00bc 154B     		ldr	r3, .L165+8
 2584 00be 9A42     		cmp	r2, r3
 2585 00c0 09D0     		beq	.L159
 2586 00c2 7B68     		ldr	r3, [r7, #4]
 2587 00c4 1A68     		ldr	r2, [r3]
 2588 00c6 144B     		ldr	r3, .L165+12
 2589 00c8 9A42     		cmp	r2, r3
 2590 00ca 04D0     		beq	.L159
 2591 00cc 7B68     		ldr	r3, [r7, #4]
 2592 00ce 1A68     		ldr	r2, [r3]
 2593 00d0 124B     		ldr	r3, .L165+16
 2594 00d2 9A42     		cmp	r2, r3
 2595 00d4 01D1     		bne	.L160
 2596              	.L159:
 2597 00d6 0123     		movs	r3, #1
 2598 00d8 00E0     		b	.L161
 2599              	.L160:
 2600              		.loc 1 1196 0 discriminator 3
 2601 00da 0023     		movs	r3, #0
 2602              	.L161:
 2603              		.loc 1 1196 0 discriminator 4
 2604 00dc 002B     		cmp	r3, #0
 2605 00de 07D0     		beq	.L162
1197:Drivers/STM32F3xx_HAL_Driver/Src/stm32f3xx_hal_tim.c ****   {
1198:Drivers/STM32F3xx_HAL_Driver/Src/stm32f3xx_hal_tim.c ****     /* Enable the main output */
1199:Drivers/STM32F3xx_HAL_Driver/Src/stm32f3xx_hal_tim.c ****     __HAL_TIM_MOE_ENABLE(htim);
 2606              		.loc 1 1199 0 is_stmt 1
 2607 00e0 7B68     		ldr	r3, [r7, #4]
 2608 00e2 1B68     		ldr	r3, [r3]
 2609 00e4 7A68     		ldr	r2, [r7, #4]
 2610 00e6 1268     		ldr	r2, [r2]
 2611 00e8 526C     		ldr	r2, [r2, #68]
 2612 00ea 42F40042 		orr	r2, r2, #32768
 2613 00ee 5A64     		str	r2, [r3, #68]
 2614              	.L162:
1200:Drivers/STM32F3xx_HAL_Driver/Src/stm32f3xx_hal_tim.c ****   }
1201:Drivers/STM32F3xx_HAL_Driver/Src/stm32f3xx_hal_tim.c **** 
ARM GAS  /tmp/ccZyKULX.s 			page 67


1202:Drivers/STM32F3xx_HAL_Driver/Src/stm32f3xx_hal_tim.c ****   /* Enable the Peripheral */
1203:Drivers/STM32F3xx_HAL_Driver/Src/stm32f3xx_hal_tim.c ****   __HAL_TIM_ENABLE(htim);
 2615              		.loc 1 1203 0
 2616 00f0 7B68     		ldr	r3, [r7, #4]
 2617 00f2 1B68     		ldr	r3, [r3]
 2618 00f4 7A68     		ldr	r2, [r7, #4]
 2619 00f6 1268     		ldr	r2, [r2]
 2620 00f8 1268     		ldr	r2, [r2]
 2621 00fa 42F00102 		orr	r2, r2, #1
 2622 00fe 1A60     		str	r2, [r3]
1204:Drivers/STM32F3xx_HAL_Driver/Src/stm32f3xx_hal_tim.c ****   
1205:Drivers/STM32F3xx_HAL_Driver/Src/stm32f3xx_hal_tim.c ****   /* Return function status */
1206:Drivers/STM32F3xx_HAL_Driver/Src/stm32f3xx_hal_tim.c ****   return HAL_OK;
 2623              		.loc 1 1206 0
 2624 0100 0023     		movs	r3, #0
1207:Drivers/STM32F3xx_HAL_Driver/Src/stm32f3xx_hal_tim.c **** } 
 2625              		.loc 1 1207 0
 2626 0102 1846     		mov	r0, r3
 2627 0104 0837     		adds	r7, r7, #8
 2628 0106 BD46     		mov	sp, r7
 2629              		@ sp needed
 2630 0108 80BD     		pop	{r7, pc}
 2631              	.L166:
 2632 010a 00BF     		.align	2
 2633              	.L165:
 2634 010c 002C0140 		.word	1073818624
 2635 0110 00340140 		.word	1073820672
 2636 0114 00400140 		.word	1073823744
 2637 0118 00440140 		.word	1073824768
 2638 011c 00480140 		.word	1073825792
 2639              		.cfi_endproc
 2640              	.LFE151:
 2642              		.section	.text.HAL_TIM_PWM_Stop_IT,"ax",%progbits
 2643              		.align	2
 2644              		.global	HAL_TIM_PWM_Stop_IT
 2645              		.thumb
 2646              		.thumb_func
 2648              	HAL_TIM_PWM_Stop_IT:
 2649              	.LFB152:
1208:Drivers/STM32F3xx_HAL_Driver/Src/stm32f3xx_hal_tim.c **** 
1209:Drivers/STM32F3xx_HAL_Driver/Src/stm32f3xx_hal_tim.c **** /**
1210:Drivers/STM32F3xx_HAL_Driver/Src/stm32f3xx_hal_tim.c ****   * @brief  Stops the PWM signal generation in interrupt mode.
1211:Drivers/STM32F3xx_HAL_Driver/Src/stm32f3xx_hal_tim.c ****   * @param  htim: TIM handle
1212:Drivers/STM32F3xx_HAL_Driver/Src/stm32f3xx_hal_tim.c ****   * @param  Channel: TIM Channels to be disabled
1213:Drivers/STM32F3xx_HAL_Driver/Src/stm32f3xx_hal_tim.c ****   *          This parameter can be one of the following values:
1214:Drivers/STM32F3xx_HAL_Driver/Src/stm32f3xx_hal_tim.c ****   *            @arg TIM_CHANNEL_1: TIM Channel 1 selected
1215:Drivers/STM32F3xx_HAL_Driver/Src/stm32f3xx_hal_tim.c ****   *            @arg TIM_CHANNEL_2: TIM Channel 2 selected
1216:Drivers/STM32F3xx_HAL_Driver/Src/stm32f3xx_hal_tim.c ****   *            @arg TIM_CHANNEL_3: TIM Channel 3 selected
1217:Drivers/STM32F3xx_HAL_Driver/Src/stm32f3xx_hal_tim.c ****   *            @arg TIM_CHANNEL_4: TIM Channel 4 selected
1218:Drivers/STM32F3xx_HAL_Driver/Src/stm32f3xx_hal_tim.c ****   * @retval HAL status
1219:Drivers/STM32F3xx_HAL_Driver/Src/stm32f3xx_hal_tim.c **** */
1220:Drivers/STM32F3xx_HAL_Driver/Src/stm32f3xx_hal_tim.c **** HAL_StatusTypeDef HAL_TIM_PWM_Stop_IT (TIM_HandleTypeDef *htim, uint32_t Channel)
1221:Drivers/STM32F3xx_HAL_Driver/Src/stm32f3xx_hal_tim.c **** {
 2650              		.loc 1 1221 0
 2651              		.cfi_startproc
 2652              		@ args = 0, pretend = 0, frame = 8
 2653              		@ frame_needed = 1, uses_anonymous_args = 0
ARM GAS  /tmp/ccZyKULX.s 			page 68


 2654 0000 80B5     		push	{r7, lr}
 2655              	.LCFI81:
 2656              		.cfi_def_cfa_offset 8
 2657              		.cfi_offset 7, -8
 2658              		.cfi_offset 14, -4
 2659 0002 82B0     		sub	sp, sp, #8
 2660              	.LCFI82:
 2661              		.cfi_def_cfa_offset 16
 2662 0004 00AF     		add	r7, sp, #0
 2663              	.LCFI83:
 2664              		.cfi_def_cfa_register 7
 2665 0006 7860     		str	r0, [r7, #4]
 2666 0008 3960     		str	r1, [r7]
1222:Drivers/STM32F3xx_HAL_Driver/Src/stm32f3xx_hal_tim.c ****   /* Check the parameters */
1223:Drivers/STM32F3xx_HAL_Driver/Src/stm32f3xx_hal_tim.c ****   assert_param(IS_TIM_CCX_INSTANCE(htim->Instance, Channel));
1224:Drivers/STM32F3xx_HAL_Driver/Src/stm32f3xx_hal_tim.c ****   
1225:Drivers/STM32F3xx_HAL_Driver/Src/stm32f3xx_hal_tim.c ****   switch (Channel)
 2667              		.loc 1 1225 0
 2668 000a 3B68     		ldr	r3, [r7]
 2669 000c 0C2B     		cmp	r3, #12
 2670 000e 41D8     		bhi	.L181
 2671 0010 01A2     		adr	r2, .L170
 2672 0012 52F823F0 		ldr	pc, [r2, r3, lsl #2]
 2673 0016 00BF     		.p2align 2
 2674              	.L170:
 2675 0018 4D000000 		.word	.L169+1
 2676 001c 95000000 		.word	.L181+1
 2677 0020 95000000 		.word	.L181+1
 2678 0024 95000000 		.word	.L181+1
 2679 0028 5F000000 		.word	.L171+1
 2680 002c 95000000 		.word	.L181+1
 2681 0030 95000000 		.word	.L181+1
 2682 0034 95000000 		.word	.L181+1
 2683 0038 71000000 		.word	.L172+1
 2684 003c 95000000 		.word	.L181+1
 2685 0040 95000000 		.word	.L181+1
 2686 0044 95000000 		.word	.L181+1
 2687 0048 83000000 		.word	.L173+1
 2688              		.p2align 1
 2689              	.L169:
1226:Drivers/STM32F3xx_HAL_Driver/Src/stm32f3xx_hal_tim.c ****   {
1227:Drivers/STM32F3xx_HAL_Driver/Src/stm32f3xx_hal_tim.c ****     case TIM_CHANNEL_1:
1228:Drivers/STM32F3xx_HAL_Driver/Src/stm32f3xx_hal_tim.c ****     {       
1229:Drivers/STM32F3xx_HAL_Driver/Src/stm32f3xx_hal_tim.c ****       /* Disable the TIM Capture/Compare 1 interrupt */
1230:Drivers/STM32F3xx_HAL_Driver/Src/stm32f3xx_hal_tim.c ****       __HAL_TIM_DISABLE_IT(htim, TIM_IT_CC1);
 2690              		.loc 1 1230 0
 2691 004c 7B68     		ldr	r3, [r7, #4]
 2692 004e 1B68     		ldr	r3, [r3]
 2693 0050 7A68     		ldr	r2, [r7, #4]
 2694 0052 1268     		ldr	r2, [r2]
 2695 0054 D268     		ldr	r2, [r2, #12]
 2696 0056 22F00202 		bic	r2, r2, #2
 2697 005a DA60     		str	r2, [r3, #12]
1231:Drivers/STM32F3xx_HAL_Driver/Src/stm32f3xx_hal_tim.c ****     }
1232:Drivers/STM32F3xx_HAL_Driver/Src/stm32f3xx_hal_tim.c ****     break;
 2698              		.loc 1 1232 0
 2699 005c 1BE0     		b	.L174
ARM GAS  /tmp/ccZyKULX.s 			page 69


 2700              	.L171:
1233:Drivers/STM32F3xx_HAL_Driver/Src/stm32f3xx_hal_tim.c ****     
1234:Drivers/STM32F3xx_HAL_Driver/Src/stm32f3xx_hal_tim.c ****     case TIM_CHANNEL_2:
1235:Drivers/STM32F3xx_HAL_Driver/Src/stm32f3xx_hal_tim.c ****     {
1236:Drivers/STM32F3xx_HAL_Driver/Src/stm32f3xx_hal_tim.c ****       /* Disable the TIM Capture/Compare 2 interrupt */
1237:Drivers/STM32F3xx_HAL_Driver/Src/stm32f3xx_hal_tim.c ****       __HAL_TIM_DISABLE_IT(htim, TIM_IT_CC2);
 2701              		.loc 1 1237 0
 2702 005e 7B68     		ldr	r3, [r7, #4]
 2703 0060 1B68     		ldr	r3, [r3]
 2704 0062 7A68     		ldr	r2, [r7, #4]
 2705 0064 1268     		ldr	r2, [r2]
 2706 0066 D268     		ldr	r2, [r2, #12]
 2707 0068 22F00402 		bic	r2, r2, #4
 2708 006c DA60     		str	r2, [r3, #12]
1238:Drivers/STM32F3xx_HAL_Driver/Src/stm32f3xx_hal_tim.c ****     }
1239:Drivers/STM32F3xx_HAL_Driver/Src/stm32f3xx_hal_tim.c ****     break;
 2709              		.loc 1 1239 0
 2710 006e 12E0     		b	.L174
 2711              	.L172:
1240:Drivers/STM32F3xx_HAL_Driver/Src/stm32f3xx_hal_tim.c ****     
1241:Drivers/STM32F3xx_HAL_Driver/Src/stm32f3xx_hal_tim.c ****     case TIM_CHANNEL_3:
1242:Drivers/STM32F3xx_HAL_Driver/Src/stm32f3xx_hal_tim.c ****     {
1243:Drivers/STM32F3xx_HAL_Driver/Src/stm32f3xx_hal_tim.c ****       /* Disable the TIM Capture/Compare 3 interrupt */
1244:Drivers/STM32F3xx_HAL_Driver/Src/stm32f3xx_hal_tim.c ****       __HAL_TIM_DISABLE_IT(htim, TIM_IT_CC3);
 2712              		.loc 1 1244 0
 2713 0070 7B68     		ldr	r3, [r7, #4]
 2714 0072 1B68     		ldr	r3, [r3]
 2715 0074 7A68     		ldr	r2, [r7, #4]
 2716 0076 1268     		ldr	r2, [r2]
 2717 0078 D268     		ldr	r2, [r2, #12]
 2718 007a 22F00802 		bic	r2, r2, #8
 2719 007e DA60     		str	r2, [r3, #12]
1245:Drivers/STM32F3xx_HAL_Driver/Src/stm32f3xx_hal_tim.c ****     }
1246:Drivers/STM32F3xx_HAL_Driver/Src/stm32f3xx_hal_tim.c ****     break;
 2720              		.loc 1 1246 0
 2721 0080 09E0     		b	.L174
 2722              	.L173:
1247:Drivers/STM32F3xx_HAL_Driver/Src/stm32f3xx_hal_tim.c ****     
1248:Drivers/STM32F3xx_HAL_Driver/Src/stm32f3xx_hal_tim.c ****     case TIM_CHANNEL_4:
1249:Drivers/STM32F3xx_HAL_Driver/Src/stm32f3xx_hal_tim.c ****     {
1250:Drivers/STM32F3xx_HAL_Driver/Src/stm32f3xx_hal_tim.c ****       /* Disable the TIM Capture/Compare 4 interrupt */
1251:Drivers/STM32F3xx_HAL_Driver/Src/stm32f3xx_hal_tim.c ****       __HAL_TIM_DISABLE_IT(htim, TIM_IT_CC4);
 2723              		.loc 1 1251 0
 2724 0082 7B68     		ldr	r3, [r7, #4]
 2725 0084 1B68     		ldr	r3, [r3]
 2726 0086 7A68     		ldr	r2, [r7, #4]
 2727 0088 1268     		ldr	r2, [r2]
 2728 008a D268     		ldr	r2, [r2, #12]
 2729 008c 22F01002 		bic	r2, r2, #16
 2730 0090 DA60     		str	r2, [r3, #12]
1252:Drivers/STM32F3xx_HAL_Driver/Src/stm32f3xx_hal_tim.c ****     }
1253:Drivers/STM32F3xx_HAL_Driver/Src/stm32f3xx_hal_tim.c ****     break;
 2731              		.loc 1 1253 0
 2732 0092 00E0     		b	.L174
 2733              	.L181:
1254:Drivers/STM32F3xx_HAL_Driver/Src/stm32f3xx_hal_tim.c ****     
1255:Drivers/STM32F3xx_HAL_Driver/Src/stm32f3xx_hal_tim.c ****     default:
ARM GAS  /tmp/ccZyKULX.s 			page 70


1256:Drivers/STM32F3xx_HAL_Driver/Src/stm32f3xx_hal_tim.c ****     break; 
 2734              		.loc 1 1256 0
 2735 0094 00BF     		nop
 2736              	.L174:
1257:Drivers/STM32F3xx_HAL_Driver/Src/stm32f3xx_hal_tim.c ****   }
1258:Drivers/STM32F3xx_HAL_Driver/Src/stm32f3xx_hal_tim.c ****   
1259:Drivers/STM32F3xx_HAL_Driver/Src/stm32f3xx_hal_tim.c ****   /* Disable the Capture compare channel */
1260:Drivers/STM32F3xx_HAL_Driver/Src/stm32f3xx_hal_tim.c ****   TIM_CCxChannelCmd(htim->Instance, Channel, TIM_CCx_DISABLE);
 2737              		.loc 1 1260 0
 2738 0096 7B68     		ldr	r3, [r7, #4]
 2739 0098 1B68     		ldr	r3, [r3]
 2740 009a 1846     		mov	r0, r3
 2741 009c 3968     		ldr	r1, [r7]
 2742 009e 0022     		movs	r2, #0
 2743 00a0 FFF7FEFF 		bl	TIM_CCxChannelCmd
1261:Drivers/STM32F3xx_HAL_Driver/Src/stm32f3xx_hal_tim.c ****   
1262:Drivers/STM32F3xx_HAL_Driver/Src/stm32f3xx_hal_tim.c ****   if(IS_TIM_BREAK_INSTANCE(htim->Instance) != RESET)  
 2744              		.loc 1 1262 0
 2745 00a4 7B68     		ldr	r3, [r7, #4]
 2746 00a6 1A68     		ldr	r2, [r3]
 2747 00a8 284B     		ldr	r3, .L182
 2748 00aa 9A42     		cmp	r2, r3
 2749 00ac 13D0     		beq	.L175
 2750              		.loc 1 1262 0 is_stmt 0 discriminator 2
 2751 00ae 7B68     		ldr	r3, [r7, #4]
 2752 00b0 1A68     		ldr	r2, [r3]
 2753 00b2 274B     		ldr	r3, .L182+4
 2754 00b4 9A42     		cmp	r2, r3
 2755 00b6 0ED0     		beq	.L175
 2756              		.loc 1 1262 0 discriminator 1
 2757 00b8 7B68     		ldr	r3, [r7, #4]
 2758 00ba 1A68     		ldr	r2, [r3]
 2759 00bc 254B     		ldr	r3, .L182+8
 2760 00be 9A42     		cmp	r2, r3
 2761 00c0 09D0     		beq	.L175
 2762 00c2 7B68     		ldr	r3, [r7, #4]
 2763 00c4 1A68     		ldr	r2, [r3]
 2764 00c6 244B     		ldr	r3, .L182+12
 2765 00c8 9A42     		cmp	r2, r3
 2766 00ca 04D0     		beq	.L175
 2767 00cc 7B68     		ldr	r3, [r7, #4]
 2768 00ce 1A68     		ldr	r2, [r3]
 2769 00d0 224B     		ldr	r3, .L182+16
 2770 00d2 9A42     		cmp	r2, r3
 2771 00d4 01D1     		bne	.L176
 2772              	.L175:
 2773 00d6 0123     		movs	r3, #1
 2774 00d8 00E0     		b	.L177
 2775              	.L176:
 2776              		.loc 1 1262 0 discriminator 3
 2777 00da 0023     		movs	r3, #0
 2778              	.L177:
 2779              		.loc 1 1262 0 discriminator 4
 2780 00dc 002B     		cmp	r3, #0
 2781 00de 17D0     		beq	.L178
1263:Drivers/STM32F3xx_HAL_Driver/Src/stm32f3xx_hal_tim.c ****   {
1264:Drivers/STM32F3xx_HAL_Driver/Src/stm32f3xx_hal_tim.c ****     /* Disable the Main Ouput */
ARM GAS  /tmp/ccZyKULX.s 			page 71


1265:Drivers/STM32F3xx_HAL_Driver/Src/stm32f3xx_hal_tim.c ****     __HAL_TIM_MOE_DISABLE(htim);
 2782              		.loc 1 1265 0 is_stmt 1
 2783 00e0 7B68     		ldr	r3, [r7, #4]
 2784 00e2 1B68     		ldr	r3, [r3]
 2785 00e4 1A6A     		ldr	r2, [r3, #32]
 2786 00e6 41F21113 		movw	r3, #4369
 2787 00ea 1340     		ands	r3, r3, r2
 2788 00ec 002B     		cmp	r3, #0
 2789 00ee 0FD1     		bne	.L178
 2790              		.loc 1 1265 0 is_stmt 0 discriminator 1
 2791 00f0 7B68     		ldr	r3, [r7, #4]
 2792 00f2 1B68     		ldr	r3, [r3]
 2793 00f4 1A6A     		ldr	r2, [r3, #32]
 2794 00f6 40F24443 		movw	r3, #1092
 2795 00fa 1340     		ands	r3, r3, r2
 2796 00fc 002B     		cmp	r3, #0
 2797 00fe 07D1     		bne	.L178
 2798 0100 7B68     		ldr	r3, [r7, #4]
 2799 0102 1B68     		ldr	r3, [r3]
 2800 0104 7A68     		ldr	r2, [r7, #4]
 2801 0106 1268     		ldr	r2, [r2]
 2802 0108 526C     		ldr	r2, [r2, #68]
 2803 010a 22F40042 		bic	r2, r2, #32768
 2804 010e 5A64     		str	r2, [r3, #68]
 2805              	.L178:
1266:Drivers/STM32F3xx_HAL_Driver/Src/stm32f3xx_hal_tim.c ****   }
1267:Drivers/STM32F3xx_HAL_Driver/Src/stm32f3xx_hal_tim.c ****   
1268:Drivers/STM32F3xx_HAL_Driver/Src/stm32f3xx_hal_tim.c ****   /* Disable the Peripheral */
1269:Drivers/STM32F3xx_HAL_Driver/Src/stm32f3xx_hal_tim.c ****   __HAL_TIM_DISABLE(htim);
 2806              		.loc 1 1269 0 is_stmt 1
 2807 0110 7B68     		ldr	r3, [r7, #4]
 2808 0112 1B68     		ldr	r3, [r3]
 2809 0114 1A6A     		ldr	r2, [r3, #32]
 2810 0116 41F21113 		movw	r3, #4369
 2811 011a 1340     		ands	r3, r3, r2
 2812 011c 002B     		cmp	r3, #0
 2813 011e 0FD1     		bne	.L179
 2814              		.loc 1 1269 0 is_stmt 0 discriminator 1
 2815 0120 7B68     		ldr	r3, [r7, #4]
 2816 0122 1B68     		ldr	r3, [r3]
 2817 0124 1A6A     		ldr	r2, [r3, #32]
 2818 0126 40F24443 		movw	r3, #1092
 2819 012a 1340     		ands	r3, r3, r2
 2820 012c 002B     		cmp	r3, #0
 2821 012e 07D1     		bne	.L179
 2822 0130 7B68     		ldr	r3, [r7, #4]
 2823 0132 1B68     		ldr	r3, [r3]
 2824 0134 7A68     		ldr	r2, [r7, #4]
 2825 0136 1268     		ldr	r2, [r2]
 2826 0138 1268     		ldr	r2, [r2]
 2827 013a 22F00102 		bic	r2, r2, #1
 2828 013e 1A60     		str	r2, [r3]
 2829              	.L179:
1270:Drivers/STM32F3xx_HAL_Driver/Src/stm32f3xx_hal_tim.c ****   
1271:Drivers/STM32F3xx_HAL_Driver/Src/stm32f3xx_hal_tim.c ****   /* Return function status */
1272:Drivers/STM32F3xx_HAL_Driver/Src/stm32f3xx_hal_tim.c ****   return HAL_OK;
 2830              		.loc 1 1272 0 is_stmt 1
ARM GAS  /tmp/ccZyKULX.s 			page 72


 2831 0140 0023     		movs	r3, #0
1273:Drivers/STM32F3xx_HAL_Driver/Src/stm32f3xx_hal_tim.c **** } 
 2832              		.loc 1 1273 0
 2833 0142 1846     		mov	r0, r3
 2834 0144 0837     		adds	r7, r7, #8
 2835 0146 BD46     		mov	sp, r7
 2836              		@ sp needed
 2837 0148 80BD     		pop	{r7, pc}
 2838              	.L183:
 2839 014a 00BF     		.align	2
 2840              	.L182:
 2841 014c 002C0140 		.word	1073818624
 2842 0150 00340140 		.word	1073820672
 2843 0154 00400140 		.word	1073823744
 2844 0158 00440140 		.word	1073824768
 2845 015c 00480140 		.word	1073825792
 2846              		.cfi_endproc
 2847              	.LFE152:
 2849              		.section	.text.HAL_TIM_PWM_Start_DMA,"ax",%progbits
 2850              		.align	2
 2851              		.global	HAL_TIM_PWM_Start_DMA
 2852              		.thumb
 2853              		.thumb_func
 2855              	HAL_TIM_PWM_Start_DMA:
 2856              	.LFB153:
1274:Drivers/STM32F3xx_HAL_Driver/Src/stm32f3xx_hal_tim.c **** 
1275:Drivers/STM32F3xx_HAL_Driver/Src/stm32f3xx_hal_tim.c **** /**
1276:Drivers/STM32F3xx_HAL_Driver/Src/stm32f3xx_hal_tim.c ****   * @brief  Starts the TIM PWM signal generation in DMA mode.
1277:Drivers/STM32F3xx_HAL_Driver/Src/stm32f3xx_hal_tim.c ****   * @param  htim: TIM handle
1278:Drivers/STM32F3xx_HAL_Driver/Src/stm32f3xx_hal_tim.c ****   * @param  Channel: TIM Channels to be enabled
1279:Drivers/STM32F3xx_HAL_Driver/Src/stm32f3xx_hal_tim.c ****   *          This parameter can be one of the following values:
1280:Drivers/STM32F3xx_HAL_Driver/Src/stm32f3xx_hal_tim.c ****   *            @arg TIM_CHANNEL_1: TIM Channel 1 selected
1281:Drivers/STM32F3xx_HAL_Driver/Src/stm32f3xx_hal_tim.c ****   *            @arg TIM_CHANNEL_2: TIM Channel 2 selected
1282:Drivers/STM32F3xx_HAL_Driver/Src/stm32f3xx_hal_tim.c ****   *            @arg TIM_CHANNEL_3: TIM Channel 3 selected
1283:Drivers/STM32F3xx_HAL_Driver/Src/stm32f3xx_hal_tim.c ****   *            @arg TIM_CHANNEL_4: TIM Channel 4 selected
1284:Drivers/STM32F3xx_HAL_Driver/Src/stm32f3xx_hal_tim.c ****   * @param  pData: The source Buffer address.
1285:Drivers/STM32F3xx_HAL_Driver/Src/stm32f3xx_hal_tim.c ****   * @param  Length: The length of data to be transferred from memory to TIM peripheral
1286:Drivers/STM32F3xx_HAL_Driver/Src/stm32f3xx_hal_tim.c ****   * @retval HAL status
1287:Drivers/STM32F3xx_HAL_Driver/Src/stm32f3xx_hal_tim.c **** */
1288:Drivers/STM32F3xx_HAL_Driver/Src/stm32f3xx_hal_tim.c **** HAL_StatusTypeDef HAL_TIM_PWM_Start_DMA(TIM_HandleTypeDef *htim, uint32_t Channel, uint32_t *pData,
1289:Drivers/STM32F3xx_HAL_Driver/Src/stm32f3xx_hal_tim.c **** {
 2857              		.loc 1 1289 0
 2858              		.cfi_startproc
 2859              		@ args = 0, pretend = 0, frame = 16
 2860              		@ frame_needed = 1, uses_anonymous_args = 0
 2861 0000 80B5     		push	{r7, lr}
 2862              	.LCFI84:
 2863              		.cfi_def_cfa_offset 8
 2864              		.cfi_offset 7, -8
 2865              		.cfi_offset 14, -4
 2866 0002 84B0     		sub	sp, sp, #16
 2867              	.LCFI85:
 2868              		.cfi_def_cfa_offset 24
 2869 0004 00AF     		add	r7, sp, #0
 2870              	.LCFI86:
 2871              		.cfi_def_cfa_register 7
 2872 0006 F860     		str	r0, [r7, #12]
ARM GAS  /tmp/ccZyKULX.s 			page 73


 2873 0008 B960     		str	r1, [r7, #8]
 2874 000a 7A60     		str	r2, [r7, #4]
 2875 000c 7B80     		strh	r3, [r7, #2]	@ movhi
1290:Drivers/STM32F3xx_HAL_Driver/Src/stm32f3xx_hal_tim.c ****   /* Check the parameters */
1291:Drivers/STM32F3xx_HAL_Driver/Src/stm32f3xx_hal_tim.c ****   assert_param(IS_TIM_CCX_INSTANCE(htim->Instance, Channel));
1292:Drivers/STM32F3xx_HAL_Driver/Src/stm32f3xx_hal_tim.c ****   
1293:Drivers/STM32F3xx_HAL_Driver/Src/stm32f3xx_hal_tim.c ****   if((htim->State == HAL_TIM_STATE_BUSY))
 2876              		.loc 1 1293 0
 2877 000e FB68     		ldr	r3, [r7, #12]
 2878 0010 93F83930 		ldrb	r3, [r3, #57]
 2879 0014 DBB2     		uxtb	r3, r3
 2880 0016 022B     		cmp	r3, #2
 2881 0018 01D1     		bne	.L185
1294:Drivers/STM32F3xx_HAL_Driver/Src/stm32f3xx_hal_tim.c ****   {
1295:Drivers/STM32F3xx_HAL_Driver/Src/stm32f3xx_hal_tim.c ****      return HAL_BUSY;
 2882              		.loc 1 1295 0
 2883 001a 0223     		movs	r3, #2
 2884 001c D5E0     		b	.L186
 2885              	.L185:
1296:Drivers/STM32F3xx_HAL_Driver/Src/stm32f3xx_hal_tim.c ****   }
1297:Drivers/STM32F3xx_HAL_Driver/Src/stm32f3xx_hal_tim.c ****   else if((htim->State == HAL_TIM_STATE_READY))
 2886              		.loc 1 1297 0
 2887 001e FB68     		ldr	r3, [r7, #12]
 2888 0020 93F83930 		ldrb	r3, [r3, #57]
 2889 0024 DBB2     		uxtb	r3, r3
 2890 0026 012B     		cmp	r3, #1
 2891 0028 0BD1     		bne	.L187
1298:Drivers/STM32F3xx_HAL_Driver/Src/stm32f3xx_hal_tim.c ****   {
1299:Drivers/STM32F3xx_HAL_Driver/Src/stm32f3xx_hal_tim.c ****     if(((uint32_t)pData == 0 ) && (Length > 0)) 
 2892              		.loc 1 1299 0
 2893 002a 7B68     		ldr	r3, [r7, #4]
 2894 002c 002B     		cmp	r3, #0
 2895 002e 04D1     		bne	.L188
 2896              		.loc 1 1299 0 is_stmt 0 discriminator 1
 2897 0030 7B88     		ldrh	r3, [r7, #2]
 2898 0032 002B     		cmp	r3, #0
 2899 0034 01D0     		beq	.L188
1300:Drivers/STM32F3xx_HAL_Driver/Src/stm32f3xx_hal_tim.c ****     {
1301:Drivers/STM32F3xx_HAL_Driver/Src/stm32f3xx_hal_tim.c ****       return HAL_ERROR;                                    
 2900              		.loc 1 1301 0 is_stmt 1
 2901 0036 0123     		movs	r3, #1
 2902 0038 C7E0     		b	.L186
 2903              	.L188:
1302:Drivers/STM32F3xx_HAL_Driver/Src/stm32f3xx_hal_tim.c ****     }
1303:Drivers/STM32F3xx_HAL_Driver/Src/stm32f3xx_hal_tim.c ****     else
1304:Drivers/STM32F3xx_HAL_Driver/Src/stm32f3xx_hal_tim.c ****     {
1305:Drivers/STM32F3xx_HAL_Driver/Src/stm32f3xx_hal_tim.c ****       htim->State = HAL_TIM_STATE_BUSY;
 2904              		.loc 1 1305 0
 2905 003a FB68     		ldr	r3, [r7, #12]
 2906 003c 0222     		movs	r2, #2
 2907 003e 83F83920 		strb	r2, [r3, #57]
 2908              	.L187:
1306:Drivers/STM32F3xx_HAL_Driver/Src/stm32f3xx_hal_tim.c ****     }
1307:Drivers/STM32F3xx_HAL_Driver/Src/stm32f3xx_hal_tim.c ****   }    
1308:Drivers/STM32F3xx_HAL_Driver/Src/stm32f3xx_hal_tim.c ****   switch (Channel)
 2909              		.loc 1 1308 0
 2910 0042 BB68     		ldr	r3, [r7, #8]
ARM GAS  /tmp/ccZyKULX.s 			page 74


 2911 0044 0C2B     		cmp	r3, #12
 2912 0046 00F28980 		bhi	.L200
 2913 004a 01A2     		adr	r2, .L191
 2914 004c 52F823F0 		ldr	pc, [r2, r3, lsl #2]
 2915              		.p2align 2
 2916              	.L191:
 2917 0050 85000000 		.word	.L190+1
 2918 0054 5D010000 		.word	.L200+1
 2919 0058 5D010000 		.word	.L200+1
 2920 005c 5D010000 		.word	.L200+1
 2921 0060 BB000000 		.word	.L192+1
 2922 0064 5D010000 		.word	.L200+1
 2923 0068 5D010000 		.word	.L200+1
 2924 006c 5D010000 		.word	.L200+1
 2925 0070 F1000000 		.word	.L193+1
 2926 0074 5D010000 		.word	.L200+1
 2927 0078 5D010000 		.word	.L200+1
 2928 007c 5D010000 		.word	.L200+1
 2929 0080 27010000 		.word	.L194+1
 2930              		.p2align 1
 2931              	.L190:
1309:Drivers/STM32F3xx_HAL_Driver/Src/stm32f3xx_hal_tim.c ****   {
1310:Drivers/STM32F3xx_HAL_Driver/Src/stm32f3xx_hal_tim.c ****     case TIM_CHANNEL_1:
1311:Drivers/STM32F3xx_HAL_Driver/Src/stm32f3xx_hal_tim.c ****     {
1312:Drivers/STM32F3xx_HAL_Driver/Src/stm32f3xx_hal_tim.c ****       /* Set the DMA Period elapsed callback */
1313:Drivers/STM32F3xx_HAL_Driver/Src/stm32f3xx_hal_tim.c ****       htim->hdma[TIM_DMA_ID_CC1]->XferCpltCallback = TIM_DMADelayPulseCplt;
 2932              		.loc 1 1313 0
 2933 0084 FB68     		ldr	r3, [r7, #12]
 2934 0086 1B6A     		ldr	r3, [r3, #32]
 2935 0088 524A     		ldr	r2, .L201
 2936 008a 9A62     		str	r2, [r3, #40]
1314:Drivers/STM32F3xx_HAL_Driver/Src/stm32f3xx_hal_tim.c ****      
1315:Drivers/STM32F3xx_HAL_Driver/Src/stm32f3xx_hal_tim.c ****       /* Set the DMA error callback */
1316:Drivers/STM32F3xx_HAL_Driver/Src/stm32f3xx_hal_tim.c ****       htim->hdma[TIM_DMA_ID_CC1]->XferErrorCallback = TIM_DMAError ;
 2937              		.loc 1 1316 0
 2938 008c FB68     		ldr	r3, [r7, #12]
 2939 008e 1B6A     		ldr	r3, [r3, #32]
 2940 0090 514A     		ldr	r2, .L201+4
 2941 0092 1A63     		str	r2, [r3, #48]
1317:Drivers/STM32F3xx_HAL_Driver/Src/stm32f3xx_hal_tim.c ****       
1318:Drivers/STM32F3xx_HAL_Driver/Src/stm32f3xx_hal_tim.c ****       /* Enable the DMA channel */
1319:Drivers/STM32F3xx_HAL_Driver/Src/stm32f3xx_hal_tim.c ****       HAL_DMA_Start_IT(htim->hdma[TIM_DMA_ID_CC1], (uint32_t)pData, (uint32_t)&htim->Instance->CCR1
 2942              		.loc 1 1319 0
 2943 0094 FB68     		ldr	r3, [r7, #12]
 2944 0096 186A     		ldr	r0, [r3, #32]
 2945 0098 7968     		ldr	r1, [r7, #4]
 2946 009a FB68     		ldr	r3, [r7, #12]
 2947 009c 1B68     		ldr	r3, [r3]
 2948 009e 3433     		adds	r3, r3, #52
 2949 00a0 1A46     		mov	r2, r3
 2950 00a2 7B88     		ldrh	r3, [r7, #2]
 2951 00a4 FFF7FEFF 		bl	HAL_DMA_Start_IT
1320:Drivers/STM32F3xx_HAL_Driver/Src/stm32f3xx_hal_tim.c ****       
1321:Drivers/STM32F3xx_HAL_Driver/Src/stm32f3xx_hal_tim.c ****       /* Enable the TIM Capture/Compare 1 DMA request */
1322:Drivers/STM32F3xx_HAL_Driver/Src/stm32f3xx_hal_tim.c ****       __HAL_TIM_ENABLE_DMA(htim, TIM_DMA_CC1);
 2952              		.loc 1 1322 0
 2953 00a8 FB68     		ldr	r3, [r7, #12]
ARM GAS  /tmp/ccZyKULX.s 			page 75


 2954 00aa 1B68     		ldr	r3, [r3]
 2955 00ac FA68     		ldr	r2, [r7, #12]
 2956 00ae 1268     		ldr	r2, [r2]
 2957 00b0 D268     		ldr	r2, [r2, #12]
 2958 00b2 42F40072 		orr	r2, r2, #512
 2959 00b6 DA60     		str	r2, [r3, #12]
1323:Drivers/STM32F3xx_HAL_Driver/Src/stm32f3xx_hal_tim.c ****     }
1324:Drivers/STM32F3xx_HAL_Driver/Src/stm32f3xx_hal_tim.c ****     break;
 2960              		.loc 1 1324 0
 2961 00b8 51E0     		b	.L195
 2962              	.L192:
1325:Drivers/STM32F3xx_HAL_Driver/Src/stm32f3xx_hal_tim.c ****     
1326:Drivers/STM32F3xx_HAL_Driver/Src/stm32f3xx_hal_tim.c ****     case TIM_CHANNEL_2:
1327:Drivers/STM32F3xx_HAL_Driver/Src/stm32f3xx_hal_tim.c ****     {
1328:Drivers/STM32F3xx_HAL_Driver/Src/stm32f3xx_hal_tim.c ****       /* Set the DMA Period elapsed callback */
1329:Drivers/STM32F3xx_HAL_Driver/Src/stm32f3xx_hal_tim.c ****       htim->hdma[TIM_DMA_ID_CC2]->XferCpltCallback = TIM_DMADelayPulseCplt;
 2963              		.loc 1 1329 0
 2964 00ba FB68     		ldr	r3, [r7, #12]
 2965 00bc 5B6A     		ldr	r3, [r3, #36]
 2966 00be 454A     		ldr	r2, .L201
 2967 00c0 9A62     		str	r2, [r3, #40]
1330:Drivers/STM32F3xx_HAL_Driver/Src/stm32f3xx_hal_tim.c ****      
1331:Drivers/STM32F3xx_HAL_Driver/Src/stm32f3xx_hal_tim.c ****       /* Set the DMA error callback */
1332:Drivers/STM32F3xx_HAL_Driver/Src/stm32f3xx_hal_tim.c ****       htim->hdma[TIM_DMA_ID_CC2]->XferErrorCallback = TIM_DMAError ;
 2968              		.loc 1 1332 0
 2969 00c2 FB68     		ldr	r3, [r7, #12]
 2970 00c4 5B6A     		ldr	r3, [r3, #36]
 2971 00c6 444A     		ldr	r2, .L201+4
 2972 00c8 1A63     		str	r2, [r3, #48]
1333:Drivers/STM32F3xx_HAL_Driver/Src/stm32f3xx_hal_tim.c ****       
1334:Drivers/STM32F3xx_HAL_Driver/Src/stm32f3xx_hal_tim.c ****       /* Enable the DMA channel */
1335:Drivers/STM32F3xx_HAL_Driver/Src/stm32f3xx_hal_tim.c ****       HAL_DMA_Start_IT(htim->hdma[TIM_DMA_ID_CC2], (uint32_t)pData, (uint32_t)&htim->Instance->CCR2
 2973              		.loc 1 1335 0
 2974 00ca FB68     		ldr	r3, [r7, #12]
 2975 00cc 586A     		ldr	r0, [r3, #36]
 2976 00ce 7968     		ldr	r1, [r7, #4]
 2977 00d0 FB68     		ldr	r3, [r7, #12]
 2978 00d2 1B68     		ldr	r3, [r3]
 2979 00d4 3833     		adds	r3, r3, #56
 2980 00d6 1A46     		mov	r2, r3
 2981 00d8 7B88     		ldrh	r3, [r7, #2]
 2982 00da FFF7FEFF 		bl	HAL_DMA_Start_IT
1336:Drivers/STM32F3xx_HAL_Driver/Src/stm32f3xx_hal_tim.c ****       
1337:Drivers/STM32F3xx_HAL_Driver/Src/stm32f3xx_hal_tim.c ****       /* Enable the TIM Capture/Compare 2 DMA request */
1338:Drivers/STM32F3xx_HAL_Driver/Src/stm32f3xx_hal_tim.c ****       __HAL_TIM_ENABLE_DMA(htim, TIM_DMA_CC2);
 2983              		.loc 1 1338 0
 2984 00de FB68     		ldr	r3, [r7, #12]
 2985 00e0 1B68     		ldr	r3, [r3]
 2986 00e2 FA68     		ldr	r2, [r7, #12]
 2987 00e4 1268     		ldr	r2, [r2]
 2988 00e6 D268     		ldr	r2, [r2, #12]
 2989 00e8 42F48062 		orr	r2, r2, #1024
 2990 00ec DA60     		str	r2, [r3, #12]
1339:Drivers/STM32F3xx_HAL_Driver/Src/stm32f3xx_hal_tim.c ****     }
1340:Drivers/STM32F3xx_HAL_Driver/Src/stm32f3xx_hal_tim.c ****     break;
 2991              		.loc 1 1340 0
 2992 00ee 36E0     		b	.L195
ARM GAS  /tmp/ccZyKULX.s 			page 76


 2993              	.L193:
1341:Drivers/STM32F3xx_HAL_Driver/Src/stm32f3xx_hal_tim.c ****     
1342:Drivers/STM32F3xx_HAL_Driver/Src/stm32f3xx_hal_tim.c ****     case TIM_CHANNEL_3:
1343:Drivers/STM32F3xx_HAL_Driver/Src/stm32f3xx_hal_tim.c ****     {
1344:Drivers/STM32F3xx_HAL_Driver/Src/stm32f3xx_hal_tim.c ****       /* Set the DMA Period elapsed callback */
1345:Drivers/STM32F3xx_HAL_Driver/Src/stm32f3xx_hal_tim.c ****       htim->hdma[TIM_DMA_ID_CC3]->XferCpltCallback = TIM_DMADelayPulseCplt;
 2994              		.loc 1 1345 0
 2995 00f0 FB68     		ldr	r3, [r7, #12]
 2996 00f2 9B6A     		ldr	r3, [r3, #40]
 2997 00f4 374A     		ldr	r2, .L201
 2998 00f6 9A62     		str	r2, [r3, #40]
1346:Drivers/STM32F3xx_HAL_Driver/Src/stm32f3xx_hal_tim.c ****      
1347:Drivers/STM32F3xx_HAL_Driver/Src/stm32f3xx_hal_tim.c ****       /* Set the DMA error callback */
1348:Drivers/STM32F3xx_HAL_Driver/Src/stm32f3xx_hal_tim.c ****       htim->hdma[TIM_DMA_ID_CC3]->XferErrorCallback = TIM_DMAError ;
 2999              		.loc 1 1348 0
 3000 00f8 FB68     		ldr	r3, [r7, #12]
 3001 00fa 9B6A     		ldr	r3, [r3, #40]
 3002 00fc 364A     		ldr	r2, .L201+4
 3003 00fe 1A63     		str	r2, [r3, #48]
1349:Drivers/STM32F3xx_HAL_Driver/Src/stm32f3xx_hal_tim.c ****       
1350:Drivers/STM32F3xx_HAL_Driver/Src/stm32f3xx_hal_tim.c ****       /* Enable the DMA channel */
1351:Drivers/STM32F3xx_HAL_Driver/Src/stm32f3xx_hal_tim.c ****       HAL_DMA_Start_IT(htim->hdma[TIM_DMA_ID_CC3], (uint32_t)pData, (uint32_t)&htim->Instance->CCR3
 3004              		.loc 1 1351 0
 3005 0100 FB68     		ldr	r3, [r7, #12]
 3006 0102 986A     		ldr	r0, [r3, #40]
 3007 0104 7968     		ldr	r1, [r7, #4]
 3008 0106 FB68     		ldr	r3, [r7, #12]
 3009 0108 1B68     		ldr	r3, [r3]
 3010 010a 3C33     		adds	r3, r3, #60
 3011 010c 1A46     		mov	r2, r3
 3012 010e 7B88     		ldrh	r3, [r7, #2]
 3013 0110 FFF7FEFF 		bl	HAL_DMA_Start_IT
1352:Drivers/STM32F3xx_HAL_Driver/Src/stm32f3xx_hal_tim.c ****       
1353:Drivers/STM32F3xx_HAL_Driver/Src/stm32f3xx_hal_tim.c ****       /* Enable the TIM Output Capture/Compare 3 request */
1354:Drivers/STM32F3xx_HAL_Driver/Src/stm32f3xx_hal_tim.c ****       __HAL_TIM_ENABLE_DMA(htim, TIM_DMA_CC3);
 3014              		.loc 1 1354 0
 3015 0114 FB68     		ldr	r3, [r7, #12]
 3016 0116 1B68     		ldr	r3, [r3]
 3017 0118 FA68     		ldr	r2, [r7, #12]
 3018 011a 1268     		ldr	r2, [r2]
 3019 011c D268     		ldr	r2, [r2, #12]
 3020 011e 42F40062 		orr	r2, r2, #2048
 3021 0122 DA60     		str	r2, [r3, #12]
1355:Drivers/STM32F3xx_HAL_Driver/Src/stm32f3xx_hal_tim.c ****     }
1356:Drivers/STM32F3xx_HAL_Driver/Src/stm32f3xx_hal_tim.c ****     break;
 3022              		.loc 1 1356 0
 3023 0124 1BE0     		b	.L195
 3024              	.L194:
1357:Drivers/STM32F3xx_HAL_Driver/Src/stm32f3xx_hal_tim.c ****     
1358:Drivers/STM32F3xx_HAL_Driver/Src/stm32f3xx_hal_tim.c ****     case TIM_CHANNEL_4:
1359:Drivers/STM32F3xx_HAL_Driver/Src/stm32f3xx_hal_tim.c ****     {
1360:Drivers/STM32F3xx_HAL_Driver/Src/stm32f3xx_hal_tim.c ****      /* Set the DMA Period elapsed callback */
1361:Drivers/STM32F3xx_HAL_Driver/Src/stm32f3xx_hal_tim.c ****       htim->hdma[TIM_DMA_ID_CC4]->XferCpltCallback = TIM_DMADelayPulseCplt;
 3025              		.loc 1 1361 0
 3026 0126 FB68     		ldr	r3, [r7, #12]
 3027 0128 DB6A     		ldr	r3, [r3, #44]
 3028 012a 2A4A     		ldr	r2, .L201
ARM GAS  /tmp/ccZyKULX.s 			page 77


 3029 012c 9A62     		str	r2, [r3, #40]
1362:Drivers/STM32F3xx_HAL_Driver/Src/stm32f3xx_hal_tim.c ****      
1363:Drivers/STM32F3xx_HAL_Driver/Src/stm32f3xx_hal_tim.c ****       /* Set the DMA error callback */
1364:Drivers/STM32F3xx_HAL_Driver/Src/stm32f3xx_hal_tim.c ****       htim->hdma[TIM_DMA_ID_CC4]->XferErrorCallback = TIM_DMAError ;
 3030              		.loc 1 1364 0
 3031 012e FB68     		ldr	r3, [r7, #12]
 3032 0130 DB6A     		ldr	r3, [r3, #44]
 3033 0132 294A     		ldr	r2, .L201+4
 3034 0134 1A63     		str	r2, [r3, #48]
1365:Drivers/STM32F3xx_HAL_Driver/Src/stm32f3xx_hal_tim.c ****       
1366:Drivers/STM32F3xx_HAL_Driver/Src/stm32f3xx_hal_tim.c ****       /* Enable the DMA channel */
1367:Drivers/STM32F3xx_HAL_Driver/Src/stm32f3xx_hal_tim.c ****       HAL_DMA_Start_IT(htim->hdma[TIM_DMA_ID_CC4], (uint32_t)pData, (uint32_t)&htim->Instance->CCR4
 3035              		.loc 1 1367 0
 3036 0136 FB68     		ldr	r3, [r7, #12]
 3037 0138 D86A     		ldr	r0, [r3, #44]
 3038 013a 7968     		ldr	r1, [r7, #4]
 3039 013c FB68     		ldr	r3, [r7, #12]
 3040 013e 1B68     		ldr	r3, [r3]
 3041 0140 4033     		adds	r3, r3, #64
 3042 0142 1A46     		mov	r2, r3
 3043 0144 7B88     		ldrh	r3, [r7, #2]
 3044 0146 FFF7FEFF 		bl	HAL_DMA_Start_IT
1368:Drivers/STM32F3xx_HAL_Driver/Src/stm32f3xx_hal_tim.c ****       
1369:Drivers/STM32F3xx_HAL_Driver/Src/stm32f3xx_hal_tim.c ****       /* Enable the TIM Capture/Compare 4 DMA request */
1370:Drivers/STM32F3xx_HAL_Driver/Src/stm32f3xx_hal_tim.c ****       __HAL_TIM_ENABLE_DMA(htim, TIM_DMA_CC4);
 3045              		.loc 1 1370 0
 3046 014a FB68     		ldr	r3, [r7, #12]
 3047 014c 1B68     		ldr	r3, [r3]
 3048 014e FA68     		ldr	r2, [r7, #12]
 3049 0150 1268     		ldr	r2, [r2]
 3050 0152 D268     		ldr	r2, [r2, #12]
 3051 0154 42F48052 		orr	r2, r2, #4096
 3052 0158 DA60     		str	r2, [r3, #12]
1371:Drivers/STM32F3xx_HAL_Driver/Src/stm32f3xx_hal_tim.c ****     }
1372:Drivers/STM32F3xx_HAL_Driver/Src/stm32f3xx_hal_tim.c ****     break;
 3053              		.loc 1 1372 0
 3054 015a 00E0     		b	.L195
 3055              	.L200:
1373:Drivers/STM32F3xx_HAL_Driver/Src/stm32f3xx_hal_tim.c ****     
1374:Drivers/STM32F3xx_HAL_Driver/Src/stm32f3xx_hal_tim.c ****     default:
1375:Drivers/STM32F3xx_HAL_Driver/Src/stm32f3xx_hal_tim.c ****     break;
 3056              		.loc 1 1375 0
 3057 015c 00BF     		nop
 3058              	.L195:
1376:Drivers/STM32F3xx_HAL_Driver/Src/stm32f3xx_hal_tim.c ****   }
1377:Drivers/STM32F3xx_HAL_Driver/Src/stm32f3xx_hal_tim.c **** 
1378:Drivers/STM32F3xx_HAL_Driver/Src/stm32f3xx_hal_tim.c ****   /* Enable the Capture compare channel */
1379:Drivers/STM32F3xx_HAL_Driver/Src/stm32f3xx_hal_tim.c ****   TIM_CCxChannelCmd(htim->Instance, Channel, TIM_CCx_ENABLE);
 3059              		.loc 1 1379 0
 3060 015e FB68     		ldr	r3, [r7, #12]
 3061 0160 1B68     		ldr	r3, [r3]
 3062 0162 1846     		mov	r0, r3
 3063 0164 B968     		ldr	r1, [r7, #8]
 3064 0166 0122     		movs	r2, #1
 3065 0168 FFF7FEFF 		bl	TIM_CCxChannelCmd
1380:Drivers/STM32F3xx_HAL_Driver/Src/stm32f3xx_hal_tim.c ****   
1381:Drivers/STM32F3xx_HAL_Driver/Src/stm32f3xx_hal_tim.c ****   if(IS_TIM_BREAK_INSTANCE(htim->Instance) != RESET)  
ARM GAS  /tmp/ccZyKULX.s 			page 78


 3066              		.loc 1 1381 0
 3067 016c FB68     		ldr	r3, [r7, #12]
 3068 016e 1A68     		ldr	r2, [r3]
 3069 0170 1A4B     		ldr	r3, .L201+8
 3070 0172 9A42     		cmp	r2, r3
 3071 0174 13D0     		beq	.L196
 3072              		.loc 1 1381 0 is_stmt 0 discriminator 2
 3073 0176 FB68     		ldr	r3, [r7, #12]
 3074 0178 1A68     		ldr	r2, [r3]
 3075 017a 194B     		ldr	r3, .L201+12
 3076 017c 9A42     		cmp	r2, r3
 3077 017e 0ED0     		beq	.L196
 3078              		.loc 1 1381 0 discriminator 1
 3079 0180 FB68     		ldr	r3, [r7, #12]
 3080 0182 1A68     		ldr	r2, [r3]
 3081 0184 174B     		ldr	r3, .L201+16
 3082 0186 9A42     		cmp	r2, r3
 3083 0188 09D0     		beq	.L196
 3084 018a FB68     		ldr	r3, [r7, #12]
 3085 018c 1A68     		ldr	r2, [r3]
 3086 018e 164B     		ldr	r3, .L201+20
 3087 0190 9A42     		cmp	r2, r3
 3088 0192 04D0     		beq	.L196
 3089 0194 FB68     		ldr	r3, [r7, #12]
 3090 0196 1A68     		ldr	r2, [r3]
 3091 0198 144B     		ldr	r3, .L201+24
 3092 019a 9A42     		cmp	r2, r3
 3093 019c 01D1     		bne	.L197
 3094              	.L196:
 3095 019e 0123     		movs	r3, #1
 3096 01a0 00E0     		b	.L198
 3097              	.L197:
 3098              		.loc 1 1381 0 discriminator 3
 3099 01a2 0023     		movs	r3, #0
 3100              	.L198:
 3101              		.loc 1 1381 0 discriminator 4
 3102 01a4 002B     		cmp	r3, #0
 3103 01a6 07D0     		beq	.L199
1382:Drivers/STM32F3xx_HAL_Driver/Src/stm32f3xx_hal_tim.c ****   {
1383:Drivers/STM32F3xx_HAL_Driver/Src/stm32f3xx_hal_tim.c ****     /* Enable the main output */
1384:Drivers/STM32F3xx_HAL_Driver/Src/stm32f3xx_hal_tim.c ****     __HAL_TIM_MOE_ENABLE(htim);
 3104              		.loc 1 1384 0 is_stmt 1
 3105 01a8 FB68     		ldr	r3, [r7, #12]
 3106 01aa 1B68     		ldr	r3, [r3]
 3107 01ac FA68     		ldr	r2, [r7, #12]
 3108 01ae 1268     		ldr	r2, [r2]
 3109 01b0 526C     		ldr	r2, [r2, #68]
 3110 01b2 42F40042 		orr	r2, r2, #32768
 3111 01b6 5A64     		str	r2, [r3, #68]
 3112              	.L199:
1385:Drivers/STM32F3xx_HAL_Driver/Src/stm32f3xx_hal_tim.c ****   }
1386:Drivers/STM32F3xx_HAL_Driver/Src/stm32f3xx_hal_tim.c ****   
1387:Drivers/STM32F3xx_HAL_Driver/Src/stm32f3xx_hal_tim.c ****   /* Enable the Peripheral */
1388:Drivers/STM32F3xx_HAL_Driver/Src/stm32f3xx_hal_tim.c ****   __HAL_TIM_ENABLE(htim); 
 3113              		.loc 1 1388 0
 3114 01b8 FB68     		ldr	r3, [r7, #12]
 3115 01ba 1B68     		ldr	r3, [r3]
ARM GAS  /tmp/ccZyKULX.s 			page 79


 3116 01bc FA68     		ldr	r2, [r7, #12]
 3117 01be 1268     		ldr	r2, [r2]
 3118 01c0 1268     		ldr	r2, [r2]
 3119 01c2 42F00102 		orr	r2, r2, #1
 3120 01c6 1A60     		str	r2, [r3]
1389:Drivers/STM32F3xx_HAL_Driver/Src/stm32f3xx_hal_tim.c ****   
1390:Drivers/STM32F3xx_HAL_Driver/Src/stm32f3xx_hal_tim.c ****   /* Return function status */
1391:Drivers/STM32F3xx_HAL_Driver/Src/stm32f3xx_hal_tim.c ****   return HAL_OK;
 3121              		.loc 1 1391 0
 3122 01c8 0023     		movs	r3, #0
 3123              	.L186:
1392:Drivers/STM32F3xx_HAL_Driver/Src/stm32f3xx_hal_tim.c **** }
 3124              		.loc 1 1392 0
 3125 01ca 1846     		mov	r0, r3
 3126 01cc 1037     		adds	r7, r7, #16
 3127 01ce BD46     		mov	sp, r7
 3128              		@ sp needed
 3129 01d0 80BD     		pop	{r7, pc}
 3130              	.L202:
 3131 01d2 00BF     		.align	2
 3132              	.L201:
 3133 01d4 00000000 		.word	TIM_DMADelayPulseCplt
 3134 01d8 00000000 		.word	TIM_DMAError
 3135 01dc 002C0140 		.word	1073818624
 3136 01e0 00340140 		.word	1073820672
 3137 01e4 00400140 		.word	1073823744
 3138 01e8 00440140 		.word	1073824768
 3139 01ec 00480140 		.word	1073825792
 3140              		.cfi_endproc
 3141              	.LFE153:
 3143              		.section	.text.HAL_TIM_PWM_Stop_DMA,"ax",%progbits
 3144              		.align	2
 3145              		.global	HAL_TIM_PWM_Stop_DMA
 3146              		.thumb
 3147              		.thumb_func
 3149              	HAL_TIM_PWM_Stop_DMA:
 3150              	.LFB154:
1393:Drivers/STM32F3xx_HAL_Driver/Src/stm32f3xx_hal_tim.c **** 
1394:Drivers/STM32F3xx_HAL_Driver/Src/stm32f3xx_hal_tim.c **** /**
1395:Drivers/STM32F3xx_HAL_Driver/Src/stm32f3xx_hal_tim.c ****   * @brief  Stops the TIM PWM signal generation in DMA mode.
1396:Drivers/STM32F3xx_HAL_Driver/Src/stm32f3xx_hal_tim.c ****   * @param  htim: TIM handle
1397:Drivers/STM32F3xx_HAL_Driver/Src/stm32f3xx_hal_tim.c ****   * @param  Channel: TIM Channels to be disabled
1398:Drivers/STM32F3xx_HAL_Driver/Src/stm32f3xx_hal_tim.c ****   *          This parameter can be one of the following values:
1399:Drivers/STM32F3xx_HAL_Driver/Src/stm32f3xx_hal_tim.c ****   *            @arg TIM_CHANNEL_1: TIM Channel 1 selected
1400:Drivers/STM32F3xx_HAL_Driver/Src/stm32f3xx_hal_tim.c ****   *            @arg TIM_CHANNEL_2: TIM Channel 2 selected
1401:Drivers/STM32F3xx_HAL_Driver/Src/stm32f3xx_hal_tim.c ****   *            @arg TIM_CHANNEL_3: TIM Channel 3 selected
1402:Drivers/STM32F3xx_HAL_Driver/Src/stm32f3xx_hal_tim.c ****   *            @arg TIM_CHANNEL_4: TIM Channel 4 selected
1403:Drivers/STM32F3xx_HAL_Driver/Src/stm32f3xx_hal_tim.c ****   * @retval HAL status
1404:Drivers/STM32F3xx_HAL_Driver/Src/stm32f3xx_hal_tim.c **** */
1405:Drivers/STM32F3xx_HAL_Driver/Src/stm32f3xx_hal_tim.c **** HAL_StatusTypeDef HAL_TIM_PWM_Stop_DMA(TIM_HandleTypeDef *htim, uint32_t Channel)
1406:Drivers/STM32F3xx_HAL_Driver/Src/stm32f3xx_hal_tim.c **** {
 3151              		.loc 1 1406 0
 3152              		.cfi_startproc
 3153              		@ args = 0, pretend = 0, frame = 8
 3154              		@ frame_needed = 1, uses_anonymous_args = 0
 3155 0000 80B5     		push	{r7, lr}
 3156              	.LCFI87:
ARM GAS  /tmp/ccZyKULX.s 			page 80


 3157              		.cfi_def_cfa_offset 8
 3158              		.cfi_offset 7, -8
 3159              		.cfi_offset 14, -4
 3160 0002 82B0     		sub	sp, sp, #8
 3161              	.LCFI88:
 3162              		.cfi_def_cfa_offset 16
 3163 0004 00AF     		add	r7, sp, #0
 3164              	.LCFI89:
 3165              		.cfi_def_cfa_register 7
 3166 0006 7860     		str	r0, [r7, #4]
 3167 0008 3960     		str	r1, [r7]
1407:Drivers/STM32F3xx_HAL_Driver/Src/stm32f3xx_hal_tim.c ****   /* Check the parameters */
1408:Drivers/STM32F3xx_HAL_Driver/Src/stm32f3xx_hal_tim.c ****   assert_param(IS_TIM_CCX_INSTANCE(htim->Instance, Channel));
1409:Drivers/STM32F3xx_HAL_Driver/Src/stm32f3xx_hal_tim.c ****   
1410:Drivers/STM32F3xx_HAL_Driver/Src/stm32f3xx_hal_tim.c ****   switch (Channel)
 3168              		.loc 1 1410 0
 3169 000a 3B68     		ldr	r3, [r7]
 3170 000c 0C2B     		cmp	r3, #12
 3171 000e 41D8     		bhi	.L217
 3172 0010 01A2     		adr	r2, .L206
 3173 0012 52F823F0 		ldr	pc, [r2, r3, lsl #2]
 3174 0016 00BF     		.p2align 2
 3175              	.L206:
 3176 0018 4D000000 		.word	.L205+1
 3177 001c 95000000 		.word	.L217+1
 3178 0020 95000000 		.word	.L217+1
 3179 0024 95000000 		.word	.L217+1
 3180 0028 5F000000 		.word	.L207+1
 3181 002c 95000000 		.word	.L217+1
 3182 0030 95000000 		.word	.L217+1
 3183 0034 95000000 		.word	.L217+1
 3184 0038 71000000 		.word	.L208+1
 3185 003c 95000000 		.word	.L217+1
 3186 0040 95000000 		.word	.L217+1
 3187 0044 95000000 		.word	.L217+1
 3188 0048 83000000 		.word	.L209+1
 3189              		.p2align 1
 3190              	.L205:
1411:Drivers/STM32F3xx_HAL_Driver/Src/stm32f3xx_hal_tim.c ****   {
1412:Drivers/STM32F3xx_HAL_Driver/Src/stm32f3xx_hal_tim.c ****     case TIM_CHANNEL_1:
1413:Drivers/STM32F3xx_HAL_Driver/Src/stm32f3xx_hal_tim.c ****     {       
