ARM GAS  /tmp/ccZyKULX.s 			page 1


   1              		.syntax unified
   2              		.cpu cortex-m4
   3              		.eabi_attribute 27, 3
   4              		.eabi_attribute 28, 1
   5              		.fpu fpv4-sp-d16
   6              		.eabi_attribute 20, 1
   7              		.eabi_attribute 21, 1
   8              		.eabi_attribute 23, 3
   9              		.eabi_attribute 24, 1
  10              		.eabi_attribute 25, 1
  11              		.eabi_attribute 26, 1
  12              		.eabi_attribute 30, 6
  13              		.eabi_attribute 34, 1
  14              		.eabi_attribute 18, 4
  15              		.thumb
  16              		.file	"stm32f3xx_hal_tim.c"
  17              		.text
  18              	.Ltext0:
  19              		.cfi_sections	.debug_frame
  20              		.section	.text.HAL_TIM_Base_Init,"ax",%progbits
  21              		.align	2
  22              		.global	HAL_TIM_Base_Init
  23              		.thumb
  24              		.thumb_func
  26              	HAL_TIM_Base_Init:
  27              	.LFB125:
  28              		.file 1 "Drivers/STM32F3xx_HAL_Driver/Src/stm32f3xx_hal_tim.c"
   1:Drivers/STM32F3xx_HAL_Driver/Src/stm32f3xx_hal_tim.c **** /**
   2:Drivers/STM32F3xx_HAL_Driver/Src/stm32f3xx_hal_tim.c ****   ******************************************************************************
   3:Drivers/STM32F3xx_HAL_Driver/Src/stm32f3xx_hal_tim.c ****   * @file    stm32f3xx_hal_tim.c
   4:Drivers/STM32F3xx_HAL_Driver/Src/stm32f3xx_hal_tim.c ****   * @author  MCD Application Team
   5:Drivers/STM32F3xx_HAL_Driver/Src/stm32f3xx_hal_tim.c ****   * @version V1.2.1
   6:Drivers/STM32F3xx_HAL_Driver/Src/stm32f3xx_hal_tim.c ****   * @date    29-April-2015
   7:Drivers/STM32F3xx_HAL_Driver/Src/stm32f3xx_hal_tim.c ****   * @brief   TIM HAL module driver.
   8:Drivers/STM32F3xx_HAL_Driver/Src/stm32f3xx_hal_tim.c ****   *          This file provides firmware functions to manage the following 
   9:Drivers/STM32F3xx_HAL_Driver/Src/stm32f3xx_hal_tim.c ****   *          functionalities of the Timer (TIM) peripheral:
  10:Drivers/STM32F3xx_HAL_Driver/Src/stm32f3xx_hal_tim.c ****   *           + Time Base Initialization
  11:Drivers/STM32F3xx_HAL_Driver/Src/stm32f3xx_hal_tim.c ****   *           + Time Base Start
  12:Drivers/STM32F3xx_HAL_Driver/Src/stm32f3xx_hal_tim.c ****   *           + Time Base Start Interruption
  13:Drivers/STM32F3xx_HAL_Driver/Src/stm32f3xx_hal_tim.c ****   *           + Time Base Start DMA
  14:Drivers/STM32F3xx_HAL_Driver/Src/stm32f3xx_hal_tim.c ****   *           + Time Output Compare/PWM Initialization
  15:Drivers/STM32F3xx_HAL_Driver/Src/stm32f3xx_hal_tim.c ****   *           + Time Output Compare/PWM Channel Configuration
  16:Drivers/STM32F3xx_HAL_Driver/Src/stm32f3xx_hal_tim.c ****   *           + Time Output Compare/PWM  Start
  17:Drivers/STM32F3xx_HAL_Driver/Src/stm32f3xx_hal_tim.c ****   *           + Time Output Compare/PWM  Start Interruption
  18:Drivers/STM32F3xx_HAL_Driver/Src/stm32f3xx_hal_tim.c ****   *           + Time Output Compare/PWM Start DMA
  19:Drivers/STM32F3xx_HAL_Driver/Src/stm32f3xx_hal_tim.c ****   *           + Time Input Capture Initialization
  20:Drivers/STM32F3xx_HAL_Driver/Src/stm32f3xx_hal_tim.c ****   *           + Time Input Capture Channel Configuration
  21:Drivers/STM32F3xx_HAL_Driver/Src/stm32f3xx_hal_tim.c ****   *           + Time Input Capture Start
  22:Drivers/STM32F3xx_HAL_Driver/Src/stm32f3xx_hal_tim.c ****   *           + Time Input Capture Start Interruption 
  23:Drivers/STM32F3xx_HAL_Driver/Src/stm32f3xx_hal_tim.c ****   *           + Time Input Capture Start DMA
  24:Drivers/STM32F3xx_HAL_Driver/Src/stm32f3xx_hal_tim.c ****   *           + Time One Pulse Initialization
  25:Drivers/STM32F3xx_HAL_Driver/Src/stm32f3xx_hal_tim.c ****   *           + Time One Pulse Channel Configuration
  26:Drivers/STM32F3xx_HAL_Driver/Src/stm32f3xx_hal_tim.c ****   *           + Time One Pulse Start 
  27:Drivers/STM32F3xx_HAL_Driver/Src/stm32f3xx_hal_tim.c ****   *           + Time Encoder Interface Initialization
  28:Drivers/STM32F3xx_HAL_Driver/Src/stm32f3xx_hal_tim.c ****   *           + Time Encoder Interface Start
  29:Drivers/STM32F3xx_HAL_Driver/Src/stm32f3xx_hal_tim.c ****   *           + Time Encoder Interface Start Interruption
  30:Drivers/STM32F3xx_HAL_Driver/Src/stm32f3xx_hal_tim.c ****   *           + Time Encoder Interface Start DMA
ARM GAS  /tmp/ccZyKULX.s 			page 2


  31:Drivers/STM32F3xx_HAL_Driver/Src/stm32f3xx_hal_tim.c ****   *           + Commutation Event configuration with Interruption and DMA
  32:Drivers/STM32F3xx_HAL_Driver/Src/stm32f3xx_hal_tim.c ****   *           + Time OCRef clear configuration
  33:Drivers/STM32F3xx_HAL_Driver/Src/stm32f3xx_hal_tim.c ****   *           + Time External Clock configuration
  34:Drivers/STM32F3xx_HAL_Driver/Src/stm32f3xx_hal_tim.c ****   @verbatim
  35:Drivers/STM32F3xx_HAL_Driver/Src/stm32f3xx_hal_tim.c ****   ==============================================================================
  36:Drivers/STM32F3xx_HAL_Driver/Src/stm32f3xx_hal_tim.c ****                       ##### TIMER Generic features #####
  37:Drivers/STM32F3xx_HAL_Driver/Src/stm32f3xx_hal_tim.c ****   ==============================================================================
  38:Drivers/STM32F3xx_HAL_Driver/Src/stm32f3xx_hal_tim.c ****   [..] The Timer features include: 
  39:Drivers/STM32F3xx_HAL_Driver/Src/stm32f3xx_hal_tim.c ****        (#) 16-bit up, down, up/down auto-reload counter.
  40:Drivers/STM32F3xx_HAL_Driver/Src/stm32f3xx_hal_tim.c ****        (#) 16-bit programmable prescaler allowing dividing (also on the fly) the 
  41:Drivers/STM32F3xx_HAL_Driver/Src/stm32f3xx_hal_tim.c ****            counter clock frequency either by any factor between 1 and 65536.
  42:Drivers/STM32F3xx_HAL_Driver/Src/stm32f3xx_hal_tim.c ****        (#) Up to 4 independent channels for:
  43:Drivers/STM32F3xx_HAL_Driver/Src/stm32f3xx_hal_tim.c ****            (++) Input Capture
  44:Drivers/STM32F3xx_HAL_Driver/Src/stm32f3xx_hal_tim.c ****            (++) Output Compare
  45:Drivers/STM32F3xx_HAL_Driver/Src/stm32f3xx_hal_tim.c ****            (++) PWM generation (Edge and Center-aligned Mode)
  46:Drivers/STM32F3xx_HAL_Driver/Src/stm32f3xx_hal_tim.c ****            (++) One-pulse mode output               
  47:Drivers/STM32F3xx_HAL_Driver/Src/stm32f3xx_hal_tim.c ****    
  48:Drivers/STM32F3xx_HAL_Driver/Src/stm32f3xx_hal_tim.c ****             ##### How to use this driver #####
  49:Drivers/STM32F3xx_HAL_Driver/Src/stm32f3xx_hal_tim.c ****   ==============================================================================
  50:Drivers/STM32F3xx_HAL_Driver/Src/stm32f3xx_hal_tim.c ****     [..]
  51:Drivers/STM32F3xx_HAL_Driver/Src/stm32f3xx_hal_tim.c ****      (#) Initialize the TIM low level resources by implementing the following functions 
  52:Drivers/STM32F3xx_HAL_Driver/Src/stm32f3xx_hal_tim.c ****          depending from feature used :
  53:Drivers/STM32F3xx_HAL_Driver/Src/stm32f3xx_hal_tim.c ****            (++) Time Base : HAL_TIM_Base_MspInit() 
  54:Drivers/STM32F3xx_HAL_Driver/Src/stm32f3xx_hal_tim.c ****            (++) Input Capture : HAL_TIM_IC_MspInit()
  55:Drivers/STM32F3xx_HAL_Driver/Src/stm32f3xx_hal_tim.c ****            (++) Output Compare : HAL_TIM_OC_MspInit()
  56:Drivers/STM32F3xx_HAL_Driver/Src/stm32f3xx_hal_tim.c ****            (++) PWM generation : HAL_TIM_PWM_MspInit()
  57:Drivers/STM32F3xx_HAL_Driver/Src/stm32f3xx_hal_tim.c ****            (++) One-pulse mode output : HAL_TIM_OnePulse_MspInit()
  58:Drivers/STM32F3xx_HAL_Driver/Src/stm32f3xx_hal_tim.c ****            (++) Encoder mode output : HAL_TIM_Encoder_MspInit()
  59:Drivers/STM32F3xx_HAL_Driver/Src/stm32f3xx_hal_tim.c ****            
  60:Drivers/STM32F3xx_HAL_Driver/Src/stm32f3xx_hal_tim.c ****      (#) Initialize the TIM low level resources :
  61:Drivers/STM32F3xx_HAL_Driver/Src/stm32f3xx_hal_tim.c ****         (##) Enable the TIM interface clock using __HAL_RCC_TIMx_CLK_ENABLE  (); 
  62:Drivers/STM32F3xx_HAL_Driver/Src/stm32f3xx_hal_tim.c ****         (##) TIM pins configuration
  63:Drivers/STM32F3xx_HAL_Driver/Src/stm32f3xx_hal_tim.c ****             (+++) Enable the clock for the TIM GPIOs using the following function:
  64:Drivers/STM32F3xx_HAL_Driver/Src/stm32f3xx_hal_tim.c ****              __HAL_RCC_GPIOx_CLK_ENABLE();   
  65:Drivers/STM32F3xx_HAL_Driver/Src/stm32f3xx_hal_tim.c ****             (+++) Configure these TIM pins in Alternate function mode using HAL_GPIO_Init();  
  66:Drivers/STM32F3xx_HAL_Driver/Src/stm32f3xx_hal_tim.c **** 
  67:Drivers/STM32F3xx_HAL_Driver/Src/stm32f3xx_hal_tim.c ****      (#) The external Clock can be configured, if needed (the default clock is the 
  68:Drivers/STM32F3xx_HAL_Driver/Src/stm32f3xx_hal_tim.c ****          internal clock from the APBx), using the following function:
  69:Drivers/STM32F3xx_HAL_Driver/Src/stm32f3xx_hal_tim.c ****          HAL_TIM_ConfigClockSource, the clock configuration should be done before 
  70:Drivers/STM32F3xx_HAL_Driver/Src/stm32f3xx_hal_tim.c ****          any start function.
  71:Drivers/STM32F3xx_HAL_Driver/Src/stm32f3xx_hal_tim.c ****   
  72:Drivers/STM32F3xx_HAL_Driver/Src/stm32f3xx_hal_tim.c ****      (#) Configure the TIM in the desired functioning mode using one of the 
  73:Drivers/STM32F3xx_HAL_Driver/Src/stm32f3xx_hal_tim.c ****        Initialization function of this driver:
  74:Drivers/STM32F3xx_HAL_Driver/Src/stm32f3xx_hal_tim.c ****        (++) HAL_TIM_Base_Init: to use the Timer to generate a simple time base
  75:Drivers/STM32F3xx_HAL_Driver/Src/stm32f3xx_hal_tim.c ****        (++) HAL_TIM_OC_Init and HAL_TIM_OC_ConfigChannel: to use the Timer to generate an 
  76:Drivers/STM32F3xx_HAL_Driver/Src/stm32f3xx_hal_tim.c ****             Output Compare signal.
  77:Drivers/STM32F3xx_HAL_Driver/Src/stm32f3xx_hal_tim.c ****        (++) HAL_TIM_PWM_Init and HAL_TIM_PWM_ConfigChannel: to use the Timer to generate a 
  78:Drivers/STM32F3xx_HAL_Driver/Src/stm32f3xx_hal_tim.c ****             PWM signal.
  79:Drivers/STM32F3xx_HAL_Driver/Src/stm32f3xx_hal_tim.c ****        (++) HAL_TIM_IC_Init and HAL_TIM_IC_ConfigChannel: to use the Timer to measure an 
  80:Drivers/STM32F3xx_HAL_Driver/Src/stm32f3xx_hal_tim.c ****             external signal.
  81:Drivers/STM32F3xx_HAL_Driver/Src/stm32f3xx_hal_tim.c ****          (++) HAL_TIM_OnePulse_Init and HAL_TIM_OnePulse_ConfigChannel: to use the Timer 
  82:Drivers/STM32F3xx_HAL_Driver/Src/stm32f3xx_hal_tim.c ****               in One Pulse Mode.
  83:Drivers/STM32F3xx_HAL_Driver/Src/stm32f3xx_hal_tim.c ****        (++) HAL_TIM_Encoder_Init: to use the Timer Encoder Interface.
  84:Drivers/STM32F3xx_HAL_Driver/Src/stm32f3xx_hal_tim.c **** 
  85:Drivers/STM32F3xx_HAL_Driver/Src/stm32f3xx_hal_tim.c ****      (#) Activate the TIM peripheral using one of the start functions depending from the feature us
  86:Drivers/STM32F3xx_HAL_Driver/Src/stm32f3xx_hal_tim.c ****            (++) Time Base : HAL_TIM_Base_Start(), HAL_TIM_Base_Start_DMA(), HAL_TIM_Base_Start_IT()
  87:Drivers/STM32F3xx_HAL_Driver/Src/stm32f3xx_hal_tim.c ****            (++) Input Capture :  HAL_TIM_IC_Start(), HAL_TIM_IC_Start_DMA(), HAL_TIM_IC_Start_IT()
ARM GAS  /tmp/ccZyKULX.s 			page 3


  88:Drivers/STM32F3xx_HAL_Driver/Src/stm32f3xx_hal_tim.c ****            (++) Output Compare : HAL_TIM_OC_Start(), HAL_TIM_OC_Start_DMA(), HAL_TIM_OC_Start_IT()
  89:Drivers/STM32F3xx_HAL_Driver/Src/stm32f3xx_hal_tim.c ****            (++) PWM generation : HAL_TIM_PWM_Start(), HAL_TIM_PWM_Start_DMA(), HAL_TIM_PWM_Start_IT
  90:Drivers/STM32F3xx_HAL_Driver/Src/stm32f3xx_hal_tim.c ****            (++) One-pulse mode output : HAL_TIM_OnePulse_Start(), HAL_TIM_OnePulse_Start_IT()
  91:Drivers/STM32F3xx_HAL_Driver/Src/stm32f3xx_hal_tim.c ****            (++) Encoder mode output : HAL_TIM_Encoder_Start(), HAL_TIM_Encoder_Start_DMA(), HAL_TIM
  92:Drivers/STM32F3xx_HAL_Driver/Src/stm32f3xx_hal_tim.c **** 
  93:Drivers/STM32F3xx_HAL_Driver/Src/stm32f3xx_hal_tim.c ****      (#) The DMA Burst is managed with the two following functions:
  94:Drivers/STM32F3xx_HAL_Driver/Src/stm32f3xx_hal_tim.c ****          HAL_TIM_DMABurst_WriteStart()
  95:Drivers/STM32F3xx_HAL_Driver/Src/stm32f3xx_hal_tim.c ****          HAL_TIM_DMABurst_ReadStart()
  96:Drivers/STM32F3xx_HAL_Driver/Src/stm32f3xx_hal_tim.c ****   
  97:Drivers/STM32F3xx_HAL_Driver/Src/stm32f3xx_hal_tim.c ****   @endverbatim
  98:Drivers/STM32F3xx_HAL_Driver/Src/stm32f3xx_hal_tim.c ****   ******************************************************************************
  99:Drivers/STM32F3xx_HAL_Driver/Src/stm32f3xx_hal_tim.c ****   * @attention
 100:Drivers/STM32F3xx_HAL_Driver/Src/stm32f3xx_hal_tim.c ****   *
 101:Drivers/STM32F3xx_HAL_Driver/Src/stm32f3xx_hal_tim.c ****   * <h2><center>&copy; COPYRIGHT(c) 2016 STMicroelectronics</center></h2>
 102:Drivers/STM32F3xx_HAL_Driver/Src/stm32f3xx_hal_tim.c ****   *
 103:Drivers/STM32F3xx_HAL_Driver/Src/stm32f3xx_hal_tim.c ****   * Redistribution and use in source and binary forms, with or without modification,
 104:Drivers/STM32F3xx_HAL_Driver/Src/stm32f3xx_hal_tim.c ****   * are permitted provided that the following conditions are met:
 105:Drivers/STM32F3xx_HAL_Driver/Src/stm32f3xx_hal_tim.c ****   *   1. Redistributions of source code must retain the above copyright notice,
 106:Drivers/STM32F3xx_HAL_Driver/Src/stm32f3xx_hal_tim.c ****   *      this list of conditions and the following disclaimer.
 107:Drivers/STM32F3xx_HAL_Driver/Src/stm32f3xx_hal_tim.c ****   *   2. Redistributions in binary form must reproduce the above copyright notice,
 108:Drivers/STM32F3xx_HAL_Driver/Src/stm32f3xx_hal_tim.c ****   *      this list of conditions and the following disclaimer in the documentation
 109:Drivers/STM32F3xx_HAL_Driver/Src/stm32f3xx_hal_tim.c ****   *      and/or other materials provided with the distribution.
 110:Drivers/STM32F3xx_HAL_Driver/Src/stm32f3xx_hal_tim.c ****   *   3. Neither the name of STMicroelectronics nor the names of its contributors
 111:Drivers/STM32F3xx_HAL_Driver/Src/stm32f3xx_hal_tim.c ****   *      may be used to endorse or promote products derived from this software
 112:Drivers/STM32F3xx_HAL_Driver/Src/stm32f3xx_hal_tim.c ****   *      without specific prior written permission.
 113:Drivers/STM32F3xx_HAL_Driver/Src/stm32f3xx_hal_tim.c ****   *
 114:Drivers/STM32F3xx_HAL_Driver/Src/stm32f3xx_hal_tim.c ****   * THIS SOFTWARE IS PROVIDED BY THE COPYRIGHT HOLDERS AND CONTRIBUTORS "AS IS"
 115:Drivers/STM32F3xx_HAL_Driver/Src/stm32f3xx_hal_tim.c ****   * AND ANY EXPRESS OR IMPLIED WARRANTIES, INCLUDING, BUT NOT LIMITED TO, THE
 116:Drivers/STM32F3xx_HAL_Driver/Src/stm32f3xx_hal_tim.c ****   * IMPLIED WARRANTIES OF MERCHANTABILITY AND FITNESS FOR A PARTICULAR PURPOSE ARE
 117:Drivers/STM32F3xx_HAL_Driver/Src/stm32f3xx_hal_tim.c ****   * DISCLAIMED. IN NO EVENT SHALL THE COPYRIGHT HOLDER OR CONTRIBUTORS BE LIABLE
 118:Drivers/STM32F3xx_HAL_Driver/Src/stm32f3xx_hal_tim.c ****   * FOR ANY DIRECT, INDIRECT, INCIDENTAL, SPECIAL, EXEMPLARY, OR CONSEQUENTIAL
 119:Drivers/STM32F3xx_HAL_Driver/Src/stm32f3xx_hal_tim.c ****   * DAMAGES (INCLUDING, BUT NOT LIMITED TO, PROCUREMENT OF SUBSTITUTE GOODS OR
 120:Drivers/STM32F3xx_HAL_Driver/Src/stm32f3xx_hal_tim.c ****   * SERVICES; LOSS OF USE, DATA, OR PROFITS; OR BUSINESS INTERRUPTION) HOWEVER
 121:Drivers/STM32F3xx_HAL_Driver/Src/stm32f3xx_hal_tim.c ****   * CAUSED AND ON ANY THEORY OF LIABILITY, WHETHER IN CONTRACT, STRICT LIABILITY,
 122:Drivers/STM32F3xx_HAL_Driver/Src/stm32f3xx_hal_tim.c ****   * OR TORT (INCLUDING NEGLIGENCE OR OTHERWISE) ARISING IN ANY WAY OUT OF THE USE
 123:Drivers/STM32F3xx_HAL_Driver/Src/stm32f3xx_hal_tim.c ****   * OF THIS SOFTWARE, EVEN IF ADVISED OF THE POSSIBILITY OF SUCH DAMAGE.
 124:Drivers/STM32F3xx_HAL_Driver/Src/stm32f3xx_hal_tim.c ****   *
 125:Drivers/STM32F3xx_HAL_Driver/Src/stm32f3xx_hal_tim.c ****   ******************************************************************************  
 126:Drivers/STM32F3xx_HAL_Driver/Src/stm32f3xx_hal_tim.c ****   */ 
 127:Drivers/STM32F3xx_HAL_Driver/Src/stm32f3xx_hal_tim.c **** 
 128:Drivers/STM32F3xx_HAL_Driver/Src/stm32f3xx_hal_tim.c **** /* Includes ------------------------------------------------------------------*/
 129:Drivers/STM32F3xx_HAL_Driver/Src/stm32f3xx_hal_tim.c **** #include "stm32f3xx_hal.h"
 130:Drivers/STM32F3xx_HAL_Driver/Src/stm32f3xx_hal_tim.c **** 
 131:Drivers/STM32F3xx_HAL_Driver/Src/stm32f3xx_hal_tim.c **** /** @addtogroup STM32F3xx_HAL_Driver
 132:Drivers/STM32F3xx_HAL_Driver/Src/stm32f3xx_hal_tim.c ****   * @{
 133:Drivers/STM32F3xx_HAL_Driver/Src/stm32f3xx_hal_tim.c ****   */
 134:Drivers/STM32F3xx_HAL_Driver/Src/stm32f3xx_hal_tim.c **** 
 135:Drivers/STM32F3xx_HAL_Driver/Src/stm32f3xx_hal_tim.c **** /** @defgroup TIM TIM
 136:Drivers/STM32F3xx_HAL_Driver/Src/stm32f3xx_hal_tim.c ****   * @brief TIM HAL module driver
 137:Drivers/STM32F3xx_HAL_Driver/Src/stm32f3xx_hal_tim.c ****   * @{
 138:Drivers/STM32F3xx_HAL_Driver/Src/stm32f3xx_hal_tim.c ****   */
 139:Drivers/STM32F3xx_HAL_Driver/Src/stm32f3xx_hal_tim.c **** 
 140:Drivers/STM32F3xx_HAL_Driver/Src/stm32f3xx_hal_tim.c **** #ifdef HAL_TIM_MODULE_ENABLED
 141:Drivers/STM32F3xx_HAL_Driver/Src/stm32f3xx_hal_tim.c **** 
 142:Drivers/STM32F3xx_HAL_Driver/Src/stm32f3xx_hal_tim.c **** /* Private typedef -----------------------------------------------------------*/
 143:Drivers/STM32F3xx_HAL_Driver/Src/stm32f3xx_hal_tim.c **** /* Private define ------------------------------------------------------------*/
 144:Drivers/STM32F3xx_HAL_Driver/Src/stm32f3xx_hal_tim.c **** /* Private macro -------------------------------------------------------------*/
ARM GAS  /tmp/ccZyKULX.s 			page 4


 145:Drivers/STM32F3xx_HAL_Driver/Src/stm32f3xx_hal_tim.c **** /* Private variables ---------------------------------------------------------*/
 146:Drivers/STM32F3xx_HAL_Driver/Src/stm32f3xx_hal_tim.c **** /* Private function prototypes -----------------------------------------------*/
 147:Drivers/STM32F3xx_HAL_Driver/Src/stm32f3xx_hal_tim.c **** 
 148:Drivers/STM32F3xx_HAL_Driver/Src/stm32f3xx_hal_tim.c **** /** @defgroup TIM_Private_Functions TIM Private Functions
 149:Drivers/STM32F3xx_HAL_Driver/Src/stm32f3xx_hal_tim.c ****   * @{
 150:Drivers/STM32F3xx_HAL_Driver/Src/stm32f3xx_hal_tim.c ****   */
 151:Drivers/STM32F3xx_HAL_Driver/Src/stm32f3xx_hal_tim.c **** static void TIM_TI1_ConfigInputStage(TIM_TypeDef *TIMx, uint32_t TIM_ICPolarity, uint32_t TIM_ICFil
 152:Drivers/STM32F3xx_HAL_Driver/Src/stm32f3xx_hal_tim.c **** static void TIM_TI2_SetConfig(TIM_TypeDef *TIMx, uint32_t TIM_ICPolarity, uint32_t TIM_ICSelection,
 153:Drivers/STM32F3xx_HAL_Driver/Src/stm32f3xx_hal_tim.c ****                        uint32_t TIM_ICFilter);
 154:Drivers/STM32F3xx_HAL_Driver/Src/stm32f3xx_hal_tim.c **** static void TIM_TI2_ConfigInputStage(TIM_TypeDef *TIMx, uint32_t TIM_ICPolarity, uint32_t TIM_ICFil
 155:Drivers/STM32F3xx_HAL_Driver/Src/stm32f3xx_hal_tim.c **** static void TIM_TI3_SetConfig(TIM_TypeDef *TIMx, uint32_t TIM_ICPolarity, uint32_t TIM_ICSelection,
 156:Drivers/STM32F3xx_HAL_Driver/Src/stm32f3xx_hal_tim.c ****                        uint32_t TIM_ICFilter);
 157:Drivers/STM32F3xx_HAL_Driver/Src/stm32f3xx_hal_tim.c **** static void TIM_TI4_SetConfig(TIM_TypeDef *TIMx, uint32_t TIM_ICPolarity, uint32_t TIM_ICSelection,
 158:Drivers/STM32F3xx_HAL_Driver/Src/stm32f3xx_hal_tim.c ****                        uint32_t TIM_ICFilter);
 159:Drivers/STM32F3xx_HAL_Driver/Src/stm32f3xx_hal_tim.c **** static void TIM_ITRx_SetConfig(TIM_TypeDef* TIMx, uint16_t InputTriggerSource);
 160:Drivers/STM32F3xx_HAL_Driver/Src/stm32f3xx_hal_tim.c **** static void TIM_DMAPeriodElapsedCplt(DMA_HandleTypeDef *hdma);
 161:Drivers/STM32F3xx_HAL_Driver/Src/stm32f3xx_hal_tim.c **** static void TIM_DMATriggerCplt(DMA_HandleTypeDef *hdma);
 162:Drivers/STM32F3xx_HAL_Driver/Src/stm32f3xx_hal_tim.c **** static void TIM_SlaveTimer_SetConfig(TIM_HandleTypeDef *htim,
 163:Drivers/STM32F3xx_HAL_Driver/Src/stm32f3xx_hal_tim.c ****                                      TIM_SlaveConfigTypeDef * sSlaveConfig);
 164:Drivers/STM32F3xx_HAL_Driver/Src/stm32f3xx_hal_tim.c **** 
 165:Drivers/STM32F3xx_HAL_Driver/Src/stm32f3xx_hal_tim.c **** /**
 166:Drivers/STM32F3xx_HAL_Driver/Src/stm32f3xx_hal_tim.c ****   * @}
 167:Drivers/STM32F3xx_HAL_Driver/Src/stm32f3xx_hal_tim.c ****   */
 168:Drivers/STM32F3xx_HAL_Driver/Src/stm32f3xx_hal_tim.c **** 
 169:Drivers/STM32F3xx_HAL_Driver/Src/stm32f3xx_hal_tim.c **** /* Exported functions ---------------------------------------------------------*/
 170:Drivers/STM32F3xx_HAL_Driver/Src/stm32f3xx_hal_tim.c **** 
 171:Drivers/STM32F3xx_HAL_Driver/Src/stm32f3xx_hal_tim.c **** /** @defgroup TIM_Exported_Functions TIM Exported Functions
 172:Drivers/STM32F3xx_HAL_Driver/Src/stm32f3xx_hal_tim.c ****   * @{
 173:Drivers/STM32F3xx_HAL_Driver/Src/stm32f3xx_hal_tim.c ****   */
 174:Drivers/STM32F3xx_HAL_Driver/Src/stm32f3xx_hal_tim.c **** 
 175:Drivers/STM32F3xx_HAL_Driver/Src/stm32f3xx_hal_tim.c **** /** @defgroup TIM_Exported_Functions_Group1 Time Base functions 
 176:Drivers/STM32F3xx_HAL_Driver/Src/stm32f3xx_hal_tim.c ****  *  @brief    Time Base functions 
 177:Drivers/STM32F3xx_HAL_Driver/Src/stm32f3xx_hal_tim.c ****  *
 178:Drivers/STM32F3xx_HAL_Driver/Src/stm32f3xx_hal_tim.c **** @verbatim    
 179:Drivers/STM32F3xx_HAL_Driver/Src/stm32f3xx_hal_tim.c ****   ==============================================================================
 180:Drivers/STM32F3xx_HAL_Driver/Src/stm32f3xx_hal_tim.c ****               ##### Time Base functions #####
 181:Drivers/STM32F3xx_HAL_Driver/Src/stm32f3xx_hal_tim.c ****   ==============================================================================
 182:Drivers/STM32F3xx_HAL_Driver/Src/stm32f3xx_hal_tim.c ****   [..]  
 183:Drivers/STM32F3xx_HAL_Driver/Src/stm32f3xx_hal_tim.c ****     This section provides functions allowing to:
 184:Drivers/STM32F3xx_HAL_Driver/Src/stm32f3xx_hal_tim.c ****     (+) Initialize and configure the TIM base. 
 185:Drivers/STM32F3xx_HAL_Driver/Src/stm32f3xx_hal_tim.c ****     (+) De-initialize the TIM base.
 186:Drivers/STM32F3xx_HAL_Driver/Src/stm32f3xx_hal_tim.c ****     (+) Start the Time Base.
 187:Drivers/STM32F3xx_HAL_Driver/Src/stm32f3xx_hal_tim.c ****     (+) Stop the Time Base.
 188:Drivers/STM32F3xx_HAL_Driver/Src/stm32f3xx_hal_tim.c ****     (+) Start the Time Base and enable interrupt.
 189:Drivers/STM32F3xx_HAL_Driver/Src/stm32f3xx_hal_tim.c ****     (+) Stop the Time Base and disable interrupt.
 190:Drivers/STM32F3xx_HAL_Driver/Src/stm32f3xx_hal_tim.c ****     (+) Start the Time Base and enable DMA transfer.
 191:Drivers/STM32F3xx_HAL_Driver/Src/stm32f3xx_hal_tim.c ****     (+) Stop the Time Base and disable DMA transfer.
 192:Drivers/STM32F3xx_HAL_Driver/Src/stm32f3xx_hal_tim.c ****  
 193:Drivers/STM32F3xx_HAL_Driver/Src/stm32f3xx_hal_tim.c **** @endverbatim
 194:Drivers/STM32F3xx_HAL_Driver/Src/stm32f3xx_hal_tim.c ****   * @{
 195:Drivers/STM32F3xx_HAL_Driver/Src/stm32f3xx_hal_tim.c ****   */
 196:Drivers/STM32F3xx_HAL_Driver/Src/stm32f3xx_hal_tim.c **** /**
 197:Drivers/STM32F3xx_HAL_Driver/Src/stm32f3xx_hal_tim.c ****   * @brief  Initializes the TIM Time base Unit according to the specified
 198:Drivers/STM32F3xx_HAL_Driver/Src/stm32f3xx_hal_tim.c ****   *         parameters in the TIM_HandleTypeDef and create the associated handle.
 199:Drivers/STM32F3xx_HAL_Driver/Src/stm32f3xx_hal_tim.c ****   * @param  htim: TIM Base handle
 200:Drivers/STM32F3xx_HAL_Driver/Src/stm32f3xx_hal_tim.c ****   * @retval HAL status
 201:Drivers/STM32F3xx_HAL_Driver/Src/stm32f3xx_hal_tim.c ****   */
ARM GAS  /tmp/ccZyKULX.s 			page 5


 202:Drivers/STM32F3xx_HAL_Driver/Src/stm32f3xx_hal_tim.c **** HAL_StatusTypeDef HAL_TIM_Base_Init(TIM_HandleTypeDef *htim)
 203:Drivers/STM32F3xx_HAL_Driver/Src/stm32f3xx_hal_tim.c **** { 
  29              		.loc 1 203 0
  30              		.cfi_startproc
  31              		@ args = 0, pretend = 0, frame = 8
  32              		@ frame_needed = 1, uses_anonymous_args = 0
  33 0000 80B5     		push	{r7, lr}
  34              	.LCFI0:
  35              		.cfi_def_cfa_offset 8
  36              		.cfi_offset 7, -8
  37              		.cfi_offset 14, -4
  38 0002 82B0     		sub	sp, sp, #8
  39              	.LCFI1:
  40              		.cfi_def_cfa_offset 16
  41 0004 00AF     		add	r7, sp, #0
  42              	.LCFI2:
  43              		.cfi_def_cfa_register 7
  44 0006 7860     		str	r0, [r7, #4]
 204:Drivers/STM32F3xx_HAL_Driver/Src/stm32f3xx_hal_tim.c ****   /* Check the TIM handle allocation */
 205:Drivers/STM32F3xx_HAL_Driver/Src/stm32f3xx_hal_tim.c ****   if(htim == NULL)
  45              		.loc 1 205 0
  46 0008 7B68     		ldr	r3, [r7, #4]
  47 000a 002B     		cmp	r3, #0
  48 000c 01D1     		bne	.L2
 206:Drivers/STM32F3xx_HAL_Driver/Src/stm32f3xx_hal_tim.c ****   {
 207:Drivers/STM32F3xx_HAL_Driver/Src/stm32f3xx_hal_tim.c ****     return HAL_ERROR;
  49              		.loc 1 207 0
  50 000e 0123     		movs	r3, #1
  51 0010 1DE0     		b	.L3
  52              	.L2:
 208:Drivers/STM32F3xx_HAL_Driver/Src/stm32f3xx_hal_tim.c ****   }
 209:Drivers/STM32F3xx_HAL_Driver/Src/stm32f3xx_hal_tim.c ****   
 210:Drivers/STM32F3xx_HAL_Driver/Src/stm32f3xx_hal_tim.c ****   /* Check the parameters */
 211:Drivers/STM32F3xx_HAL_Driver/Src/stm32f3xx_hal_tim.c ****   assert_param(IS_TIM_INSTANCE(htim->Instance)); 
 212:Drivers/STM32F3xx_HAL_Driver/Src/stm32f3xx_hal_tim.c ****   assert_param(IS_TIM_COUNTER_MODE(htim->Init.CounterMode));
 213:Drivers/STM32F3xx_HAL_Driver/Src/stm32f3xx_hal_tim.c ****   assert_param(IS_TIM_CLOCKDIVISION_DIV(htim->Init.ClockDivision));
 214:Drivers/STM32F3xx_HAL_Driver/Src/stm32f3xx_hal_tim.c ****   
 215:Drivers/STM32F3xx_HAL_Driver/Src/stm32f3xx_hal_tim.c ****   if(htim->State == HAL_TIM_STATE_RESET)
  53              		.loc 1 215 0
  54 0012 7B68     		ldr	r3, [r7, #4]
  55 0014 93F83930 		ldrb	r3, [r3, #57]
  56 0018 DBB2     		uxtb	r3, r3
  57 001a 002B     		cmp	r3, #0
  58 001c 06D1     		bne	.L4
 216:Drivers/STM32F3xx_HAL_Driver/Src/stm32f3xx_hal_tim.c ****   {  
 217:Drivers/STM32F3xx_HAL_Driver/Src/stm32f3xx_hal_tim.c ****     /* Allocate lock resource and initialize it */
 218:Drivers/STM32F3xx_HAL_Driver/Src/stm32f3xx_hal_tim.c ****     htim->Lock = HAL_UNLOCKED;
  59              		.loc 1 218 0
  60 001e 7B68     		ldr	r3, [r7, #4]
  61 0020 0022     		movs	r2, #0
  62 0022 83F83820 		strb	r2, [r3, #56]
 219:Drivers/STM32F3xx_HAL_Driver/Src/stm32f3xx_hal_tim.c **** 
 220:Drivers/STM32F3xx_HAL_Driver/Src/stm32f3xx_hal_tim.c ****     /* Init the low level hardware : GPIO, CLOCK, NVIC */
 221:Drivers/STM32F3xx_HAL_Driver/Src/stm32f3xx_hal_tim.c ****     HAL_TIM_Base_MspInit(htim);
  63              		.loc 1 221 0
  64 0026 7868     		ldr	r0, [r7, #4]
  65 0028 FFF7FEFF 		bl	HAL_TIM_Base_MspInit
ARM GAS  /tmp/ccZyKULX.s 			page 6


  66              	.L4:
 222:Drivers/STM32F3xx_HAL_Driver/Src/stm32f3xx_hal_tim.c ****   }
 223:Drivers/STM32F3xx_HAL_Driver/Src/stm32f3xx_hal_tim.c ****   
 224:Drivers/STM32F3xx_HAL_Driver/Src/stm32f3xx_hal_tim.c ****   /* Set the TIM state */
 225:Drivers/STM32F3xx_HAL_Driver/Src/stm32f3xx_hal_tim.c ****   htim->State= HAL_TIM_STATE_BUSY;
  67              		.loc 1 225 0
  68 002c 7B68     		ldr	r3, [r7, #4]
  69 002e 0222     		movs	r2, #2
  70 0030 83F83920 		strb	r2, [r3, #57]
 226:Drivers/STM32F3xx_HAL_Driver/Src/stm32f3xx_hal_tim.c ****   
 227:Drivers/STM32F3xx_HAL_Driver/Src/stm32f3xx_hal_tim.c ****   /* Set the Time Base configuration */
 228:Drivers/STM32F3xx_HAL_Driver/Src/stm32f3xx_hal_tim.c ****   TIM_Base_SetConfig(htim->Instance, &htim->Init); 
  71              		.loc 1 228 0
  72 0034 7B68     		ldr	r3, [r7, #4]
  73 0036 1A68     		ldr	r2, [r3]
  74 0038 7B68     		ldr	r3, [r7, #4]
  75 003a 0433     		adds	r3, r3, #4
  76 003c 1046     		mov	r0, r2
  77 003e 1946     		mov	r1, r3
  78 0040 FFF7FEFF 		bl	TIM_Base_SetConfig
 229:Drivers/STM32F3xx_HAL_Driver/Src/stm32f3xx_hal_tim.c ****   
 230:Drivers/STM32F3xx_HAL_Driver/Src/stm32f3xx_hal_tim.c ****   /* Initialize the TIM state*/
 231:Drivers/STM32F3xx_HAL_Driver/Src/stm32f3xx_hal_tim.c ****   htim->State= HAL_TIM_STATE_READY;
  79              		.loc 1 231 0
  80 0044 7B68     		ldr	r3, [r7, #4]
  81 0046 0122     		movs	r2, #1
  82 0048 83F83920 		strb	r2, [r3, #57]
 232:Drivers/STM32F3xx_HAL_Driver/Src/stm32f3xx_hal_tim.c ****   
 233:Drivers/STM32F3xx_HAL_Driver/Src/stm32f3xx_hal_tim.c ****   return HAL_OK;
  83              		.loc 1 233 0
  84 004c 0023     		movs	r3, #0
  85              	.L3:
 234:Drivers/STM32F3xx_HAL_Driver/Src/stm32f3xx_hal_tim.c **** }
  86              		.loc 1 234 0
  87 004e 1846     		mov	r0, r3
  88 0050 0837     		adds	r7, r7, #8
  89 0052 BD46     		mov	sp, r7
  90              		@ sp needed
  91 0054 80BD     		pop	{r7, pc}
  92              		.cfi_endproc
  93              	.LFE125:
  95 0056 00BF     		.section	.text.HAL_TIM_Base_DeInit,"ax",%progbits
  96              		.align	2
  97              		.global	HAL_TIM_Base_DeInit
  98              		.thumb
  99              		.thumb_func
 101              	HAL_TIM_Base_DeInit:
 102              	.LFB126:
 235:Drivers/STM32F3xx_HAL_Driver/Src/stm32f3xx_hal_tim.c **** 
 236:Drivers/STM32F3xx_HAL_Driver/Src/stm32f3xx_hal_tim.c **** /**
 237:Drivers/STM32F3xx_HAL_Driver/Src/stm32f3xx_hal_tim.c ****   * @brief  DeInitializes the TIM Base peripheral 
 238:Drivers/STM32F3xx_HAL_Driver/Src/stm32f3xx_hal_tim.c ****   * @param  htim: TIM Base handle
 239:Drivers/STM32F3xx_HAL_Driver/Src/stm32f3xx_hal_tim.c ****   * @retval HAL status
 240:Drivers/STM32F3xx_HAL_Driver/Src/stm32f3xx_hal_tim.c ****   */
 241:Drivers/STM32F3xx_HAL_Driver/Src/stm32f3xx_hal_tim.c **** HAL_StatusTypeDef HAL_TIM_Base_DeInit(TIM_HandleTypeDef *htim)
 242:Drivers/STM32F3xx_HAL_Driver/Src/stm32f3xx_hal_tim.c **** {
 103              		.loc 1 242 0
ARM GAS  /tmp/ccZyKULX.s 			page 7


 104              		.cfi_startproc
 105              		@ args = 0, pretend = 0, frame = 8
 106              		@ frame_needed = 1, uses_anonymous_args = 0
 107 0000 80B5     		push	{r7, lr}
 108              	.LCFI3:
 109              		.cfi_def_cfa_offset 8
 110              		.cfi_offset 7, -8
 111              		.cfi_offset 14, -4
 112 0002 82B0     		sub	sp, sp, #8
 113              	.LCFI4:
 114              		.cfi_def_cfa_offset 16
 115 0004 00AF     		add	r7, sp, #0
 116              	.LCFI5:
 117              		.cfi_def_cfa_register 7
 118 0006 7860     		str	r0, [r7, #4]
 243:Drivers/STM32F3xx_HAL_Driver/Src/stm32f3xx_hal_tim.c ****   /* Check the parameters */
 244:Drivers/STM32F3xx_HAL_Driver/Src/stm32f3xx_hal_tim.c ****   assert_param(IS_TIM_INSTANCE(htim->Instance));
 245:Drivers/STM32F3xx_HAL_Driver/Src/stm32f3xx_hal_tim.c ****    
 246:Drivers/STM32F3xx_HAL_Driver/Src/stm32f3xx_hal_tim.c ****   htim->State = HAL_TIM_STATE_BUSY;
 119              		.loc 1 246 0
 120 0008 7B68     		ldr	r3, [r7, #4]
 121 000a 0222     		movs	r2, #2
 122 000c 83F83920 		strb	r2, [r3, #57]
 247:Drivers/STM32F3xx_HAL_Driver/Src/stm32f3xx_hal_tim.c ****    
 248:Drivers/STM32F3xx_HAL_Driver/Src/stm32f3xx_hal_tim.c ****   /* Disable the TIM Peripheral Clock */
 249:Drivers/STM32F3xx_HAL_Driver/Src/stm32f3xx_hal_tim.c ****   __HAL_TIM_DISABLE(htim);
 123              		.loc 1 249 0
 124 0010 7B68     		ldr	r3, [r7, #4]
 125 0012 1B68     		ldr	r3, [r3]
 126 0014 1A6A     		ldr	r2, [r3, #32]
 127 0016 41F21113 		movw	r3, #4369
 128 001a 1340     		ands	r3, r3, r2
 129 001c 002B     		cmp	r3, #0
 130 001e 0FD1     		bne	.L6
 131              		.loc 1 249 0 is_stmt 0 discriminator 1
 132 0020 7B68     		ldr	r3, [r7, #4]
 133 0022 1B68     		ldr	r3, [r3]
 134 0024 1A6A     		ldr	r2, [r3, #32]
 135 0026 40F24443 		movw	r3, #1092
 136 002a 1340     		ands	r3, r3, r2
 137 002c 002B     		cmp	r3, #0
 138 002e 07D1     		bne	.L6
 139 0030 7B68     		ldr	r3, [r7, #4]
 140 0032 1B68     		ldr	r3, [r3]
 141 0034 7A68     		ldr	r2, [r7, #4]
 142 0036 1268     		ldr	r2, [r2]
 143 0038 1268     		ldr	r2, [r2]
 144 003a 22F00102 		bic	r2, r2, #1
 145 003e 1A60     		str	r2, [r3]
 146              	.L6:
 250:Drivers/STM32F3xx_HAL_Driver/Src/stm32f3xx_hal_tim.c ****     
 251:Drivers/STM32F3xx_HAL_Driver/Src/stm32f3xx_hal_tim.c ****   /* DeInit the low level hardware: GPIO, CLOCK, NVIC */
 252:Drivers/STM32F3xx_HAL_Driver/Src/stm32f3xx_hal_tim.c ****   HAL_TIM_Base_MspDeInit(htim);
 147              		.loc 1 252 0 is_stmt 1
 148 0040 7868     		ldr	r0, [r7, #4]
 149 0042 FFF7FEFF 		bl	HAL_TIM_Base_MspDeInit
 253:Drivers/STM32F3xx_HAL_Driver/Src/stm32f3xx_hal_tim.c ****     
ARM GAS  /tmp/ccZyKULX.s 			page 8


 254:Drivers/STM32F3xx_HAL_Driver/Src/stm32f3xx_hal_tim.c ****   /* Change TIM state */  
 255:Drivers/STM32F3xx_HAL_Driver/Src/stm32f3xx_hal_tim.c ****   htim->State = HAL_TIM_STATE_RESET; 
 150              		.loc 1 255 0
 151 0046 7B68     		ldr	r3, [r7, #4]
 152 0048 0022     		movs	r2, #0
 153 004a 83F83920 		strb	r2, [r3, #57]
 256:Drivers/STM32F3xx_HAL_Driver/Src/stm32f3xx_hal_tim.c ****   
 257:Drivers/STM32F3xx_HAL_Driver/Src/stm32f3xx_hal_tim.c ****   /* Release Lock */
 258:Drivers/STM32F3xx_HAL_Driver/Src/stm32f3xx_hal_tim.c ****   __HAL_UNLOCK(htim);
 154              		.loc 1 258 0
 155 004e 7B68     		ldr	r3, [r7, #4]
 156 0050 0022     		movs	r2, #0
 157 0052 83F83820 		strb	r2, [r3, #56]
 259:Drivers/STM32F3xx_HAL_Driver/Src/stm32f3xx_hal_tim.c **** 
 260:Drivers/STM32F3xx_HAL_Driver/Src/stm32f3xx_hal_tim.c ****   return HAL_OK;
 158              		.loc 1 260 0
 159 0056 0023     		movs	r3, #0
 261:Drivers/STM32F3xx_HAL_Driver/Src/stm32f3xx_hal_tim.c **** }
 160              		.loc 1 261 0
 161 0058 1846     		mov	r0, r3
 162 005a 0837     		adds	r7, r7, #8
 163 005c BD46     		mov	sp, r7
 164              		@ sp needed
 165 005e 80BD     		pop	{r7, pc}
 166              		.cfi_endproc
 167              	.LFE126:
 169              		.section	.text.HAL_TIM_Base_MspInit,"ax",%progbits
 170              		.align	2
 171              		.weak	HAL_TIM_Base_MspInit
 172              		.thumb
 173              		.thumb_func
 175              	HAL_TIM_Base_MspInit:
 176              	.LFB127:
 262:Drivers/STM32F3xx_HAL_Driver/Src/stm32f3xx_hal_tim.c **** 
 263:Drivers/STM32F3xx_HAL_Driver/Src/stm32f3xx_hal_tim.c **** /**
 264:Drivers/STM32F3xx_HAL_Driver/Src/stm32f3xx_hal_tim.c ****   * @brief  Initializes the TIM Base MSP.
 265:Drivers/STM32F3xx_HAL_Driver/Src/stm32f3xx_hal_tim.c ****   * @param  htim: TIM handle
 266:Drivers/STM32F3xx_HAL_Driver/Src/stm32f3xx_hal_tim.c ****   * @retval None
 267:Drivers/STM32F3xx_HAL_Driver/Src/stm32f3xx_hal_tim.c ****   */
 268:Drivers/STM32F3xx_HAL_Driver/Src/stm32f3xx_hal_tim.c **** __weak void HAL_TIM_Base_MspInit(TIM_HandleTypeDef *htim)
 269:Drivers/STM32F3xx_HAL_Driver/Src/stm32f3xx_hal_tim.c **** {
 177              		.loc 1 269 0
 178              		.cfi_startproc
 179              		@ args = 0, pretend = 0, frame = 8
 180              		@ frame_needed = 1, uses_anonymous_args = 0
 181              		@ link register save eliminated.
 182 0000 80B4     		push	{r7}
 183              	.LCFI6:
 184              		.cfi_def_cfa_offset 4
 185              		.cfi_offset 7, -4
 186 0002 83B0     		sub	sp, sp, #12
 187              	.LCFI7:
 188              		.cfi_def_cfa_offset 16
 189 0004 00AF     		add	r7, sp, #0
 190              	.LCFI8:
 191              		.cfi_def_cfa_register 7
 192 0006 7860     		str	r0, [r7, #4]
ARM GAS  /tmp/ccZyKULX.s 			page 9


 270:Drivers/STM32F3xx_HAL_Driver/Src/stm32f3xx_hal_tim.c ****   /* Prevent unused argument(s) compilation warning */
 271:Drivers/STM32F3xx_HAL_Driver/Src/stm32f3xx_hal_tim.c ****   UNUSED(htim);
 272:Drivers/STM32F3xx_HAL_Driver/Src/stm32f3xx_hal_tim.c **** 
 273:Drivers/STM32F3xx_HAL_Driver/Src/stm32f3xx_hal_tim.c ****   /* NOTE : This function Should not be modified, when the callback is needed,
 274:Drivers/STM32F3xx_HAL_Driver/Src/stm32f3xx_hal_tim.c ****             the HAL_TIM_Base_MspInit could be implemented in the user file
 275:Drivers/STM32F3xx_HAL_Driver/Src/stm32f3xx_hal_tim.c ****    */
 276:Drivers/STM32F3xx_HAL_Driver/Src/stm32f3xx_hal_tim.c **** }
 193              		.loc 1 276 0
 194 0008 0C37     		adds	r7, r7, #12
 195 000a BD46     		mov	sp, r7
 196              		@ sp needed
 197 000c 5DF8047B 		ldr	r7, [sp], #4
 198 0010 7047     		bx	lr
 199              		.cfi_endproc
 200              	.LFE127:
 202 0012 00BF     		.section	.text.HAL_TIM_Base_MspDeInit,"ax",%progbits
 203              		.align	2
 204              		.weak	HAL_TIM_Base_MspDeInit
 205              		.thumb
 206              		.thumb_func
 208              	HAL_TIM_Base_MspDeInit:
 209              	.LFB128:
 277:Drivers/STM32F3xx_HAL_Driver/Src/stm32f3xx_hal_tim.c **** 
 278:Drivers/STM32F3xx_HAL_Driver/Src/stm32f3xx_hal_tim.c **** /**
 279:Drivers/STM32F3xx_HAL_Driver/Src/stm32f3xx_hal_tim.c ****   * @brief  DeInitializes TIM Base MSP.
 280:Drivers/STM32F3xx_HAL_Driver/Src/stm32f3xx_hal_tim.c ****   * @param  htim: TIM handle
 281:Drivers/STM32F3xx_HAL_Driver/Src/stm32f3xx_hal_tim.c ****   * @retval None
 282:Drivers/STM32F3xx_HAL_Driver/Src/stm32f3xx_hal_tim.c ****   */
 283:Drivers/STM32F3xx_HAL_Driver/Src/stm32f3xx_hal_tim.c **** __weak void HAL_TIM_Base_MspDeInit(TIM_HandleTypeDef *htim)
 284:Drivers/STM32F3xx_HAL_Driver/Src/stm32f3xx_hal_tim.c **** {
 210              		.loc 1 284 0
 211              		.cfi_startproc
 212              		@ args = 0, pretend = 0, frame = 8
 213              		@ frame_needed = 1, uses_anonymous_args = 0
 214              		@ link register save eliminated.
 215 0000 80B4     		push	{r7}
 216              	.LCFI9:
 217              		.cfi_def_cfa_offset 4
 218              		.cfi_offset 7, -4
 219 0002 83B0     		sub	sp, sp, #12
 220              	.LCFI10:
 221              		.cfi_def_cfa_offset 16
 222 0004 00AF     		add	r7, sp, #0
 223              	.LCFI11:
 224              		.cfi_def_cfa_register 7
 225 0006 7860     		str	r0, [r7, #4]
 285:Drivers/STM32F3xx_HAL_Driver/Src/stm32f3xx_hal_tim.c ****   /* Prevent unused argument(s) compilation warning */
 286:Drivers/STM32F3xx_HAL_Driver/Src/stm32f3xx_hal_tim.c ****   UNUSED(htim);
 287:Drivers/STM32F3xx_HAL_Driver/Src/stm32f3xx_hal_tim.c **** 
 288:Drivers/STM32F3xx_HAL_Driver/Src/stm32f3xx_hal_tim.c ****   /* NOTE : This function Should not be modified, when the callback is needed,
 289:Drivers/STM32F3xx_HAL_Driver/Src/stm32f3xx_hal_tim.c ****             the HAL_TIM_Base_MspDeInit could be implemented in the user file
 290:Drivers/STM32F3xx_HAL_Driver/Src/stm32f3xx_hal_tim.c ****    */
 291:Drivers/STM32F3xx_HAL_Driver/Src/stm32f3xx_hal_tim.c **** }
 226              		.loc 1 291 0
 227 0008 0C37     		adds	r7, r7, #12
 228 000a BD46     		mov	sp, r7
 229              		@ sp needed
ARM GAS  /tmp/ccZyKULX.s 			page 10


 230 000c 5DF8047B 		ldr	r7, [sp], #4
 231 0010 7047     		bx	lr
 232              		.cfi_endproc
 233              	.LFE128:
 235 0012 00BF     		.section	.text.HAL_TIM_Base_Start,"ax",%progbits
 236              		.align	2
 237              		.global	HAL_TIM_Base_Start
 238              		.thumb
 239              		.thumb_func
 241              	HAL_TIM_Base_Start:
 242              	.LFB129:
 292:Drivers/STM32F3xx_HAL_Driver/Src/stm32f3xx_hal_tim.c **** 
 293:Drivers/STM32F3xx_HAL_Driver/Src/stm32f3xx_hal_tim.c **** 
 294:Drivers/STM32F3xx_HAL_Driver/Src/stm32f3xx_hal_tim.c **** /**
 295:Drivers/STM32F3xx_HAL_Driver/Src/stm32f3xx_hal_tim.c ****   * @brief  Starts the TIM Base generation.
 296:Drivers/STM32F3xx_HAL_Driver/Src/stm32f3xx_hal_tim.c ****   * @param  htim: TIM handle
 297:Drivers/STM32F3xx_HAL_Driver/Src/stm32f3xx_hal_tim.c ****   * @retval HAL status
 298:Drivers/STM32F3xx_HAL_Driver/Src/stm32f3xx_hal_tim.c **** */
 299:Drivers/STM32F3xx_HAL_Driver/Src/stm32f3xx_hal_tim.c **** HAL_StatusTypeDef HAL_TIM_Base_Start(TIM_HandleTypeDef *htim)
 300:Drivers/STM32F3xx_HAL_Driver/Src/stm32f3xx_hal_tim.c **** {
 243              		.loc 1 300 0
 244              		.cfi_startproc
 245              		@ args = 0, pretend = 0, frame = 8
 246              		@ frame_needed = 1, uses_anonymous_args = 0
 247              		@ link register save eliminated.
 248 0000 80B4     		push	{r7}
 249              	.LCFI12:
 250              		.cfi_def_cfa_offset 4
 251              		.cfi_offset 7, -4
 252 0002 83B0     		sub	sp, sp, #12
 253              	.LCFI13:
 254              		.cfi_def_cfa_offset 16
 255 0004 00AF     		add	r7, sp, #0
 256              	.LCFI14:
 257              		.cfi_def_cfa_register 7
 258 0006 7860     		str	r0, [r7, #4]
 301:Drivers/STM32F3xx_HAL_Driver/Src/stm32f3xx_hal_tim.c ****   /* Check the parameters */
 302:Drivers/STM32F3xx_HAL_Driver/Src/stm32f3xx_hal_tim.c ****   assert_param(IS_TIM_INSTANCE(htim->Instance));
 303:Drivers/STM32F3xx_HAL_Driver/Src/stm32f3xx_hal_tim.c ****   
 304:Drivers/STM32F3xx_HAL_Driver/Src/stm32f3xx_hal_tim.c ****   /* Set the TIM state */
 305:Drivers/STM32F3xx_HAL_Driver/Src/stm32f3xx_hal_tim.c ****   htim->State= HAL_TIM_STATE_BUSY;
 259              		.loc 1 305 0
 260 0008 7B68     		ldr	r3, [r7, #4]
 261 000a 0222     		movs	r2, #2
 262 000c 83F83920 		strb	r2, [r3, #57]
 306:Drivers/STM32F3xx_HAL_Driver/Src/stm32f3xx_hal_tim.c ****   
 307:Drivers/STM32F3xx_HAL_Driver/Src/stm32f3xx_hal_tim.c ****   /* Enable the Peripheral */
 308:Drivers/STM32F3xx_HAL_Driver/Src/stm32f3xx_hal_tim.c ****   __HAL_TIM_ENABLE(htim);
 263              		.loc 1 308 0
 264 0010 7B68     		ldr	r3, [r7, #4]
 265 0012 1B68     		ldr	r3, [r3]
 266 0014 7A68     		ldr	r2, [r7, #4]
 267 0016 1268     		ldr	r2, [r2]
 268 0018 1268     		ldr	r2, [r2]
 269 001a 42F00102 		orr	r2, r2, #1
 270 001e 1A60     		str	r2, [r3]
 309:Drivers/STM32F3xx_HAL_Driver/Src/stm32f3xx_hal_tim.c ****   
ARM GAS  /tmp/ccZyKULX.s 			page 11


 310:Drivers/STM32F3xx_HAL_Driver/Src/stm32f3xx_hal_tim.c ****   /* Change the TIM state*/
 311:Drivers/STM32F3xx_HAL_Driver/Src/stm32f3xx_hal_tim.c ****   htim->State= HAL_TIM_STATE_READY;
 271              		.loc 1 311 0
 272 0020 7B68     		ldr	r3, [r7, #4]
 273 0022 0122     		movs	r2, #1
 274 0024 83F83920 		strb	r2, [r3, #57]
 312:Drivers/STM32F3xx_HAL_Driver/Src/stm32f3xx_hal_tim.c ****   
 313:Drivers/STM32F3xx_HAL_Driver/Src/stm32f3xx_hal_tim.c ****   /* Return function status */
 314:Drivers/STM32F3xx_HAL_Driver/Src/stm32f3xx_hal_tim.c ****   return HAL_OK;
 275              		.loc 1 314 0
 276 0028 0023     		movs	r3, #0
 315:Drivers/STM32F3xx_HAL_Driver/Src/stm32f3xx_hal_tim.c **** }
 277              		.loc 1 315 0
 278 002a 1846     		mov	r0, r3
 279 002c 0C37     		adds	r7, r7, #12
 280 002e BD46     		mov	sp, r7
 281              		@ sp needed
 282 0030 5DF8047B 		ldr	r7, [sp], #4
 283 0034 7047     		bx	lr
 284              		.cfi_endproc
 285              	.LFE129:
 287 0036 00BF     		.section	.text.HAL_TIM_Base_Stop,"ax",%progbits
 288              		.align	2
 289              		.global	HAL_TIM_Base_Stop
 290              		.thumb
 291              		.thumb_func
 293              	HAL_TIM_Base_Stop:
 294              	.LFB130:
 316:Drivers/STM32F3xx_HAL_Driver/Src/stm32f3xx_hal_tim.c **** 
 317:Drivers/STM32F3xx_HAL_Driver/Src/stm32f3xx_hal_tim.c **** /**
 318:Drivers/STM32F3xx_HAL_Driver/Src/stm32f3xx_hal_tim.c ****   * @brief  Stops the TIM Base generation.
 319:Drivers/STM32F3xx_HAL_Driver/Src/stm32f3xx_hal_tim.c ****   * @param  htim: TIM handle
 320:Drivers/STM32F3xx_HAL_Driver/Src/stm32f3xx_hal_tim.c ****   * @retval HAL status
 321:Drivers/STM32F3xx_HAL_Driver/Src/stm32f3xx_hal_tim.c **** */
 322:Drivers/STM32F3xx_HAL_Driver/Src/stm32f3xx_hal_tim.c **** HAL_StatusTypeDef HAL_TIM_Base_Stop(TIM_HandleTypeDef *htim)
 323:Drivers/STM32F3xx_HAL_Driver/Src/stm32f3xx_hal_tim.c **** {
 295              		.loc 1 323 0
 296              		.cfi_startproc
 297              		@ args = 0, pretend = 0, frame = 8
 298              		@ frame_needed = 1, uses_anonymous_args = 0
 299              		@ link register save eliminated.
 300 0000 80B4     		push	{r7}
 301              	.LCFI15:
 302              		.cfi_def_cfa_offset 4
 303              		.cfi_offset 7, -4
 304 0002 83B0     		sub	sp, sp, #12
 305              	.LCFI16:
 306              		.cfi_def_cfa_offset 16
 307 0004 00AF     		add	r7, sp, #0
 308              	.LCFI17:
 309              		.cfi_def_cfa_register 7
 310 0006 7860     		str	r0, [r7, #4]
 324:Drivers/STM32F3xx_HAL_Driver/Src/stm32f3xx_hal_tim.c ****   /* Check the parameters */
 325:Drivers/STM32F3xx_HAL_Driver/Src/stm32f3xx_hal_tim.c ****   assert_param(IS_TIM_INSTANCE(htim->Instance));
 326:Drivers/STM32F3xx_HAL_Driver/Src/stm32f3xx_hal_tim.c ****   
 327:Drivers/STM32F3xx_HAL_Driver/Src/stm32f3xx_hal_tim.c ****   /* Set the TIM state */
 328:Drivers/STM32F3xx_HAL_Driver/Src/stm32f3xx_hal_tim.c ****   htim->State= HAL_TIM_STATE_BUSY;
ARM GAS  /tmp/ccZyKULX.s 			page 12


 311              		.loc 1 328 0
 312 0008 7B68     		ldr	r3, [r7, #4]
 313 000a 0222     		movs	r2, #2
 314 000c 83F83920 		strb	r2, [r3, #57]
 329:Drivers/STM32F3xx_HAL_Driver/Src/stm32f3xx_hal_tim.c ****   
 330:Drivers/STM32F3xx_HAL_Driver/Src/stm32f3xx_hal_tim.c ****   /* Disable the Peripheral */
 331:Drivers/STM32F3xx_HAL_Driver/Src/stm32f3xx_hal_tim.c ****   __HAL_TIM_DISABLE(htim);
 315              		.loc 1 331 0
 316 0010 7B68     		ldr	r3, [r7, #4]
 317 0012 1B68     		ldr	r3, [r3]
 318 0014 1A6A     		ldr	r2, [r3, #32]
 319 0016 41F21113 		movw	r3, #4369
 320 001a 1340     		ands	r3, r3, r2
 321 001c 002B     		cmp	r3, #0
 322 001e 0FD1     		bne	.L13
 323              		.loc 1 331 0 is_stmt 0 discriminator 1
 324 0020 7B68     		ldr	r3, [r7, #4]
 325 0022 1B68     		ldr	r3, [r3]
 326 0024 1A6A     		ldr	r2, [r3, #32]
 327 0026 40F24443 		movw	r3, #1092
 328 002a 1340     		ands	r3, r3, r2
 329 002c 002B     		cmp	r3, #0
 330 002e 07D1     		bne	.L13
 331 0030 7B68     		ldr	r3, [r7, #4]
 332 0032 1B68     		ldr	r3, [r3]
 333 0034 7A68     		ldr	r2, [r7, #4]
 334 0036 1268     		ldr	r2, [r2]
 335 0038 1268     		ldr	r2, [r2]
 336 003a 22F00102 		bic	r2, r2, #1
 337 003e 1A60     		str	r2, [r3]
 338              	.L13:
 332:Drivers/STM32F3xx_HAL_Driver/Src/stm32f3xx_hal_tim.c ****   
 333:Drivers/STM32F3xx_HAL_Driver/Src/stm32f3xx_hal_tim.c ****   /* Change the TIM state*/
 334:Drivers/STM32F3xx_HAL_Driver/Src/stm32f3xx_hal_tim.c ****   htim->State= HAL_TIM_STATE_READY;
 339              		.loc 1 334 0 is_stmt 1
 340 0040 7B68     		ldr	r3, [r7, #4]
 341 0042 0122     		movs	r2, #1
 342 0044 83F83920 		strb	r2, [r3, #57]
 335:Drivers/STM32F3xx_HAL_Driver/Src/stm32f3xx_hal_tim.c ****   
 336:Drivers/STM32F3xx_HAL_Driver/Src/stm32f3xx_hal_tim.c ****   /* Return function status */
 337:Drivers/STM32F3xx_HAL_Driver/Src/stm32f3xx_hal_tim.c ****   return HAL_OK;
 343              		.loc 1 337 0
 344 0048 0023     		movs	r3, #0
 338:Drivers/STM32F3xx_HAL_Driver/Src/stm32f3xx_hal_tim.c **** }
 345              		.loc 1 338 0
 346 004a 1846     		mov	r0, r3
 347 004c 0C37     		adds	r7, r7, #12
 348 004e BD46     		mov	sp, r7
 349              		@ sp needed
 350 0050 5DF8047B 		ldr	r7, [sp], #4
 351 0054 7047     		bx	lr
 352              		.cfi_endproc
 353              	.LFE130:
 355 0056 00BF     		.section	.text.HAL_TIM_Base_Start_IT,"ax",%progbits
 356              		.align	2
 357              		.global	HAL_TIM_Base_Start_IT
 358              		.thumb
ARM GAS  /tmp/ccZyKULX.s 			page 13


 359              		.thumb_func
 361              	HAL_TIM_Base_Start_IT:
 362              	.LFB131:
 339:Drivers/STM32F3xx_HAL_Driver/Src/stm32f3xx_hal_tim.c **** 
 340:Drivers/STM32F3xx_HAL_Driver/Src/stm32f3xx_hal_tim.c **** /**
 341:Drivers/STM32F3xx_HAL_Driver/Src/stm32f3xx_hal_tim.c ****   * @brief  Starts the TIM Base generation in interrupt mode.
 342:Drivers/STM32F3xx_HAL_Driver/Src/stm32f3xx_hal_tim.c ****   * @param  htim: TIM handle
 343:Drivers/STM32F3xx_HAL_Driver/Src/stm32f3xx_hal_tim.c ****   * @retval HAL status
 344:Drivers/STM32F3xx_HAL_Driver/Src/stm32f3xx_hal_tim.c **** */
 345:Drivers/STM32F3xx_HAL_Driver/Src/stm32f3xx_hal_tim.c **** HAL_StatusTypeDef HAL_TIM_Base_Start_IT(TIM_HandleTypeDef *htim)
 346:Drivers/STM32F3xx_HAL_Driver/Src/stm32f3xx_hal_tim.c **** {
 363              		.loc 1 346 0
 364              		.cfi_startproc
 365              		@ args = 0, pretend = 0, frame = 8
 366              		@ frame_needed = 1, uses_anonymous_args = 0
 367              		@ link register save eliminated.
 368 0000 80B4     		push	{r7}
 369              	.LCFI18:
 370              		.cfi_def_cfa_offset 4
 371              		.cfi_offset 7, -4
 372 0002 83B0     		sub	sp, sp, #12
 373              	.LCFI19:
 374              		.cfi_def_cfa_offset 16
 375 0004 00AF     		add	r7, sp, #0
 376              	.LCFI20:
 377              		.cfi_def_cfa_register 7
 378 0006 7860     		str	r0, [r7, #4]
 347:Drivers/STM32F3xx_HAL_Driver/Src/stm32f3xx_hal_tim.c ****   /* Check the parameters */
 348:Drivers/STM32F3xx_HAL_Driver/Src/stm32f3xx_hal_tim.c ****   assert_param(IS_TIM_INSTANCE(htim->Instance));
 349:Drivers/STM32F3xx_HAL_Driver/Src/stm32f3xx_hal_tim.c ****   
 350:Drivers/STM32F3xx_HAL_Driver/Src/stm32f3xx_hal_tim.c ****    /* Enable the TIM Update interrupt */
 351:Drivers/STM32F3xx_HAL_Driver/Src/stm32f3xx_hal_tim.c ****    __HAL_TIM_ENABLE_IT(htim, TIM_IT_UPDATE);
 379              		.loc 1 351 0
 380 0008 7B68     		ldr	r3, [r7, #4]
 381 000a 1B68     		ldr	r3, [r3]
 382 000c 7A68     		ldr	r2, [r7, #4]
 383 000e 1268     		ldr	r2, [r2]
 384 0010 D268     		ldr	r2, [r2, #12]
 385 0012 42F00102 		orr	r2, r2, #1
 386 0016 DA60     		str	r2, [r3, #12]
 352:Drivers/STM32F3xx_HAL_Driver/Src/stm32f3xx_hal_tim.c ****       
 353:Drivers/STM32F3xx_HAL_Driver/Src/stm32f3xx_hal_tim.c ****    /* Enable the Peripheral */
 354:Drivers/STM32F3xx_HAL_Driver/Src/stm32f3xx_hal_tim.c ****   __HAL_TIM_ENABLE(htim);
 387              		.loc 1 354 0
 388 0018 7B68     		ldr	r3, [r7, #4]
 389 001a 1B68     		ldr	r3, [r3]
 390 001c 7A68     		ldr	r2, [r7, #4]
 391 001e 1268     		ldr	r2, [r2]
 392 0020 1268     		ldr	r2, [r2]
 393 0022 42F00102 		orr	r2, r2, #1
 394 0026 1A60     		str	r2, [r3]
 355:Drivers/STM32F3xx_HAL_Driver/Src/stm32f3xx_hal_tim.c ****       
 356:Drivers/STM32F3xx_HAL_Driver/Src/stm32f3xx_hal_tim.c ****   /* Return function status */
 357:Drivers/STM32F3xx_HAL_Driver/Src/stm32f3xx_hal_tim.c ****   return HAL_OK;
 395              		.loc 1 357 0
 396 0028 0023     		movs	r3, #0
 358:Drivers/STM32F3xx_HAL_Driver/Src/stm32f3xx_hal_tim.c **** }
ARM GAS  /tmp/ccZyKULX.s 			page 14


 397              		.loc 1 358 0
 398 002a 1846     		mov	r0, r3
 399 002c 0C37     		adds	r7, r7, #12
 400 002e BD46     		mov	sp, r7
 401              		@ sp needed
 402 0030 5DF8047B 		ldr	r7, [sp], #4
 403 0034 7047     		bx	lr
 404              		.cfi_endproc
 405              	.LFE131:
 407 0036 00BF     		.section	.text.HAL_TIM_Base_Stop_IT,"ax",%progbits
 408              		.align	2
 409              		.global	HAL_TIM_Base_Stop_IT
 410              		.thumb
 411              		.thumb_func
 413              	HAL_TIM_Base_Stop_IT:
 414              	.LFB132:
 359:Drivers/STM32F3xx_HAL_Driver/Src/stm32f3xx_hal_tim.c **** 
 360:Drivers/STM32F3xx_HAL_Driver/Src/stm32f3xx_hal_tim.c **** /**
 361:Drivers/STM32F3xx_HAL_Driver/Src/stm32f3xx_hal_tim.c ****   * @brief  Stops the TIM Base generation in interrupt mode.
 362:Drivers/STM32F3xx_HAL_Driver/Src/stm32f3xx_hal_tim.c ****   * @param  htim: TIM handle
 363:Drivers/STM32F3xx_HAL_Driver/Src/stm32f3xx_hal_tim.c ****   * @retval HAL status
 364:Drivers/STM32F3xx_HAL_Driver/Src/stm32f3xx_hal_tim.c **** */
 365:Drivers/STM32F3xx_HAL_Driver/Src/stm32f3xx_hal_tim.c **** HAL_StatusTypeDef HAL_TIM_Base_Stop_IT(TIM_HandleTypeDef *htim)
 366:Drivers/STM32F3xx_HAL_Driver/Src/stm32f3xx_hal_tim.c **** {
 415              		.loc 1 366 0
 416              		.cfi_startproc
 417              		@ args = 0, pretend = 0, frame = 8
 418              		@ frame_needed = 1, uses_anonymous_args = 0
 419              		@ link register save eliminated.
 420 0000 80B4     		push	{r7}
 421              	.LCFI21:
 422              		.cfi_def_cfa_offset 4
 423              		.cfi_offset 7, -4
 424 0002 83B0     		sub	sp, sp, #12
 425              	.LCFI22:
 426              		.cfi_def_cfa_offset 16
 427 0004 00AF     		add	r7, sp, #0
 428              	.LCFI23:
 429              		.cfi_def_cfa_register 7
 430 0006 7860     		str	r0, [r7, #4]
 367:Drivers/STM32F3xx_HAL_Driver/Src/stm32f3xx_hal_tim.c ****   /* Check the parameters */
 368:Drivers/STM32F3xx_HAL_Driver/Src/stm32f3xx_hal_tim.c ****   assert_param(IS_TIM_INSTANCE(htim->Instance));
 369:Drivers/STM32F3xx_HAL_Driver/Src/stm32f3xx_hal_tim.c ****   /* Disable the TIM Update interrupt */
 370:Drivers/STM32F3xx_HAL_Driver/Src/stm32f3xx_hal_tim.c ****   __HAL_TIM_DISABLE_IT(htim, TIM_IT_UPDATE);
 431              		.loc 1 370 0
 432 0008 7B68     		ldr	r3, [r7, #4]
 433 000a 1B68     		ldr	r3, [r3]
 434 000c 7A68     		ldr	r2, [r7, #4]
 435 000e 1268     		ldr	r2, [r2]
 436 0010 D268     		ldr	r2, [r2, #12]
 437 0012 22F00102 		bic	r2, r2, #1
 438 0016 DA60     		str	r2, [r3, #12]
 371:Drivers/STM32F3xx_HAL_Driver/Src/stm32f3xx_hal_tim.c ****       
 372:Drivers/STM32F3xx_HAL_Driver/Src/stm32f3xx_hal_tim.c ****   /* Disable the Peripheral */
 373:Drivers/STM32F3xx_HAL_Driver/Src/stm32f3xx_hal_tim.c ****   __HAL_TIM_DISABLE(htim);
 439              		.loc 1 373 0
 440 0018 7B68     		ldr	r3, [r7, #4]
ARM GAS  /tmp/ccZyKULX.s 			page 15


 441 001a 1B68     		ldr	r3, [r3]
 442 001c 1A6A     		ldr	r2, [r3, #32]
 443 001e 41F21113 		movw	r3, #4369
 444 0022 1340     		ands	r3, r3, r2
 445 0024 002B     		cmp	r3, #0
 446 0026 0FD1     		bne	.L18
 447              		.loc 1 373 0 is_stmt 0 discriminator 1
 448 0028 7B68     		ldr	r3, [r7, #4]
 449 002a 1B68     		ldr	r3, [r3]
 450 002c 1A6A     		ldr	r2, [r3, #32]
 451 002e 40F24443 		movw	r3, #1092
 452 0032 1340     		ands	r3, r3, r2
 453 0034 002B     		cmp	r3, #0
 454 0036 07D1     		bne	.L18
 455 0038 7B68     		ldr	r3, [r7, #4]
 456 003a 1B68     		ldr	r3, [r3]
 457 003c 7A68     		ldr	r2, [r7, #4]
 458 003e 1268     		ldr	r2, [r2]
 459 0040 1268     		ldr	r2, [r2]
 460 0042 22F00102 		bic	r2, r2, #1
 461 0046 1A60     		str	r2, [r3]
 462              	.L18:
 374:Drivers/STM32F3xx_HAL_Driver/Src/stm32f3xx_hal_tim.c ****     
 375:Drivers/STM32F3xx_HAL_Driver/Src/stm32f3xx_hal_tim.c ****   /* Return function status */
 376:Drivers/STM32F3xx_HAL_Driver/Src/stm32f3xx_hal_tim.c ****   return HAL_OK;
 463              		.loc 1 376 0 is_stmt 1
 464 0048 0023     		movs	r3, #0
 377:Drivers/STM32F3xx_HAL_Driver/Src/stm32f3xx_hal_tim.c **** }
 465              		.loc 1 377 0
 466 004a 1846     		mov	r0, r3
 467 004c 0C37     		adds	r7, r7, #12
 468 004e BD46     		mov	sp, r7
 469              		@ sp needed
 470 0050 5DF8047B 		ldr	r7, [sp], #4
 471 0054 7047     		bx	lr
 472              		.cfi_endproc
 473              	.LFE132:
 475 0056 00BF     		.section	.text.HAL_TIM_Base_Start_DMA,"ax",%progbits
 476              		.align	2
 477              		.global	HAL_TIM_Base_Start_DMA
 478              		.thumb
 479              		.thumb_func
 481              	HAL_TIM_Base_Start_DMA:
 482              	.LFB133:
 378:Drivers/STM32F3xx_HAL_Driver/Src/stm32f3xx_hal_tim.c **** 
 379:Drivers/STM32F3xx_HAL_Driver/Src/stm32f3xx_hal_tim.c **** /**
 380:Drivers/STM32F3xx_HAL_Driver/Src/stm32f3xx_hal_tim.c ****   * @brief  Starts the TIM Base generation in DMA mode.
 381:Drivers/STM32F3xx_HAL_Driver/Src/stm32f3xx_hal_tim.c ****   * @param  htim: TIM handle
 382:Drivers/STM32F3xx_HAL_Driver/Src/stm32f3xx_hal_tim.c ****   * @param  pData: The source Buffer address.
 383:Drivers/STM32F3xx_HAL_Driver/Src/stm32f3xx_hal_tim.c ****   * @param  Length: The length of data to be transferred from memory to peripheral.
 384:Drivers/STM32F3xx_HAL_Driver/Src/stm32f3xx_hal_tim.c ****   * @retval HAL status
 385:Drivers/STM32F3xx_HAL_Driver/Src/stm32f3xx_hal_tim.c **** */
 386:Drivers/STM32F3xx_HAL_Driver/Src/stm32f3xx_hal_tim.c **** HAL_StatusTypeDef HAL_TIM_Base_Start_DMA(TIM_HandleTypeDef *htim, uint32_t *pData, uint16_t Length)
 387:Drivers/STM32F3xx_HAL_Driver/Src/stm32f3xx_hal_tim.c **** { 
 483              		.loc 1 387 0
 484              		.cfi_startproc
 485              		@ args = 0, pretend = 0, frame = 16
ARM GAS  /tmp/ccZyKULX.s 			page 16


 486              		@ frame_needed = 1, uses_anonymous_args = 0
 487 0000 80B5     		push	{r7, lr}
 488              	.LCFI24:
 489              		.cfi_def_cfa_offset 8
 490              		.cfi_offset 7, -8
 491              		.cfi_offset 14, -4
 492 0002 84B0     		sub	sp, sp, #16
 493              	.LCFI25:
 494              		.cfi_def_cfa_offset 24
 495 0004 00AF     		add	r7, sp, #0
 496              	.LCFI26:
 497              		.cfi_def_cfa_register 7
 498 0006 F860     		str	r0, [r7, #12]
 499 0008 B960     		str	r1, [r7, #8]
 500 000a 1346     		mov	r3, r2
 501 000c FB80     		strh	r3, [r7, #6]	@ movhi
 388:Drivers/STM32F3xx_HAL_Driver/Src/stm32f3xx_hal_tim.c ****   /* Check the parameters */
 389:Drivers/STM32F3xx_HAL_Driver/Src/stm32f3xx_hal_tim.c ****   assert_param(IS_TIM_DMA_INSTANCE(htim->Instance)); 
 390:Drivers/STM32F3xx_HAL_Driver/Src/stm32f3xx_hal_tim.c ****   
 391:Drivers/STM32F3xx_HAL_Driver/Src/stm32f3xx_hal_tim.c ****   if((htim->State == HAL_TIM_STATE_BUSY))
 502              		.loc 1 391 0
 503 000e FB68     		ldr	r3, [r7, #12]
 504 0010 93F83930 		ldrb	r3, [r3, #57]
 505 0014 DBB2     		uxtb	r3, r3
 506 0016 022B     		cmp	r3, #2
 507 0018 01D1     		bne	.L21
 392:Drivers/STM32F3xx_HAL_Driver/Src/stm32f3xx_hal_tim.c ****   {
 393:Drivers/STM32F3xx_HAL_Driver/Src/stm32f3xx_hal_tim.c ****      return HAL_BUSY;
 508              		.loc 1 393 0
 509 001a 0223     		movs	r3, #2
 510 001c 34E0     		b	.L22
 511              	.L21:
 394:Drivers/STM32F3xx_HAL_Driver/Src/stm32f3xx_hal_tim.c ****   }
 395:Drivers/STM32F3xx_HAL_Driver/Src/stm32f3xx_hal_tim.c ****   else if((htim->State == HAL_TIM_STATE_READY))
 512              		.loc 1 395 0
 513 001e FB68     		ldr	r3, [r7, #12]
 514 0020 93F83930 		ldrb	r3, [r3, #57]
 515 0024 DBB2     		uxtb	r3, r3
 516 0026 012B     		cmp	r3, #1
 517 0028 0BD1     		bne	.L23
 396:Drivers/STM32F3xx_HAL_Driver/Src/stm32f3xx_hal_tim.c ****   {
 397:Drivers/STM32F3xx_HAL_Driver/Src/stm32f3xx_hal_tim.c ****     if((pData == 0 ) && (Length > 0)) 
 518              		.loc 1 397 0
 519 002a BB68     		ldr	r3, [r7, #8]
 520 002c 002B     		cmp	r3, #0
 521 002e 04D1     		bne	.L24
 522              		.loc 1 397 0 is_stmt 0 discriminator 1
 523 0030 FB88     		ldrh	r3, [r7, #6]
 524 0032 002B     		cmp	r3, #0
 525 0034 01D0     		beq	.L24
 398:Drivers/STM32F3xx_HAL_Driver/Src/stm32f3xx_hal_tim.c ****     {
 399:Drivers/STM32F3xx_HAL_Driver/Src/stm32f3xx_hal_tim.c ****       return HAL_ERROR;                                    
 526              		.loc 1 399 0 is_stmt 1
 527 0036 0123     		movs	r3, #1
 528 0038 26E0     		b	.L22
 529              	.L24:
 400:Drivers/STM32F3xx_HAL_Driver/Src/stm32f3xx_hal_tim.c ****     }
ARM GAS  /tmp/ccZyKULX.s 			page 17


 401:Drivers/STM32F3xx_HAL_Driver/Src/stm32f3xx_hal_tim.c ****     else
 402:Drivers/STM32F3xx_HAL_Driver/Src/stm32f3xx_hal_tim.c ****     {
 403:Drivers/STM32F3xx_HAL_Driver/Src/stm32f3xx_hal_tim.c ****       htim->State = HAL_TIM_STATE_BUSY;
 530              		.loc 1 403 0
 531 003a FB68     		ldr	r3, [r7, #12]
 532 003c 0222     		movs	r2, #2
 533 003e 83F83920 		strb	r2, [r3, #57]
 534              	.L23:
 404:Drivers/STM32F3xx_HAL_Driver/Src/stm32f3xx_hal_tim.c ****     }
 405:Drivers/STM32F3xx_HAL_Driver/Src/stm32f3xx_hal_tim.c ****   }  
 406:Drivers/STM32F3xx_HAL_Driver/Src/stm32f3xx_hal_tim.c ****   /* Set the DMA Period elapsed callback */
 407:Drivers/STM32F3xx_HAL_Driver/Src/stm32f3xx_hal_tim.c ****   htim->hdma[TIM_DMA_ID_UPDATE]->XferCpltCallback = TIM_DMAPeriodElapsedCplt;
 535              		.loc 1 407 0
 536 0042 FB68     		ldr	r3, [r7, #12]
 537 0044 DB69     		ldr	r3, [r3, #28]
 538 0046 124A     		ldr	r2, .L25
 539 0048 9A62     		str	r2, [r3, #40]
 408:Drivers/STM32F3xx_HAL_Driver/Src/stm32f3xx_hal_tim.c ****      
 409:Drivers/STM32F3xx_HAL_Driver/Src/stm32f3xx_hal_tim.c ****   /* Set the DMA error callback */
 410:Drivers/STM32F3xx_HAL_Driver/Src/stm32f3xx_hal_tim.c ****   htim->hdma[TIM_DMA_ID_UPDATE]->XferErrorCallback = TIM_DMAError ;
 540              		.loc 1 410 0
 541 004a FB68     		ldr	r3, [r7, #12]
 542 004c DB69     		ldr	r3, [r3, #28]
 543 004e 114A     		ldr	r2, .L25+4
 544 0050 1A63     		str	r2, [r3, #48]
 411:Drivers/STM32F3xx_HAL_Driver/Src/stm32f3xx_hal_tim.c ****   
 412:Drivers/STM32F3xx_HAL_Driver/Src/stm32f3xx_hal_tim.c ****   /* Enable the DMA channel */
 413:Drivers/STM32F3xx_HAL_Driver/Src/stm32f3xx_hal_tim.c ****   HAL_DMA_Start_IT(htim->hdma[TIM_DMA_ID_UPDATE], (uint32_t)pData, (uint32_t)&htim->Instance->ARR, 
 545              		.loc 1 413 0
 546 0052 FB68     		ldr	r3, [r7, #12]
 547 0054 D869     		ldr	r0, [r3, #28]
 548 0056 B968     		ldr	r1, [r7, #8]
 549 0058 FB68     		ldr	r3, [r7, #12]
 550 005a 1B68     		ldr	r3, [r3]
 551 005c 2C33     		adds	r3, r3, #44
 552 005e 1A46     		mov	r2, r3
 553 0060 FB88     		ldrh	r3, [r7, #6]
 554 0062 FFF7FEFF 		bl	HAL_DMA_Start_IT
 414:Drivers/STM32F3xx_HAL_Driver/Src/stm32f3xx_hal_tim.c ****   
 415:Drivers/STM32F3xx_HAL_Driver/Src/stm32f3xx_hal_tim.c ****   /* Enable the TIM Update DMA request */
 416:Drivers/STM32F3xx_HAL_Driver/Src/stm32f3xx_hal_tim.c ****   __HAL_TIM_ENABLE_DMA(htim, TIM_DMA_UPDATE);
 555              		.loc 1 416 0
 556 0066 FB68     		ldr	r3, [r7, #12]
 557 0068 1B68     		ldr	r3, [r3]
 558 006a FA68     		ldr	r2, [r7, #12]
 559 006c 1268     		ldr	r2, [r2]
 560 006e D268     		ldr	r2, [r2, #12]
 561 0070 42F48072 		orr	r2, r2, #256
 562 0074 DA60     		str	r2, [r3, #12]
 417:Drivers/STM32F3xx_HAL_Driver/Src/stm32f3xx_hal_tim.c **** 
 418:Drivers/STM32F3xx_HAL_Driver/Src/stm32f3xx_hal_tim.c ****   /* Enable the Peripheral */
 419:Drivers/STM32F3xx_HAL_Driver/Src/stm32f3xx_hal_tim.c ****   __HAL_TIM_ENABLE(htim);  
 563              		.loc 1 419 0
 564 0076 FB68     		ldr	r3, [r7, #12]
 565 0078 1B68     		ldr	r3, [r3]
 566 007a FA68     		ldr	r2, [r7, #12]
 567 007c 1268     		ldr	r2, [r2]
ARM GAS  /tmp/ccZyKULX.s 			page 18


 568 007e 1268     		ldr	r2, [r2]
 569 0080 42F00102 		orr	r2, r2, #1
 570 0084 1A60     		str	r2, [r3]
 420:Drivers/STM32F3xx_HAL_Driver/Src/stm32f3xx_hal_tim.c ****   
 421:Drivers/STM32F3xx_HAL_Driver/Src/stm32f3xx_hal_tim.c ****   /* Return function status */
 422:Drivers/STM32F3xx_HAL_Driver/Src/stm32f3xx_hal_tim.c ****   return HAL_OK;
 571              		.loc 1 422 0
 572 0086 0023     		movs	r3, #0
 573              	.L22:
 423:Drivers/STM32F3xx_HAL_Driver/Src/stm32f3xx_hal_tim.c **** }
 574              		.loc 1 423 0
 575 0088 1846     		mov	r0, r3
 576 008a 1037     		adds	r7, r7, #16
 577 008c BD46     		mov	sp, r7
 578              		@ sp needed
 579 008e 80BD     		pop	{r7, pc}
 580              	.L26:
 581              		.align	2
 582              	.L25:
 583 0090 00000000 		.word	TIM_DMAPeriodElapsedCplt
 584 0094 00000000 		.word	TIM_DMAError
 585              		.cfi_endproc
 586              	.LFE133:
 588              		.section	.text.HAL_TIM_Base_Stop_DMA,"ax",%progbits
 589              		.align	2
 590              		.global	HAL_TIM_Base_Stop_DMA
 591              		.thumb
 592              		.thumb_func
 594              	HAL_TIM_Base_Stop_DMA:
 595              	.LFB134:
 424:Drivers/STM32F3xx_HAL_Driver/Src/stm32f3xx_hal_tim.c **** 
 425:Drivers/STM32F3xx_HAL_Driver/Src/stm32f3xx_hal_tim.c **** /**
 426:Drivers/STM32F3xx_HAL_Driver/Src/stm32f3xx_hal_tim.c ****   * @brief  Stops the TIM Base generation in DMA mode.
 427:Drivers/STM32F3xx_HAL_Driver/Src/stm32f3xx_hal_tim.c ****   * @param  htim: TIM handle
 428:Drivers/STM32F3xx_HAL_Driver/Src/stm32f3xx_hal_tim.c ****   * @retval HAL status
 429:Drivers/STM32F3xx_HAL_Driver/Src/stm32f3xx_hal_tim.c **** */
 430:Drivers/STM32F3xx_HAL_Driver/Src/stm32f3xx_hal_tim.c **** HAL_StatusTypeDef HAL_TIM_Base_Stop_DMA(TIM_HandleTypeDef *htim)
 431:Drivers/STM32F3xx_HAL_Driver/Src/stm32f3xx_hal_tim.c **** {
 596              		.loc 1 431 0
 597              		.cfi_startproc
 598              		@ args = 0, pretend = 0, frame = 8
 599              		@ frame_needed = 1, uses_anonymous_args = 0
 600              		@ link register save eliminated.
 601 0000 80B4     		push	{r7}
 602              	.LCFI27:
 603              		.cfi_def_cfa_offset 4
 604              		.cfi_offset 7, -4
 605 0002 83B0     		sub	sp, sp, #12
 606              	.LCFI28:
 607              		.cfi_def_cfa_offset 16
 608 0004 00AF     		add	r7, sp, #0
 609              	.LCFI29:
 610              		.cfi_def_cfa_register 7
 611 0006 7860     		str	r0, [r7, #4]
 432:Drivers/STM32F3xx_HAL_Driver/Src/stm32f3xx_hal_tim.c ****   /* Check the parameters */
 433:Drivers/STM32F3xx_HAL_Driver/Src/stm32f3xx_hal_tim.c ****   assert_param(IS_TIM_DMA_INSTANCE(htim->Instance));
 434:Drivers/STM32F3xx_HAL_Driver/Src/stm32f3xx_hal_tim.c ****   
ARM GAS  /tmp/ccZyKULX.s 			page 19


 435:Drivers/STM32F3xx_HAL_Driver/Src/stm32f3xx_hal_tim.c ****   /* Disable the TIM Update DMA request */
 436:Drivers/STM32F3xx_HAL_Driver/Src/stm32f3xx_hal_tim.c ****   __HAL_TIM_DISABLE_DMA(htim, TIM_DMA_UPDATE);
 612              		.loc 1 436 0
 613 0008 7B68     		ldr	r3, [r7, #4]
 614 000a 1B68     		ldr	r3, [r3]
 615 000c 7A68     		ldr	r2, [r7, #4]
 616 000e 1268     		ldr	r2, [r2]
 617 0010 D268     		ldr	r2, [r2, #12]
 618 0012 22F48072 		bic	r2, r2, #256
 619 0016 DA60     		str	r2, [r3, #12]
 437:Drivers/STM32F3xx_HAL_Driver/Src/stm32f3xx_hal_tim.c ****       
 438:Drivers/STM32F3xx_HAL_Driver/Src/stm32f3xx_hal_tim.c ****   /* Disable the Peripheral */
 439:Drivers/STM32F3xx_HAL_Driver/Src/stm32f3xx_hal_tim.c ****   __HAL_TIM_DISABLE(htim);
 620              		.loc 1 439 0
 621 0018 7B68     		ldr	r3, [r7, #4]
 622 001a 1B68     		ldr	r3, [r3]
 623 001c 1A6A     		ldr	r2, [r3, #32]
 624 001e 41F21113 		movw	r3, #4369
 625 0022 1340     		ands	r3, r3, r2
 626 0024 002B     		cmp	r3, #0
 627 0026 0FD1     		bne	.L28
 628              		.loc 1 439 0 is_stmt 0 discriminator 1
 629 0028 7B68     		ldr	r3, [r7, #4]
 630 002a 1B68     		ldr	r3, [r3]
 631 002c 1A6A     		ldr	r2, [r3, #32]
 632 002e 40F24443 		movw	r3, #1092
 633 0032 1340     		ands	r3, r3, r2
 634 0034 002B     		cmp	r3, #0
 635 0036 07D1     		bne	.L28
 636 0038 7B68     		ldr	r3, [r7, #4]
 637 003a 1B68     		ldr	r3, [r3]
 638 003c 7A68     		ldr	r2, [r7, #4]
 639 003e 1268     		ldr	r2, [r2]
 640 0040 1268     		ldr	r2, [r2]
 641 0042 22F00102 		bic	r2, r2, #1
 642 0046 1A60     		str	r2, [r3]
 643              	.L28:
 440:Drivers/STM32F3xx_HAL_Driver/Src/stm32f3xx_hal_tim.c ****     
 441:Drivers/STM32F3xx_HAL_Driver/Src/stm32f3xx_hal_tim.c ****   /* Change the htim state */
 442:Drivers/STM32F3xx_HAL_Driver/Src/stm32f3xx_hal_tim.c ****   htim->State = HAL_TIM_STATE_READY;
 644              		.loc 1 442 0 is_stmt 1
 645 0048 7B68     		ldr	r3, [r7, #4]
 646 004a 0122     		movs	r2, #1
 647 004c 83F83920 		strb	r2, [r3, #57]
 443:Drivers/STM32F3xx_HAL_Driver/Src/stm32f3xx_hal_tim.c ****       
 444:Drivers/STM32F3xx_HAL_Driver/Src/stm32f3xx_hal_tim.c ****   /* Return function status */
 445:Drivers/STM32F3xx_HAL_Driver/Src/stm32f3xx_hal_tim.c ****   return HAL_OK;
 648              		.loc 1 445 0
 649 0050 0023     		movs	r3, #0
 446:Drivers/STM32F3xx_HAL_Driver/Src/stm32f3xx_hal_tim.c **** }
 650              		.loc 1 446 0
 651 0052 1846     		mov	r0, r3
 652 0054 0C37     		adds	r7, r7, #12
 653 0056 BD46     		mov	sp, r7
 654              		@ sp needed
 655 0058 5DF8047B 		ldr	r7, [sp], #4
 656 005c 7047     		bx	lr
ARM GAS  /tmp/ccZyKULX.s 			page 20


 657              		.cfi_endproc
 658              	.LFE134:
 660 005e 00BF     		.section	.text.HAL_TIM_OC_Init,"ax",%progbits
 661              		.align	2
 662              		.global	HAL_TIM_OC_Init
 663              		.thumb
 664              		.thumb_func
 666              	HAL_TIM_OC_Init:
 667              	.LFB135:
 447:Drivers/STM32F3xx_HAL_Driver/Src/stm32f3xx_hal_tim.c **** 
 448:Drivers/STM32F3xx_HAL_Driver/Src/stm32f3xx_hal_tim.c **** /**
 449:Drivers/STM32F3xx_HAL_Driver/Src/stm32f3xx_hal_tim.c ****   * @}
 450:Drivers/STM32F3xx_HAL_Driver/Src/stm32f3xx_hal_tim.c ****   */
 451:Drivers/STM32F3xx_HAL_Driver/Src/stm32f3xx_hal_tim.c ****   
 452:Drivers/STM32F3xx_HAL_Driver/Src/stm32f3xx_hal_tim.c **** /** @defgroup TIM_Exported_Functions_Group2 Time Output Compare functions 
 453:Drivers/STM32F3xx_HAL_Driver/Src/stm32f3xx_hal_tim.c ****  *  @brief    Time Output Compare functions 
 454:Drivers/STM32F3xx_HAL_Driver/Src/stm32f3xx_hal_tim.c ****  *
 455:Drivers/STM32F3xx_HAL_Driver/Src/stm32f3xx_hal_tim.c **** @verbatim    
 456:Drivers/STM32F3xx_HAL_Driver/Src/stm32f3xx_hal_tim.c ****   ==============================================================================
 457:Drivers/STM32F3xx_HAL_Driver/Src/stm32f3xx_hal_tim.c ****                   ##### Time Output Compare functions #####
 458:Drivers/STM32F3xx_HAL_Driver/Src/stm32f3xx_hal_tim.c ****   ==============================================================================
 459:Drivers/STM32F3xx_HAL_Driver/Src/stm32f3xx_hal_tim.c ****   [..]
 460:Drivers/STM32F3xx_HAL_Driver/Src/stm32f3xx_hal_tim.c ****     This section provides functions allowing to:
 461:Drivers/STM32F3xx_HAL_Driver/Src/stm32f3xx_hal_tim.c ****     (+) Initialize and configure the TIM Output Compare. 
 462:Drivers/STM32F3xx_HAL_Driver/Src/stm32f3xx_hal_tim.c ****     (+) De-initialize the TIM Output Compare.
 463:Drivers/STM32F3xx_HAL_Driver/Src/stm32f3xx_hal_tim.c ****     (+) Start the Time Output Compare.
 464:Drivers/STM32F3xx_HAL_Driver/Src/stm32f3xx_hal_tim.c ****     (+) Stop the Time Output Compare.
 465:Drivers/STM32F3xx_HAL_Driver/Src/stm32f3xx_hal_tim.c ****     (+) Start the Time Output Compare and enable interrupt.
 466:Drivers/STM32F3xx_HAL_Driver/Src/stm32f3xx_hal_tim.c ****     (+) Stop the Time Output Compare and disable interrupt.
 467:Drivers/STM32F3xx_HAL_Driver/Src/stm32f3xx_hal_tim.c ****     (+) Start the Time Output Compare and enable DMA transfer.
 468:Drivers/STM32F3xx_HAL_Driver/Src/stm32f3xx_hal_tim.c ****     (+) Stop the Time Output Compare and disable DMA transfer.
 469:Drivers/STM32F3xx_HAL_Driver/Src/stm32f3xx_hal_tim.c ****  
 470:Drivers/STM32F3xx_HAL_Driver/Src/stm32f3xx_hal_tim.c **** @endverbatim
 471:Drivers/STM32F3xx_HAL_Driver/Src/stm32f3xx_hal_tim.c ****   * @{
 472:Drivers/STM32F3xx_HAL_Driver/Src/stm32f3xx_hal_tim.c ****   */
 473:Drivers/STM32F3xx_HAL_Driver/Src/stm32f3xx_hal_tim.c **** /**
 474:Drivers/STM32F3xx_HAL_Driver/Src/stm32f3xx_hal_tim.c ****   * @brief  Initializes the TIM Output Compare according to the specified
 475:Drivers/STM32F3xx_HAL_Driver/Src/stm32f3xx_hal_tim.c ****   *         parameters in the TIM_HandleTypeDef and create the associated handle.
 476:Drivers/STM32F3xx_HAL_Driver/Src/stm32f3xx_hal_tim.c ****   * @param  htim: TIM Output Compare handle
 477:Drivers/STM32F3xx_HAL_Driver/Src/stm32f3xx_hal_tim.c ****   * @retval HAL status
 478:Drivers/STM32F3xx_HAL_Driver/Src/stm32f3xx_hal_tim.c ****   */
 479:Drivers/STM32F3xx_HAL_Driver/Src/stm32f3xx_hal_tim.c **** HAL_StatusTypeDef HAL_TIM_OC_Init(TIM_HandleTypeDef* htim)
 480:Drivers/STM32F3xx_HAL_Driver/Src/stm32f3xx_hal_tim.c **** {
 668              		.loc 1 480 0
 669              		.cfi_startproc
 670              		@ args = 0, pretend = 0, frame = 8
 671              		@ frame_needed = 1, uses_anonymous_args = 0
 672 0000 80B5     		push	{r7, lr}
 673              	.LCFI30:
 674              		.cfi_def_cfa_offset 8
 675              		.cfi_offset 7, -8
 676              		.cfi_offset 14, -4
 677 0002 82B0     		sub	sp, sp, #8
 678              	.LCFI31:
 679              		.cfi_def_cfa_offset 16
 680 0004 00AF     		add	r7, sp, #0
 681              	.LCFI32:
ARM GAS  /tmp/ccZyKULX.s 			page 21


 682              		.cfi_def_cfa_register 7
 683 0006 7860     		str	r0, [r7, #4]
 481:Drivers/STM32F3xx_HAL_Driver/Src/stm32f3xx_hal_tim.c ****   /* Check the TIM handle allocation */
 482:Drivers/STM32F3xx_HAL_Driver/Src/stm32f3xx_hal_tim.c ****   if(htim == NULL)
 684              		.loc 1 482 0
 685 0008 7B68     		ldr	r3, [r7, #4]
 686 000a 002B     		cmp	r3, #0
 687 000c 01D1     		bne	.L31
 483:Drivers/STM32F3xx_HAL_Driver/Src/stm32f3xx_hal_tim.c ****   {
 484:Drivers/STM32F3xx_HAL_Driver/Src/stm32f3xx_hal_tim.c ****     return HAL_ERROR;
 688              		.loc 1 484 0
 689 000e 0123     		movs	r3, #1
 690 0010 1DE0     		b	.L32
 691              	.L31:
 485:Drivers/STM32F3xx_HAL_Driver/Src/stm32f3xx_hal_tim.c ****   }
 486:Drivers/STM32F3xx_HAL_Driver/Src/stm32f3xx_hal_tim.c **** 
 487:Drivers/STM32F3xx_HAL_Driver/Src/stm32f3xx_hal_tim.c ****   /* Check the parameters */
 488:Drivers/STM32F3xx_HAL_Driver/Src/stm32f3xx_hal_tim.c ****   assert_param(IS_TIM_INSTANCE(htim->Instance));
 489:Drivers/STM32F3xx_HAL_Driver/Src/stm32f3xx_hal_tim.c ****   assert_param(IS_TIM_COUNTER_MODE(htim->Init.CounterMode));
 490:Drivers/STM32F3xx_HAL_Driver/Src/stm32f3xx_hal_tim.c ****   assert_param(IS_TIM_CLOCKDIVISION_DIV(htim->Init.ClockDivision));
 491:Drivers/STM32F3xx_HAL_Driver/Src/stm32f3xx_hal_tim.c ****  
 492:Drivers/STM32F3xx_HAL_Driver/Src/stm32f3xx_hal_tim.c ****   if(htim->State == HAL_TIM_STATE_RESET)
 692              		.loc 1 492 0
 693 0012 7B68     		ldr	r3, [r7, #4]
 694 0014 93F83930 		ldrb	r3, [r3, #57]
 695 0018 DBB2     		uxtb	r3, r3
 696 001a 002B     		cmp	r3, #0
 697 001c 06D1     		bne	.L33
 493:Drivers/STM32F3xx_HAL_Driver/Src/stm32f3xx_hal_tim.c ****   {   
 494:Drivers/STM32F3xx_HAL_Driver/Src/stm32f3xx_hal_tim.c ****     /* Allocate lock resource and initialize it */
 495:Drivers/STM32F3xx_HAL_Driver/Src/stm32f3xx_hal_tim.c ****     htim->Lock = HAL_UNLOCKED;
 698              		.loc 1 495 0
 699 001e 7B68     		ldr	r3, [r7, #4]
 700 0020 0022     		movs	r2, #0
 701 0022 83F83820 		strb	r2, [r3, #56]
 496:Drivers/STM32F3xx_HAL_Driver/Src/stm32f3xx_hal_tim.c **** 
 497:Drivers/STM32F3xx_HAL_Driver/Src/stm32f3xx_hal_tim.c ****     /* Init the low level hardware : GPIO, CLOCK, NVIC and DMA */
 498:Drivers/STM32F3xx_HAL_Driver/Src/stm32f3xx_hal_tim.c ****     HAL_TIM_OC_MspInit(htim);
 702              		.loc 1 498 0
 703 0026 7868     		ldr	r0, [r7, #4]
 704 0028 FFF7FEFF 		bl	HAL_TIM_OC_MspInit
 705              	.L33:
 499:Drivers/STM32F3xx_HAL_Driver/Src/stm32f3xx_hal_tim.c ****   }
 500:Drivers/STM32F3xx_HAL_Driver/Src/stm32f3xx_hal_tim.c ****   
 501:Drivers/STM32F3xx_HAL_Driver/Src/stm32f3xx_hal_tim.c ****   /* Set the TIM state */
 502:Drivers/STM32F3xx_HAL_Driver/Src/stm32f3xx_hal_tim.c ****   htim->State= HAL_TIM_STATE_BUSY;
 706              		.loc 1 502 0
 707 002c 7B68     		ldr	r3, [r7, #4]
 708 002e 0222     		movs	r2, #2
 709 0030 83F83920 		strb	r2, [r3, #57]
 503:Drivers/STM32F3xx_HAL_Driver/Src/stm32f3xx_hal_tim.c **** 
 504:Drivers/STM32F3xx_HAL_Driver/Src/stm32f3xx_hal_tim.c ****   /* Init the base time for the Output Compare */  
 505:Drivers/STM32F3xx_HAL_Driver/Src/stm32f3xx_hal_tim.c ****   TIM_Base_SetConfig(htim->Instance,  &htim->Init); 
 710              		.loc 1 505 0
 711 0034 7B68     		ldr	r3, [r7, #4]
 712 0036 1A68     		ldr	r2, [r3]
 713 0038 7B68     		ldr	r3, [r7, #4]
ARM GAS  /tmp/ccZyKULX.s 			page 22


 714 003a 0433     		adds	r3, r3, #4
 715 003c 1046     		mov	r0, r2
 716 003e 1946     		mov	r1, r3
 717 0040 FFF7FEFF 		bl	TIM_Base_SetConfig
 506:Drivers/STM32F3xx_HAL_Driver/Src/stm32f3xx_hal_tim.c ****   
 507:Drivers/STM32F3xx_HAL_Driver/Src/stm32f3xx_hal_tim.c ****   /* Initialize the TIM state*/
 508:Drivers/STM32F3xx_HAL_Driver/Src/stm32f3xx_hal_tim.c ****   htim->State= HAL_TIM_STATE_READY;
 718              		.loc 1 508 0
 719 0044 7B68     		ldr	r3, [r7, #4]
 720 0046 0122     		movs	r2, #1
 721 0048 83F83920 		strb	r2, [r3, #57]
 509:Drivers/STM32F3xx_HAL_Driver/Src/stm32f3xx_hal_tim.c ****   
 510:Drivers/STM32F3xx_HAL_Driver/Src/stm32f3xx_hal_tim.c ****   return HAL_OK;
 722              		.loc 1 510 0
 723 004c 0023     		movs	r3, #0
 724              	.L32:
 511:Drivers/STM32F3xx_HAL_Driver/Src/stm32f3xx_hal_tim.c **** }
 725              		.loc 1 511 0
 726 004e 1846     		mov	r0, r3
 727 0050 0837     		adds	r7, r7, #8
 728 0052 BD46     		mov	sp, r7
 729              		@ sp needed
 730 0054 80BD     		pop	{r7, pc}
 731              		.cfi_endproc
 732              	.LFE135:
 734 0056 00BF     		.section	.text.HAL_TIM_OC_DeInit,"ax",%progbits
 735              		.align	2
 736              		.global	HAL_TIM_OC_DeInit
 737              		.thumb
 738              		.thumb_func
 740              	HAL_TIM_OC_DeInit:
 741              	.LFB136:
 512:Drivers/STM32F3xx_HAL_Driver/Src/stm32f3xx_hal_tim.c **** 
 513:Drivers/STM32F3xx_HAL_Driver/Src/stm32f3xx_hal_tim.c **** /**
 514:Drivers/STM32F3xx_HAL_Driver/Src/stm32f3xx_hal_tim.c ****   * @brief  DeInitializes the TIM peripheral 
 515:Drivers/STM32F3xx_HAL_Driver/Src/stm32f3xx_hal_tim.c ****   * @param  htim: TIM Output Compare handle
 516:Drivers/STM32F3xx_HAL_Driver/Src/stm32f3xx_hal_tim.c ****   * @retval HAL status
 517:Drivers/STM32F3xx_HAL_Driver/Src/stm32f3xx_hal_tim.c ****   */
 518:Drivers/STM32F3xx_HAL_Driver/Src/stm32f3xx_hal_tim.c **** HAL_StatusTypeDef HAL_TIM_OC_DeInit(TIM_HandleTypeDef *htim)
 519:Drivers/STM32F3xx_HAL_Driver/Src/stm32f3xx_hal_tim.c **** {
 742              		.loc 1 519 0
 743              		.cfi_startproc
 744              		@ args = 0, pretend = 0, frame = 8
 745              		@ frame_needed = 1, uses_anonymous_args = 0
 746 0000 80B5     		push	{r7, lr}
 747              	.LCFI33:
 748              		.cfi_def_cfa_offset 8
 749              		.cfi_offset 7, -8
 750              		.cfi_offset 14, -4
 751 0002 82B0     		sub	sp, sp, #8
 752              	.LCFI34:
 753              		.cfi_def_cfa_offset 16
 754 0004 00AF     		add	r7, sp, #0
 755              	.LCFI35:
 756              		.cfi_def_cfa_register 7
 757 0006 7860     		str	r0, [r7, #4]
 520:Drivers/STM32F3xx_HAL_Driver/Src/stm32f3xx_hal_tim.c ****   /* Check the parameters */
ARM GAS  /tmp/ccZyKULX.s 			page 23


 521:Drivers/STM32F3xx_HAL_Driver/Src/stm32f3xx_hal_tim.c ****   assert_param(IS_TIM_INSTANCE(htim->Instance));
 522:Drivers/STM32F3xx_HAL_Driver/Src/stm32f3xx_hal_tim.c ****   
 523:Drivers/STM32F3xx_HAL_Driver/Src/stm32f3xx_hal_tim.c ****    htim->State = HAL_TIM_STATE_BUSY;
 758              		.loc 1 523 0
 759 0008 7B68     		ldr	r3, [r7, #4]
 760 000a 0222     		movs	r2, #2
 761 000c 83F83920 		strb	r2, [r3, #57]
 524:Drivers/STM32F3xx_HAL_Driver/Src/stm32f3xx_hal_tim.c ****    
 525:Drivers/STM32F3xx_HAL_Driver/Src/stm32f3xx_hal_tim.c ****   /* Disable the TIM Peripheral Clock */
 526:Drivers/STM32F3xx_HAL_Driver/Src/stm32f3xx_hal_tim.c ****   __HAL_TIM_DISABLE(htim);
 762              		.loc 1 526 0
 763 0010 7B68     		ldr	r3, [r7, #4]
 764 0012 1B68     		ldr	r3, [r3]
 765 0014 1A6A     		ldr	r2, [r3, #32]
 766 0016 41F21113 		movw	r3, #4369
 767 001a 1340     		ands	r3, r3, r2
 768 001c 002B     		cmp	r3, #0
 769 001e 0FD1     		bne	.L35
 770              		.loc 1 526 0 is_stmt 0 discriminator 1
 771 0020 7B68     		ldr	r3, [r7, #4]
 772 0022 1B68     		ldr	r3, [r3]
 773 0024 1A6A     		ldr	r2, [r3, #32]
 774 0026 40F24443 		movw	r3, #1092
 775 002a 1340     		ands	r3, r3, r2
 776 002c 002B     		cmp	r3, #0
 777 002e 07D1     		bne	.L35
 778 0030 7B68     		ldr	r3, [r7, #4]
 779 0032 1B68     		ldr	r3, [r3]
 780 0034 7A68     		ldr	r2, [r7, #4]
 781 0036 1268     		ldr	r2, [r2]
 782 0038 1268     		ldr	r2, [r2]
 783 003a 22F00102 		bic	r2, r2, #1
 784 003e 1A60     		str	r2, [r3]
 785              	.L35:
 527:Drivers/STM32F3xx_HAL_Driver/Src/stm32f3xx_hal_tim.c ****   
 528:Drivers/STM32F3xx_HAL_Driver/Src/stm32f3xx_hal_tim.c ****   /* DeInit the low level hardware: GPIO, CLOCK, NVIC and DMA */
 529:Drivers/STM32F3xx_HAL_Driver/Src/stm32f3xx_hal_tim.c ****   HAL_TIM_OC_MspDeInit(htim);
 786              		.loc 1 529 0 is_stmt 1
 787 0040 7868     		ldr	r0, [r7, #4]
 788 0042 FFF7FEFF 		bl	HAL_TIM_OC_MspDeInit
 530:Drivers/STM32F3xx_HAL_Driver/Src/stm32f3xx_hal_tim.c ****     
 531:Drivers/STM32F3xx_HAL_Driver/Src/stm32f3xx_hal_tim.c ****   /* Change TIM state */  
 532:Drivers/STM32F3xx_HAL_Driver/Src/stm32f3xx_hal_tim.c ****   htim->State = HAL_TIM_STATE_RESET; 
 789              		.loc 1 532 0
 790 0046 7B68     		ldr	r3, [r7, #4]
 791 0048 0022     		movs	r2, #0
 792 004a 83F83920 		strb	r2, [r3, #57]
 533:Drivers/STM32F3xx_HAL_Driver/Src/stm32f3xx_hal_tim.c ****   
 534:Drivers/STM32F3xx_HAL_Driver/Src/stm32f3xx_hal_tim.c ****   /* Release Lock */
 535:Drivers/STM32F3xx_HAL_Driver/Src/stm32f3xx_hal_tim.c ****   __HAL_UNLOCK(htim);
 793              		.loc 1 535 0
 794 004e 7B68     		ldr	r3, [r7, #4]
 795 0050 0022     		movs	r2, #0
 796 0052 83F83820 		strb	r2, [r3, #56]
 536:Drivers/STM32F3xx_HAL_Driver/Src/stm32f3xx_hal_tim.c **** 
 537:Drivers/STM32F3xx_HAL_Driver/Src/stm32f3xx_hal_tim.c ****   return HAL_OK;
 797              		.loc 1 537 0
ARM GAS  /tmp/ccZyKULX.s 			page 24


 798 0056 0023     		movs	r3, #0
 538:Drivers/STM32F3xx_HAL_Driver/Src/stm32f3xx_hal_tim.c **** }
 799              		.loc 1 538 0
 800 0058 1846     		mov	r0, r3
 801 005a 0837     		adds	r7, r7, #8
 802 005c BD46     		mov	sp, r7
 803              		@ sp needed
 804 005e 80BD     		pop	{r7, pc}
 805              		.cfi_endproc
 806              	.LFE136:
 808              		.section	.text.HAL_TIM_OC_MspInit,"ax",%progbits
 809              		.align	2
 810              		.weak	HAL_TIM_OC_MspInit
 811              		.thumb
 812              		.thumb_func
 814              	HAL_TIM_OC_MspInit:
 815              	.LFB137:
 539:Drivers/STM32F3xx_HAL_Driver/Src/stm32f3xx_hal_tim.c **** 
 540:Drivers/STM32F3xx_HAL_Driver/Src/stm32f3xx_hal_tim.c **** /**
 541:Drivers/STM32F3xx_HAL_Driver/Src/stm32f3xx_hal_tim.c ****   * @brief  Initializes the TIM Output Compare MSP.
 542:Drivers/STM32F3xx_HAL_Driver/Src/stm32f3xx_hal_tim.c ****   * @param  htim: TIM handle
 543:Drivers/STM32F3xx_HAL_Driver/Src/stm32f3xx_hal_tim.c ****   * @retval None
 544:Drivers/STM32F3xx_HAL_Driver/Src/stm32f3xx_hal_tim.c ****   */
 545:Drivers/STM32F3xx_HAL_Driver/Src/stm32f3xx_hal_tim.c **** __weak void HAL_TIM_OC_MspInit(TIM_HandleTypeDef *htim)
 546:Drivers/STM32F3xx_HAL_Driver/Src/stm32f3xx_hal_tim.c **** {
 816              		.loc 1 546 0
 817              		.cfi_startproc
 818              		@ args = 0, pretend = 0, frame = 8
 819              		@ frame_needed = 1, uses_anonymous_args = 0
 820              		@ link register save eliminated.
 821 0000 80B4     		push	{r7}
 822              	.LCFI36:
 823              		.cfi_def_cfa_offset 4
 824              		.cfi_offset 7, -4
 825 0002 83B0     		sub	sp, sp, #12
 826              	.LCFI37:
 827              		.cfi_def_cfa_offset 16
 828 0004 00AF     		add	r7, sp, #0
 829              	.LCFI38:
 830              		.cfi_def_cfa_register 7
 831 0006 7860     		str	r0, [r7, #4]
 547:Drivers/STM32F3xx_HAL_Driver/Src/stm32f3xx_hal_tim.c ****   /* Prevent unused argument(s) compilation warning */
 548:Drivers/STM32F3xx_HAL_Driver/Src/stm32f3xx_hal_tim.c ****   UNUSED(htim);
 549:Drivers/STM32F3xx_HAL_Driver/Src/stm32f3xx_hal_tim.c **** 
 550:Drivers/STM32F3xx_HAL_Driver/Src/stm32f3xx_hal_tim.c ****   /* NOTE : This function Should not be modified, when the callback is needed,
 551:Drivers/STM32F3xx_HAL_Driver/Src/stm32f3xx_hal_tim.c ****             the HAL_TIM_OC_MspInit could be implemented in the user file
 552:Drivers/STM32F3xx_HAL_Driver/Src/stm32f3xx_hal_tim.c ****    */
 553:Drivers/STM32F3xx_HAL_Driver/Src/stm32f3xx_hal_tim.c **** }
 832              		.loc 1 553 0
 833 0008 0C37     		adds	r7, r7, #12
 834 000a BD46     		mov	sp, r7
 835              		@ sp needed
 836 000c 5DF8047B 		ldr	r7, [sp], #4
 837 0010 7047     		bx	lr
 838              		.cfi_endproc
 839              	.LFE137:
 841 0012 00BF     		.section	.text.HAL_TIM_OC_MspDeInit,"ax",%progbits
ARM GAS  /tmp/ccZyKULX.s 			page 25


 842              		.align	2
 843              		.weak	HAL_TIM_OC_MspDeInit
 844              		.thumb
 845              		.thumb_func
 847              	HAL_TIM_OC_MspDeInit:
 848              	.LFB138:
 554:Drivers/STM32F3xx_HAL_Driver/Src/stm32f3xx_hal_tim.c **** 
 555:Drivers/STM32F3xx_HAL_Driver/Src/stm32f3xx_hal_tim.c **** /**
 556:Drivers/STM32F3xx_HAL_Driver/Src/stm32f3xx_hal_tim.c ****   * @brief  DeInitializes TIM Output Compare MSP.
 557:Drivers/STM32F3xx_HAL_Driver/Src/stm32f3xx_hal_tim.c ****   * @param  htim: TIM handle
 558:Drivers/STM32F3xx_HAL_Driver/Src/stm32f3xx_hal_tim.c ****   * @retval None
 559:Drivers/STM32F3xx_HAL_Driver/Src/stm32f3xx_hal_tim.c ****   */
 560:Drivers/STM32F3xx_HAL_Driver/Src/stm32f3xx_hal_tim.c **** __weak void HAL_TIM_OC_MspDeInit(TIM_HandleTypeDef *htim)
 561:Drivers/STM32F3xx_HAL_Driver/Src/stm32f3xx_hal_tim.c **** {
 849              		.loc 1 561 0
 850              		.cfi_startproc
 851              		@ args = 0, pretend = 0, frame = 8
 852              		@ frame_needed = 1, uses_anonymous_args = 0
 853              		@ link register save eliminated.
 854 0000 80B4     		push	{r7}
 855              	.LCFI39:
 856              		.cfi_def_cfa_offset 4
 857              		.cfi_offset 7, -4
 858 0002 83B0     		sub	sp, sp, #12
 859              	.LCFI40:
 860              		.cfi_def_cfa_offset 16
 861 0004 00AF     		add	r7, sp, #0
 862              	.LCFI41:
 863              		.cfi_def_cfa_register 7
 864 0006 7860     		str	r0, [r7, #4]
 562:Drivers/STM32F3xx_HAL_Driver/Src/stm32f3xx_hal_tim.c ****   /* Prevent unused argument(s) compilation warning */
 563:Drivers/STM32F3xx_HAL_Driver/Src/stm32f3xx_hal_tim.c ****   UNUSED(htim);
 564:Drivers/STM32F3xx_HAL_Driver/Src/stm32f3xx_hal_tim.c **** 
 565:Drivers/STM32F3xx_HAL_Driver/Src/stm32f3xx_hal_tim.c ****   /* NOTE : This function Should not be modified, when the callback is needed,
 566:Drivers/STM32F3xx_HAL_Driver/Src/stm32f3xx_hal_tim.c ****             the HAL_TIM_OC_MspDeInit could be implemented in the user file
 567:Drivers/STM32F3xx_HAL_Driver/Src/stm32f3xx_hal_tim.c ****    */
 568:Drivers/STM32F3xx_HAL_Driver/Src/stm32f3xx_hal_tim.c **** }
 865              		.loc 1 568 0
 866 0008 0C37     		adds	r7, r7, #12
 867 000a BD46     		mov	sp, r7
 868              		@ sp needed
 869 000c 5DF8047B 		ldr	r7, [sp], #4
 870 0010 7047     		bx	lr
 871              		.cfi_endproc
 872              	.LFE138:
 874 0012 00BF     		.section	.text.HAL_TIM_OC_Start,"ax",%progbits
 875              		.align	2
 876              		.global	HAL_TIM_OC_Start
 877              		.thumb
 878              		.thumb_func
 880              	HAL_TIM_OC_Start:
 881              	.LFB139:
 569:Drivers/STM32F3xx_HAL_Driver/Src/stm32f3xx_hal_tim.c **** 
 570:Drivers/STM32F3xx_HAL_Driver/Src/stm32f3xx_hal_tim.c **** /**
 571:Drivers/STM32F3xx_HAL_Driver/Src/stm32f3xx_hal_tim.c ****   * @brief  Starts the TIM Output Compare signal generation.
 572:Drivers/STM32F3xx_HAL_Driver/Src/stm32f3xx_hal_tim.c ****   * @param  htim: TIM Output Compare handle  
 573:Drivers/STM32F3xx_HAL_Driver/Src/stm32f3xx_hal_tim.c ****   * @param  Channel: TIM Channel to be enabled
ARM GAS  /tmp/ccZyKULX.s 			page 26


 574:Drivers/STM32F3xx_HAL_Driver/Src/stm32f3xx_hal_tim.c ****   *          This parameter can be one of the following values:
 575:Drivers/STM32F3xx_HAL_Driver/Src/stm32f3xx_hal_tim.c ****   *            @arg TIM_CHANNEL_1: TIM Channel 1 selected
 576:Drivers/STM32F3xx_HAL_Driver/Src/stm32f3xx_hal_tim.c ****   *            @arg TIM_CHANNEL_2: TIM Channel 2 selected
 577:Drivers/STM32F3xx_HAL_Driver/Src/stm32f3xx_hal_tim.c ****   *            @arg TIM_CHANNEL_3: TIM Channel 3 selected
 578:Drivers/STM32F3xx_HAL_Driver/Src/stm32f3xx_hal_tim.c ****   *            @arg TIM_CHANNEL_4: TIM Channel 4 selected   
 579:Drivers/STM32F3xx_HAL_Driver/Src/stm32f3xx_hal_tim.c ****   * @retval HAL status
 580:Drivers/STM32F3xx_HAL_Driver/Src/stm32f3xx_hal_tim.c **** */
 581:Drivers/STM32F3xx_HAL_Driver/Src/stm32f3xx_hal_tim.c **** HAL_StatusTypeDef HAL_TIM_OC_Start(TIM_HandleTypeDef *htim, uint32_t Channel)
 582:Drivers/STM32F3xx_HAL_Driver/Src/stm32f3xx_hal_tim.c **** {
 882              		.loc 1 582 0
 883              		.cfi_startproc
 884              		@ args = 0, pretend = 0, frame = 8
 885              		@ frame_needed = 1, uses_anonymous_args = 0
 886 0000 80B5     		push	{r7, lr}
 887              	.LCFI42:
 888              		.cfi_def_cfa_offset 8
 889              		.cfi_offset 7, -8
 890              		.cfi_offset 14, -4
 891 0002 82B0     		sub	sp, sp, #8
 892              	.LCFI43:
 893              		.cfi_def_cfa_offset 16
 894 0004 00AF     		add	r7, sp, #0
 895              	.LCFI44:
 896              		.cfi_def_cfa_register 7
 897 0006 7860     		str	r0, [r7, #4]
 898 0008 3960     		str	r1, [r7]
 583:Drivers/STM32F3xx_HAL_Driver/Src/stm32f3xx_hal_tim.c ****   /* Check the parameters */
 584:Drivers/STM32F3xx_HAL_Driver/Src/stm32f3xx_hal_tim.c ****   assert_param(IS_TIM_CCX_INSTANCE(htim->Instance, Channel));
 585:Drivers/STM32F3xx_HAL_Driver/Src/stm32f3xx_hal_tim.c ****   
 586:Drivers/STM32F3xx_HAL_Driver/Src/stm32f3xx_hal_tim.c ****   /* Enable the Output compare channel */
 587:Drivers/STM32F3xx_HAL_Driver/Src/stm32f3xx_hal_tim.c ****   TIM_CCxChannelCmd(htim->Instance, Channel, TIM_CCx_ENABLE);
 899              		.loc 1 587 0
 900 000a 7B68     		ldr	r3, [r7, #4]
 901 000c 1B68     		ldr	r3, [r3]
 902 000e 1846     		mov	r0, r3
 903 0010 3968     		ldr	r1, [r7]
 904 0012 0122     		movs	r2, #1
 905 0014 FFF7FEFF 		bl	TIM_CCxChannelCmd
 588:Drivers/STM32F3xx_HAL_Driver/Src/stm32f3xx_hal_tim.c ****   
 589:Drivers/STM32F3xx_HAL_Driver/Src/stm32f3xx_hal_tim.c ****   if(IS_TIM_BREAK_INSTANCE(htim->Instance) != RESET)  
 906              		.loc 1 589 0
 907 0018 7B68     		ldr	r3, [r7, #4]
 908 001a 1A68     		ldr	r2, [r3]
 909 001c 184B     		ldr	r3, .L45
 910 001e 9A42     		cmp	r2, r3
 911 0020 13D0     		beq	.L40
 912              		.loc 1 589 0 is_stmt 0 discriminator 2
 913 0022 7B68     		ldr	r3, [r7, #4]
 914 0024 1A68     		ldr	r2, [r3]
 915 0026 174B     		ldr	r3, .L45+4
 916 0028 9A42     		cmp	r2, r3
 917 002a 0ED0     		beq	.L40
 918              		.loc 1 589 0 discriminator 1
 919 002c 7B68     		ldr	r3, [r7, #4]
 920 002e 1A68     		ldr	r2, [r3]
 921 0030 154B     		ldr	r3, .L45+8
 922 0032 9A42     		cmp	r2, r3
ARM GAS  /tmp/ccZyKULX.s 			page 27


 923 0034 09D0     		beq	.L40
 924 0036 7B68     		ldr	r3, [r7, #4]
 925 0038 1A68     		ldr	r2, [r3]
 926 003a 144B     		ldr	r3, .L45+12
 927 003c 9A42     		cmp	r2, r3
 928 003e 04D0     		beq	.L40
 929 0040 7B68     		ldr	r3, [r7, #4]
 930 0042 1A68     		ldr	r2, [r3]
 931 0044 124B     		ldr	r3, .L45+16
 932 0046 9A42     		cmp	r2, r3
 933 0048 01D1     		bne	.L41
 934              	.L40:
 935 004a 0123     		movs	r3, #1
 936 004c 00E0     		b	.L42
 937              	.L41:
 938              		.loc 1 589 0 discriminator 3
 939 004e 0023     		movs	r3, #0
 940              	.L42:
 941              		.loc 1 589 0 discriminator 4
 942 0050 002B     		cmp	r3, #0
 943 0052 07D0     		beq	.L43
 590:Drivers/STM32F3xx_HAL_Driver/Src/stm32f3xx_hal_tim.c ****   {
 591:Drivers/STM32F3xx_HAL_Driver/Src/stm32f3xx_hal_tim.c ****     /* Enable the main output */
 592:Drivers/STM32F3xx_HAL_Driver/Src/stm32f3xx_hal_tim.c ****     __HAL_TIM_MOE_ENABLE(htim);
 944              		.loc 1 592 0 is_stmt 1
 945 0054 7B68     		ldr	r3, [r7, #4]
 946 0056 1B68     		ldr	r3, [r3]
 947 0058 7A68     		ldr	r2, [r7, #4]
 948 005a 1268     		ldr	r2, [r2]
 949 005c 526C     		ldr	r2, [r2, #68]
 950 005e 42F40042 		orr	r2, r2, #32768
 951 0062 5A64     		str	r2, [r3, #68]
 952              	.L43:
 593:Drivers/STM32F3xx_HAL_Driver/Src/stm32f3xx_hal_tim.c ****   }
 594:Drivers/STM32F3xx_HAL_Driver/Src/stm32f3xx_hal_tim.c ****   
 595:Drivers/STM32F3xx_HAL_Driver/Src/stm32f3xx_hal_tim.c ****   /* Enable the Peripheral */
 596:Drivers/STM32F3xx_HAL_Driver/Src/stm32f3xx_hal_tim.c ****   __HAL_TIM_ENABLE(htim); 
 953              		.loc 1 596 0
 954 0064 7B68     		ldr	r3, [r7, #4]
 955 0066 1B68     		ldr	r3, [r3]
 956 0068 7A68     		ldr	r2, [r7, #4]
 957 006a 1268     		ldr	r2, [r2]
 958 006c 1268     		ldr	r2, [r2]
 959 006e 42F00102 		orr	r2, r2, #1
 960 0072 1A60     		str	r2, [r3]
 597:Drivers/STM32F3xx_HAL_Driver/Src/stm32f3xx_hal_tim.c ****   
 598:Drivers/STM32F3xx_HAL_Driver/Src/stm32f3xx_hal_tim.c ****   /* Return function status */
 599:Drivers/STM32F3xx_HAL_Driver/Src/stm32f3xx_hal_tim.c ****   return HAL_OK;
 961              		.loc 1 599 0
 962 0074 0023     		movs	r3, #0
 600:Drivers/STM32F3xx_HAL_Driver/Src/stm32f3xx_hal_tim.c **** }
 963              		.loc 1 600 0
 964 0076 1846     		mov	r0, r3
 965 0078 0837     		adds	r7, r7, #8
 966 007a BD46     		mov	sp, r7
 967              		@ sp needed
 968 007c 80BD     		pop	{r7, pc}
ARM GAS  /tmp/ccZyKULX.s 			page 28


 969              	.L46:
 970 007e 00BF     		.align	2
 971              	.L45:
 972 0080 002C0140 		.word	1073818624
 973 0084 00340140 		.word	1073820672
 974 0088 00400140 		.word	1073823744
 975 008c 00440140 		.word	1073824768
 976 0090 00480140 		.word	1073825792
 977              		.cfi_endproc
 978              	.LFE139:
 980              		.section	.text.HAL_TIM_OC_Stop,"ax",%progbits
 981              		.align	2
 982              		.global	HAL_TIM_OC_Stop
 983              		.thumb
 984              		.thumb_func
 986              	HAL_TIM_OC_Stop:
 987              	.LFB140:
 601:Drivers/STM32F3xx_HAL_Driver/Src/stm32f3xx_hal_tim.c **** 
 602:Drivers/STM32F3xx_HAL_Driver/Src/stm32f3xx_hal_tim.c **** /**
 603:Drivers/STM32F3xx_HAL_Driver/Src/stm32f3xx_hal_tim.c ****   * @brief  Stops the TIM Output Compare signal generation.
 604:Drivers/STM32F3xx_HAL_Driver/Src/stm32f3xx_hal_tim.c ****   * @param  htim: TIM handle
 605:Drivers/STM32F3xx_HAL_Driver/Src/stm32f3xx_hal_tim.c ****   * @param  Channel: TIM Channel to be disabled
 606:Drivers/STM32F3xx_HAL_Driver/Src/stm32f3xx_hal_tim.c ****   *          This parameter can be one of the following values:
 607:Drivers/STM32F3xx_HAL_Driver/Src/stm32f3xx_hal_tim.c ****   *            @arg TIM_CHANNEL_1: TIM Channel 1 selected
 608:Drivers/STM32F3xx_HAL_Driver/Src/stm32f3xx_hal_tim.c ****   *            @arg TIM_CHANNEL_2: TIM Channel 2 selected
 609:Drivers/STM32F3xx_HAL_Driver/Src/stm32f3xx_hal_tim.c ****   *            @arg TIM_CHANNEL_3: TIM Channel 3 selected
 610:Drivers/STM32F3xx_HAL_Driver/Src/stm32f3xx_hal_tim.c ****   *            @arg TIM_CHANNEL_4: TIM Channel 4 selected
 611:Drivers/STM32F3xx_HAL_Driver/Src/stm32f3xx_hal_tim.c ****   * @retval HAL status
 612:Drivers/STM32F3xx_HAL_Driver/Src/stm32f3xx_hal_tim.c **** */
 613:Drivers/STM32F3xx_HAL_Driver/Src/stm32f3xx_hal_tim.c **** HAL_StatusTypeDef HAL_TIM_OC_Stop(TIM_HandleTypeDef *htim, uint32_t Channel)
 614:Drivers/STM32F3xx_HAL_Driver/Src/stm32f3xx_hal_tim.c **** {
 988              		.loc 1 614 0
 989              		.cfi_startproc
 990              		@ args = 0, pretend = 0, frame = 8
 991              		@ frame_needed = 1, uses_anonymous_args = 0
 992 0000 80B5     		push	{r7, lr}
 993              	.LCFI45:
 994              		.cfi_def_cfa_offset 8
 995              		.cfi_offset 7, -8
 996              		.cfi_offset 14, -4
 997 0002 82B0     		sub	sp, sp, #8
 998              	.LCFI46:
 999              		.cfi_def_cfa_offset 16
 1000 0004 00AF     		add	r7, sp, #0
 1001              	.LCFI47:
 1002              		.cfi_def_cfa_register 7
 1003 0006 7860     		str	r0, [r7, #4]
 1004 0008 3960     		str	r1, [r7]
 615:Drivers/STM32F3xx_HAL_Driver/Src/stm32f3xx_hal_tim.c ****   /* Check the parameters */
 616:Drivers/STM32F3xx_HAL_Driver/Src/stm32f3xx_hal_tim.c ****   assert_param(IS_TIM_CCX_INSTANCE(htim->Instance, Channel));
 617:Drivers/STM32F3xx_HAL_Driver/Src/stm32f3xx_hal_tim.c ****   
 618:Drivers/STM32F3xx_HAL_Driver/Src/stm32f3xx_hal_tim.c ****   /* Disable the Output compare channel */
 619:Drivers/STM32F3xx_HAL_Driver/Src/stm32f3xx_hal_tim.c ****   TIM_CCxChannelCmd(htim->Instance, Channel, TIM_CCx_DISABLE);
 1005              		.loc 1 619 0
 1006 000a 7B68     		ldr	r3, [r7, #4]
 1007 000c 1B68     		ldr	r3, [r3]
 1008 000e 1846     		mov	r0, r3
ARM GAS  /tmp/ccZyKULX.s 			page 29


 1009 0010 3968     		ldr	r1, [r7]
 1010 0012 0022     		movs	r2, #0
 1011 0014 FFF7FEFF 		bl	TIM_CCxChannelCmd
 620:Drivers/STM32F3xx_HAL_Driver/Src/stm32f3xx_hal_tim.c ****   
 621:Drivers/STM32F3xx_HAL_Driver/Src/stm32f3xx_hal_tim.c ****   if(IS_TIM_BREAK_INSTANCE(htim->Instance) != RESET)  
 1012              		.loc 1 621 0
 1013 0018 7B68     		ldr	r3, [r7, #4]
 1014 001a 1A68     		ldr	r2, [r3]
 1015 001c 284B     		ldr	r3, .L54
 1016 001e 9A42     		cmp	r2, r3
 1017 0020 13D0     		beq	.L48
 1018              		.loc 1 621 0 is_stmt 0 discriminator 2
 1019 0022 7B68     		ldr	r3, [r7, #4]
 1020 0024 1A68     		ldr	r2, [r3]
 1021 0026 274B     		ldr	r3, .L54+4
 1022 0028 9A42     		cmp	r2, r3
 1023 002a 0ED0     		beq	.L48
 1024              		.loc 1 621 0 discriminator 1
 1025 002c 7B68     		ldr	r3, [r7, #4]
 1026 002e 1A68     		ldr	r2, [r3]
 1027 0030 254B     		ldr	r3, .L54+8
 1028 0032 9A42     		cmp	r2, r3
 1029 0034 09D0     		beq	.L48
 1030 0036 7B68     		ldr	r3, [r7, #4]
 1031 0038 1A68     		ldr	r2, [r3]
 1032 003a 244B     		ldr	r3, .L54+12
 1033 003c 9A42     		cmp	r2, r3
 1034 003e 04D0     		beq	.L48
 1035 0040 7B68     		ldr	r3, [r7, #4]
 1036 0042 1A68     		ldr	r2, [r3]
 1037 0044 224B     		ldr	r3, .L54+16
 1038 0046 9A42     		cmp	r2, r3
 1039 0048 01D1     		bne	.L49
 1040              	.L48:
 1041 004a 0123     		movs	r3, #1
 1042 004c 00E0     		b	.L50
 1043              	.L49:
 1044              		.loc 1 621 0 discriminator 3
 1045 004e 0023     		movs	r3, #0
 1046              	.L50:
 1047              		.loc 1 621 0 discriminator 4
 1048 0050 002B     		cmp	r3, #0
 1049 0052 17D0     		beq	.L51
 622:Drivers/STM32F3xx_HAL_Driver/Src/stm32f3xx_hal_tim.c ****   {
 623:Drivers/STM32F3xx_HAL_Driver/Src/stm32f3xx_hal_tim.c ****     /* Disable the Main Ouput */
 624:Drivers/STM32F3xx_HAL_Driver/Src/stm32f3xx_hal_tim.c ****     __HAL_TIM_MOE_DISABLE(htim);
 1050              		.loc 1 624 0 is_stmt 1
 1051 0054 7B68     		ldr	r3, [r7, #4]
 1052 0056 1B68     		ldr	r3, [r3]
 1053 0058 1A6A     		ldr	r2, [r3, #32]
 1054 005a 41F21113 		movw	r3, #4369
 1055 005e 1340     		ands	r3, r3, r2
 1056 0060 002B     		cmp	r3, #0
 1057 0062 0FD1     		bne	.L51
 1058              		.loc 1 624 0 is_stmt 0 discriminator 1
 1059 0064 7B68     		ldr	r3, [r7, #4]
 1060 0066 1B68     		ldr	r3, [r3]
ARM GAS  /tmp/ccZyKULX.s 			page 30


 1061 0068 1A6A     		ldr	r2, [r3, #32]
 1062 006a 40F24443 		movw	r3, #1092
 1063 006e 1340     		ands	r3, r3, r2
 1064 0070 002B     		cmp	r3, #0
 1065 0072 07D1     		bne	.L51
 1066 0074 7B68     		ldr	r3, [r7, #4]
 1067 0076 1B68     		ldr	r3, [r3]
 1068 0078 7A68     		ldr	r2, [r7, #4]
 1069 007a 1268     		ldr	r2, [r2]
 1070 007c 526C     		ldr	r2, [r2, #68]
 1071 007e 22F40042 		bic	r2, r2, #32768
 1072 0082 5A64     		str	r2, [r3, #68]
 1073              	.L51:
 625:Drivers/STM32F3xx_HAL_Driver/Src/stm32f3xx_hal_tim.c ****   }  
 626:Drivers/STM32F3xx_HAL_Driver/Src/stm32f3xx_hal_tim.c ****   
 627:Drivers/STM32F3xx_HAL_Driver/Src/stm32f3xx_hal_tim.c ****   /* Disable the Peripheral */
 628:Drivers/STM32F3xx_HAL_Driver/Src/stm32f3xx_hal_tim.c ****   __HAL_TIM_DISABLE(htim);  
 1074              		.loc 1 628 0 is_stmt 1
 1075 0084 7B68     		ldr	r3, [r7, #4]
 1076 0086 1B68     		ldr	r3, [r3]
 1077 0088 1A6A     		ldr	r2, [r3, #32]
 1078 008a 41F21113 		movw	r3, #4369
 1079 008e 1340     		ands	r3, r3, r2
 1080 0090 002B     		cmp	r3, #0
 1081 0092 0FD1     		bne	.L52
 1082              		.loc 1 628 0 is_stmt 0 discriminator 1
 1083 0094 7B68     		ldr	r3, [r7, #4]
 1084 0096 1B68     		ldr	r3, [r3]
 1085 0098 1A6A     		ldr	r2, [r3, #32]
 1086 009a 40F24443 		movw	r3, #1092
 1087 009e 1340     		ands	r3, r3, r2
 1088 00a0 002B     		cmp	r3, #0
 1089 00a2 07D1     		bne	.L52
 1090 00a4 7B68     		ldr	r3, [r7, #4]
 1091 00a6 1B68     		ldr	r3, [r3]
 1092 00a8 7A68     		ldr	r2, [r7, #4]
 1093 00aa 1268     		ldr	r2, [r2]
 1094 00ac 1268     		ldr	r2, [r2]
 1095 00ae 22F00102 		bic	r2, r2, #1
 1096 00b2 1A60     		str	r2, [r3]
 1097              	.L52:
 629:Drivers/STM32F3xx_HAL_Driver/Src/stm32f3xx_hal_tim.c ****   
 630:Drivers/STM32F3xx_HAL_Driver/Src/stm32f3xx_hal_tim.c ****   /* Return function status */
 631:Drivers/STM32F3xx_HAL_Driver/Src/stm32f3xx_hal_tim.c ****   return HAL_OK;
 1098              		.loc 1 631 0 is_stmt 1
 1099 00b4 0023     		movs	r3, #0
 632:Drivers/STM32F3xx_HAL_Driver/Src/stm32f3xx_hal_tim.c **** }  
 1100              		.loc 1 632 0
 1101 00b6 1846     		mov	r0, r3
 1102 00b8 0837     		adds	r7, r7, #8
 1103 00ba BD46     		mov	sp, r7
 1104              		@ sp needed
 1105 00bc 80BD     		pop	{r7, pc}
 1106              	.L55:
 1107 00be 00BF     		.align	2
 1108              	.L54:
 1109 00c0 002C0140 		.word	1073818624
ARM GAS  /tmp/ccZyKULX.s 			page 31


 1110 00c4 00340140 		.word	1073820672
 1111 00c8 00400140 		.word	1073823744
 1112 00cc 00440140 		.word	1073824768
 1113 00d0 00480140 		.word	1073825792
 1114              		.cfi_endproc
 1115              	.LFE140:
 1117              		.section	.text.HAL_TIM_OC_Start_IT,"ax",%progbits
 1118              		.align	2
 1119              		.global	HAL_TIM_OC_Start_IT
 1120              		.thumb
 1121              		.thumb_func
 1123              	HAL_TIM_OC_Start_IT:
 1124              	.LFB141:
 633:Drivers/STM32F3xx_HAL_Driver/Src/stm32f3xx_hal_tim.c **** 
 634:Drivers/STM32F3xx_HAL_Driver/Src/stm32f3xx_hal_tim.c **** /**
 635:Drivers/STM32F3xx_HAL_Driver/Src/stm32f3xx_hal_tim.c ****   * @brief  Starts the TIM Output Compare signal generation in interrupt mode.
 636:Drivers/STM32F3xx_HAL_Driver/Src/stm32f3xx_hal_tim.c ****   * @param  htim: TIM OC handle
 637:Drivers/STM32F3xx_HAL_Driver/Src/stm32f3xx_hal_tim.c ****   * @param  Channel: TIM Channel to be enabled
 638:Drivers/STM32F3xx_HAL_Driver/Src/stm32f3xx_hal_tim.c ****   *          This parameter can be one of the following values:
 639:Drivers/STM32F3xx_HAL_Driver/Src/stm32f3xx_hal_tim.c ****   *            @arg TIM_CHANNEL_1: TIM Channel 1 selected
 640:Drivers/STM32F3xx_HAL_Driver/Src/stm32f3xx_hal_tim.c ****   *            @arg TIM_CHANNEL_2: TIM Channel 2 selected
 641:Drivers/STM32F3xx_HAL_Driver/Src/stm32f3xx_hal_tim.c ****   *            @arg TIM_CHANNEL_3: TIM Channel 3 selected
 642:Drivers/STM32F3xx_HAL_Driver/Src/stm32f3xx_hal_tim.c ****   *            @arg TIM_CHANNEL_4: TIM Channel 4 selected
 643:Drivers/STM32F3xx_HAL_Driver/Src/stm32f3xx_hal_tim.c ****   * @retval HAL status
 644:Drivers/STM32F3xx_HAL_Driver/Src/stm32f3xx_hal_tim.c **** */
 645:Drivers/STM32F3xx_HAL_Driver/Src/stm32f3xx_hal_tim.c **** HAL_StatusTypeDef HAL_TIM_OC_Start_IT(TIM_HandleTypeDef *htim, uint32_t Channel)
 646:Drivers/STM32F3xx_HAL_Driver/Src/stm32f3xx_hal_tim.c **** {
 1125              		.loc 1 646 0
 1126              		.cfi_startproc
 1127              		@ args = 0, pretend = 0, frame = 8
 1128              		@ frame_needed = 1, uses_anonymous_args = 0
 1129 0000 80B5     		push	{r7, lr}
 1130              	.LCFI48:
 1131              		.cfi_def_cfa_offset 8
 1132              		.cfi_offset 7, -8
 1133              		.cfi_offset 14, -4
 1134 0002 82B0     		sub	sp, sp, #8
 1135              	.LCFI49:
 1136              		.cfi_def_cfa_offset 16
 1137 0004 00AF     		add	r7, sp, #0
 1138              	.LCFI50:
 1139              		.cfi_def_cfa_register 7
 1140 0006 7860     		str	r0, [r7, #4]
 1141 0008 3960     		str	r1, [r7]
 647:Drivers/STM32F3xx_HAL_Driver/Src/stm32f3xx_hal_tim.c ****   /* Check the parameters */
 648:Drivers/STM32F3xx_HAL_Driver/Src/stm32f3xx_hal_tim.c ****   assert_param(IS_TIM_CCX_INSTANCE(htim->Instance, Channel));
 649:Drivers/STM32F3xx_HAL_Driver/Src/stm32f3xx_hal_tim.c ****   
 650:Drivers/STM32F3xx_HAL_Driver/Src/stm32f3xx_hal_tim.c ****   switch (Channel)
 1142              		.loc 1 650 0
 1143 000a 3B68     		ldr	r3, [r7]
 1144 000c 0C2B     		cmp	r3, #12
 1145 000e 41D8     		bhi	.L69
 1146 0010 01A2     		adr	r2, .L59
 1147 0012 52F823F0 		ldr	pc, [r2, r3, lsl #2]
 1148 0016 00BF     		.p2align 2
 1149              	.L59:
 1150 0018 4D000000 		.word	.L58+1
ARM GAS  /tmp/ccZyKULX.s 			page 32


 1151 001c 95000000 		.word	.L69+1
 1152 0020 95000000 		.word	.L69+1
 1153 0024 95000000 		.word	.L69+1
 1154 0028 5F000000 		.word	.L60+1
 1155 002c 95000000 		.word	.L69+1
 1156 0030 95000000 		.word	.L69+1
 1157 0034 95000000 		.word	.L69+1
 1158 0038 71000000 		.word	.L61+1
 1159 003c 95000000 		.word	.L69+1
 1160 0040 95000000 		.word	.L69+1
 1161 0044 95000000 		.word	.L69+1
 1162 0048 83000000 		.word	.L62+1
 1163              		.p2align 1
 1164              	.L58:
 651:Drivers/STM32F3xx_HAL_Driver/Src/stm32f3xx_hal_tim.c ****   {
 652:Drivers/STM32F3xx_HAL_Driver/Src/stm32f3xx_hal_tim.c ****     case TIM_CHANNEL_1:
 653:Drivers/STM32F3xx_HAL_Driver/Src/stm32f3xx_hal_tim.c ****     {       
 654:Drivers/STM32F3xx_HAL_Driver/Src/stm32f3xx_hal_tim.c ****       /* Enable the TIM Capture/Compare 1 interrupt */
 655:Drivers/STM32F3xx_HAL_Driver/Src/stm32f3xx_hal_tim.c ****       __HAL_TIM_ENABLE_IT(htim, TIM_IT_CC1);
 1165              		.loc 1 655 0
 1166 004c 7B68     		ldr	r3, [r7, #4]
 1167 004e 1B68     		ldr	r3, [r3]
 1168 0050 7A68     		ldr	r2, [r7, #4]
 1169 0052 1268     		ldr	r2, [r2]
 1170 0054 D268     		ldr	r2, [r2, #12]
 1171 0056 42F00202 		orr	r2, r2, #2
 1172 005a DA60     		str	r2, [r3, #12]
 656:Drivers/STM32F3xx_HAL_Driver/Src/stm32f3xx_hal_tim.c ****     }
 657:Drivers/STM32F3xx_HAL_Driver/Src/stm32f3xx_hal_tim.c ****     break;
 1173              		.loc 1 657 0
 1174 005c 1BE0     		b	.L63
 1175              	.L60:
 658:Drivers/STM32F3xx_HAL_Driver/Src/stm32f3xx_hal_tim.c ****     
 659:Drivers/STM32F3xx_HAL_Driver/Src/stm32f3xx_hal_tim.c ****     case TIM_CHANNEL_2:
 660:Drivers/STM32F3xx_HAL_Driver/Src/stm32f3xx_hal_tim.c ****     {
 661:Drivers/STM32F3xx_HAL_Driver/Src/stm32f3xx_hal_tim.c ****       /* Enable the TIM Capture/Compare 2 interrupt */
 662:Drivers/STM32F3xx_HAL_Driver/Src/stm32f3xx_hal_tim.c ****       __HAL_TIM_ENABLE_IT(htim, TIM_IT_CC2);
 1176              		.loc 1 662 0
 1177 005e 7B68     		ldr	r3, [r7, #4]
 1178 0060 1B68     		ldr	r3, [r3]
 1179 0062 7A68     		ldr	r2, [r7, #4]
 1180 0064 1268     		ldr	r2, [r2]
 1181 0066 D268     		ldr	r2, [r2, #12]
 1182 0068 42F00402 		orr	r2, r2, #4
 1183 006c DA60     		str	r2, [r3, #12]
 663:Drivers/STM32F3xx_HAL_Driver/Src/stm32f3xx_hal_tim.c ****     }
 664:Drivers/STM32F3xx_HAL_Driver/Src/stm32f3xx_hal_tim.c ****     break;
 1184              		.loc 1 664 0
 1185 006e 12E0     		b	.L63
 1186              	.L61:
 665:Drivers/STM32F3xx_HAL_Driver/Src/stm32f3xx_hal_tim.c ****     
 666:Drivers/STM32F3xx_HAL_Driver/Src/stm32f3xx_hal_tim.c ****     case TIM_CHANNEL_3:
 667:Drivers/STM32F3xx_HAL_Driver/Src/stm32f3xx_hal_tim.c ****     {
 668:Drivers/STM32F3xx_HAL_Driver/Src/stm32f3xx_hal_tim.c ****       /* Enable the TIM Capture/Compare 3 interrupt */
 669:Drivers/STM32F3xx_HAL_Driver/Src/stm32f3xx_hal_tim.c ****       __HAL_TIM_ENABLE_IT(htim, TIM_IT_CC3);
 1187              		.loc 1 669 0
 1188 0070 7B68     		ldr	r3, [r7, #4]
ARM GAS  /tmp/ccZyKULX.s 			page 33


 1189 0072 1B68     		ldr	r3, [r3]
 1190 0074 7A68     		ldr	r2, [r7, #4]
 1191 0076 1268     		ldr	r2, [r2]
 1192 0078 D268     		ldr	r2, [r2, #12]
 1193 007a 42F00802 		orr	r2, r2, #8
 1194 007e DA60     		str	r2, [r3, #12]
 670:Drivers/STM32F3xx_HAL_Driver/Src/stm32f3xx_hal_tim.c ****     }
 671:Drivers/STM32F3xx_HAL_Driver/Src/stm32f3xx_hal_tim.c ****     break;
 1195              		.loc 1 671 0
 1196 0080 09E0     		b	.L63
 1197              	.L62:
 672:Drivers/STM32F3xx_HAL_Driver/Src/stm32f3xx_hal_tim.c ****     
 673:Drivers/STM32F3xx_HAL_Driver/Src/stm32f3xx_hal_tim.c ****     case TIM_CHANNEL_4:
 674:Drivers/STM32F3xx_HAL_Driver/Src/stm32f3xx_hal_tim.c ****     {
 675:Drivers/STM32F3xx_HAL_Driver/Src/stm32f3xx_hal_tim.c ****       /* Enable the TIM Capture/Compare 4 interrupt */
 676:Drivers/STM32F3xx_HAL_Driver/Src/stm32f3xx_hal_tim.c ****       __HAL_TIM_ENABLE_IT(htim, TIM_IT_CC4);
 1198              		.loc 1 676 0
 1199 0082 7B68     		ldr	r3, [r7, #4]
 1200 0084 1B68     		ldr	r3, [r3]
 1201 0086 7A68     		ldr	r2, [r7, #4]
 1202 0088 1268     		ldr	r2, [r2]
 1203 008a D268     		ldr	r2, [r2, #12]
 1204 008c 42F01002 		orr	r2, r2, #16
 1205 0090 DA60     		str	r2, [r3, #12]
 677:Drivers/STM32F3xx_HAL_Driver/Src/stm32f3xx_hal_tim.c ****     }
 678:Drivers/STM32F3xx_HAL_Driver/Src/stm32f3xx_hal_tim.c ****     break;
 1206              		.loc 1 678 0
 1207 0092 00E0     		b	.L63
 1208              	.L69:
 679:Drivers/STM32F3xx_HAL_Driver/Src/stm32f3xx_hal_tim.c ****     
 680:Drivers/STM32F3xx_HAL_Driver/Src/stm32f3xx_hal_tim.c ****     default:
 681:Drivers/STM32F3xx_HAL_Driver/Src/stm32f3xx_hal_tim.c ****     break;
 1209              		.loc 1 681 0
 1210 0094 00BF     		nop
 1211              	.L63:
 682:Drivers/STM32F3xx_HAL_Driver/Src/stm32f3xx_hal_tim.c ****   } 
 683:Drivers/STM32F3xx_HAL_Driver/Src/stm32f3xx_hal_tim.c **** 
 684:Drivers/STM32F3xx_HAL_Driver/Src/stm32f3xx_hal_tim.c ****   /* Enable the Output compare channel */
 685:Drivers/STM32F3xx_HAL_Driver/Src/stm32f3xx_hal_tim.c ****   TIM_CCxChannelCmd(htim->Instance, Channel, TIM_CCx_ENABLE);
 1212              		.loc 1 685 0
 1213 0096 7B68     		ldr	r3, [r7, #4]
 1214 0098 1B68     		ldr	r3, [r3]
 1215 009a 1846     		mov	r0, r3
 1216 009c 3968     		ldr	r1, [r7]
 1217 009e 0122     		movs	r2, #1
 1218 00a0 FFF7FEFF 		bl	TIM_CCxChannelCmd
 686:Drivers/STM32F3xx_HAL_Driver/Src/stm32f3xx_hal_tim.c ****   
 687:Drivers/STM32F3xx_HAL_Driver/Src/stm32f3xx_hal_tim.c ****   if(IS_TIM_BREAK_INSTANCE(htim->Instance) != RESET)  
 1219              		.loc 1 687 0
 1220 00a4 7B68     		ldr	r3, [r7, #4]
 1221 00a6 1A68     		ldr	r2, [r3]
 1222 00a8 184B     		ldr	r3, .L70
 1223 00aa 9A42     		cmp	r2, r3
 1224 00ac 13D0     		beq	.L64
 1225              		.loc 1 687 0 is_stmt 0 discriminator 2
 1226 00ae 7B68     		ldr	r3, [r7, #4]
 1227 00b0 1A68     		ldr	r2, [r3]
ARM GAS  /tmp/ccZyKULX.s 			page 34


 1228 00b2 174B     		ldr	r3, .L70+4
 1229 00b4 9A42     		cmp	r2, r3
 1230 00b6 0ED0     		beq	.L64
 1231              		.loc 1 687 0 discriminator 1
 1232 00b8 7B68     		ldr	r3, [r7, #4]
 1233 00ba 1A68     		ldr	r2, [r3]
 1234 00bc 154B     		ldr	r3, .L70+8
 1235 00be 9A42     		cmp	r2, r3
 1236 00c0 09D0     		beq	.L64
 1237 00c2 7B68     		ldr	r3, [r7, #4]
 1238 00c4 1A68     		ldr	r2, [r3]
 1239 00c6 144B     		ldr	r3, .L70+12
 1240 00c8 9A42     		cmp	r2, r3
 1241 00ca 04D0     		beq	.L64
 1242 00cc 7B68     		ldr	r3, [r7, #4]
 1243 00ce 1A68     		ldr	r2, [r3]
 1244 00d0 124B     		ldr	r3, .L70+16
 1245 00d2 9A42     		cmp	r2, r3
 1246 00d4 01D1     		bne	.L65
 1247              	.L64:
 1248 00d6 0123     		movs	r3, #1
 1249 00d8 00E0     		b	.L66
 1250              	.L65:
 1251              		.loc 1 687 0 discriminator 3
 1252 00da 0023     		movs	r3, #0
 1253              	.L66:
 1254              		.loc 1 687 0 discriminator 4
 1255 00dc 002B     		cmp	r3, #0
 1256 00de 07D0     		beq	.L67
 688:Drivers/STM32F3xx_HAL_Driver/Src/stm32f3xx_hal_tim.c ****   {
 689:Drivers/STM32F3xx_HAL_Driver/Src/stm32f3xx_hal_tim.c ****     /* Enable the main output */
 690:Drivers/STM32F3xx_HAL_Driver/Src/stm32f3xx_hal_tim.c ****     __HAL_TIM_MOE_ENABLE(htim);
 1257              		.loc 1 690 0 is_stmt 1
 1258 00e0 7B68     		ldr	r3, [r7, #4]
 1259 00e2 1B68     		ldr	r3, [r3]
 1260 00e4 7A68     		ldr	r2, [r7, #4]
 1261 00e6 1268     		ldr	r2, [r2]
 1262 00e8 526C     		ldr	r2, [r2, #68]
 1263 00ea 42F40042 		orr	r2, r2, #32768
 1264 00ee 5A64     		str	r2, [r3, #68]
 1265              	.L67:
 691:Drivers/STM32F3xx_HAL_Driver/Src/stm32f3xx_hal_tim.c ****   }
 692:Drivers/STM32F3xx_HAL_Driver/Src/stm32f3xx_hal_tim.c **** 
 693:Drivers/STM32F3xx_HAL_Driver/Src/stm32f3xx_hal_tim.c ****   /* Enable the Peripheral */
 694:Drivers/STM32F3xx_HAL_Driver/Src/stm32f3xx_hal_tim.c ****   __HAL_TIM_ENABLE(htim);
 1266              		.loc 1 694 0
 1267 00f0 7B68     		ldr	r3, [r7, #4]
 1268 00f2 1B68     		ldr	r3, [r3]
 1269 00f4 7A68     		ldr	r2, [r7, #4]
 1270 00f6 1268     		ldr	r2, [r2]
 1271 00f8 1268     		ldr	r2, [r2]
 1272 00fa 42F00102 		orr	r2, r2, #1
 1273 00fe 1A60     		str	r2, [r3]
 695:Drivers/STM32F3xx_HAL_Driver/Src/stm32f3xx_hal_tim.c ****   
 696:Drivers/STM32F3xx_HAL_Driver/Src/stm32f3xx_hal_tim.c ****   /* Return function status */
 697:Drivers/STM32F3xx_HAL_Driver/Src/stm32f3xx_hal_tim.c ****   return HAL_OK;
 1274              		.loc 1 697 0
ARM GAS  /tmp/ccZyKULX.s 			page 35


 1275 0100 0023     		movs	r3, #0
 698:Drivers/STM32F3xx_HAL_Driver/Src/stm32f3xx_hal_tim.c **** }
 1276              		.loc 1 698 0
 1277 0102 1846     		mov	r0, r3
 1278 0104 0837     		adds	r7, r7, #8
 1279 0106 BD46     		mov	sp, r7
 1280              		@ sp needed
 1281 0108 80BD     		pop	{r7, pc}
 1282              	.L71:
 1283 010a 00BF     		.align	2
 1284              	.L70:
 1285 010c 002C0140 		.word	1073818624
 1286 0110 00340140 		.word	1073820672
 1287 0114 00400140 		.word	1073823744
 1288 0118 00440140 		.word	1073824768
 1289 011c 00480140 		.word	1073825792
 1290              		.cfi_endproc
 1291              	.LFE141:
 1293              		.section	.text.HAL_TIM_OC_Stop_IT,"ax",%progbits
 1294              		.align	2
 1295              		.global	HAL_TIM_OC_Stop_IT
 1296              		.thumb
 1297              		.thumb_func
 1299              	HAL_TIM_OC_Stop_IT:
 1300              	.LFB142:
 699:Drivers/STM32F3xx_HAL_Driver/Src/stm32f3xx_hal_tim.c **** 
 700:Drivers/STM32F3xx_HAL_Driver/Src/stm32f3xx_hal_tim.c **** /**
 701:Drivers/STM32F3xx_HAL_Driver/Src/stm32f3xx_hal_tim.c ****   * @brief  Stops the TIM Output Compare signal generation in interrupt mode.
 702:Drivers/STM32F3xx_HAL_Driver/Src/stm32f3xx_hal_tim.c ****   * @param  htim: TIM Output Compare handle
 703:Drivers/STM32F3xx_HAL_Driver/Src/stm32f3xx_hal_tim.c ****   * @param  Channel: TIM Channel to be disabled
 704:Drivers/STM32F3xx_HAL_Driver/Src/stm32f3xx_hal_tim.c ****   *          This parameter can be one of the following values:
 705:Drivers/STM32F3xx_HAL_Driver/Src/stm32f3xx_hal_tim.c ****   *            @arg TIM_CHANNEL_1: TIM Channel 1 selected
 706:Drivers/STM32F3xx_HAL_Driver/Src/stm32f3xx_hal_tim.c ****   *            @arg TIM_CHANNEL_2: TIM Channel 2 selected
 707:Drivers/STM32F3xx_HAL_Driver/Src/stm32f3xx_hal_tim.c ****   *            @arg TIM_CHANNEL_3: TIM Channel 3 selected
 708:Drivers/STM32F3xx_HAL_Driver/Src/stm32f3xx_hal_tim.c ****   *            @arg TIM_CHANNEL_4: TIM Channel 4 selected
 709:Drivers/STM32F3xx_HAL_Driver/Src/stm32f3xx_hal_tim.c ****   * @retval HAL status
 710:Drivers/STM32F3xx_HAL_Driver/Src/stm32f3xx_hal_tim.c **** */
 711:Drivers/STM32F3xx_HAL_Driver/Src/stm32f3xx_hal_tim.c **** HAL_StatusTypeDef HAL_TIM_OC_Stop_IT(TIM_HandleTypeDef *htim, uint32_t Channel)
 712:Drivers/STM32F3xx_HAL_Driver/Src/stm32f3xx_hal_tim.c **** {
 1301              		.loc 1 712 0
 1302              		.cfi_startproc
 1303              		@ args = 0, pretend = 0, frame = 8
 1304              		@ frame_needed = 1, uses_anonymous_args = 0
 1305 0000 80B5     		push	{r7, lr}
 1306              	.LCFI51:
 1307              		.cfi_def_cfa_offset 8
 1308              		.cfi_offset 7, -8
 1309              		.cfi_offset 14, -4
 1310 0002 82B0     		sub	sp, sp, #8
 1311              	.LCFI52:
 1312              		.cfi_def_cfa_offset 16
 1313 0004 00AF     		add	r7, sp, #0
 1314              	.LCFI53:
 1315              		.cfi_def_cfa_register 7
 1316 0006 7860     		str	r0, [r7, #4]
 1317 0008 3960     		str	r1, [r7]
 713:Drivers/STM32F3xx_HAL_Driver/Src/stm32f3xx_hal_tim.c ****   /* Check the parameters */
ARM GAS  /tmp/ccZyKULX.s 			page 36


 714:Drivers/STM32F3xx_HAL_Driver/Src/stm32f3xx_hal_tim.c ****   assert_param(IS_TIM_CCX_INSTANCE(htim->Instance, Channel));
 715:Drivers/STM32F3xx_HAL_Driver/Src/stm32f3xx_hal_tim.c ****   
 716:Drivers/STM32F3xx_HAL_Driver/Src/stm32f3xx_hal_tim.c ****   switch (Channel)
 1318              		.loc 1 716 0
 1319 000a 3B68     		ldr	r3, [r7]
 1320 000c 0C2B     		cmp	r3, #12
 1321 000e 41D8     		bhi	.L86
 1322 0010 01A2     		adr	r2, .L75
 1323 0012 52F823F0 		ldr	pc, [r2, r3, lsl #2]
 1324 0016 00BF     		.p2align 2
 1325              	.L75:
 1326 0018 4D000000 		.word	.L74+1
 1327 001c 95000000 		.word	.L86+1
 1328 0020 95000000 		.word	.L86+1
 1329 0024 95000000 		.word	.L86+1
 1330 0028 5F000000 		.word	.L76+1
 1331 002c 95000000 		.word	.L86+1
 1332 0030 95000000 		.word	.L86+1
 1333 0034 95000000 		.word	.L86+1
 1334 0038 71000000 		.word	.L77+1
 1335 003c 95000000 		.word	.L86+1
 1336 0040 95000000 		.word	.L86+1
 1337 0044 95000000 		.word	.L86+1
 1338 0048 83000000 		.word	.L78+1
 1339              		.p2align 1
 1340              	.L74:
 717:Drivers/STM32F3xx_HAL_Driver/Src/stm32f3xx_hal_tim.c ****   {
 718:Drivers/STM32F3xx_HAL_Driver/Src/stm32f3xx_hal_tim.c ****     case TIM_CHANNEL_1:
 719:Drivers/STM32F3xx_HAL_Driver/Src/stm32f3xx_hal_tim.c ****     {       
 720:Drivers/STM32F3xx_HAL_Driver/Src/stm32f3xx_hal_tim.c ****       /* Disable the TIM Capture/Compare 1 interrupt */
 721:Drivers/STM32F3xx_HAL_Driver/Src/stm32f3xx_hal_tim.c ****       __HAL_TIM_DISABLE_IT(htim, TIM_IT_CC1);
 1341              		.loc 1 721 0
 1342 004c 7B68     		ldr	r3, [r7, #4]
 1343 004e 1B68     		ldr	r3, [r3]
 1344 0050 7A68     		ldr	r2, [r7, #4]
 1345 0052 1268     		ldr	r2, [r2]
 1346 0054 D268     		ldr	r2, [r2, #12]
 1347 0056 22F00202 		bic	r2, r2, #2
 1348 005a DA60     		str	r2, [r3, #12]
 722:Drivers/STM32F3xx_HAL_Driver/Src/stm32f3xx_hal_tim.c ****     }
 723:Drivers/STM32F3xx_HAL_Driver/Src/stm32f3xx_hal_tim.c ****     break;
 1349              		.loc 1 723 0
 1350 005c 1BE0     		b	.L79
 1351              	.L76:
 724:Drivers/STM32F3xx_HAL_Driver/Src/stm32f3xx_hal_tim.c ****     
 725:Drivers/STM32F3xx_HAL_Driver/Src/stm32f3xx_hal_tim.c ****     case TIM_CHANNEL_2:
 726:Drivers/STM32F3xx_HAL_Driver/Src/stm32f3xx_hal_tim.c ****     {
 727:Drivers/STM32F3xx_HAL_Driver/Src/stm32f3xx_hal_tim.c ****       /* Disable the TIM Capture/Compare 2 interrupt */
 728:Drivers/STM32F3xx_HAL_Driver/Src/stm32f3xx_hal_tim.c ****       __HAL_TIM_DISABLE_IT(htim, TIM_IT_CC2);
 1352              		.loc 1 728 0
 1353 005e 7B68     		ldr	r3, [r7, #4]
 1354 0060 1B68     		ldr	r3, [r3]
 1355 0062 7A68     		ldr	r2, [r7, #4]
 1356 0064 1268     		ldr	r2, [r2]
 1357 0066 D268     		ldr	r2, [r2, #12]
 1358 0068 22F00402 		bic	r2, r2, #4
 1359 006c DA60     		str	r2, [r3, #12]
ARM GAS  /tmp/ccZyKULX.s 			page 37


 729:Drivers/STM32F3xx_HAL_Driver/Src/stm32f3xx_hal_tim.c ****     }
 730:Drivers/STM32F3xx_HAL_Driver/Src/stm32f3xx_hal_tim.c ****     break;
 1360              		.loc 1 730 0
 1361 006e 12E0     		b	.L79
 1362              	.L77:
 731:Drivers/STM32F3xx_HAL_Driver/Src/stm32f3xx_hal_tim.c ****     
 732:Drivers/STM32F3xx_HAL_Driver/Src/stm32f3xx_hal_tim.c ****     case TIM_CHANNEL_3:
 733:Drivers/STM32F3xx_HAL_Driver/Src/stm32f3xx_hal_tim.c ****     {
 734:Drivers/STM32F3xx_HAL_Driver/Src/stm32f3xx_hal_tim.c ****       /* Disable the TIM Capture/Compare 3 interrupt */
 735:Drivers/STM32F3xx_HAL_Driver/Src/stm32f3xx_hal_tim.c ****       __HAL_TIM_DISABLE_IT(htim, TIM_IT_CC3);
 1363              		.loc 1 735 0
 1364 0070 7B68     		ldr	r3, [r7, #4]
 1365 0072 1B68     		ldr	r3, [r3]
 1366 0074 7A68     		ldr	r2, [r7, #4]
 1367 0076 1268     		ldr	r2, [r2]
 1368 0078 D268     		ldr	r2, [r2, #12]
 1369 007a 22F00802 		bic	r2, r2, #8
 1370 007e DA60     		str	r2, [r3, #12]
 736:Drivers/STM32F3xx_HAL_Driver/Src/stm32f3xx_hal_tim.c ****     }
 737:Drivers/STM32F3xx_HAL_Driver/Src/stm32f3xx_hal_tim.c ****     break;
 1371              		.loc 1 737 0
 1372 0080 09E0     		b	.L79
 1373              	.L78:
 738:Drivers/STM32F3xx_HAL_Driver/Src/stm32f3xx_hal_tim.c ****     
 739:Drivers/STM32F3xx_HAL_Driver/Src/stm32f3xx_hal_tim.c ****     case TIM_CHANNEL_4:
 740:Drivers/STM32F3xx_HAL_Driver/Src/stm32f3xx_hal_tim.c ****     {
 741:Drivers/STM32F3xx_HAL_Driver/Src/stm32f3xx_hal_tim.c ****       /* Disable the TIM Capture/Compare 4 interrupt */
 742:Drivers/STM32F3xx_HAL_Driver/Src/stm32f3xx_hal_tim.c ****       __HAL_TIM_DISABLE_IT(htim, TIM_IT_CC4);
 1374              		.loc 1 742 0
 1375 0082 7B68     		ldr	r3, [r7, #4]
 1376 0084 1B68     		ldr	r3, [r3]
 1377 0086 7A68     		ldr	r2, [r7, #4]
 1378 0088 1268     		ldr	r2, [r2]
 1379 008a D268     		ldr	r2, [r2, #12]
 1380 008c 22F01002 		bic	r2, r2, #16
 1381 0090 DA60     		str	r2, [r3, #12]
 743:Drivers/STM32F3xx_HAL_Driver/Src/stm32f3xx_hal_tim.c ****     }
 744:Drivers/STM32F3xx_HAL_Driver/Src/stm32f3xx_hal_tim.c ****     break;
 1382              		.loc 1 744 0
 1383 0092 00E0     		b	.L79
 1384              	.L86:
 745:Drivers/STM32F3xx_HAL_Driver/Src/stm32f3xx_hal_tim.c ****     
 746:Drivers/STM32F3xx_HAL_Driver/Src/stm32f3xx_hal_tim.c ****     default:
 747:Drivers/STM32F3xx_HAL_Driver/Src/stm32f3xx_hal_tim.c ****     break; 
 1385              		.loc 1 747 0
 1386 0094 00BF     		nop
 1387              	.L79:
 748:Drivers/STM32F3xx_HAL_Driver/Src/stm32f3xx_hal_tim.c ****   } 
 749:Drivers/STM32F3xx_HAL_Driver/Src/stm32f3xx_hal_tim.c ****   
 750:Drivers/STM32F3xx_HAL_Driver/Src/stm32f3xx_hal_tim.c ****   /* Disable the Output compare channel */
 751:Drivers/STM32F3xx_HAL_Driver/Src/stm32f3xx_hal_tim.c ****   TIM_CCxChannelCmd(htim->Instance, Channel, TIM_CCx_DISABLE); 
 1388              		.loc 1 751 0
 1389 0096 7B68     		ldr	r3, [r7, #4]
 1390 0098 1B68     		ldr	r3, [r3]
 1391 009a 1846     		mov	r0, r3
 1392 009c 3968     		ldr	r1, [r7]
 1393 009e 0022     		movs	r2, #0
ARM GAS  /tmp/ccZyKULX.s 			page 38


 1394 00a0 FFF7FEFF 		bl	TIM_CCxChannelCmd
 752:Drivers/STM32F3xx_HAL_Driver/Src/stm32f3xx_hal_tim.c ****   
 753:Drivers/STM32F3xx_HAL_Driver/Src/stm32f3xx_hal_tim.c ****   if(IS_TIM_BREAK_INSTANCE(htim->Instance) != RESET)  
 1395              		.loc 1 753 0
 1396 00a4 7B68     		ldr	r3, [r7, #4]
 1397 00a6 1A68     		ldr	r2, [r3]
 1398 00a8 284B     		ldr	r3, .L87
 1399 00aa 9A42     		cmp	r2, r3
 1400 00ac 13D0     		beq	.L80
 1401              		.loc 1 753 0 is_stmt 0 discriminator 2
 1402 00ae 7B68     		ldr	r3, [r7, #4]
 1403 00b0 1A68     		ldr	r2, [r3]
 1404 00b2 274B     		ldr	r3, .L87+4
 1405 00b4 9A42     		cmp	r2, r3
 1406 00b6 0ED0     		beq	.L80
 1407              		.loc 1 753 0 discriminator 1
 1408 00b8 7B68     		ldr	r3, [r7, #4]
 1409 00ba 1A68     		ldr	r2, [r3]
 1410 00bc 254B     		ldr	r3, .L87+8
 1411 00be 9A42     		cmp	r2, r3
 1412 00c0 09D0     		beq	.L80
 1413 00c2 7B68     		ldr	r3, [r7, #4]
 1414 00c4 1A68     		ldr	r2, [r3]
 1415 00c6 244B     		ldr	r3, .L87+12
 1416 00c8 9A42     		cmp	r2, r3
 1417 00ca 04D0     		beq	.L80
 1418 00cc 7B68     		ldr	r3, [r7, #4]
 1419 00ce 1A68     		ldr	r2, [r3]
 1420 00d0 224B     		ldr	r3, .L87+16
 1421 00d2 9A42     		cmp	r2, r3
 1422 00d4 01D1     		bne	.L81
 1423              	.L80:
 1424 00d6 0123     		movs	r3, #1
 1425 00d8 00E0     		b	.L82
 1426              	.L81:
 1427              		.loc 1 753 0 discriminator 3
 1428 00da 0023     		movs	r3, #0
 1429              	.L82:
 1430              		.loc 1 753 0 discriminator 4
 1431 00dc 002B     		cmp	r3, #0
 1432 00de 17D0     		beq	.L83
 754:Drivers/STM32F3xx_HAL_Driver/Src/stm32f3xx_hal_tim.c ****   {
 755:Drivers/STM32F3xx_HAL_Driver/Src/stm32f3xx_hal_tim.c ****     /* Disable the Main Ouput */
 756:Drivers/STM32F3xx_HAL_Driver/Src/stm32f3xx_hal_tim.c ****     __HAL_TIM_MOE_DISABLE(htim);
 1433              		.loc 1 756 0 is_stmt 1
 1434 00e0 7B68     		ldr	r3, [r7, #4]
 1435 00e2 1B68     		ldr	r3, [r3]
 1436 00e4 1A6A     		ldr	r2, [r3, #32]
 1437 00e6 41F21113 		movw	r3, #4369
 1438 00ea 1340     		ands	r3, r3, r2
 1439 00ec 002B     		cmp	r3, #0
 1440 00ee 0FD1     		bne	.L83
 1441              		.loc 1 756 0 is_stmt 0 discriminator 1
 1442 00f0 7B68     		ldr	r3, [r7, #4]
 1443 00f2 1B68     		ldr	r3, [r3]
 1444 00f4 1A6A     		ldr	r2, [r3, #32]
 1445 00f6 40F24443 		movw	r3, #1092
ARM GAS  /tmp/ccZyKULX.s 			page 39


 1446 00fa 1340     		ands	r3, r3, r2
 1447 00fc 002B     		cmp	r3, #0
 1448 00fe 07D1     		bne	.L83
 1449 0100 7B68     		ldr	r3, [r7, #4]
 1450 0102 1B68     		ldr	r3, [r3]
 1451 0104 7A68     		ldr	r2, [r7, #4]
 1452 0106 1268     		ldr	r2, [r2]
 1453 0108 526C     		ldr	r2, [r2, #68]
 1454 010a 22F40042 		bic	r2, r2, #32768
 1455 010e 5A64     		str	r2, [r3, #68]
 1456              	.L83:
 757:Drivers/STM32F3xx_HAL_Driver/Src/stm32f3xx_hal_tim.c ****   }
 758:Drivers/STM32F3xx_HAL_Driver/Src/stm32f3xx_hal_tim.c ****   
 759:Drivers/STM32F3xx_HAL_Driver/Src/stm32f3xx_hal_tim.c ****   /* Disable the Peripheral */
 760:Drivers/STM32F3xx_HAL_Driver/Src/stm32f3xx_hal_tim.c ****   __HAL_TIM_DISABLE(htim);  
 1457              		.loc 1 760 0 is_stmt 1
 1458 0110 7B68     		ldr	r3, [r7, #4]
 1459 0112 1B68     		ldr	r3, [r3]
 1460 0114 1A6A     		ldr	r2, [r3, #32]
 1461 0116 41F21113 		movw	r3, #4369
 1462 011a 1340     		ands	r3, r3, r2
 1463 011c 002B     		cmp	r3, #0
 1464 011e 0FD1     		bne	.L84
 1465              		.loc 1 760 0 is_stmt 0 discriminator 1
 1466 0120 7B68     		ldr	r3, [r7, #4]
 1467 0122 1B68     		ldr	r3, [r3]
 1468 0124 1A6A     		ldr	r2, [r3, #32]
 1469 0126 40F24443 		movw	r3, #1092
 1470 012a 1340     		ands	r3, r3, r2
 1471 012c 002B     		cmp	r3, #0
 1472 012e 07D1     		bne	.L84
 1473 0130 7B68     		ldr	r3, [r7, #4]
 1474 0132 1B68     		ldr	r3, [r3]
 1475 0134 7A68     		ldr	r2, [r7, #4]
 1476 0136 1268     		ldr	r2, [r2]
 1477 0138 1268     		ldr	r2, [r2]
 1478 013a 22F00102 		bic	r2, r2, #1
 1479 013e 1A60     		str	r2, [r3]
 1480              	.L84:
 761:Drivers/STM32F3xx_HAL_Driver/Src/stm32f3xx_hal_tim.c ****   
 762:Drivers/STM32F3xx_HAL_Driver/Src/stm32f3xx_hal_tim.c ****   /* Return function status */
 763:Drivers/STM32F3xx_HAL_Driver/Src/stm32f3xx_hal_tim.c ****   return HAL_OK;
 1481              		.loc 1 763 0 is_stmt 1
 1482 0140 0023     		movs	r3, #0
 764:Drivers/STM32F3xx_HAL_Driver/Src/stm32f3xx_hal_tim.c **** }
 1483              		.loc 1 764 0
 1484 0142 1846     		mov	r0, r3
 1485 0144 0837     		adds	r7, r7, #8
 1486 0146 BD46     		mov	sp, r7
 1487              		@ sp needed
 1488 0148 80BD     		pop	{r7, pc}
 1489              	.L88:
 1490 014a 00BF     		.align	2
 1491              	.L87:
 1492 014c 002C0140 		.word	1073818624
 1493 0150 00340140 		.word	1073820672
 1494 0154 00400140 		.word	1073823744
ARM GAS  /tmp/ccZyKULX.s 			page 40


 1495 0158 00440140 		.word	1073824768
 1496 015c 00480140 		.word	1073825792
 1497              		.cfi_endproc
 1498              	.LFE142:
 1500              		.section	.text.HAL_TIM_OC_Start_DMA,"ax",%progbits
 1501              		.align	2
 1502              		.global	HAL_TIM_OC_Start_DMA
 1503              		.thumb
 1504              		.thumb_func
 1506              	HAL_TIM_OC_Start_DMA:
 1507              	.LFB143:
 765:Drivers/STM32F3xx_HAL_Driver/Src/stm32f3xx_hal_tim.c **** 
 766:Drivers/STM32F3xx_HAL_Driver/Src/stm32f3xx_hal_tim.c **** /**
 767:Drivers/STM32F3xx_HAL_Driver/Src/stm32f3xx_hal_tim.c ****   * @brief  Starts the TIM Output Compare signal generation in DMA mode.
 768:Drivers/STM32F3xx_HAL_Driver/Src/stm32f3xx_hal_tim.c ****   * @param  htim: TIM Output Compare handle
 769:Drivers/STM32F3xx_HAL_Driver/Src/stm32f3xx_hal_tim.c ****   * @param  Channel: TIM Channel to be enabled
 770:Drivers/STM32F3xx_HAL_Driver/Src/stm32f3xx_hal_tim.c ****   *          This parameter can be one of the following values:
 771:Drivers/STM32F3xx_HAL_Driver/Src/stm32f3xx_hal_tim.c ****   *            @arg TIM_CHANNEL_1: TIM Channel 1 selected
 772:Drivers/STM32F3xx_HAL_Driver/Src/stm32f3xx_hal_tim.c ****   *            @arg TIM_CHANNEL_2: TIM Channel 2 selected
 773:Drivers/STM32F3xx_HAL_Driver/Src/stm32f3xx_hal_tim.c ****   *            @arg TIM_CHANNEL_3: TIM Channel 3 selected
 774:Drivers/STM32F3xx_HAL_Driver/Src/stm32f3xx_hal_tim.c ****   *            @arg TIM_CHANNEL_4: TIM Channel 4 selected
 775:Drivers/STM32F3xx_HAL_Driver/Src/stm32f3xx_hal_tim.c ****   * @param  pData: The source Buffer address.
 776:Drivers/STM32F3xx_HAL_Driver/Src/stm32f3xx_hal_tim.c ****   * @param  Length: The length of data to be transferred from memory to TIM peripheral
 777:Drivers/STM32F3xx_HAL_Driver/Src/stm32f3xx_hal_tim.c ****   * @retval HAL status
 778:Drivers/STM32F3xx_HAL_Driver/Src/stm32f3xx_hal_tim.c **** */
 779:Drivers/STM32F3xx_HAL_Driver/Src/stm32f3xx_hal_tim.c **** HAL_StatusTypeDef HAL_TIM_OC_Start_DMA(TIM_HandleTypeDef *htim, uint32_t Channel, uint32_t *pData, 
 780:Drivers/STM32F3xx_HAL_Driver/Src/stm32f3xx_hal_tim.c **** {
 1508              		.loc 1 780 0
 1509              		.cfi_startproc
 1510              		@ args = 0, pretend = 0, frame = 16
 1511              		@ frame_needed = 1, uses_anonymous_args = 0
 1512 0000 80B5     		push	{r7, lr}
 1513              	.LCFI54:
 1514              		.cfi_def_cfa_offset 8
 1515              		.cfi_offset 7, -8
 1516              		.cfi_offset 14, -4
 1517 0002 84B0     		sub	sp, sp, #16
 1518              	.LCFI55:
 1519              		.cfi_def_cfa_offset 24
 1520 0004 00AF     		add	r7, sp, #0
 1521              	.LCFI56:
 1522              		.cfi_def_cfa_register 7
 1523 0006 F860     		str	r0, [r7, #12]
 1524 0008 B960     		str	r1, [r7, #8]
 1525 000a 7A60     		str	r2, [r7, #4]
 1526 000c 7B80     		strh	r3, [r7, #2]	@ movhi
 781:Drivers/STM32F3xx_HAL_Driver/Src/stm32f3xx_hal_tim.c ****   /* Check the parameters */
 782:Drivers/STM32F3xx_HAL_Driver/Src/stm32f3xx_hal_tim.c ****   assert_param(IS_TIM_CCX_INSTANCE(htim->Instance, Channel));
 783:Drivers/STM32F3xx_HAL_Driver/Src/stm32f3xx_hal_tim.c ****   
 784:Drivers/STM32F3xx_HAL_Driver/Src/stm32f3xx_hal_tim.c ****   if((htim->State == HAL_TIM_STATE_BUSY))
 1527              		.loc 1 784 0
 1528 000e FB68     		ldr	r3, [r7, #12]
 1529 0010 93F83930 		ldrb	r3, [r3, #57]
 1530 0014 DBB2     		uxtb	r3, r3
 1531 0016 022B     		cmp	r3, #2
 1532 0018 01D1     		bne	.L90
 785:Drivers/STM32F3xx_HAL_Driver/Src/stm32f3xx_hal_tim.c ****   {
ARM GAS  /tmp/ccZyKULX.s 			page 41


 786:Drivers/STM32F3xx_HAL_Driver/Src/stm32f3xx_hal_tim.c ****      return HAL_BUSY;
 1533              		.loc 1 786 0
 1534 001a 0223     		movs	r3, #2
 1535 001c D5E0     		b	.L91
 1536              	.L90:
 787:Drivers/STM32F3xx_HAL_Driver/Src/stm32f3xx_hal_tim.c ****   }
 788:Drivers/STM32F3xx_HAL_Driver/Src/stm32f3xx_hal_tim.c ****   else if((htim->State == HAL_TIM_STATE_READY))
 1537              		.loc 1 788 0
 1538 001e FB68     		ldr	r3, [r7, #12]
 1539 0020 93F83930 		ldrb	r3, [r3, #57]
 1540 0024 DBB2     		uxtb	r3, r3
 1541 0026 012B     		cmp	r3, #1
 1542 0028 0BD1     		bne	.L92
 789:Drivers/STM32F3xx_HAL_Driver/Src/stm32f3xx_hal_tim.c ****   {
 790:Drivers/STM32F3xx_HAL_Driver/Src/stm32f3xx_hal_tim.c ****     if(((uint32_t)pData == 0 ) && (Length > 0)) 
 1543              		.loc 1 790 0
 1544 002a 7B68     		ldr	r3, [r7, #4]
 1545 002c 002B     		cmp	r3, #0
 1546 002e 04D1     		bne	.L93
 1547              		.loc 1 790 0 is_stmt 0 discriminator 1
 1548 0030 7B88     		ldrh	r3, [r7, #2]
 1549 0032 002B     		cmp	r3, #0
 1550 0034 01D0     		beq	.L93
 791:Drivers/STM32F3xx_HAL_Driver/Src/stm32f3xx_hal_tim.c ****     {
 792:Drivers/STM32F3xx_HAL_Driver/Src/stm32f3xx_hal_tim.c ****       return HAL_ERROR;                                    
 1551              		.loc 1 792 0 is_stmt 1
 1552 0036 0123     		movs	r3, #1
 1553 0038 C7E0     		b	.L91
 1554              	.L93:
 793:Drivers/STM32F3xx_HAL_Driver/Src/stm32f3xx_hal_tim.c ****     }
 794:Drivers/STM32F3xx_HAL_Driver/Src/stm32f3xx_hal_tim.c ****     else
 795:Drivers/STM32F3xx_HAL_Driver/Src/stm32f3xx_hal_tim.c ****     {
 796:Drivers/STM32F3xx_HAL_Driver/Src/stm32f3xx_hal_tim.c ****       htim->State = HAL_TIM_STATE_BUSY;
 1555              		.loc 1 796 0
 1556 003a FB68     		ldr	r3, [r7, #12]
 1557 003c 0222     		movs	r2, #2
 1558 003e 83F83920 		strb	r2, [r3, #57]
 1559              	.L92:
 797:Drivers/STM32F3xx_HAL_Driver/Src/stm32f3xx_hal_tim.c ****     }
 798:Drivers/STM32F3xx_HAL_Driver/Src/stm32f3xx_hal_tim.c ****   }    
 799:Drivers/STM32F3xx_HAL_Driver/Src/stm32f3xx_hal_tim.c ****   switch (Channel)
 1560              		.loc 1 799 0
 1561 0042 BB68     		ldr	r3, [r7, #8]
 1562 0044 0C2B     		cmp	r3, #12
 1563 0046 00F28980 		bhi	.L105
 1564 004a 01A2     		adr	r2, .L96
 1565 004c 52F823F0 		ldr	pc, [r2, r3, lsl #2]
 1566              		.p2align 2
 1567              	.L96:
 1568 0050 85000000 		.word	.L95+1
 1569 0054 5D010000 		.word	.L105+1
 1570 0058 5D010000 		.word	.L105+1
 1571 005c 5D010000 		.word	.L105+1
 1572 0060 BB000000 		.word	.L97+1
 1573 0064 5D010000 		.word	.L105+1
 1574 0068 5D010000 		.word	.L105+1
 1575 006c 5D010000 		.word	.L105+1
ARM GAS  /tmp/ccZyKULX.s 			page 42


 1576 0070 F1000000 		.word	.L98+1
 1577 0074 5D010000 		.word	.L105+1
 1578 0078 5D010000 		.word	.L105+1
 1579 007c 5D010000 		.word	.L105+1
 1580 0080 27010000 		.word	.L99+1
 1581              		.p2align 1
 1582              	.L95:
 800:Drivers/STM32F3xx_HAL_Driver/Src/stm32f3xx_hal_tim.c ****   {
 801:Drivers/STM32F3xx_HAL_Driver/Src/stm32f3xx_hal_tim.c ****     case TIM_CHANNEL_1:
 802:Drivers/STM32F3xx_HAL_Driver/Src/stm32f3xx_hal_tim.c ****     {
 803:Drivers/STM32F3xx_HAL_Driver/Src/stm32f3xx_hal_tim.c ****       /* Set the DMA Period elapsed callback */
 804:Drivers/STM32F3xx_HAL_Driver/Src/stm32f3xx_hal_tim.c ****       htim->hdma[TIM_DMA_ID_CC1]->XferCpltCallback = TIM_DMADelayPulseCplt;
 1583              		.loc 1 804 0
 1584 0084 FB68     		ldr	r3, [r7, #12]
 1585 0086 1B6A     		ldr	r3, [r3, #32]
 1586 0088 524A     		ldr	r2, .L106
 1587 008a 9A62     		str	r2, [r3, #40]
 805:Drivers/STM32F3xx_HAL_Driver/Src/stm32f3xx_hal_tim.c ****      
 806:Drivers/STM32F3xx_HAL_Driver/Src/stm32f3xx_hal_tim.c ****       /* Set the DMA error callback */
 807:Drivers/STM32F3xx_HAL_Driver/Src/stm32f3xx_hal_tim.c ****       htim->hdma[TIM_DMA_ID_CC1]->XferErrorCallback = TIM_DMAError ;
 1588              		.loc 1 807 0
 1589 008c FB68     		ldr	r3, [r7, #12]
 1590 008e 1B6A     		ldr	r3, [r3, #32]
 1591 0090 514A     		ldr	r2, .L106+4
 1592 0092 1A63     		str	r2, [r3, #48]
 808:Drivers/STM32F3xx_HAL_Driver/Src/stm32f3xx_hal_tim.c ****       
 809:Drivers/STM32F3xx_HAL_Driver/Src/stm32f3xx_hal_tim.c ****       /* Enable the DMA channel */
 810:Drivers/STM32F3xx_HAL_Driver/Src/stm32f3xx_hal_tim.c ****       HAL_DMA_Start_IT(htim->hdma[TIM_DMA_ID_CC1], (uint32_t)pData, (uint32_t)&htim->Instance->CCR1
 1593              		.loc 1 810 0
 1594 0094 FB68     		ldr	r3, [r7, #12]
 1595 0096 186A     		ldr	r0, [r3, #32]
 1596 0098 7968     		ldr	r1, [r7, #4]
 1597 009a FB68     		ldr	r3, [r7, #12]
 1598 009c 1B68     		ldr	r3, [r3]
 1599 009e 3433     		adds	r3, r3, #52
 1600 00a0 1A46     		mov	r2, r3
 1601 00a2 7B88     		ldrh	r3, [r7, #2]
 1602 00a4 FFF7FEFF 		bl	HAL_DMA_Start_IT
 811:Drivers/STM32F3xx_HAL_Driver/Src/stm32f3xx_hal_tim.c ****       
 812:Drivers/STM32F3xx_HAL_Driver/Src/stm32f3xx_hal_tim.c ****       /* Enable the TIM Capture/Compare 1 DMA request */
 813:Drivers/STM32F3xx_HAL_Driver/Src/stm32f3xx_hal_tim.c ****       __HAL_TIM_ENABLE_DMA(htim, TIM_DMA_CC1);
 1603              		.loc 1 813 0
 1604 00a8 FB68     		ldr	r3, [r7, #12]
 1605 00aa 1B68     		ldr	r3, [r3]
 1606 00ac FA68     		ldr	r2, [r7, #12]
 1607 00ae 1268     		ldr	r2, [r2]
 1608 00b0 D268     		ldr	r2, [r2, #12]
 1609 00b2 42F40072 		orr	r2, r2, #512
 1610 00b6 DA60     		str	r2, [r3, #12]
 814:Drivers/STM32F3xx_HAL_Driver/Src/stm32f3xx_hal_tim.c ****     }
 815:Drivers/STM32F3xx_HAL_Driver/Src/stm32f3xx_hal_tim.c ****     break;
 1611              		.loc 1 815 0
 1612 00b8 51E0     		b	.L100
 1613              	.L97:
 816:Drivers/STM32F3xx_HAL_Driver/Src/stm32f3xx_hal_tim.c ****     
 817:Drivers/STM32F3xx_HAL_Driver/Src/stm32f3xx_hal_tim.c ****     case TIM_CHANNEL_2:
 818:Drivers/STM32F3xx_HAL_Driver/Src/stm32f3xx_hal_tim.c ****     {
ARM GAS  /tmp/ccZyKULX.s 			page 43


 819:Drivers/STM32F3xx_HAL_Driver/Src/stm32f3xx_hal_tim.c ****       /* Set the DMA Period elapsed callback */
 820:Drivers/STM32F3xx_HAL_Driver/Src/stm32f3xx_hal_tim.c ****       htim->hdma[TIM_DMA_ID_CC2]->XferCpltCallback = TIM_DMADelayPulseCplt;
 1614              		.loc 1 820 0
 1615 00ba FB68     		ldr	r3, [r7, #12]
 1616 00bc 5B6A     		ldr	r3, [r3, #36]
 1617 00be 454A     		ldr	r2, .L106
 1618 00c0 9A62     		str	r2, [r3, #40]
 821:Drivers/STM32F3xx_HAL_Driver/Src/stm32f3xx_hal_tim.c ****      
 822:Drivers/STM32F3xx_HAL_Driver/Src/stm32f3xx_hal_tim.c ****       /* Set the DMA error callback */
 823:Drivers/STM32F3xx_HAL_Driver/Src/stm32f3xx_hal_tim.c ****       htim->hdma[TIM_DMA_ID_CC2]->XferErrorCallback = TIM_DMAError ;
 1619              		.loc 1 823 0
 1620 00c2 FB68     		ldr	r3, [r7, #12]
 1621 00c4 5B6A     		ldr	r3, [r3, #36]
 1622 00c6 444A     		ldr	r2, .L106+4
 1623 00c8 1A63     		str	r2, [r3, #48]
 824:Drivers/STM32F3xx_HAL_Driver/Src/stm32f3xx_hal_tim.c ****       
 825:Drivers/STM32F3xx_HAL_Driver/Src/stm32f3xx_hal_tim.c ****       /* Enable the DMA channel */
 826:Drivers/STM32F3xx_HAL_Driver/Src/stm32f3xx_hal_tim.c ****       HAL_DMA_Start_IT(htim->hdma[TIM_DMA_ID_CC2], (uint32_t)pData, (uint32_t)&htim->Instance->CCR2
 1624              		.loc 1 826 0
 1625 00ca FB68     		ldr	r3, [r7, #12]
 1626 00cc 586A     		ldr	r0, [r3, #36]
 1627 00ce 7968     		ldr	r1, [r7, #4]
 1628 00d0 FB68     		ldr	r3, [r7, #12]
 1629 00d2 1B68     		ldr	r3, [r3]
 1630 00d4 3833     		adds	r3, r3, #56
 1631 00d6 1A46     		mov	r2, r3
 1632 00d8 7B88     		ldrh	r3, [r7, #2]
 1633 00da FFF7FEFF 		bl	HAL_DMA_Start_IT
 827:Drivers/STM32F3xx_HAL_Driver/Src/stm32f3xx_hal_tim.c ****       
 828:Drivers/STM32F3xx_HAL_Driver/Src/stm32f3xx_hal_tim.c ****       /* Enable the TIM Capture/Compare 2 DMA request */
 829:Drivers/STM32F3xx_HAL_Driver/Src/stm32f3xx_hal_tim.c ****       __HAL_TIM_ENABLE_DMA(htim, TIM_DMA_CC2);
 1634              		.loc 1 829 0
 1635 00de FB68     		ldr	r3, [r7, #12]
 1636 00e0 1B68     		ldr	r3, [r3]
 1637 00e2 FA68     		ldr	r2, [r7, #12]
 1638 00e4 1268     		ldr	r2, [r2]
 1639 00e6 D268     		ldr	r2, [r2, #12]
 1640 00e8 42F48062 		orr	r2, r2, #1024
 1641 00ec DA60     		str	r2, [r3, #12]
 830:Drivers/STM32F3xx_HAL_Driver/Src/stm32f3xx_hal_tim.c ****     }
 831:Drivers/STM32F3xx_HAL_Driver/Src/stm32f3xx_hal_tim.c ****     break;
 1642              		.loc 1 831 0
 1643 00ee 36E0     		b	.L100
 1644              	.L98:
 832:Drivers/STM32F3xx_HAL_Driver/Src/stm32f3xx_hal_tim.c ****     
 833:Drivers/STM32F3xx_HAL_Driver/Src/stm32f3xx_hal_tim.c ****     case TIM_CHANNEL_3:
 834:Drivers/STM32F3xx_HAL_Driver/Src/stm32f3xx_hal_tim.c ****     {
 835:Drivers/STM32F3xx_HAL_Driver/Src/stm32f3xx_hal_tim.c ****       /* Set the DMA Period elapsed callback */
 836:Drivers/STM32F3xx_HAL_Driver/Src/stm32f3xx_hal_tim.c ****       htim->hdma[TIM_DMA_ID_CC3]->XferCpltCallback = TIM_DMADelayPulseCplt;
 1645              		.loc 1 836 0
 1646 00f0 FB68     		ldr	r3, [r7, #12]
 1647 00f2 9B6A     		ldr	r3, [r3, #40]
 1648 00f4 374A     		ldr	r2, .L106
 1649 00f6 9A62     		str	r2, [r3, #40]
 837:Drivers/STM32F3xx_HAL_Driver/Src/stm32f3xx_hal_tim.c ****      
 838:Drivers/STM32F3xx_HAL_Driver/Src/stm32f3xx_hal_tim.c ****       /* Set the DMA error callback */
 839:Drivers/STM32F3xx_HAL_Driver/Src/stm32f3xx_hal_tim.c ****       htim->hdma[TIM_DMA_ID_CC3]->XferErrorCallback = TIM_DMAError ;
ARM GAS  /tmp/ccZyKULX.s 			page 44


 1650              		.loc 1 839 0
 1651 00f8 FB68     		ldr	r3, [r7, #12]
 1652 00fa 9B6A     		ldr	r3, [r3, #40]
 1653 00fc 364A     		ldr	r2, .L106+4
 1654 00fe 1A63     		str	r2, [r3, #48]
 840:Drivers/STM32F3xx_HAL_Driver/Src/stm32f3xx_hal_tim.c ****       
 841:Drivers/STM32F3xx_HAL_Driver/Src/stm32f3xx_hal_tim.c ****       /* Enable the DMA channel */
 842:Drivers/STM32F3xx_HAL_Driver/Src/stm32f3xx_hal_tim.c ****       HAL_DMA_Start_IT(htim->hdma[TIM_DMA_ID_CC3], (uint32_t)pData, (uint32_t)&htim->Instance->CCR3
 1655              		.loc 1 842 0
 1656 0100 FB68     		ldr	r3, [r7, #12]
 1657 0102 986A     		ldr	r0, [r3, #40]
 1658 0104 7968     		ldr	r1, [r7, #4]
 1659 0106 FB68     		ldr	r3, [r7, #12]
 1660 0108 1B68     		ldr	r3, [r3]
 1661 010a 3C33     		adds	r3, r3, #60
 1662 010c 1A46     		mov	r2, r3
 1663 010e 7B88     		ldrh	r3, [r7, #2]
 1664 0110 FFF7FEFF 		bl	HAL_DMA_Start_IT
 843:Drivers/STM32F3xx_HAL_Driver/Src/stm32f3xx_hal_tim.c ****       
 844:Drivers/STM32F3xx_HAL_Driver/Src/stm32f3xx_hal_tim.c ****       /* Enable the TIM Capture/Compare 3 DMA request */
 845:Drivers/STM32F3xx_HAL_Driver/Src/stm32f3xx_hal_tim.c ****       __HAL_TIM_ENABLE_DMA(htim, TIM_DMA_CC3);
 1665              		.loc 1 845 0
 1666 0114 FB68     		ldr	r3, [r7, #12]
 1667 0116 1B68     		ldr	r3, [r3]
 1668 0118 FA68     		ldr	r2, [r7, #12]
 1669 011a 1268     		ldr	r2, [r2]
 1670 011c D268     		ldr	r2, [r2, #12]
 1671 011e 42F40062 		orr	r2, r2, #2048
 1672 0122 DA60     		str	r2, [r3, #12]
 846:Drivers/STM32F3xx_HAL_Driver/Src/stm32f3xx_hal_tim.c ****     }
 847:Drivers/STM32F3xx_HAL_Driver/Src/stm32f3xx_hal_tim.c ****     break;
 1673              		.loc 1 847 0
 1674 0124 1BE0     		b	.L100
 1675              	.L99:
 848:Drivers/STM32F3xx_HAL_Driver/Src/stm32f3xx_hal_tim.c ****     
 849:Drivers/STM32F3xx_HAL_Driver/Src/stm32f3xx_hal_tim.c ****     case TIM_CHANNEL_4:
 850:Drivers/STM32F3xx_HAL_Driver/Src/stm32f3xx_hal_tim.c ****     {
 851:Drivers/STM32F3xx_HAL_Driver/Src/stm32f3xx_hal_tim.c ****      /* Set the DMA Period elapsed callback */
 852:Drivers/STM32F3xx_HAL_Driver/Src/stm32f3xx_hal_tim.c ****       htim->hdma[TIM_DMA_ID_CC4]->XferCpltCallback = TIM_DMADelayPulseCplt;
 1676              		.loc 1 852 0
 1677 0126 FB68     		ldr	r3, [r7, #12]
 1678 0128 DB6A     		ldr	r3, [r3, #44]
 1679 012a 2A4A     		ldr	r2, .L106
 1680 012c 9A62     		str	r2, [r3, #40]
 853:Drivers/STM32F3xx_HAL_Driver/Src/stm32f3xx_hal_tim.c ****      
 854:Drivers/STM32F3xx_HAL_Driver/Src/stm32f3xx_hal_tim.c ****       /* Set the DMA error callback */
 855:Drivers/STM32F3xx_HAL_Driver/Src/stm32f3xx_hal_tim.c ****       htim->hdma[TIM_DMA_ID_CC4]->XferErrorCallback = TIM_DMAError ;
 1681              		.loc 1 855 0
 1682 012e FB68     		ldr	r3, [r7, #12]
 1683 0130 DB6A     		ldr	r3, [r3, #44]
 1684 0132 294A     		ldr	r2, .L106+4
 1685 0134 1A63     		str	r2, [r3, #48]
 856:Drivers/STM32F3xx_HAL_Driver/Src/stm32f3xx_hal_tim.c ****       
 857:Drivers/STM32F3xx_HAL_Driver/Src/stm32f3xx_hal_tim.c ****       /* Enable the DMA channel */
 858:Drivers/STM32F3xx_HAL_Driver/Src/stm32f3xx_hal_tim.c ****       HAL_DMA_Start_IT(htim->hdma[TIM_DMA_ID_CC4], (uint32_t)pData, (uint32_t)&htim->Instance->CCR4
 1686              		.loc 1 858 0
 1687 0136 FB68     		ldr	r3, [r7, #12]
ARM GAS  /tmp/ccZyKULX.s 			page 45


 1688 0138 D86A     		ldr	r0, [r3, #44]
 1689 013a 7968     		ldr	r1, [r7, #4]
 1690 013c FB68     		ldr	r3, [r7, #12]
 1691 013e 1B68     		ldr	r3, [r3]
 1692 0140 4033     		adds	r3, r3, #64
 1693 0142 1A46     		mov	r2, r3
 1694 0144 7B88     		ldrh	r3, [r7, #2]
 1695 0146 FFF7FEFF 		bl	HAL_DMA_Start_IT
 859:Drivers/STM32F3xx_HAL_Driver/Src/stm32f3xx_hal_tim.c ****       
 860:Drivers/STM32F3xx_HAL_Driver/Src/stm32f3xx_hal_tim.c ****       /* Enable the TIM Capture/Compare 4 DMA request */
 861:Drivers/STM32F3xx_HAL_Driver/Src/stm32f3xx_hal_tim.c ****       __HAL_TIM_ENABLE_DMA(htim, TIM_DMA_CC4);
 1696              		.loc 1 861 0
 1697 014a FB68     		ldr	r3, [r7, #12]
 1698 014c 1B68     		ldr	r3, [r3]
 1699 014e FA68     		ldr	r2, [r7, #12]
 1700 0150 1268     		ldr	r2, [r2]
 1701 0152 D268     		ldr	r2, [r2, #12]
 1702 0154 42F48052 		orr	r2, r2, #4096
 1703 0158 DA60     		str	r2, [r3, #12]
 862:Drivers/STM32F3xx_HAL_Driver/Src/stm32f3xx_hal_tim.c ****     }
 863:Drivers/STM32F3xx_HAL_Driver/Src/stm32f3xx_hal_tim.c ****     break;
 1704              		.loc 1 863 0
 1705 015a 00E0     		b	.L100
 1706              	.L105:
 864:Drivers/STM32F3xx_HAL_Driver/Src/stm32f3xx_hal_tim.c ****     
 865:Drivers/STM32F3xx_HAL_Driver/Src/stm32f3xx_hal_tim.c ****     default:
 866:Drivers/STM32F3xx_HAL_Driver/Src/stm32f3xx_hal_tim.c ****     break;
 1707              		.loc 1 866 0
 1708 015c 00BF     		nop
 1709              	.L100:
 867:Drivers/STM32F3xx_HAL_Driver/Src/stm32f3xx_hal_tim.c ****   }
 868:Drivers/STM32F3xx_HAL_Driver/Src/stm32f3xx_hal_tim.c **** 
 869:Drivers/STM32F3xx_HAL_Driver/Src/stm32f3xx_hal_tim.c ****   /* Enable the Output compare channel */
 870:Drivers/STM32F3xx_HAL_Driver/Src/stm32f3xx_hal_tim.c ****   TIM_CCxChannelCmd(htim->Instance, Channel, TIM_CCx_ENABLE);
 1710              		.loc 1 870 0
 1711 015e FB68     		ldr	r3, [r7, #12]
 1712 0160 1B68     		ldr	r3, [r3]
 1713 0162 1846     		mov	r0, r3
 1714 0164 B968     		ldr	r1, [r7, #8]
 1715 0166 0122     		movs	r2, #1
 1716 0168 FFF7FEFF 		bl	TIM_CCxChannelCmd
 871:Drivers/STM32F3xx_HAL_Driver/Src/stm32f3xx_hal_tim.c ****   
 872:Drivers/STM32F3xx_HAL_Driver/Src/stm32f3xx_hal_tim.c ****   if(IS_TIM_BREAK_INSTANCE(htim->Instance) != RESET)  
 1717              		.loc 1 872 0
 1718 016c FB68     		ldr	r3, [r7, #12]
 1719 016e 1A68     		ldr	r2, [r3]
 1720 0170 1A4B     		ldr	r3, .L106+8
 1721 0172 9A42     		cmp	r2, r3
 1722 0174 13D0     		beq	.L101
 1723              		.loc 1 872 0 is_stmt 0 discriminator 2
 1724 0176 FB68     		ldr	r3, [r7, #12]
 1725 0178 1A68     		ldr	r2, [r3]
 1726 017a 194B     		ldr	r3, .L106+12
 1727 017c 9A42     		cmp	r2, r3
 1728 017e 0ED0     		beq	.L101
 1729              		.loc 1 872 0 discriminator 1
 1730 0180 FB68     		ldr	r3, [r7, #12]
ARM GAS  /tmp/ccZyKULX.s 			page 46


 1731 0182 1A68     		ldr	r2, [r3]
 1732 0184 174B     		ldr	r3, .L106+16
 1733 0186 9A42     		cmp	r2, r3
 1734 0188 09D0     		beq	.L101
 1735 018a FB68     		ldr	r3, [r7, #12]
 1736 018c 1A68     		ldr	r2, [r3]
 1737 018e 164B     		ldr	r3, .L106+20
 1738 0190 9A42     		cmp	r2, r3
 1739 0192 04D0     		beq	.L101
 1740 0194 FB68     		ldr	r3, [r7, #12]
 1741 0196 1A68     		ldr	r2, [r3]
 1742 0198 144B     		ldr	r3, .L106+24
 1743 019a 9A42     		cmp	r2, r3
 1744 019c 01D1     		bne	.L102
 1745              	.L101:
 1746 019e 0123     		movs	r3, #1
 1747 01a0 00E0     		b	.L103
 1748              	.L102:
 1749              		.loc 1 872 0 discriminator 3
 1750 01a2 0023     		movs	r3, #0
 1751              	.L103:
 1752              		.loc 1 872 0 discriminator 4
 1753 01a4 002B     		cmp	r3, #0
 1754 01a6 07D0     		beq	.L104
 873:Drivers/STM32F3xx_HAL_Driver/Src/stm32f3xx_hal_tim.c ****   {
 874:Drivers/STM32F3xx_HAL_Driver/Src/stm32f3xx_hal_tim.c ****     /* Enable the main output */
 875:Drivers/STM32F3xx_HAL_Driver/Src/stm32f3xx_hal_tim.c ****     __HAL_TIM_MOE_ENABLE(htim);
 1755              		.loc 1 875 0 is_stmt 1
 1756 01a8 FB68     		ldr	r3, [r7, #12]
 1757 01aa 1B68     		ldr	r3, [r3]
 1758 01ac FA68     		ldr	r2, [r7, #12]
 1759 01ae 1268     		ldr	r2, [r2]
 1760 01b0 526C     		ldr	r2, [r2, #68]
 1761 01b2 42F40042 		orr	r2, r2, #32768
 1762 01b6 5A64     		str	r2, [r3, #68]
 1763              	.L104:
 876:Drivers/STM32F3xx_HAL_Driver/Src/stm32f3xx_hal_tim.c ****   }  
 877:Drivers/STM32F3xx_HAL_Driver/Src/stm32f3xx_hal_tim.c ****   
 878:Drivers/STM32F3xx_HAL_Driver/Src/stm32f3xx_hal_tim.c ****   /* Enable the Peripheral */
 879:Drivers/STM32F3xx_HAL_Driver/Src/stm32f3xx_hal_tim.c ****   __HAL_TIM_ENABLE(htim); 
 1764              		.loc 1 879 0
 1765 01b8 FB68     		ldr	r3, [r7, #12]
 1766 01ba 1B68     		ldr	r3, [r3]
 1767 01bc FA68     		ldr	r2, [r7, #12]
 1768 01be 1268     		ldr	r2, [r2]
 1769 01c0 1268     		ldr	r2, [r2]
 1770 01c2 42F00102 		orr	r2, r2, #1
 1771 01c6 1A60     		str	r2, [r3]
 880:Drivers/STM32F3xx_HAL_Driver/Src/stm32f3xx_hal_tim.c ****   
 881:Drivers/STM32F3xx_HAL_Driver/Src/stm32f3xx_hal_tim.c ****   /* Return function status */
 882:Drivers/STM32F3xx_HAL_Driver/Src/stm32f3xx_hal_tim.c ****   return HAL_OK;
 1772              		.loc 1 882 0
 1773 01c8 0023     		movs	r3, #0
 1774              	.L91:
 883:Drivers/STM32F3xx_HAL_Driver/Src/stm32f3xx_hal_tim.c **** }
 1775              		.loc 1 883 0
 1776 01ca 1846     		mov	r0, r3
ARM GAS  /tmp/ccZyKULX.s 			page 47


 1777 01cc 1037     		adds	r7, r7, #16
 1778 01ce BD46     		mov	sp, r7
 1779              		@ sp needed
 1780 01d0 80BD     		pop	{r7, pc}
 1781              	.L107:
 1782 01d2 00BF     		.align	2
 1783              	.L106:
 1784 01d4 00000000 		.word	TIM_DMADelayPulseCplt
 1785 01d8 00000000 		.word	TIM_DMAError
 1786 01dc 002C0140 		.word	1073818624
 1787 01e0 00340140 		.word	1073820672
 1788 01e4 00400140 		.word	1073823744
 1789 01e8 00440140 		.word	1073824768
 1790 01ec 00480140 		.word	1073825792
 1791              		.cfi_endproc
 1792              	.LFE143:
 1794              		.section	.text.HAL_TIM_OC_Stop_DMA,"ax",%progbits
 1795              		.align	2
 1796              		.global	HAL_TIM_OC_Stop_DMA
 1797              		.thumb
 1798              		.thumb_func
 1800              	HAL_TIM_OC_Stop_DMA:
 1801              	.LFB144:
 884:Drivers/STM32F3xx_HAL_Driver/Src/stm32f3xx_hal_tim.c **** 
 885:Drivers/STM32F3xx_HAL_Driver/Src/stm32f3xx_hal_tim.c **** /**
 886:Drivers/STM32F3xx_HAL_Driver/Src/stm32f3xx_hal_tim.c ****   * @brief  Stops the TIM Output Compare signal generation in DMA mode.
 887:Drivers/STM32F3xx_HAL_Driver/Src/stm32f3xx_hal_tim.c ****   * @param  htim: TIM Output Compare handle
 888:Drivers/STM32F3xx_HAL_Driver/Src/stm32f3xx_hal_tim.c ****   * @param  Channel: TIM Channel to be disabled
 889:Drivers/STM32F3xx_HAL_Driver/Src/stm32f3xx_hal_tim.c ****   *          This parameter can be one of the following values:
 890:Drivers/STM32F3xx_HAL_Driver/Src/stm32f3xx_hal_tim.c ****   *            @arg TIM_CHANNEL_1: TIM Channel 1 selected
 891:Drivers/STM32F3xx_HAL_Driver/Src/stm32f3xx_hal_tim.c ****   *            @arg TIM_CHANNEL_2: TIM Channel 2 selected
 892:Drivers/STM32F3xx_HAL_Driver/Src/stm32f3xx_hal_tim.c ****   *            @arg TIM_CHANNEL_3: TIM Channel 3 selected
 893:Drivers/STM32F3xx_HAL_Driver/Src/stm32f3xx_hal_tim.c ****   *            @arg TIM_CHANNEL_4: TIM Channel 4 selected
 894:Drivers/STM32F3xx_HAL_Driver/Src/stm32f3xx_hal_tim.c ****   * @retval HAL status
 895:Drivers/STM32F3xx_HAL_Driver/Src/stm32f3xx_hal_tim.c **** */
 896:Drivers/STM32F3xx_HAL_Driver/Src/stm32f3xx_hal_tim.c **** HAL_StatusTypeDef HAL_TIM_OC_Stop_DMA(TIM_HandleTypeDef *htim, uint32_t Channel)
 897:Drivers/STM32F3xx_HAL_Driver/Src/stm32f3xx_hal_tim.c **** {
 1802              		.loc 1 897 0
 1803              		.cfi_startproc
 1804              		@ args = 0, pretend = 0, frame = 8
 1805              		@ frame_needed = 1, uses_anonymous_args = 0
 1806 0000 80B5     		push	{r7, lr}
 1807              	.LCFI57:
 1808              		.cfi_def_cfa_offset 8
 1809              		.cfi_offset 7, -8
 1810              		.cfi_offset 14, -4
 1811 0002 82B0     		sub	sp, sp, #8
 1812              	.LCFI58:
 1813              		.cfi_def_cfa_offset 16
 1814 0004 00AF     		add	r7, sp, #0
 1815              	.LCFI59:
 1816              		.cfi_def_cfa_register 7
 1817 0006 7860     		str	r0, [r7, #4]
 1818 0008 3960     		str	r1, [r7]
 898:Drivers/STM32F3xx_HAL_Driver/Src/stm32f3xx_hal_tim.c ****   /* Check the parameters */
 899:Drivers/STM32F3xx_HAL_Driver/Src/stm32f3xx_hal_tim.c ****   assert_param(IS_TIM_CCX_INSTANCE(htim->Instance, Channel));
 900:Drivers/STM32F3xx_HAL_Driver/Src/stm32f3xx_hal_tim.c ****   
ARM GAS  /tmp/ccZyKULX.s 			page 48


 901:Drivers/STM32F3xx_HAL_Driver/Src/stm32f3xx_hal_tim.c ****   switch (Channel)
 1819              		.loc 1 901 0
 1820 000a 3B68     		ldr	r3, [r7]
 1821 000c 0C2B     		cmp	r3, #12
 1822 000e 41D8     		bhi	.L122
 1823 0010 01A2     		adr	r2, .L111
 1824 0012 52F823F0 		ldr	pc, [r2, r3, lsl #2]
 1825 0016 00BF     		.p2align 2
 1826              	.L111:
 1827 0018 4D000000 		.word	.L110+1
 1828 001c 95000000 		.word	.L122+1
 1829 0020 95000000 		.word	.L122+1
 1830 0024 95000000 		.word	.L122+1
 1831 0028 5F000000 		.word	.L112+1
 1832 002c 95000000 		.word	.L122+1
 1833 0030 95000000 		.word	.L122+1
 1834 0034 95000000 		.word	.L122+1
 1835 0038 71000000 		.word	.L113+1
 1836 003c 95000000 		.word	.L122+1
 1837 0040 95000000 		.word	.L122+1
 1838 0044 95000000 		.word	.L122+1
 1839 0048 83000000 		.word	.L114+1
 1840              		.p2align 1
 1841              	.L110:
 902:Drivers/STM32F3xx_HAL_Driver/Src/stm32f3xx_hal_tim.c ****   {
 903:Drivers/STM32F3xx_HAL_Driver/Src/stm32f3xx_hal_tim.c ****     case TIM_CHANNEL_1:
 904:Drivers/STM32F3xx_HAL_Driver/Src/stm32f3xx_hal_tim.c ****     {       
 905:Drivers/STM32F3xx_HAL_Driver/Src/stm32f3xx_hal_tim.c ****       /* Disable the TIM Capture/Compare 1 DMA request */
 906:Drivers/STM32F3xx_HAL_Driver/Src/stm32f3xx_hal_tim.c ****       __HAL_TIM_DISABLE_DMA(htim, TIM_DMA_CC1);
 1842              		.loc 1 906 0
 1843 004c 7B68     		ldr	r3, [r7, #4]
 1844 004e 1B68     		ldr	r3, [r3]
 1845 0050 7A68     		ldr	r2, [r7, #4]
 1846 0052 1268     		ldr	r2, [r2]
 1847 0054 D268     		ldr	r2, [r2, #12]
 1848 0056 22F40072 		bic	r2, r2, #512
 1849 005a DA60     		str	r2, [r3, #12]
 907:Drivers/STM32F3xx_HAL_Driver/Src/stm32f3xx_hal_tim.c ****     }
 908:Drivers/STM32F3xx_HAL_Driver/Src/stm32f3xx_hal_tim.c ****     break;
 1850              		.loc 1 908 0
 1851 005c 1BE0     		b	.L115
 1852              	.L112:
 909:Drivers/STM32F3xx_HAL_Driver/Src/stm32f3xx_hal_tim.c ****     
 910:Drivers/STM32F3xx_HAL_Driver/Src/stm32f3xx_hal_tim.c ****     case TIM_CHANNEL_2:
 911:Drivers/STM32F3xx_HAL_Driver/Src/stm32f3xx_hal_tim.c ****     {
 912:Drivers/STM32F3xx_HAL_Driver/Src/stm32f3xx_hal_tim.c ****       /* Disable the TIM Capture/Compare 2 DMA request */
 913:Drivers/STM32F3xx_HAL_Driver/Src/stm32f3xx_hal_tim.c ****       __HAL_TIM_DISABLE_DMA(htim, TIM_DMA_CC2);
 1853              		.loc 1 913 0
 1854 005e 7B68     		ldr	r3, [r7, #4]
 1855 0060 1B68     		ldr	r3, [r3]
 1856 0062 7A68     		ldr	r2, [r7, #4]
 1857 0064 1268     		ldr	r2, [r2]
 1858 0066 D268     		ldr	r2, [r2, #12]
 1859 0068 22F48062 		bic	r2, r2, #1024
 1860 006c DA60     		str	r2, [r3, #12]
 914:Drivers/STM32F3xx_HAL_Driver/Src/stm32f3xx_hal_tim.c ****     }
 915:Drivers/STM32F3xx_HAL_Driver/Src/stm32f3xx_hal_tim.c ****     break;
ARM GAS  /tmp/ccZyKULX.s 			page 49


 1861              		.loc 1 915 0
 1862 006e 12E0     		b	.L115
 1863              	.L113:
 916:Drivers/STM32F3xx_HAL_Driver/Src/stm32f3xx_hal_tim.c ****     
 917:Drivers/STM32F3xx_HAL_Driver/Src/stm32f3xx_hal_tim.c ****     case TIM_CHANNEL_3:
 918:Drivers/STM32F3xx_HAL_Driver/Src/stm32f3xx_hal_tim.c ****     {
 919:Drivers/STM32F3xx_HAL_Driver/Src/stm32f3xx_hal_tim.c ****       /* Disable the TIM Capture/Compare 3 DMA request */
 920:Drivers/STM32F3xx_HAL_Driver/Src/stm32f3xx_hal_tim.c ****       __HAL_TIM_DISABLE_DMA(htim, TIM_DMA_CC3);
 1864              		.loc 1 920 0
 1865 0070 7B68     		ldr	r3, [r7, #4]
 1866 0072 1B68     		ldr	r3, [r3]
 1867 0074 7A68     		ldr	r2, [r7, #4]
 1868 0076 1268     		ldr	r2, [r2]
 1869 0078 D268     		ldr	r2, [r2, #12]
 1870 007a 22F40062 		bic	r2, r2, #2048
 1871 007e DA60     		str	r2, [r3, #12]
 921:Drivers/STM32F3xx_HAL_Driver/Src/stm32f3xx_hal_tim.c ****     }
 922:Drivers/STM32F3xx_HAL_Driver/Src/stm32f3xx_hal_tim.c ****     break;
 1872              		.loc 1 922 0
 1873 0080 09E0     		b	.L115
 1874              	.L114:
 923:Drivers/STM32F3xx_HAL_Driver/Src/stm32f3xx_hal_tim.c ****     
 924:Drivers/STM32F3xx_HAL_Driver/Src/stm32f3xx_hal_tim.c ****     case TIM_CHANNEL_4:
 925:Drivers/STM32F3xx_HAL_Driver/Src/stm32f3xx_hal_tim.c ****     {
 926:Drivers/STM32F3xx_HAL_Driver/Src/stm32f3xx_hal_tim.c ****       /* Disable the TIM Capture/Compare 4 interrupt */
 927:Drivers/STM32F3xx_HAL_Driver/Src/stm32f3xx_hal_tim.c ****       __HAL_TIM_DISABLE_DMA(htim, TIM_DMA_CC4);
 1875              		.loc 1 927 0
 1876 0082 7B68     		ldr	r3, [r7, #4]
 1877 0084 1B68     		ldr	r3, [r3]
 1878 0086 7A68     		ldr	r2, [r7, #4]
 1879 0088 1268     		ldr	r2, [r2]
 1880 008a D268     		ldr	r2, [r2, #12]
 1881 008c 22F48052 		bic	r2, r2, #4096
 1882 0090 DA60     		str	r2, [r3, #12]
 928:Drivers/STM32F3xx_HAL_Driver/Src/stm32f3xx_hal_tim.c ****     }
 929:Drivers/STM32F3xx_HAL_Driver/Src/stm32f3xx_hal_tim.c ****     break;
 1883              		.loc 1 929 0
 1884 0092 00E0     		b	.L115
 1885              	.L122:
 930:Drivers/STM32F3xx_HAL_Driver/Src/stm32f3xx_hal_tim.c ****     
 931:Drivers/STM32F3xx_HAL_Driver/Src/stm32f3xx_hal_tim.c ****     default:
 932:Drivers/STM32F3xx_HAL_Driver/Src/stm32f3xx_hal_tim.c ****     break;
 1886              		.loc 1 932 0
 1887 0094 00BF     		nop
 1888              	.L115:
 933:Drivers/STM32F3xx_HAL_Driver/Src/stm32f3xx_hal_tim.c ****   } 
 934:Drivers/STM32F3xx_HAL_Driver/Src/stm32f3xx_hal_tim.c ****   
 935:Drivers/STM32F3xx_HAL_Driver/Src/stm32f3xx_hal_tim.c ****   /* Disable the Output compare channel */
 936:Drivers/STM32F3xx_HAL_Driver/Src/stm32f3xx_hal_tim.c ****   TIM_CCxChannelCmd(htim->Instance, Channel, TIM_CCx_DISABLE);
 1889              		.loc 1 936 0
 1890 0096 7B68     		ldr	r3, [r7, #4]
 1891 0098 1B68     		ldr	r3, [r3]
 1892 009a 1846     		mov	r0, r3
 1893 009c 3968     		ldr	r1, [r7]
 1894 009e 0022     		movs	r2, #0
 1895 00a0 FFF7FEFF 		bl	TIM_CCxChannelCmd
 937:Drivers/STM32F3xx_HAL_Driver/Src/stm32f3xx_hal_tim.c ****   
ARM GAS  /tmp/ccZyKULX.s 			page 50


 938:Drivers/STM32F3xx_HAL_Driver/Src/stm32f3xx_hal_tim.c ****   if(IS_TIM_BREAK_INSTANCE(htim->Instance) != RESET)  
 1896              		.loc 1 938 0
 1897 00a4 7B68     		ldr	r3, [r7, #4]
 1898 00a6 1A68     		ldr	r2, [r3]
 1899 00a8 2A4B     		ldr	r3, .L123
 1900 00aa 9A42     		cmp	r2, r3
 1901 00ac 13D0     		beq	.L116
 1902              		.loc 1 938 0 is_stmt 0 discriminator 2
 1903 00ae 7B68     		ldr	r3, [r7, #4]
 1904 00b0 1A68     		ldr	r2, [r3]
 1905 00b2 294B     		ldr	r3, .L123+4
 1906 00b4 9A42     		cmp	r2, r3
 1907 00b6 0ED0     		beq	.L116
 1908              		.loc 1 938 0 discriminator 1
 1909 00b8 7B68     		ldr	r3, [r7, #4]
 1910 00ba 1A68     		ldr	r2, [r3]
 1911 00bc 274B     		ldr	r3, .L123+8
 1912 00be 9A42     		cmp	r2, r3
 1913 00c0 09D0     		beq	.L116
 1914 00c2 7B68     		ldr	r3, [r7, #4]
 1915 00c4 1A68     		ldr	r2, [r3]
 1916 00c6 264B     		ldr	r3, .L123+12
 1917 00c8 9A42     		cmp	r2, r3
 1918 00ca 04D0     		beq	.L116
 1919 00cc 7B68     		ldr	r3, [r7, #4]
 1920 00ce 1A68     		ldr	r2, [r3]
 1921 00d0 244B     		ldr	r3, .L123+16
 1922 00d2 9A42     		cmp	r2, r3
 1923 00d4 01D1     		bne	.L117
 1924              	.L116:
 1925 00d6 0123     		movs	r3, #1
 1926 00d8 00E0     		b	.L118
 1927              	.L117:
 1928              		.loc 1 938 0 discriminator 3
 1929 00da 0023     		movs	r3, #0
 1930              	.L118:
 1931              		.loc 1 938 0 discriminator 4
 1932 00dc 002B     		cmp	r3, #0
 1933 00de 17D0     		beq	.L119
 939:Drivers/STM32F3xx_HAL_Driver/Src/stm32f3xx_hal_tim.c ****   {
 940:Drivers/STM32F3xx_HAL_Driver/Src/stm32f3xx_hal_tim.c ****     /* Disable the Main Ouput */
 941:Drivers/STM32F3xx_HAL_Driver/Src/stm32f3xx_hal_tim.c ****     __HAL_TIM_MOE_DISABLE(htim);
 1934              		.loc 1 941 0 is_stmt 1
 1935 00e0 7B68     		ldr	r3, [r7, #4]
 1936 00e2 1B68     		ldr	r3, [r3]
 1937 00e4 1A6A     		ldr	r2, [r3, #32]
 1938 00e6 41F21113 		movw	r3, #4369
 1939 00ea 1340     		ands	r3, r3, r2
 1940 00ec 002B     		cmp	r3, #0
 1941 00ee 0FD1     		bne	.L119
 1942              		.loc 1 941 0 is_stmt 0 discriminator 1
 1943 00f0 7B68     		ldr	r3, [r7, #4]
 1944 00f2 1B68     		ldr	r3, [r3]
 1945 00f4 1A6A     		ldr	r2, [r3, #32]
 1946 00f6 40F24443 		movw	r3, #1092
 1947 00fa 1340     		ands	r3, r3, r2
 1948 00fc 002B     		cmp	r3, #0
ARM GAS  /tmp/ccZyKULX.s 			page 51


 1949 00fe 07D1     		bne	.L119
 1950 0100 7B68     		ldr	r3, [r7, #4]
 1951 0102 1B68     		ldr	r3, [r3]
 1952 0104 7A68     		ldr	r2, [r7, #4]
 1953 0106 1268     		ldr	r2, [r2]
 1954 0108 526C     		ldr	r2, [r2, #68]
 1955 010a 22F40042 		bic	r2, r2, #32768
 1956 010e 5A64     		str	r2, [r3, #68]
 1957              	.L119:
 942:Drivers/STM32F3xx_HAL_Driver/Src/stm32f3xx_hal_tim.c ****   }
 943:Drivers/STM32F3xx_HAL_Driver/Src/stm32f3xx_hal_tim.c ****   
 944:Drivers/STM32F3xx_HAL_Driver/Src/stm32f3xx_hal_tim.c ****   /* Disable the Peripheral */
 945:Drivers/STM32F3xx_HAL_Driver/Src/stm32f3xx_hal_tim.c ****   __HAL_TIM_DISABLE(htim);
 1958              		.loc 1 945 0 is_stmt 1
 1959 0110 7B68     		ldr	r3, [r7, #4]
 1960 0112 1B68     		ldr	r3, [r3]
 1961 0114 1A6A     		ldr	r2, [r3, #32]
 1962 0116 41F21113 		movw	r3, #4369
 1963 011a 1340     		ands	r3, r3, r2
 1964 011c 002B     		cmp	r3, #0
 1965 011e 0FD1     		bne	.L120
 1966              		.loc 1 945 0 is_stmt 0 discriminator 1
 1967 0120 7B68     		ldr	r3, [r7, #4]
 1968 0122 1B68     		ldr	r3, [r3]
 1969 0124 1A6A     		ldr	r2, [r3, #32]
 1970 0126 40F24443 		movw	r3, #1092
 1971 012a 1340     		ands	r3, r3, r2
 1972 012c 002B     		cmp	r3, #0
 1973 012e 07D1     		bne	.L120
 1974 0130 7B68     		ldr	r3, [r7, #4]
 1975 0132 1B68     		ldr	r3, [r3]
 1976 0134 7A68     		ldr	r2, [r7, #4]
 1977 0136 1268     		ldr	r2, [r2]
 1978 0138 1268     		ldr	r2, [r2]
 1979 013a 22F00102 		bic	r2, r2, #1
 1980 013e 1A60     		str	r2, [r3]
 1981              	.L120:
 946:Drivers/STM32F3xx_HAL_Driver/Src/stm32f3xx_hal_tim.c ****   
 947:Drivers/STM32F3xx_HAL_Driver/Src/stm32f3xx_hal_tim.c ****   /* Change the htim state */
 948:Drivers/STM32F3xx_HAL_Driver/Src/stm32f3xx_hal_tim.c ****   htim->State = HAL_TIM_STATE_READY;
 1982              		.loc 1 948 0 is_stmt 1
 1983 0140 7B68     		ldr	r3, [r7, #4]
 1984 0142 0122     		movs	r2, #1
 1985 0144 83F83920 		strb	r2, [r3, #57]
 949:Drivers/STM32F3xx_HAL_Driver/Src/stm32f3xx_hal_tim.c ****   
 950:Drivers/STM32F3xx_HAL_Driver/Src/stm32f3xx_hal_tim.c ****   /* Return function status */
 951:Drivers/STM32F3xx_HAL_Driver/Src/stm32f3xx_hal_tim.c ****   return HAL_OK;
 1986              		.loc 1 951 0
 1987 0148 0023     		movs	r3, #0
 952:Drivers/STM32F3xx_HAL_Driver/Src/stm32f3xx_hal_tim.c **** }
 1988              		.loc 1 952 0
 1989 014a 1846     		mov	r0, r3
 1990 014c 0837     		adds	r7, r7, #8
 1991 014e BD46     		mov	sp, r7
 1992              		@ sp needed
 1993 0150 80BD     		pop	{r7, pc}
 1994              	.L124:
ARM GAS  /tmp/ccZyKULX.s 			page 52


 1995 0152 00BF     		.align	2
 1996              	.L123:
 1997 0154 002C0140 		.word	1073818624
 1998 0158 00340140 		.word	1073820672
 1999 015c 00400140 		.word	1073823744
 2000 0160 00440140 		.word	1073824768
 2001 0164 00480140 		.word	1073825792
 2002              		.cfi_endproc
 2003              	.LFE144:
 2005              		.section	.text.HAL_TIM_PWM_Init,"ax",%progbits
 2006              		.align	2
 2007              		.global	HAL_TIM_PWM_Init
 2008              		.thumb
 2009              		.thumb_func
 2011              	HAL_TIM_PWM_Init:
 2012              	.LFB145:
 953:Drivers/STM32F3xx_HAL_Driver/Src/stm32f3xx_hal_tim.c **** 
 954:Drivers/STM32F3xx_HAL_Driver/Src/stm32f3xx_hal_tim.c **** /**
 955:Drivers/STM32F3xx_HAL_Driver/Src/stm32f3xx_hal_tim.c ****   * @}
 956:Drivers/STM32F3xx_HAL_Driver/Src/stm32f3xx_hal_tim.c ****   */
 957:Drivers/STM32F3xx_HAL_Driver/Src/stm32f3xx_hal_tim.c **** 
 958:Drivers/STM32F3xx_HAL_Driver/Src/stm32f3xx_hal_tim.c **** /** @defgroup TIM_Exported_Functions_Group3 Time PWM functions 
 959:Drivers/STM32F3xx_HAL_Driver/Src/stm32f3xx_hal_tim.c ****  *  @brief    Time PWM functions 
 960:Drivers/STM32F3xx_HAL_Driver/Src/stm32f3xx_hal_tim.c ****  *
 961:Drivers/STM32F3xx_HAL_Driver/Src/stm32f3xx_hal_tim.c **** @verbatim    
 962:Drivers/STM32F3xx_HAL_Driver/Src/stm32f3xx_hal_tim.c ****   ==============================================================================
 963:Drivers/STM32F3xx_HAL_Driver/Src/stm32f3xx_hal_tim.c ****                           ##### Time PWM functions #####
 964:Drivers/STM32F3xx_HAL_Driver/Src/stm32f3xx_hal_tim.c ****   ==============================================================================
 965:Drivers/STM32F3xx_HAL_Driver/Src/stm32f3xx_hal_tim.c ****   [..]  
 966:Drivers/STM32F3xx_HAL_Driver/Src/stm32f3xx_hal_tim.c ****     This section provides functions allowing to:
 967:Drivers/STM32F3xx_HAL_Driver/Src/stm32f3xx_hal_tim.c ****     (+) Initialize and configure the TIM OPWM. 
 968:Drivers/STM32F3xx_HAL_Driver/Src/stm32f3xx_hal_tim.c ****     (+) De-initialize the TIM PWM.
 969:Drivers/STM32F3xx_HAL_Driver/Src/stm32f3xx_hal_tim.c ****     (+) Start the Time PWM.
 970:Drivers/STM32F3xx_HAL_Driver/Src/stm32f3xx_hal_tim.c ****     (+) Stop the Time PWM.
 971:Drivers/STM32F3xx_HAL_Driver/Src/stm32f3xx_hal_tim.c ****     (+) Start the Time PWM and enable interrupt.
 972:Drivers/STM32F3xx_HAL_Driver/Src/stm32f3xx_hal_tim.c ****     (+) Stop the Time PWM and disable interrupt.
 973:Drivers/STM32F3xx_HAL_Driver/Src/stm32f3xx_hal_tim.c ****     (+) Start the Time PWM and enable DMA transfer.
 974:Drivers/STM32F3xx_HAL_Driver/Src/stm32f3xx_hal_tim.c ****     (+) Stop the Time PWM and disable DMA transfer.
 975:Drivers/STM32F3xx_HAL_Driver/Src/stm32f3xx_hal_tim.c ****  
 976:Drivers/STM32F3xx_HAL_Driver/Src/stm32f3xx_hal_tim.c **** @endverbatim
 977:Drivers/STM32F3xx_HAL_Driver/Src/stm32f3xx_hal_tim.c ****   * @{
 978:Drivers/STM32F3xx_HAL_Driver/Src/stm32f3xx_hal_tim.c ****   */
 979:Drivers/STM32F3xx_HAL_Driver/Src/stm32f3xx_hal_tim.c **** /**
 980:Drivers/STM32F3xx_HAL_Driver/Src/stm32f3xx_hal_tim.c ****   * @brief  Initializes the TIM PWM Time Base according to the specified
 981:Drivers/STM32F3xx_HAL_Driver/Src/stm32f3xx_hal_tim.c ****   *         parameters in the TIM_HandleTypeDef and create the associated handle.
 982:Drivers/STM32F3xx_HAL_Driver/Src/stm32f3xx_hal_tim.c ****   * @param  htim: TIM handle
 983:Drivers/STM32F3xx_HAL_Driver/Src/stm32f3xx_hal_tim.c ****   * @retval HAL status
 984:Drivers/STM32F3xx_HAL_Driver/Src/stm32f3xx_hal_tim.c ****   */
 985:Drivers/STM32F3xx_HAL_Driver/Src/stm32f3xx_hal_tim.c **** HAL_StatusTypeDef HAL_TIM_PWM_Init(TIM_HandleTypeDef *htim)
 986:Drivers/STM32F3xx_HAL_Driver/Src/stm32f3xx_hal_tim.c **** {
 2013              		.loc 1 986 0
 2014              		.cfi_startproc
 2015              		@ args = 0, pretend = 0, frame = 8
 2016              		@ frame_needed = 1, uses_anonymous_args = 0
 2017 0000 80B5     		push	{r7, lr}
 2018              	.LCFI60:
 2019              		.cfi_def_cfa_offset 8
ARM GAS  /tmp/ccZyKULX.s 			page 53


 2020              		.cfi_offset 7, -8
 2021              		.cfi_offset 14, -4
 2022 0002 82B0     		sub	sp, sp, #8
 2023              	.LCFI61:
 2024              		.cfi_def_cfa_offset 16
 2025 0004 00AF     		add	r7, sp, #0
 2026              	.LCFI62:
 2027              		.cfi_def_cfa_register 7
 2028 0006 7860     		str	r0, [r7, #4]
 987:Drivers/STM32F3xx_HAL_Driver/Src/stm32f3xx_hal_tim.c ****   /* Check the TIM handle allocation */
 988:Drivers/STM32F3xx_HAL_Driver/Src/stm32f3xx_hal_tim.c ****   if(htim == NULL)
 2029              		.loc 1 988 0
 2030 0008 7B68     		ldr	r3, [r7, #4]
 2031 000a 002B     		cmp	r3, #0
 2032 000c 01D1     		bne	.L126
 989:Drivers/STM32F3xx_HAL_Driver/Src/stm32f3xx_hal_tim.c ****   {
 990:Drivers/STM32F3xx_HAL_Driver/Src/stm32f3xx_hal_tim.c ****     return HAL_ERROR;
 2033              		.loc 1 990 0
 2034 000e 0123     		movs	r3, #1
 2035 0010 1DE0     		b	.L127
 2036              	.L126:
 991:Drivers/STM32F3xx_HAL_Driver/Src/stm32f3xx_hal_tim.c ****   }
 992:Drivers/STM32F3xx_HAL_Driver/Src/stm32f3xx_hal_tim.c **** 
 993:Drivers/STM32F3xx_HAL_Driver/Src/stm32f3xx_hal_tim.c ****   /* Check the parameters */
 994:Drivers/STM32F3xx_HAL_Driver/Src/stm32f3xx_hal_tim.c ****   assert_param(IS_TIM_INSTANCE(htim->Instance));
 995:Drivers/STM32F3xx_HAL_Driver/Src/stm32f3xx_hal_tim.c ****   assert_param(IS_TIM_COUNTER_MODE(htim->Init.CounterMode));
 996:Drivers/STM32F3xx_HAL_Driver/Src/stm32f3xx_hal_tim.c ****   assert_param(IS_TIM_CLOCKDIVISION_DIV(htim->Init.ClockDivision));
 997:Drivers/STM32F3xx_HAL_Driver/Src/stm32f3xx_hal_tim.c **** 
 998:Drivers/STM32F3xx_HAL_Driver/Src/stm32f3xx_hal_tim.c ****   if(htim->State == HAL_TIM_STATE_RESET)
 2037              		.loc 1 998 0
 2038 0012 7B68     		ldr	r3, [r7, #4]
 2039 0014 93F83930 		ldrb	r3, [r3, #57]
 2040 0018 DBB2     		uxtb	r3, r3
 2041 001a 002B     		cmp	r3, #0
 2042 001c 06D1     		bne	.L128
 999:Drivers/STM32F3xx_HAL_Driver/Src/stm32f3xx_hal_tim.c ****   {
1000:Drivers/STM32F3xx_HAL_Driver/Src/stm32f3xx_hal_tim.c ****     /* Allocate lock resource and initialize it */
1001:Drivers/STM32F3xx_HAL_Driver/Src/stm32f3xx_hal_tim.c ****     htim->Lock = HAL_UNLOCKED;
 2043              		.loc 1 1001 0
 2044 001e 7B68     		ldr	r3, [r7, #4]
 2045 0020 0022     		movs	r2, #0
 2046 0022 83F83820 		strb	r2, [r3, #56]
1002:Drivers/STM32F3xx_HAL_Driver/Src/stm32f3xx_hal_tim.c **** 
1003:Drivers/STM32F3xx_HAL_Driver/Src/stm32f3xx_hal_tim.c ****     /* Init the low level hardware : GPIO, CLOCK, NVIC and DMA */
1004:Drivers/STM32F3xx_HAL_Driver/Src/stm32f3xx_hal_tim.c ****     HAL_TIM_PWM_MspInit(htim);
 2047              		.loc 1 1004 0
 2048 0026 7868     		ldr	r0, [r7, #4]
 2049 0028 FFF7FEFF 		bl	HAL_TIM_PWM_MspInit
 2050              	.L128:
1005:Drivers/STM32F3xx_HAL_Driver/Src/stm32f3xx_hal_tim.c ****   }
1006:Drivers/STM32F3xx_HAL_Driver/Src/stm32f3xx_hal_tim.c **** 
1007:Drivers/STM32F3xx_HAL_Driver/Src/stm32f3xx_hal_tim.c ****   /* Set the TIM state */
1008:Drivers/STM32F3xx_HAL_Driver/Src/stm32f3xx_hal_tim.c ****   htim->State= HAL_TIM_STATE_BUSY;
 2051              		.loc 1 1008 0
 2052 002c 7B68     		ldr	r3, [r7, #4]
 2053 002e 0222     		movs	r2, #2
 2054 0030 83F83920 		strb	r2, [r3, #57]
ARM GAS  /tmp/ccZyKULX.s 			page 54


1009:Drivers/STM32F3xx_HAL_Driver/Src/stm32f3xx_hal_tim.c ****  
1010:Drivers/STM32F3xx_HAL_Driver/Src/stm32f3xx_hal_tim.c ****   /* Init the base time for the PWM */  
1011:Drivers/STM32F3xx_HAL_Driver/Src/stm32f3xx_hal_tim.c ****   TIM_Base_SetConfig(htim->Instance, &htim->Init); 
 2055              		.loc 1 1011 0
 2056 0034 7B68     		ldr	r3, [r7, #4]
 2057 0036 1A68     		ldr	r2, [r3]
 2058 0038 7B68     		ldr	r3, [r7, #4]
 2059 003a 0433     		adds	r3, r3, #4
 2060 003c 1046     		mov	r0, r2
 2061 003e 1946     		mov	r1, r3
 2062 0040 FFF7FEFF 		bl	TIM_Base_SetConfig
1012:Drivers/STM32F3xx_HAL_Driver/Src/stm32f3xx_hal_tim.c ****    
1013:Drivers/STM32F3xx_HAL_Driver/Src/stm32f3xx_hal_tim.c ****   /* Initialize the TIM state*/
1014:Drivers/STM32F3xx_HAL_Driver/Src/stm32f3xx_hal_tim.c ****   htim->State= HAL_TIM_STATE_READY;
 2063              		.loc 1 1014 0
 2064 0044 7B68     		ldr	r3, [r7, #4]
 2065 0046 0122     		movs	r2, #1
 2066 0048 83F83920 		strb	r2, [r3, #57]
1015:Drivers/STM32F3xx_HAL_Driver/Src/stm32f3xx_hal_tim.c ****   
1016:Drivers/STM32F3xx_HAL_Driver/Src/stm32f3xx_hal_tim.c ****   return HAL_OK;
 2067              		.loc 1 1016 0
 2068 004c 0023     		movs	r3, #0
 2069              	.L127:
1017:Drivers/STM32F3xx_HAL_Driver/Src/stm32f3xx_hal_tim.c **** }
 2070              		.loc 1 1017 0
 2071 004e 1846     		mov	r0, r3
 2072 0050 0837     		adds	r7, r7, #8
 2073 0052 BD46     		mov	sp, r7
 2074              		@ sp needed
 2075 0054 80BD     		pop	{r7, pc}
 2076              		.cfi_endproc
 2077              	.LFE145:
 2079 0056 00BF     		.section	.text.HAL_TIM_PWM_DeInit,"ax",%progbits
 2080              		.align	2
 2081              		.global	HAL_TIM_PWM_DeInit
 2082              		.thumb
 2083              		.thumb_func
 2085              	HAL_TIM_PWM_DeInit:
 2086              	.LFB146:
1018:Drivers/STM32F3xx_HAL_Driver/Src/stm32f3xx_hal_tim.c **** 
1019:Drivers/STM32F3xx_HAL_Driver/Src/stm32f3xx_hal_tim.c **** /**
1020:Drivers/STM32F3xx_HAL_Driver/Src/stm32f3xx_hal_tim.c ****   * @brief  DeInitializes the TIM peripheral 
1021:Drivers/STM32F3xx_HAL_Driver/Src/stm32f3xx_hal_tim.c ****   * @param  htim: TIM handle
1022:Drivers/STM32F3xx_HAL_Driver/Src/stm32f3xx_hal_tim.c ****   * @retval HAL status
1023:Drivers/STM32F3xx_HAL_Driver/Src/stm32f3xx_hal_tim.c ****   */
1024:Drivers/STM32F3xx_HAL_Driver/Src/stm32f3xx_hal_tim.c **** HAL_StatusTypeDef HAL_TIM_PWM_DeInit(TIM_HandleTypeDef *htim)
1025:Drivers/STM32F3xx_HAL_Driver/Src/stm32f3xx_hal_tim.c **** {
 2087              		.loc 1 1025 0
 2088              		.cfi_startproc
 2089              		@ args = 0, pretend = 0, frame = 8
 2090              		@ frame_needed = 1, uses_anonymous_args = 0
 2091 0000 80B5     		push	{r7, lr}
 2092              	.LCFI63:
 2093              		.cfi_def_cfa_offset 8
 2094              		.cfi_offset 7, -8
 2095              		.cfi_offset 14, -4
 2096 0002 82B0     		sub	sp, sp, #8
ARM GAS  /tmp/ccZyKULX.s 			page 55


 2097              	.LCFI64:
 2098              		.cfi_def_cfa_offset 16
 2099 0004 00AF     		add	r7, sp, #0
 2100              	.LCFI65:
 2101              		.cfi_def_cfa_register 7
 2102 0006 7860     		str	r0, [r7, #4]
1026:Drivers/STM32F3xx_HAL_Driver/Src/stm32f3xx_hal_tim.c ****   /* Check the parameters */
1027:Drivers/STM32F3xx_HAL_Driver/Src/stm32f3xx_hal_tim.c ****   assert_param(IS_TIM_INSTANCE(htim->Instance));
1028:Drivers/STM32F3xx_HAL_Driver/Src/stm32f3xx_hal_tim.c ****   
1029:Drivers/STM32F3xx_HAL_Driver/Src/stm32f3xx_hal_tim.c ****   htim->State = HAL_TIM_STATE_BUSY;
 2103              		.loc 1 1029 0
 2104 0008 7B68     		ldr	r3, [r7, #4]
 2105 000a 0222     		movs	r2, #2
 2106 000c 83F83920 		strb	r2, [r3, #57]
1030:Drivers/STM32F3xx_HAL_Driver/Src/stm32f3xx_hal_tim.c ****   
1031:Drivers/STM32F3xx_HAL_Driver/Src/stm32f3xx_hal_tim.c ****   /* Disable the TIM Peripheral Clock */
1032:Drivers/STM32F3xx_HAL_Driver/Src/stm32f3xx_hal_tim.c ****   __HAL_TIM_DISABLE(htim);
 2107              		.loc 1 1032 0
 2108 0010 7B68     		ldr	r3, [r7, #4]
 2109 0012 1B68     		ldr	r3, [r3]
 2110 0014 1A6A     		ldr	r2, [r3, #32]
 2111 0016 41F21113 		movw	r3, #4369
 2112 001a 1340     		ands	r3, r3, r2
 2113 001c 002B     		cmp	r3, #0
 2114 001e 0FD1     		bne	.L130
 2115              		.loc 1 1032 0 is_stmt 0 discriminator 1
 2116 0020 7B68     		ldr	r3, [r7, #4]
 2117 0022 1B68     		ldr	r3, [r3]
 2118 0024 1A6A     		ldr	r2, [r3, #32]
 2119 0026 40F24443 		movw	r3, #1092
 2120 002a 1340     		ands	r3, r3, r2
 2121 002c 002B     		cmp	r3, #0
 2122 002e 07D1     		bne	.L130
 2123 0030 7B68     		ldr	r3, [r7, #4]
 2124 0032 1B68     		ldr	r3, [r3]
 2125 0034 7A68     		ldr	r2, [r7, #4]
 2126 0036 1268     		ldr	r2, [r2]
 2127 0038 1268     		ldr	r2, [r2]
 2128 003a 22F00102 		bic	r2, r2, #1
 2129 003e 1A60     		str	r2, [r3]
 2130              	.L130:
1033:Drivers/STM32F3xx_HAL_Driver/Src/stm32f3xx_hal_tim.c ****     
1034:Drivers/STM32F3xx_HAL_Driver/Src/stm32f3xx_hal_tim.c ****   /* DeInit the low level hardware: GPIO, CLOCK, NVIC and DMA */
1035:Drivers/STM32F3xx_HAL_Driver/Src/stm32f3xx_hal_tim.c ****   HAL_TIM_PWM_MspDeInit(htim);
 2131              		.loc 1 1035 0 is_stmt 1
 2132 0040 7868     		ldr	r0, [r7, #4]
 2133 0042 FFF7FEFF 		bl	HAL_TIM_PWM_MspDeInit
1036:Drivers/STM32F3xx_HAL_Driver/Src/stm32f3xx_hal_tim.c ****     
1037:Drivers/STM32F3xx_HAL_Driver/Src/stm32f3xx_hal_tim.c ****   /* Change TIM state */  
1038:Drivers/STM32F3xx_HAL_Driver/Src/stm32f3xx_hal_tim.c ****   htim->State = HAL_TIM_STATE_RESET; 
 2134              		.loc 1 1038 0
 2135 0046 7B68     		ldr	r3, [r7, #4]
 2136 0048 0022     		movs	r2, #0
 2137 004a 83F83920 		strb	r2, [r3, #57]
1039:Drivers/STM32F3xx_HAL_Driver/Src/stm32f3xx_hal_tim.c ****   
1040:Drivers/STM32F3xx_HAL_Driver/Src/stm32f3xx_hal_tim.c ****   /* Release Lock */
1041:Drivers/STM32F3xx_HAL_Driver/Src/stm32f3xx_hal_tim.c ****   __HAL_UNLOCK(htim);
ARM GAS  /tmp/ccZyKULX.s 			page 56


 2138              		.loc 1 1041 0
 2139 004e 7B68     		ldr	r3, [r7, #4]
 2140 0050 0022     		movs	r2, #0
 2141 0052 83F83820 		strb	r2, [r3, #56]
1042:Drivers/STM32F3xx_HAL_Driver/Src/stm32f3xx_hal_tim.c **** 
1043:Drivers/STM32F3xx_HAL_Driver/Src/stm32f3xx_hal_tim.c ****   return HAL_OK;
 2142              		.loc 1 1043 0
 2143 0056 0023     		movs	r3, #0
1044:Drivers/STM32F3xx_HAL_Driver/Src/stm32f3xx_hal_tim.c **** }
 2144              		.loc 1 1044 0
 2145 0058 1846     		mov	r0, r3
 2146 005a 0837     		adds	r7, r7, #8
 2147 005c BD46     		mov	sp, r7
 2148              		@ sp needed
 2149 005e 80BD     		pop	{r7, pc}
 2150              		.cfi_endproc
 2151              	.LFE146:
 2153              		.section	.text.HAL_TIM_PWM_MspInit,"ax",%progbits
 2154              		.align	2
 2155              		.weak	HAL_TIM_PWM_MspInit
 2156              		.thumb
 2157              		.thumb_func
 2159              	HAL_TIM_PWM_MspInit:
 2160              	.LFB147:
1045:Drivers/STM32F3xx_HAL_Driver/Src/stm32f3xx_hal_tim.c **** 
1046:Drivers/STM32F3xx_HAL_Driver/Src/stm32f3xx_hal_tim.c **** /**
1047:Drivers/STM32F3xx_HAL_Driver/Src/stm32f3xx_hal_tim.c ****   * @brief  Initializes the TIM PWM MSP.
1048:Drivers/STM32F3xx_HAL_Driver/Src/stm32f3xx_hal_tim.c ****   * @param  htim: TIM handle
1049:Drivers/STM32F3xx_HAL_Driver/Src/stm32f3xx_hal_tim.c ****   * @retval None
1050:Drivers/STM32F3xx_HAL_Driver/Src/stm32f3xx_hal_tim.c ****   */
1051:Drivers/STM32F3xx_HAL_Driver/Src/stm32f3xx_hal_tim.c **** __weak void HAL_TIM_PWM_MspInit(TIM_HandleTypeDef *htim)
1052:Drivers/STM32F3xx_HAL_Driver/Src/stm32f3xx_hal_tim.c **** {
 2161              		.loc 1 1052 0
 2162              		.cfi_startproc
 2163              		@ args = 0, pretend = 0, frame = 8
 2164              		@ frame_needed = 1, uses_anonymous_args = 0
 2165              		@ link register save eliminated.
 2166 0000 80B4     		push	{r7}
 2167              	.LCFI66:
 2168              		.cfi_def_cfa_offset 4
 2169              		.cfi_offset 7, -4
 2170 0002 83B0     		sub	sp, sp, #12
 2171              	.LCFI67:
 2172              		.cfi_def_cfa_offset 16
 2173 0004 00AF     		add	r7, sp, #0
 2174              	.LCFI68:
 2175              		.cfi_def_cfa_register 7
 2176 0006 7860     		str	r0, [r7, #4]
1053:Drivers/STM32F3xx_HAL_Driver/Src/stm32f3xx_hal_tim.c ****   /* Prevent unused argument(s) compilation warning */
1054:Drivers/STM32F3xx_HAL_Driver/Src/stm32f3xx_hal_tim.c ****   UNUSED(htim);
1055:Drivers/STM32F3xx_HAL_Driver/Src/stm32f3xx_hal_tim.c **** 
1056:Drivers/STM32F3xx_HAL_Driver/Src/stm32f3xx_hal_tim.c ****   /* NOTE : This function Should not be modified, when the callback is needed,
1057:Drivers/STM32F3xx_HAL_Driver/Src/stm32f3xx_hal_tim.c ****             the HAL_TIM_PWM_MspInit could be implemented in the user file
1058:Drivers/STM32F3xx_HAL_Driver/Src/stm32f3xx_hal_tim.c ****    */
1059:Drivers/STM32F3xx_HAL_Driver/Src/stm32f3xx_hal_tim.c **** }
 2177              		.loc 1 1059 0
 2178 0008 0C37     		adds	r7, r7, #12
ARM GAS  /tmp/ccZyKULX.s 			page 57


 2179 000a BD46     		mov	sp, r7
 2180              		@ sp needed
 2181 000c 5DF8047B 		ldr	r7, [sp], #4
 2182 0010 7047     		bx	lr
 2183              		.cfi_endproc
 2184              	.LFE147:
 2186 0012 00BF     		.section	.text.HAL_TIM_PWM_MspDeInit,"ax",%progbits
 2187              		.align	2
 2188              		.weak	HAL_TIM_PWM_MspDeInit
 2189              		.thumb
 2190              		.thumb_func
 2192              	HAL_TIM_PWM_MspDeInit:
 2193              	.LFB148:
1060:Drivers/STM32F3xx_HAL_Driver/Src/stm32f3xx_hal_tim.c **** 
1061:Drivers/STM32F3xx_HAL_Driver/Src/stm32f3xx_hal_tim.c **** /**
1062:Drivers/STM32F3xx_HAL_Driver/Src/stm32f3xx_hal_tim.c ****   * @brief  DeInitializes TIM PWM MSP.
1063:Drivers/STM32F3xx_HAL_Driver/Src/stm32f3xx_hal_tim.c ****   * @param  htim: TIM handle
1064:Drivers/STM32F3xx_HAL_Driver/Src/stm32f3xx_hal_tim.c ****   * @retval None
1065:Drivers/STM32F3xx_HAL_Driver/Src/stm32f3xx_hal_tim.c ****   */
1066:Drivers/STM32F3xx_HAL_Driver/Src/stm32f3xx_hal_tim.c **** __weak void HAL_TIM_PWM_MspDeInit(TIM_HandleTypeDef *htim)
1067:Drivers/STM32F3xx_HAL_Driver/Src/stm32f3xx_hal_tim.c **** {
 2194              		.loc 1 1067 0
 2195              		.cfi_startproc
 2196              		@ args = 0, pretend = 0, frame = 8
 2197              		@ frame_needed = 1, uses_anonymous_args = 0
 2198              		@ link register save eliminated.
 2199 0000 80B4     		push	{r7}
 2200              	.LCFI69:
 2201              		.cfi_def_cfa_offset 4
 2202              		.cfi_offset 7, -4
 2203 0002 83B0     		sub	sp, sp, #12
 2204              	.LCFI70:
 2205              		.cfi_def_cfa_offset 16
 2206 0004 00AF     		add	r7, sp, #0
 2207              	.LCFI71:
 2208              		.cfi_def_cfa_register 7
 2209 0006 7860     		str	r0, [r7, #4]
1068:Drivers/STM32F3xx_HAL_Driver/Src/stm32f3xx_hal_tim.c ****   /* Prevent unused argument(s) compilation warning */
1069:Drivers/STM32F3xx_HAL_Driver/Src/stm32f3xx_hal_tim.c ****   UNUSED(htim);
1070:Drivers/STM32F3xx_HAL_Driver/Src/stm32f3xx_hal_tim.c **** 
1071:Drivers/STM32F3xx_HAL_Driver/Src/stm32f3xx_hal_tim.c ****   /* NOTE : This function Should not be modified, when the callback is needed,
1072:Drivers/STM32F3xx_HAL_Driver/Src/stm32f3xx_hal_tim.c ****             the HAL_TIM_PWM_MspDeInit could be implemented in the user file
1073:Drivers/STM32F3xx_HAL_Driver/Src/stm32f3xx_hal_tim.c ****    */
1074:Drivers/STM32F3xx_HAL_Driver/Src/stm32f3xx_hal_tim.c **** }
 2210              		.loc 1 1074 0
 2211 0008 0C37     		adds	r7, r7, #12
 2212 000a BD46     		mov	sp, r7
 2213              		@ sp needed
 2214 000c 5DF8047B 		ldr	r7, [sp], #4
 2215 0010 7047     		bx	lr
 2216              		.cfi_endproc
 2217              	.LFE148:
 2219 0012 00BF     		.section	.text.HAL_TIM_PWM_Start,"ax",%progbits
 2220              		.align	2
 2221              		.global	HAL_TIM_PWM_Start
 2222              		.thumb
 2223              		.thumb_func
ARM GAS  /tmp/ccZyKULX.s 			page 58


 2225              	HAL_TIM_PWM_Start:
 2226              	.LFB149:
1075:Drivers/STM32F3xx_HAL_Driver/Src/stm32f3xx_hal_tim.c **** 
1076:Drivers/STM32F3xx_HAL_Driver/Src/stm32f3xx_hal_tim.c **** /**
1077:Drivers/STM32F3xx_HAL_Driver/Src/stm32f3xx_hal_tim.c ****   * @brief  Starts the PWM signal generation.
1078:Drivers/STM32F3xx_HAL_Driver/Src/stm32f3xx_hal_tim.c ****   * @param  htim: TIM handle
1079:Drivers/STM32F3xx_HAL_Driver/Src/stm32f3xx_hal_tim.c ****   * @param  Channel: TIM Channels to be enabled
1080:Drivers/STM32F3xx_HAL_Driver/Src/stm32f3xx_hal_tim.c ****   *          This parameter can be one of the following values:
1081:Drivers/STM32F3xx_HAL_Driver/Src/stm32f3xx_hal_tim.c ****   *            @arg TIM_CHANNEL_1: TIM Channel 1 selected
1082:Drivers/STM32F3xx_HAL_Driver/Src/stm32f3xx_hal_tim.c ****   *            @arg TIM_CHANNEL_2: TIM Channel 2 selected
1083:Drivers/STM32F3xx_HAL_Driver/Src/stm32f3xx_hal_tim.c ****   *            @arg TIM_CHANNEL_3: TIM Channel 3 selected
1084:Drivers/STM32F3xx_HAL_Driver/Src/stm32f3xx_hal_tim.c ****   *            @arg TIM_CHANNEL_4: TIM Channel 4 selected
1085:Drivers/STM32F3xx_HAL_Driver/Src/stm32f3xx_hal_tim.c ****   * @retval HAL status
1086:Drivers/STM32F3xx_HAL_Driver/Src/stm32f3xx_hal_tim.c **** */
1087:Drivers/STM32F3xx_HAL_Driver/Src/stm32f3xx_hal_tim.c **** HAL_StatusTypeDef HAL_TIM_PWM_Start(TIM_HandleTypeDef *htim, uint32_t Channel)
1088:Drivers/STM32F3xx_HAL_Driver/Src/stm32f3xx_hal_tim.c **** {
 2227              		.loc 1 1088 0
 2228              		.cfi_startproc
 2229              		@ args = 0, pretend = 0, frame = 8
 2230              		@ frame_needed = 1, uses_anonymous_args = 0
 2231 0000 80B5     		push	{r7, lr}
 2232              	.LCFI72:
 2233              		.cfi_def_cfa_offset 8
 2234              		.cfi_offset 7, -8
 2235              		.cfi_offset 14, -4
 2236 0002 82B0     		sub	sp, sp, #8
 2237              	.LCFI73:
 2238              		.cfi_def_cfa_offset 16
 2239 0004 00AF     		add	r7, sp, #0
 2240              	.LCFI74:
 2241              		.cfi_def_cfa_register 7
 2242 0006 7860     		str	r0, [r7, #4]
 2243 0008 3960     		str	r1, [r7]
1089:Drivers/STM32F3xx_HAL_Driver/Src/stm32f3xx_hal_tim.c ****   /* Check the parameters */
1090:Drivers/STM32F3xx_HAL_Driver/Src/stm32f3xx_hal_tim.c ****   assert_param(IS_TIM_CCX_INSTANCE(htim->Instance, Channel));
1091:Drivers/STM32F3xx_HAL_Driver/Src/stm32f3xx_hal_tim.c ****   
1092:Drivers/STM32F3xx_HAL_Driver/Src/stm32f3xx_hal_tim.c ****   /* Enable the Capture compare channel */
1093:Drivers/STM32F3xx_HAL_Driver/Src/stm32f3xx_hal_tim.c ****   TIM_CCxChannelCmd(htim->Instance, Channel, TIM_CCx_ENABLE);
 2244              		.loc 1 1093 0
 2245 000a 7B68     		ldr	r3, [r7, #4]
 2246 000c 1B68     		ldr	r3, [r3]
 2247 000e 1846     		mov	r0, r3
 2248 0010 3968     		ldr	r1, [r7]
 2249 0012 0122     		movs	r2, #1
 2250 0014 FFF7FEFF 		bl	TIM_CCxChannelCmd
1094:Drivers/STM32F3xx_HAL_Driver/Src/stm32f3xx_hal_tim.c ****   
1095:Drivers/STM32F3xx_HAL_Driver/Src/stm32f3xx_hal_tim.c ****   if(IS_TIM_BREAK_INSTANCE(htim->Instance) != RESET)  
 2251              		.loc 1 1095 0
 2252 0018 7B68     		ldr	r3, [r7, #4]
 2253 001a 1A68     		ldr	r2, [r3]
 2254 001c 184B     		ldr	r3, .L140
 2255 001e 9A42     		cmp	r2, r3
 2256 0020 13D0     		beq	.L135
 2257              		.loc 1 1095 0 is_stmt 0 discriminator 2
 2258 0022 7B68     		ldr	r3, [r7, #4]
 2259 0024 1A68     		ldr	r2, [r3]
 2260 0026 174B     		ldr	r3, .L140+4
ARM GAS  /tmp/ccZyKULX.s 			page 59


 2261 0028 9A42     		cmp	r2, r3
 2262 002a 0ED0     		beq	.L135
 2263              		.loc 1 1095 0 discriminator 1
 2264 002c 7B68     		ldr	r3, [r7, #4]
 2265 002e 1A68     		ldr	r2, [r3]
 2266 0030 154B     		ldr	r3, .L140+8
 2267 0032 9A42     		cmp	r2, r3
 2268 0034 09D0     		beq	.L135
 2269 0036 7B68     		ldr	r3, [r7, #4]
 2270 0038 1A68     		ldr	r2, [r3]
 2271 003a 144B     		ldr	r3, .L140+12
 2272 003c 9A42     		cmp	r2, r3
 2273 003e 04D0     		beq	.L135
 2274 0040 7B68     		ldr	r3, [r7, #4]
 2275 0042 1A68     		ldr	r2, [r3]
 2276 0044 124B     		ldr	r3, .L140+16
 2277 0046 9A42     		cmp	r2, r3
 2278 0048 01D1     		bne	.L136
 2279              	.L135:
 2280 004a 0123     		movs	r3, #1
 2281 004c 00E0     		b	.L137
 2282              	.L136:
 2283              		.loc 1 1095 0 discriminator 3
 2284 004e 0023     		movs	r3, #0
 2285              	.L137:
 2286              		.loc 1 1095 0 discriminator 4
 2287 0050 002B     		cmp	r3, #0
 2288 0052 07D0     		beq	.L138
1096:Drivers/STM32F3xx_HAL_Driver/Src/stm32f3xx_hal_tim.c ****   {
1097:Drivers/STM32F3xx_HAL_Driver/Src/stm32f3xx_hal_tim.c ****     /* Enable the main output */
1098:Drivers/STM32F3xx_HAL_Driver/Src/stm32f3xx_hal_tim.c ****     __HAL_TIM_MOE_ENABLE(htim);
 2289              		.loc 1 1098 0 is_stmt 1
 2290 0054 7B68     		ldr	r3, [r7, #4]
 2291 0056 1B68     		ldr	r3, [r3]
 2292 0058 7A68     		ldr	r2, [r7, #4]
 2293 005a 1268     		ldr	r2, [r2]
 2294 005c 526C     		ldr	r2, [r2, #68]
 2295 005e 42F40042 		orr	r2, r2, #32768
 2296 0062 5A64     		str	r2, [r3, #68]
 2297              	.L138:
1099:Drivers/STM32F3xx_HAL_Driver/Src/stm32f3xx_hal_tim.c ****   }
1100:Drivers/STM32F3xx_HAL_Driver/Src/stm32f3xx_hal_tim.c ****     
1101:Drivers/STM32F3xx_HAL_Driver/Src/stm32f3xx_hal_tim.c ****   /* Enable the Peripheral */
1102:Drivers/STM32F3xx_HAL_Driver/Src/stm32f3xx_hal_tim.c ****   __HAL_TIM_ENABLE(htim);
 2298              		.loc 1 1102 0
 2299 0064 7B68     		ldr	r3, [r7, #4]
 2300 0066 1B68     		ldr	r3, [r3]
 2301 0068 7A68     		ldr	r2, [r7, #4]
 2302 006a 1268     		ldr	r2, [r2]
 2303 006c 1268     		ldr	r2, [r2]
 2304 006e 42F00102 		orr	r2, r2, #1
 2305 0072 1A60     		str	r2, [r3]
1103:Drivers/STM32F3xx_HAL_Driver/Src/stm32f3xx_hal_tim.c ****   
1104:Drivers/STM32F3xx_HAL_Driver/Src/stm32f3xx_hal_tim.c ****   /* Return function status */
1105:Drivers/STM32F3xx_HAL_Driver/Src/stm32f3xx_hal_tim.c ****   return HAL_OK;
 2306              		.loc 1 1105 0
 2307 0074 0023     		movs	r3, #0
ARM GAS  /tmp/ccZyKULX.s 			page 60


1106:Drivers/STM32F3xx_HAL_Driver/Src/stm32f3xx_hal_tim.c **** } 
 2308              		.loc 1 1106 0
 2309 0076 1846     		mov	r0, r3
 2310 0078 0837     		adds	r7, r7, #8
 2311 007a BD46     		mov	sp, r7
 2312              		@ sp needed
 2313 007c 80BD     		pop	{r7, pc}
 2314              	.L141:
 2315 007e 00BF     		.align	2
 2316              	.L140:
 2317 0080 002C0140 		.word	1073818624
 2318 0084 00340140 		.word	1073820672
 2319 0088 00400140 		.word	1073823744
 2320 008c 00440140 		.word	1073824768
 2321 0090 00480140 		.word	1073825792
 2322              		.cfi_endproc
 2323              	.LFE149:
 2325              		.section	.text.HAL_TIM_PWM_Stop,"ax",%progbits
 2326              		.align	2
 2327              		.global	HAL_TIM_PWM_Stop
 2328              		.thumb
 2329              		.thumb_func
 2331              	HAL_TIM_PWM_Stop:
 2332              	.LFB150:
1107:Drivers/STM32F3xx_HAL_Driver/Src/stm32f3xx_hal_tim.c **** 
1108:Drivers/STM32F3xx_HAL_Driver/Src/stm32f3xx_hal_tim.c **** /**
1109:Drivers/STM32F3xx_HAL_Driver/Src/stm32f3xx_hal_tim.c ****   * @brief  Stops the PWM signal generation.
1110:Drivers/STM32F3xx_HAL_Driver/Src/stm32f3xx_hal_tim.c ****   * @param  htim: TIM handle
1111:Drivers/STM32F3xx_HAL_Driver/Src/stm32f3xx_hal_tim.c ****   * @param  Channel: TIM Channels to be disabled
1112:Drivers/STM32F3xx_HAL_Driver/Src/stm32f3xx_hal_tim.c ****   *          This parameter can be one of the following values:
1113:Drivers/STM32F3xx_HAL_Driver/Src/stm32f3xx_hal_tim.c ****   *            @arg TIM_CHANNEL_1: TIM Channel 1 selected
1114:Drivers/STM32F3xx_HAL_Driver/Src/stm32f3xx_hal_tim.c ****   *            @arg TIM_CHANNEL_2: TIM Channel 2 selected
1115:Drivers/STM32F3xx_HAL_Driver/Src/stm32f3xx_hal_tim.c ****   *            @arg TIM_CHANNEL_3: TIM Channel 3 selected
1116:Drivers/STM32F3xx_HAL_Driver/Src/stm32f3xx_hal_tim.c ****   *            @arg TIM_CHANNEL_4: TIM Channel 4 selected
1117:Drivers/STM32F3xx_HAL_Driver/Src/stm32f3xx_hal_tim.c ****   * @retval HAL status
1118:Drivers/STM32F3xx_HAL_Driver/Src/stm32f3xx_hal_tim.c **** */
1119:Drivers/STM32F3xx_HAL_Driver/Src/stm32f3xx_hal_tim.c **** HAL_StatusTypeDef HAL_TIM_PWM_Stop(TIM_HandleTypeDef *htim, uint32_t Channel)
1120:Drivers/STM32F3xx_HAL_Driver/Src/stm32f3xx_hal_tim.c **** {   
 2333              		.loc 1 1120 0
 2334              		.cfi_startproc
 2335              		@ args = 0, pretend = 0, frame = 8
 2336              		@ frame_needed = 1, uses_anonymous_args = 0
 2337 0000 80B5     		push	{r7, lr}
 2338              	.LCFI75:
 2339              		.cfi_def_cfa_offset 8
 2340              		.cfi_offset 7, -8
 2341              		.cfi_offset 14, -4
 2342 0002 82B0     		sub	sp, sp, #8
 2343              	.LCFI76:
 2344              		.cfi_def_cfa_offset 16
 2345 0004 00AF     		add	r7, sp, #0
 2346              	.LCFI77:
 2347              		.cfi_def_cfa_register 7
 2348 0006 7860     		str	r0, [r7, #4]
 2349 0008 3960     		str	r1, [r7]
1121:Drivers/STM32F3xx_HAL_Driver/Src/stm32f3xx_hal_tim.c ****   /* Check the parameters */
1122:Drivers/STM32F3xx_HAL_Driver/Src/stm32f3xx_hal_tim.c ****   assert_param(IS_TIM_CCX_INSTANCE(htim->Instance, Channel));
ARM GAS  /tmp/ccZyKULX.s 			page 61


1123:Drivers/STM32F3xx_HAL_Driver/Src/stm32f3xx_hal_tim.c ****     
1124:Drivers/STM32F3xx_HAL_Driver/Src/stm32f3xx_hal_tim.c ****   /* Disable the Capture compare channel */
1125:Drivers/STM32F3xx_HAL_Driver/Src/stm32f3xx_hal_tim.c ****   TIM_CCxChannelCmd(htim->Instance, Channel, TIM_CCx_DISABLE);
 2350              		.loc 1 1125 0
 2351 000a 7B68     		ldr	r3, [r7, #4]
 2352 000c 1B68     		ldr	r3, [r3]
 2353 000e 1846     		mov	r0, r3
 2354 0010 3968     		ldr	r1, [r7]
 2355 0012 0022     		movs	r2, #0
 2356 0014 FFF7FEFF 		bl	TIM_CCxChannelCmd
1126:Drivers/STM32F3xx_HAL_Driver/Src/stm32f3xx_hal_tim.c ****   
1127:Drivers/STM32F3xx_HAL_Driver/Src/stm32f3xx_hal_tim.c ****   if(IS_TIM_BREAK_INSTANCE(htim->Instance) != RESET)  
 2357              		.loc 1 1127 0
 2358 0018 7B68     		ldr	r3, [r7, #4]
 2359 001a 1A68     		ldr	r2, [r3]
 2360 001c 2A4B     		ldr	r3, .L149
 2361 001e 9A42     		cmp	r2, r3
 2362 0020 13D0     		beq	.L143
 2363              		.loc 1 1127 0 is_stmt 0 discriminator 2
 2364 0022 7B68     		ldr	r3, [r7, #4]
 2365 0024 1A68     		ldr	r2, [r3]
 2366 0026 294B     		ldr	r3, .L149+4
 2367 0028 9A42     		cmp	r2, r3
 2368 002a 0ED0     		beq	.L143
 2369              		.loc 1 1127 0 discriminator 1
 2370 002c 7B68     		ldr	r3, [r7, #4]
 2371 002e 1A68     		ldr	r2, [r3]
 2372 0030 274B     		ldr	r3, .L149+8
 2373 0032 9A42     		cmp	r2, r3
 2374 0034 09D0     		beq	.L143
 2375 0036 7B68     		ldr	r3, [r7, #4]
 2376 0038 1A68     		ldr	r2, [r3]
 2377 003a 264B     		ldr	r3, .L149+12
 2378 003c 9A42     		cmp	r2, r3
 2379 003e 04D0     		beq	.L143
 2380 0040 7B68     		ldr	r3, [r7, #4]
 2381 0042 1A68     		ldr	r2, [r3]
 2382 0044 244B     		ldr	r3, .L149+16
 2383 0046 9A42     		cmp	r2, r3
 2384 0048 01D1     		bne	.L144
 2385              	.L143:
 2386 004a 0123     		movs	r3, #1
 2387 004c 00E0     		b	.L145
 2388              	.L144:
 2389              		.loc 1 1127 0 discriminator 3
 2390 004e 0023     		movs	r3, #0
 2391              	.L145:
 2392              		.loc 1 1127 0 discriminator 4
 2393 0050 002B     		cmp	r3, #0
 2394 0052 17D0     		beq	.L146
1128:Drivers/STM32F3xx_HAL_Driver/Src/stm32f3xx_hal_tim.c ****   {
1129:Drivers/STM32F3xx_HAL_Driver/Src/stm32f3xx_hal_tim.c ****     /* Disable the Main Ouput */
1130:Drivers/STM32F3xx_HAL_Driver/Src/stm32f3xx_hal_tim.c ****     __HAL_TIM_MOE_DISABLE(htim);
 2395              		.loc 1 1130 0 is_stmt 1
 2396 0054 7B68     		ldr	r3, [r7, #4]
 2397 0056 1B68     		ldr	r3, [r3]
 2398 0058 1A6A     		ldr	r2, [r3, #32]
ARM GAS  /tmp/ccZyKULX.s 			page 62


 2399 005a 41F21113 		movw	r3, #4369
 2400 005e 1340     		ands	r3, r3, r2
 2401 0060 002B     		cmp	r3, #0
 2402 0062 0FD1     		bne	.L146
 2403              		.loc 1 1130 0 is_stmt 0 discriminator 1
 2404 0064 7B68     		ldr	r3, [r7, #4]
 2405 0066 1B68     		ldr	r3, [r3]
 2406 0068 1A6A     		ldr	r2, [r3, #32]
 2407 006a 40F24443 		movw	r3, #1092
 2408 006e 1340     		ands	r3, r3, r2
 2409 0070 002B     		cmp	r3, #0
 2410 0072 07D1     		bne	.L146
 2411 0074 7B68     		ldr	r3, [r7, #4]
 2412 0076 1B68     		ldr	r3, [r3]
 2413 0078 7A68     		ldr	r2, [r7, #4]
 2414 007a 1268     		ldr	r2, [r2]
 2415 007c 526C     		ldr	r2, [r2, #68]
 2416 007e 22F40042 		bic	r2, r2, #32768
 2417 0082 5A64     		str	r2, [r3, #68]
 2418              	.L146:
1131:Drivers/STM32F3xx_HAL_Driver/Src/stm32f3xx_hal_tim.c ****   }
1132:Drivers/STM32F3xx_HAL_Driver/Src/stm32f3xx_hal_tim.c ****   
1133:Drivers/STM32F3xx_HAL_Driver/Src/stm32f3xx_hal_tim.c ****   /* Disable the Peripheral */
1134:Drivers/STM32F3xx_HAL_Driver/Src/stm32f3xx_hal_tim.c ****   __HAL_TIM_DISABLE(htim);
 2419              		.loc 1 1134 0 is_stmt 1
 2420 0084 7B68     		ldr	r3, [r7, #4]
 2421 0086 1B68     		ldr	r3, [r3]
 2422 0088 1A6A     		ldr	r2, [r3, #32]
 2423 008a 41F21113 		movw	r3, #4369
 2424 008e 1340     		ands	r3, r3, r2
 2425 0090 002B     		cmp	r3, #0
 2426 0092 0FD1     		bne	.L147
 2427              		.loc 1 1134 0 is_stmt 0 discriminator 1
 2428 0094 7B68     		ldr	r3, [r7, #4]
 2429 0096 1B68     		ldr	r3, [r3]
 2430 0098 1A6A     		ldr	r2, [r3, #32]
 2431 009a 40F24443 		movw	r3, #1092
 2432 009e 1340     		ands	r3, r3, r2
 2433 00a0 002B     		cmp	r3, #0
 2434 00a2 07D1     		bne	.L147
 2435 00a4 7B68     		ldr	r3, [r7, #4]
 2436 00a6 1B68     		ldr	r3, [r3]
 2437 00a8 7A68     		ldr	r2, [r7, #4]
 2438 00aa 1268     		ldr	r2, [r2]
 2439 00ac 1268     		ldr	r2, [r2]
 2440 00ae 22F00102 		bic	r2, r2, #1
 2441 00b2 1A60     		str	r2, [r3]
 2442              	.L147:
1135:Drivers/STM32F3xx_HAL_Driver/Src/stm32f3xx_hal_tim.c ****   
1136:Drivers/STM32F3xx_HAL_Driver/Src/stm32f3xx_hal_tim.c ****   /* Change the htim state */
1137:Drivers/STM32F3xx_HAL_Driver/Src/stm32f3xx_hal_tim.c ****   htim->State = HAL_TIM_STATE_READY;
 2443              		.loc 1 1137 0 is_stmt 1
 2444 00b4 7B68     		ldr	r3, [r7, #4]
 2445 00b6 0122     		movs	r2, #1
 2446 00b8 83F83920 		strb	r2, [r3, #57]
1138:Drivers/STM32F3xx_HAL_Driver/Src/stm32f3xx_hal_tim.c ****   
1139:Drivers/STM32F3xx_HAL_Driver/Src/stm32f3xx_hal_tim.c ****   /* Return function status */
ARM GAS  /tmp/ccZyKULX.s 			page 63


1140:Drivers/STM32F3xx_HAL_Driver/Src/stm32f3xx_hal_tim.c ****   return HAL_OK;
 2447              		.loc 1 1140 0
 2448 00bc 0023     		movs	r3, #0
1141:Drivers/STM32F3xx_HAL_Driver/Src/stm32f3xx_hal_tim.c **** } 
 2449              		.loc 1 1141 0
 2450 00be 1846     		mov	r0, r3
 2451 00c0 0837     		adds	r7, r7, #8
 2452 00c2 BD46     		mov	sp, r7
 2453              		@ sp needed
 2454 00c4 80BD     		pop	{r7, pc}
 2455              	.L150:
 2456 00c6 00BF     		.align	2
 2457              	.L149:
 2458 00c8 002C0140 		.word	1073818624
 2459 00cc 00340140 		.word	1073820672
 2460 00d0 00400140 		.word	1073823744
 2461 00d4 00440140 		.word	1073824768
 2462 00d8 00480140 		.word	1073825792
 2463              		.cfi_endproc
 2464              	.LFE150:
 2466              		.section	.text.HAL_TIM_PWM_Start_IT,"ax",%progbits
 2467              		.align	2
 2468              		.global	HAL_TIM_PWM_Start_IT
 2469              		.thumb
 2470              		.thumb_func
 2472              	HAL_TIM_PWM_Start_IT:
 2473              	.LFB151:
1142:Drivers/STM32F3xx_HAL_Driver/Src/stm32f3xx_hal_tim.c **** 
1143:Drivers/STM32F3xx_HAL_Driver/Src/stm32f3xx_hal_tim.c **** /**
1144:Drivers/STM32F3xx_HAL_Driver/Src/stm32f3xx_hal_tim.c ****   * @brief  Starts the PWM signal generation in interrupt mode.
1145:Drivers/STM32F3xx_HAL_Driver/Src/stm32f3xx_hal_tim.c ****   * @param  htim: TIM handle
1146:Drivers/STM32F3xx_HAL_Driver/Src/stm32f3xx_hal_tim.c ****   * @param  Channel: TIM Channel to be disabled
1147:Drivers/STM32F3xx_HAL_Driver/Src/stm32f3xx_hal_tim.c ****   *          This parameter can be one of the following values:
1148:Drivers/STM32F3xx_HAL_Driver/Src/stm32f3xx_hal_tim.c ****   *            @arg TIM_CHANNEL_1: TIM Channel 1 selected
1149:Drivers/STM32F3xx_HAL_Driver/Src/stm32f3xx_hal_tim.c ****   *            @arg TIM_CHANNEL_2: TIM Channel 2 selected
1150:Drivers/STM32F3xx_HAL_Driver/Src/stm32f3xx_hal_tim.c ****   *            @arg TIM_CHANNEL_3: TIM Channel 3 selected
1151:Drivers/STM32F3xx_HAL_Driver/Src/stm32f3xx_hal_tim.c ****   *            @arg TIM_CHANNEL_4: TIM Channel 4 selected
1152:Drivers/STM32F3xx_HAL_Driver/Src/stm32f3xx_hal_tim.c ****   * @retval HAL status
1153:Drivers/STM32F3xx_HAL_Driver/Src/stm32f3xx_hal_tim.c **** */
1154:Drivers/STM32F3xx_HAL_Driver/Src/stm32f3xx_hal_tim.c **** HAL_StatusTypeDef HAL_TIM_PWM_Start_IT(TIM_HandleTypeDef *htim, uint32_t Channel)
1155:Drivers/STM32F3xx_HAL_Driver/Src/stm32f3xx_hal_tim.c **** {
 2474              		.loc 1 1155 0
 2475              		.cfi_startproc
 2476              		@ args = 0, pretend = 0, frame = 8
 2477              		@ frame_needed = 1, uses_anonymous_args = 0
 2478 0000 80B5     		push	{r7, lr}
 2479              	.LCFI78:
 2480              		.cfi_def_cfa_offset 8
 2481              		.cfi_offset 7, -8
 2482              		.cfi_offset 14, -4
 2483 0002 82B0     		sub	sp, sp, #8
 2484              	.LCFI79:
 2485              		.cfi_def_cfa_offset 16
 2486 0004 00AF     		add	r7, sp, #0
 2487              	.LCFI80:
 2488              		.cfi_def_cfa_register 7
 2489 0006 7860     		str	r0, [r7, #4]
ARM GAS  /tmp/ccZyKULX.s 			page 64


 2490 0008 3960     		str	r1, [r7]
1156:Drivers/STM32F3xx_HAL_Driver/Src/stm32f3xx_hal_tim.c ****   /* Check the parameters */
1157:Drivers/STM32F3xx_HAL_Driver/Src/stm32f3xx_hal_tim.c ****   assert_param(IS_TIM_CCX_INSTANCE(htim->Instance, Channel));
1158:Drivers/STM32F3xx_HAL_Driver/Src/stm32f3xx_hal_tim.c ****   
1159:Drivers/STM32F3xx_HAL_Driver/Src/stm32f3xx_hal_tim.c ****   switch (Channel)
 2491              		.loc 1 1159 0
 2492 000a 3B68     		ldr	r3, [r7]
 2493 000c 0C2B     		cmp	r3, #12
 2494 000e 41D8     		bhi	.L164
 2495 0010 01A2     		adr	r2, .L154
 2496 0012 52F823F0 		ldr	pc, [r2, r3, lsl #2]
 2497 0016 00BF     		.p2align 2
 2498              	.L154:
 2499 0018 4D000000 		.word	.L153+1
 2500 001c 95000000 		.word	.L164+1
 2501 0020 95000000 		.word	.L164+1
 2502 0024 95000000 		.word	.L164+1
 2503 0028 5F000000 		.word	.L155+1
 2504 002c 95000000 		.word	.L164+1
 2505 0030 95000000 		.word	.L164+1
 2506 0034 95000000 		.word	.L164+1
 2507 0038 71000000 		.word	.L156+1
 2508 003c 95000000 		.word	.L164+1
 2509 0040 95000000 		.word	.L164+1
 2510 0044 95000000 		.word	.L164+1
 2511 0048 83000000 		.word	.L157+1
 2512              		.p2align 1
 2513              	.L153:
1160:Drivers/STM32F3xx_HAL_Driver/Src/stm32f3xx_hal_tim.c ****   {
1161:Drivers/STM32F3xx_HAL_Driver/Src/stm32f3xx_hal_tim.c ****     case TIM_CHANNEL_1:
1162:Drivers/STM32F3xx_HAL_Driver/Src/stm32f3xx_hal_tim.c ****     {       
1163:Drivers/STM32F3xx_HAL_Driver/Src/stm32f3xx_hal_tim.c ****       /* Enable the TIM Capture/Compare 1 interrupt */
1164:Drivers/STM32F3xx_HAL_Driver/Src/stm32f3xx_hal_tim.c ****       __HAL_TIM_ENABLE_IT(htim, TIM_IT_CC1);
 2514              		.loc 1 1164 0
 2515 004c 7B68     		ldr	r3, [r7, #4]
 2516 004e 1B68     		ldr	r3, [r3]
 2517 0050 7A68     		ldr	r2, [r7, #4]
 2518 0052 1268     		ldr	r2, [r2]
 2519 0054 D268     		ldr	r2, [r2, #12]
 2520 0056 42F00202 		orr	r2, r2, #2
 2521 005a DA60     		str	r2, [r3, #12]
1165:Drivers/STM32F3xx_HAL_Driver/Src/stm32f3xx_hal_tim.c ****     }
1166:Drivers/STM32F3xx_HAL_Driver/Src/stm32f3xx_hal_tim.c ****     break;
 2522              		.loc 1 1166 0
 2523 005c 1BE0     		b	.L158
 2524              	.L155:
1167:Drivers/STM32F3xx_HAL_Driver/Src/stm32f3xx_hal_tim.c ****     
1168:Drivers/STM32F3xx_HAL_Driver/Src/stm32f3xx_hal_tim.c ****     case TIM_CHANNEL_2:
1169:Drivers/STM32F3xx_HAL_Driver/Src/stm32f3xx_hal_tim.c ****     {
1170:Drivers/STM32F3xx_HAL_Driver/Src/stm32f3xx_hal_tim.c ****       /* Enable the TIM Capture/Compare 2 interrupt */
1171:Drivers/STM32F3xx_HAL_Driver/Src/stm32f3xx_hal_tim.c ****       __HAL_TIM_ENABLE_IT(htim, TIM_IT_CC2);
 2525              		.loc 1 1171 0
 2526 005e 7B68     		ldr	r3, [r7, #4]
 2527 0060 1B68     		ldr	r3, [r3]
 2528 0062 7A68     		ldr	r2, [r7, #4]
 2529 0064 1268     		ldr	r2, [r2]
 2530 0066 D268     		ldr	r2, [r2, #12]
ARM GAS  /tmp/ccZyKULX.s 			page 65


 2531 0068 42F00402 		orr	r2, r2, #4
 2532 006c DA60     		str	r2, [r3, #12]
1172:Drivers/STM32F3xx_HAL_Driver/Src/stm32f3xx_hal_tim.c ****     }
1173:Drivers/STM32F3xx_HAL_Driver/Src/stm32f3xx_hal_tim.c ****     break;
 2533              		.loc 1 1173 0
 2534 006e 12E0     		b	.L158
 2535              	.L156:
1174:Drivers/STM32F3xx_HAL_Driver/Src/stm32f3xx_hal_tim.c ****     
1175:Drivers/STM32F3xx_HAL_Driver/Src/stm32f3xx_hal_tim.c ****     case TIM_CHANNEL_3:
1176:Drivers/STM32F3xx_HAL_Driver/Src/stm32f3xx_hal_tim.c ****     {
1177:Drivers/STM32F3xx_HAL_Driver/Src/stm32f3xx_hal_tim.c ****       /* Enable the TIM Capture/Compare 3 interrupt */
1178:Drivers/STM32F3xx_HAL_Driver/Src/stm32f3xx_hal_tim.c ****       __HAL_TIM_ENABLE_IT(htim, TIM_IT_CC3);
 2536              		.loc 1 1178 0
 2537 0070 7B68     		ldr	r3, [r7, #4]
 2538 0072 1B68     		ldr	r3, [r3]
 2539 0074 7A68     		ldr	r2, [r7, #4]
 2540 0076 1268     		ldr	r2, [r2]
 2541 0078 D268     		ldr	r2, [r2, #12]
 2542 007a 42F00802 		orr	r2, r2, #8
 2543 007e DA60     		str	r2, [r3, #12]
1179:Drivers/STM32F3xx_HAL_Driver/Src/stm32f3xx_hal_tim.c ****     }
1180:Drivers/STM32F3xx_HAL_Driver/Src/stm32f3xx_hal_tim.c ****     break;
 2544              		.loc 1 1180 0
 2545 0080 09E0     		b	.L158
 2546              	.L157:
1181:Drivers/STM32F3xx_HAL_Driver/Src/stm32f3xx_hal_tim.c ****     
1182:Drivers/STM32F3xx_HAL_Driver/Src/stm32f3xx_hal_tim.c ****     case TIM_CHANNEL_4:
1183:Drivers/STM32F3xx_HAL_Driver/Src/stm32f3xx_hal_tim.c ****     {
1184:Drivers/STM32F3xx_HAL_Driver/Src/stm32f3xx_hal_tim.c ****       /* Enable the TIM Capture/Compare 4 interrupt */
1185:Drivers/STM32F3xx_HAL_Driver/Src/stm32f3xx_hal_tim.c ****       __HAL_TIM_ENABLE_IT(htim, TIM_IT_CC4);
 2547              		.loc 1 1185 0
 2548 0082 7B68     		ldr	r3, [r7, #4]
 2549 0084 1B68     		ldr	r3, [r3]
 2550 0086 7A68     		ldr	r2, [r7, #4]
 2551 0088 1268     		ldr	r2, [r2]
 2552 008a D268     		ldr	r2, [r2, #12]
 2553 008c 42F01002 		orr	r2, r2, #16
 2554 0090 DA60     		str	r2, [r3, #12]
1186:Drivers/STM32F3xx_HAL_Driver/Src/stm32f3xx_hal_tim.c ****     }
1187:Drivers/STM32F3xx_HAL_Driver/Src/stm32f3xx_hal_tim.c ****     break;
 2555              		.loc 1 1187 0
 2556 0092 00E0     		b	.L158
 2557              	.L164:
1188:Drivers/STM32F3xx_HAL_Driver/Src/stm32f3xx_hal_tim.c ****     
1189:Drivers/STM32F3xx_HAL_Driver/Src/stm32f3xx_hal_tim.c ****     default:
1190:Drivers/STM32F3xx_HAL_Driver/Src/stm32f3xx_hal_tim.c ****     break;
 2558              		.loc 1 1190 0
 2559 0094 00BF     		nop
 2560              	.L158:
1191:Drivers/STM32F3xx_HAL_Driver/Src/stm32f3xx_hal_tim.c ****   } 
1192:Drivers/STM32F3xx_HAL_Driver/Src/stm32f3xx_hal_tim.c ****   
1193:Drivers/STM32F3xx_HAL_Driver/Src/stm32f3xx_hal_tim.c ****   /* Enable the Capture compare channel */
1194:Drivers/STM32F3xx_HAL_Driver/Src/stm32f3xx_hal_tim.c ****   TIM_CCxChannelCmd(htim->Instance, Channel, TIM_CCx_ENABLE);
 2561              		.loc 1 1194 0
 2562 0096 7B68     		ldr	r3, [r7, #4]
 2563 0098 1B68     		ldr	r3, [r3]
 2564 009a 1846     		mov	r0, r3
ARM GAS  /tmp/ccZyKULX.s 			page 66


 2565 009c 3968     		ldr	r1, [r7]
 2566 009e 0122     		movs	r2, #1
 2567 00a0 FFF7FEFF 		bl	TIM_CCxChannelCmd
1195:Drivers/STM32F3xx_HAL_Driver/Src/stm32f3xx_hal_tim.c ****   
1196:Drivers/STM32F3xx_HAL_Driver/Src/stm32f3xx_hal_tim.c ****   if(IS_TIM_BREAK_INSTANCE(htim->Instance) != RESET)  
 2568              		.loc 1 1196 0
 2569 00a4 7B68     		ldr	r3, [r7, #4]
 2570 00a6 1A68     		ldr	r2, [r3]
 2571 00a8 184B     		ldr	r3, .L165
 2572 00aa 9A42     		cmp	r2, r3
 2573 00ac 13D0     		beq	.L159
 2574              		.loc 1 1196 0 is_stmt 0 discriminator 2
 2575 00ae 7B68     		ldr	r3, [r7, #4]
 2576 00b0 1A68     		ldr	r2, [r3]
 2577 00b2 174B     		ldr	r3, .L165+4
 2578 00b4 9A42     		cmp	r2, r3
 2579 00b6 0ED0     		beq	.L159
 2580              		.loc 1 1196 0 discriminator 1
 2581 00b8 7B68     		ldr	r3, [r7, #4]
 2582 00ba 1A68     		ldr	r2, [r3]
 2583 00bc 154B     		ldr	r3, .L165+8
 2584 00be 9A42     		cmp	r2, r3
 2585 00c0 09D0     		beq	.L159
 2586 00c2 7B68     		ldr	r3, [r7, #4]
 2587 00c4 1A68     		ldr	r2, [r3]
 2588 00c6 144B     		ldr	r3, .L165+12
 2589 00c8 9A42     		cmp	r2, r3
 2590 00ca 04D0     		beq	.L159
 2591 00cc 7B68     		ldr	r3, [r7, #4]
 2592 00ce 1A68     		ldr	r2, [r3]
 2593 00d0 124B     		ldr	r3, .L165+16
 2594 00d2 9A42     		cmp	r2, r3
 2595 00d4 01D1     		bne	.L160
 2596              	.L159:
 2597 00d6 0123     		movs	r3, #1
 2598 00d8 00E0     		b	.L161
 2599              	.L160:
 2600              		.loc 1 1196 0 discriminator 3
 2601 00da 0023     		movs	r3, #0
 2602              	.L161:
 2603              		.loc 1 1196 0 discriminator 4
 2604 00dc 002B     		cmp	r3, #0
 2605 00de 07D0     		beq	.L162
1197:Drivers/STM32F3xx_HAL_Driver/Src/stm32f3xx_hal_tim.c ****   {
1198:Drivers/STM32F3xx_HAL_Driver/Src/stm32f3xx_hal_tim.c ****     /* Enable the main output */
1199:Drivers/STM32F3xx_HAL_Driver/Src/stm32f3xx_hal_tim.c ****     __HAL_TIM_MOE_ENABLE(htim);
 2606              		.loc 1 1199 0 is_stmt 1
 2607 00e0 7B68     		ldr	r3, [r7, #4]
 2608 00e2 1B68     		ldr	r3, [r3]
 2609 00e4 7A68     		ldr	r2, [r7, #4]
 2610 00e6 1268     		ldr	r2, [r2]
 2611 00e8 526C     		ldr	r2, [r2, #68]
 2612 00ea 42F40042 		orr	r2, r2, #32768
 2613 00ee 5A64     		str	r2, [r3, #68]
 2614              	.L162:
1200:Drivers/STM32F3xx_HAL_Driver/Src/stm32f3xx_hal_tim.c ****   }
1201:Drivers/STM32F3xx_HAL_Driver/Src/stm32f3xx_hal_tim.c **** 
ARM GAS  /tmp/ccZyKULX.s 			page 67


1202:Drivers/STM32F3xx_HAL_Driver/Src/stm32f3xx_hal_tim.c ****   /* Enable the Peripheral */
1203:Drivers/STM32F3xx_HAL_Driver/Src/stm32f3xx_hal_tim.c ****   __HAL_TIM_ENABLE(htim);
 2615              		.loc 1 1203 0
 2616 00f0 7B68     		ldr	r3, [r7, #4]
 2617 00f2 1B68     		ldr	r3, [r3]
 2618 00f4 7A68     		ldr	r2, [r7, #4]
 2619 00f6 1268     		ldr	r2, [r2]
 2620 00f8 1268     		ldr	r2, [r2]
 2621 00fa 42F00102 		orr	r2, r2, #1
 2622 00fe 1A60     		str	r2, [r3]
1204:Drivers/STM32F3xx_HAL_Driver/Src/stm32f3xx_hal_tim.c ****   
1205:Drivers/STM32F3xx_HAL_Driver/Src/stm32f3xx_hal_tim.c ****   /* Return function status */
1206:Drivers/STM32F3xx_HAL_Driver/Src/stm32f3xx_hal_tim.c ****   return HAL_OK;
 2623              		.loc 1 1206 0
 2624 0100 0023     		movs	r3, #0
1207:Drivers/STM32F3xx_HAL_Driver/Src/stm32f3xx_hal_tim.c **** } 
 2625              		.loc 1 1207 0
 2626 0102 1846     		mov	r0, r3
 2627 0104 0837     		adds	r7, r7, #8
 2628 0106 BD46     		mov	sp, r7
 2629              		@ sp needed
 2630 0108 80BD     		pop	{r7, pc}
 2631              	.L166:
 2632 010a 00BF     		.align	2
 2633              	.L165:
 2634 010c 002C0140 		.word	1073818624
 2635 0110 00340140 		.word	1073820672
 2636 0114 00400140 		.word	1073823744
 2637 0118 00440140 		.word	1073824768
 2638 011c 00480140 		.word	1073825792
 2639              		.cfi_endproc
 2640              	.LFE151:
 2642              		.section	.text.HAL_TIM_PWM_Stop_IT,"ax",%progbits
 2643              		.align	2
 2644              		.global	HAL_TIM_PWM_Stop_IT
 2645              		.thumb
 2646              		.thumb_func
 2648              	HAL_TIM_PWM_Stop_IT:
 2649              	.LFB152:
1208:Drivers/STM32F3xx_HAL_Driver/Src/stm32f3xx_hal_tim.c **** 
1209:Drivers/STM32F3xx_HAL_Driver/Src/stm32f3xx_hal_tim.c **** /**
1210:Drivers/STM32F3xx_HAL_Driver/Src/stm32f3xx_hal_tim.c ****   * @brief  Stops the PWM signal generation in interrupt mode.
1211:Drivers/STM32F3xx_HAL_Driver/Src/stm32f3xx_hal_tim.c ****   * @param  htim: TIM handle
1212:Drivers/STM32F3xx_HAL_Driver/Src/stm32f3xx_hal_tim.c ****   * @param  Channel: TIM Channels to be disabled
1213:Drivers/STM32F3xx_HAL_Driver/Src/stm32f3xx_hal_tim.c ****   *          This parameter can be one of the following values:
1214:Drivers/STM32F3xx_HAL_Driver/Src/stm32f3xx_hal_tim.c ****   *            @arg TIM_CHANNEL_1: TIM Channel 1 selected
1215:Drivers/STM32F3xx_HAL_Driver/Src/stm32f3xx_hal_tim.c ****   *            @arg TIM_CHANNEL_2: TIM Channel 2 selected
1216:Drivers/STM32F3xx_HAL_Driver/Src/stm32f3xx_hal_tim.c ****   *            @arg TIM_CHANNEL_3: TIM Channel 3 selected
1217:Drivers/STM32F3xx_HAL_Driver/Src/stm32f3xx_hal_tim.c ****   *            @arg TIM_CHANNEL_4: TIM Channel 4 selected
1218:Drivers/STM32F3xx_HAL_Driver/Src/stm32f3xx_hal_tim.c ****   * @retval HAL status
1219:Drivers/STM32F3xx_HAL_Driver/Src/stm32f3xx_hal_tim.c **** */
1220:Drivers/STM32F3xx_HAL_Driver/Src/stm32f3xx_hal_tim.c **** HAL_StatusTypeDef HAL_TIM_PWM_Stop_IT (TIM_HandleTypeDef *htim, uint32_t Channel)
1221:Drivers/STM32F3xx_HAL_Driver/Src/stm32f3xx_hal_tim.c **** {
 2650              		.loc 1 1221 0
 2651              		.cfi_startproc
 2652              		@ args = 0, pretend = 0, frame = 8
 2653              		@ frame_needed = 1, uses_anonymous_args = 0
ARM GAS  /tmp/ccZyKULX.s 			page 68


 2654 0000 80B5     		push	{r7, lr}
 2655              	.LCFI81:
 2656              		.cfi_def_cfa_offset 8
 2657              		.cfi_offset 7, -8
 2658              		.cfi_offset 14, -4
 2659 0002 82B0     		sub	sp, sp, #8
 2660              	.LCFI82:
 2661              		.cfi_def_cfa_offset 16
 2662 0004 00AF     		add	r7, sp, #0
 2663              	.LCFI83:
 2664              		.cfi_def_cfa_register 7
 2665 0006 7860     		str	r0, [r7, #4]
 2666 0008 3960     		str	r1, [r7]
1222:Drivers/STM32F3xx_HAL_Driver/Src/stm32f3xx_hal_tim.c ****   /* Check the parameters */
1223:Drivers/STM32F3xx_HAL_Driver/Src/stm32f3xx_hal_tim.c ****   assert_param(IS_TIM_CCX_INSTANCE(htim->Instance, Channel));
1224:Drivers/STM32F3xx_HAL_Driver/Src/stm32f3xx_hal_tim.c ****   
1225:Drivers/STM32F3xx_HAL_Driver/Src/stm32f3xx_hal_tim.c ****   switch (Channel)
 2667              		.loc 1 1225 0
 2668 000a 3B68     		ldr	r3, [r7]
 2669 000c 0C2B     		cmp	r3, #12
 2670 000e 41D8     		bhi	.L181
 2671 0010 01A2     		adr	r2, .L170
 2672 0012 52F823F0 		ldr	pc, [r2, r3, lsl #2]
 2673 0016 00BF     		.p2align 2
 2674              	.L170:
 2675 0018 4D000000 		.word	.L169+1
 2676 001c 95000000 		.word	.L181+1
 2677 0020 95000000 		.word	.L181+1
 2678 0024 95000000 		.word	.L181+1
 2679 0028 5F000000 		.word	.L171+1
 2680 002c 95000000 		.word	.L181+1
 2681 0030 95000000 		.word	.L181+1
 2682 0034 95000000 		.word	.L181+1
 2683 0038 71000000 		.word	.L172+1
 2684 003c 95000000 		.word	.L181+1
 2685 0040 95000000 		.word	.L181+1
 2686 0044 95000000 		.word	.L181+1
 2687 0048 83000000 		.word	.L173+1
 2688              		.p2align 1
 2689              	.L169:
1226:Drivers/STM32F3xx_HAL_Driver/Src/stm32f3xx_hal_tim.c ****   {
1227:Drivers/STM32F3xx_HAL_Driver/Src/stm32f3xx_hal_tim.c ****     case TIM_CHANNEL_1:
1228:Drivers/STM32F3xx_HAL_Driver/Src/stm32f3xx_hal_tim.c ****     {       
1229:Drivers/STM32F3xx_HAL_Driver/Src/stm32f3xx_hal_tim.c ****       /* Disable the TIM Capture/Compare 1 interrupt */
1230:Drivers/STM32F3xx_HAL_Driver/Src/stm32f3xx_hal_tim.c ****       __HAL_TIM_DISABLE_IT(htim, TIM_IT_CC1);
 2690              		.loc 1 1230 0
 2691 004c 7B68     		ldr	r3, [r7, #4]
 2692 004e 1B68     		ldr	r3, [r3]
 2693 0050 7A68     		ldr	r2, [r7, #4]
 2694 0052 1268     		ldr	r2, [r2]
 2695 0054 D268     		ldr	r2, [r2, #12]
 2696 0056 22F00202 		bic	r2, r2, #2
 2697 005a DA60     		str	r2, [r3, #12]
1231:Drivers/STM32F3xx_HAL_Driver/Src/stm32f3xx_hal_tim.c ****     }
1232:Drivers/STM32F3xx_HAL_Driver/Src/stm32f3xx_hal_tim.c ****     break;
 2698              		.loc 1 1232 0
 2699 005c 1BE0     		b	.L174
ARM GAS  /tmp/ccZyKULX.s 			page 69


 2700              	.L171:
1233:Drivers/STM32F3xx_HAL_Driver/Src/stm32f3xx_hal_tim.c ****     
1234:Drivers/STM32F3xx_HAL_Driver/Src/stm32f3xx_hal_tim.c ****     case TIM_CHANNEL_2:
1235:Drivers/STM32F3xx_HAL_Driver/Src/stm32f3xx_hal_tim.c ****     {
1236:Drivers/STM32F3xx_HAL_Driver/Src/stm32f3xx_hal_tim.c ****       /* Disable the TIM Capture/Compare 2 interrupt */
1237:Drivers/STM32F3xx_HAL_Driver/Src/stm32f3xx_hal_tim.c ****       __HAL_TIM_DISABLE_IT(htim, TIM_IT_CC2);
 2701              		.loc 1 1237 0
 2702 005e 7B68     		ldr	r3, [r7, #4]
 2703 0060 1B68     		ldr	r3, [r3]
 2704 0062 7A68     		ldr	r2, [r7, #4]
 2705 0064 1268     		ldr	r2, [r2]
 2706 0066 D268     		ldr	r2, [r2, #12]
 2707 0068 22F00402 		bic	r2, r2, #4
 2708 006c DA60     		str	r2, [r3, #12]
1238:Drivers/STM32F3xx_HAL_Driver/Src/stm32f3xx_hal_tim.c ****     }
1239:Drivers/STM32F3xx_HAL_Driver/Src/stm32f3xx_hal_tim.c ****     break;
 2709              		.loc 1 1239 0
 2710 006e 12E0     		b	.L174
 2711              	.L172:
1240:Drivers/STM32F3xx_HAL_Driver/Src/stm32f3xx_hal_tim.c ****     
1241:Drivers/STM32F3xx_HAL_Driver/Src/stm32f3xx_hal_tim.c ****     case TIM_CHANNEL_3:
1242:Drivers/STM32F3xx_HAL_Driver/Src/stm32f3xx_hal_tim.c ****     {
1243:Drivers/STM32F3xx_HAL_Driver/Src/stm32f3xx_hal_tim.c ****       /* Disable the TIM Capture/Compare 3 interrupt */
1244:Drivers/STM32F3xx_HAL_Driver/Src/stm32f3xx_hal_tim.c ****       __HAL_TIM_DISABLE_IT(htim, TIM_IT_CC3);
 2712              		.loc 1 1244 0
 2713 0070 7B68     		ldr	r3, [r7, #4]
 2714 0072 1B68     		ldr	r3, [r3]
 2715 0074 7A68     		ldr	r2, [r7, #4]
 2716 0076 1268     		ldr	r2, [r2]
 2717 0078 D268     		ldr	r2, [r2, #12]
 2718 007a 22F00802 		bic	r2, r2, #8
 2719 007e DA60     		str	r2, [r3, #12]
1245:Drivers/STM32F3xx_HAL_Driver/Src/stm32f3xx_hal_tim.c ****     }
1246:Drivers/STM32F3xx_HAL_Driver/Src/stm32f3xx_hal_tim.c ****     break;
 2720              		.loc 1 1246 0
 2721 0080 09E0     		b	.L174
 2722              	.L173:
1247:Drivers/STM32F3xx_HAL_Driver/Src/stm32f3xx_hal_tim.c ****     
1248:Drivers/STM32F3xx_HAL_Driver/Src/stm32f3xx_hal_tim.c ****     case TIM_CHANNEL_4:
1249:Drivers/STM32F3xx_HAL_Driver/Src/stm32f3xx_hal_tim.c ****     {
1250:Drivers/STM32F3xx_HAL_Driver/Src/stm32f3xx_hal_tim.c ****       /* Disable the TIM Capture/Compare 4 interrupt */
1251:Drivers/STM32F3xx_HAL_Driver/Src/stm32f3xx_hal_tim.c ****       __HAL_TIM_DISABLE_IT(htim, TIM_IT_CC4);
 2723              		.loc 1 1251 0
 2724 0082 7B68     		ldr	r3, [r7, #4]
 2725 0084 1B68     		ldr	r3, [r3]
 2726 0086 7A68     		ldr	r2, [r7, #4]
 2727 0088 1268     		ldr	r2, [r2]
 2728 008a D268     		ldr	r2, [r2, #12]
 2729 008c 22F01002 		bic	r2, r2, #16
 2730 0090 DA60     		str	r2, [r3, #12]
1252:Drivers/STM32F3xx_HAL_Driver/Src/stm32f3xx_hal_tim.c ****     }
1253:Drivers/STM32F3xx_HAL_Driver/Src/stm32f3xx_hal_tim.c ****     break;
 2731              		.loc 1 1253 0
 2732 0092 00E0     		b	.L174
 2733              	.L181:
1254:Drivers/STM32F3xx_HAL_Driver/Src/stm32f3xx_hal_tim.c ****     
1255:Drivers/STM32F3xx_HAL_Driver/Src/stm32f3xx_hal_tim.c ****     default:
ARM GAS  /tmp/ccZyKULX.s 			page 70


1256:Drivers/STM32F3xx_HAL_Driver/Src/stm32f3xx_hal_tim.c ****     break; 
 2734              		.loc 1 1256 0
 2735 0094 00BF     		nop
 2736              	.L174:
1257:Drivers/STM32F3xx_HAL_Driver/Src/stm32f3xx_hal_tim.c ****   }
1258:Drivers/STM32F3xx_HAL_Driver/Src/stm32f3xx_hal_tim.c ****   
1259:Drivers/STM32F3xx_HAL_Driver/Src/stm32f3xx_hal_tim.c ****   /* Disable the Capture compare channel */
1260:Drivers/STM32F3xx_HAL_Driver/Src/stm32f3xx_hal_tim.c ****   TIM_CCxChannelCmd(htim->Instance, Channel, TIM_CCx_DISABLE);
 2737              		.loc 1 1260 0
 2738 0096 7B68     		ldr	r3, [r7, #4]
 2739 0098 1B68     		ldr	r3, [r3]
 2740 009a 1846     		mov	r0, r3
 2741 009c 3968     		ldr	r1, [r7]
 2742 009e 0022     		movs	r2, #0
 2743 00a0 FFF7FEFF 		bl	TIM_CCxChannelCmd
1261:Drivers/STM32F3xx_HAL_Driver/Src/stm32f3xx_hal_tim.c ****   
1262:Drivers/STM32F3xx_HAL_Driver/Src/stm32f3xx_hal_tim.c ****   if(IS_TIM_BREAK_INSTANCE(htim->Instance) != RESET)  
 2744              		.loc 1 1262 0
 2745 00a4 7B68     		ldr	r3, [r7, #4]
 2746 00a6 1A68     		ldr	r2, [r3]
 2747 00a8 284B     		ldr	r3, .L182
 2748 00aa 9A42     		cmp	r2, r3
 2749 00ac 13D0     		beq	.L175
 2750              		.loc 1 1262 0 is_stmt 0 discriminator 2
 2751 00ae 7B68     		ldr	r3, [r7, #4]
 2752 00b0 1A68     		ldr	r2, [r3]
 2753 00b2 274B     		ldr	r3, .L182+4
 2754 00b4 9A42     		cmp	r2, r3
 2755 00b6 0ED0     		beq	.L175
 2756              		.loc 1 1262 0 discriminator 1
 2757 00b8 7B68     		ldr	r3, [r7, #4]
 2758 00ba 1A68     		ldr	r2, [r3]
 2759 00bc 254B     		ldr	r3, .L182+8
 2760 00be 9A42     		cmp	r2, r3
 2761 00c0 09D0     		beq	.L175
 2762 00c2 7B68     		ldr	r3, [r7, #4]
 2763 00c4 1A68     		ldr	r2, [r3]
 2764 00c6 244B     		ldr	r3, .L182+12
 2765 00c8 9A42     		cmp	r2, r3
 2766 00ca 04D0     		beq	.L175
 2767 00cc 7B68     		ldr	r3, [r7, #4]
 2768 00ce 1A68     		ldr	r2, [r3]
 2769 00d0 224B     		ldr	r3, .L182+16
 2770 00d2 9A42     		cmp	r2, r3
 2771 00d4 01D1     		bne	.L176
 2772              	.L175:
 2773 00d6 0123     		movs	r3, #1
 2774 00d8 00E0     		b	.L177
 2775              	.L176:
 2776              		.loc 1 1262 0 discriminator 3
 2777 00da 0023     		movs	r3, #0
 2778              	.L177:
 2779              		.loc 1 1262 0 discriminator 4
 2780 00dc 002B     		cmp	r3, #0
 2781 00de 17D0     		beq	.L178
1263:Drivers/STM32F3xx_HAL_Driver/Src/stm32f3xx_hal_tim.c ****   {
1264:Drivers/STM32F3xx_HAL_Driver/Src/stm32f3xx_hal_tim.c ****     /* Disable the Main Ouput */
ARM GAS  /tmp/ccZyKULX.s 			page 71


1265:Drivers/STM32F3xx_HAL_Driver/Src/stm32f3xx_hal_tim.c ****     __HAL_TIM_MOE_DISABLE(htim);
 2782              		.loc 1 1265 0 is_stmt 1
 2783 00e0 7B68     		ldr	r3, [r7, #4]
 2784 00e2 1B68     		ldr	r3, [r3]
 2785 00e4 1A6A     		ldr	r2, [r3, #32]
 2786 00e6 41F21113 		movw	r3, #4369
 2787 00ea 1340     		ands	r3, r3, r2
 2788 00ec 002B     		cmp	r3, #0
 2789 00ee 0FD1     		bne	.L178
 2790              		.loc 1 1265 0 is_stmt 0 discriminator 1
 2791 00f0 7B68     		ldr	r3, [r7, #4]
 2792 00f2 1B68     		ldr	r3, [r3]
 2793 00f4 1A6A     		ldr	r2, [r3, #32]
 2794 00f6 40F24443 		movw	r3, #1092
 2795 00fa 1340     		ands	r3, r3, r2
 2796 00fc 002B     		cmp	r3, #0
 2797 00fe 07D1     		bne	.L178
 2798 0100 7B68     		ldr	r3, [r7, #4]
 2799 0102 1B68     		ldr	r3, [r3]
 2800 0104 7A68     		ldr	r2, [r7, #4]
 2801 0106 1268     		ldr	r2, [r2]
 2802 0108 526C     		ldr	r2, [r2, #68]
 2803 010a 22F40042 		bic	r2, r2, #32768
 2804 010e 5A64     		str	r2, [r3, #68]
 2805              	.L178:
1266:Drivers/STM32F3xx_HAL_Driver/Src/stm32f3xx_hal_tim.c ****   }
1267:Drivers/STM32F3xx_HAL_Driver/Src/stm32f3xx_hal_tim.c ****   
1268:Drivers/STM32F3xx_HAL_Driver/Src/stm32f3xx_hal_tim.c ****   /* Disable the Peripheral */
1269:Drivers/STM32F3xx_HAL_Driver/Src/stm32f3xx_hal_tim.c ****   __HAL_TIM_DISABLE(htim);
 2806              		.loc 1 1269 0 is_stmt 1
 2807 0110 7B68     		ldr	r3, [r7, #4]
 2808 0112 1B68     		ldr	r3, [r3]
 2809 0114 1A6A     		ldr	r2, [r3, #32]
 2810 0116 41F21113 		movw	r3, #4369
 2811 011a 1340     		ands	r3, r3, r2
 2812 011c 002B     		cmp	r3, #0
 2813 011e 0FD1     		bne	.L179
 2814              		.loc 1 1269 0 is_stmt 0 discriminator 1
 2815 0120 7B68     		ldr	r3, [r7, #4]
 2816 0122 1B68     		ldr	r3, [r3]
 2817 0124 1A6A     		ldr	r2, [r3, #32]
 2818 0126 40F24443 		movw	r3, #1092
 2819 012a 1340     		ands	r3, r3, r2
 2820 012c 002B     		cmp	r3, #0
 2821 012e 07D1     		bne	.L179
 2822 0130 7B68     		ldr	r3, [r7, #4]
 2823 0132 1B68     		ldr	r3, [r3]
 2824 0134 7A68     		ldr	r2, [r7, #4]
 2825 0136 1268     		ldr	r2, [r2]
 2826 0138 1268     		ldr	r2, [r2]
 2827 013a 22F00102 		bic	r2, r2, #1
 2828 013e 1A60     		str	r2, [r3]
 2829              	.L179:
1270:Drivers/STM32F3xx_HAL_Driver/Src/stm32f3xx_hal_tim.c ****   
1271:Drivers/STM32F3xx_HAL_Driver/Src/stm32f3xx_hal_tim.c ****   /* Return function status */
1272:Drivers/STM32F3xx_HAL_Driver/Src/stm32f3xx_hal_tim.c ****   return HAL_OK;
 2830              		.loc 1 1272 0 is_stmt 1
ARM GAS  /tmp/ccZyKULX.s 			page 72


 2831 0140 0023     		movs	r3, #0
1273:Drivers/STM32F3xx_HAL_Driver/Src/stm32f3xx_hal_tim.c **** } 
 2832              		.loc 1 1273 0
 2833 0142 1846     		mov	r0, r3
 2834 0144 0837     		adds	r7, r7, #8
 2835 0146 BD46     		mov	sp, r7
 2836              		@ sp needed
 2837 0148 80BD     		pop	{r7, pc}
 2838              	.L183:
 2839 014a 00BF     		.align	2
 2840              	.L182:
 2841 014c 002C0140 		.word	1073818624
 2842 0150 00340140 		.word	1073820672
 2843 0154 00400140 		.word	1073823744
 2844 0158 00440140 		.word	1073824768
 2845 015c 00480140 		.word	1073825792
 2846              		.cfi_endproc
 2847              	.LFE152:
 2849              		.section	.text.HAL_TIM_PWM_Start_DMA,"ax",%progbits
 2850              		.align	2
 2851              		.global	HAL_TIM_PWM_Start_DMA
 2852              		.thumb
 2853              		.thumb_func
 2855              	HAL_TIM_PWM_Start_DMA:
 2856              	.LFB153:
1274:Drivers/STM32F3xx_HAL_Driver/Src/stm32f3xx_hal_tim.c **** 
1275:Drivers/STM32F3xx_HAL_Driver/Src/stm32f3xx_hal_tim.c **** /**
1276:Drivers/STM32F3xx_HAL_Driver/Src/stm32f3xx_hal_tim.c ****   * @brief  Starts the TIM PWM signal generation in DMA mode.
1277:Drivers/STM32F3xx_HAL_Driver/Src/stm32f3xx_hal_tim.c ****   * @param  htim: TIM handle
1278:Drivers/STM32F3xx_HAL_Driver/Src/stm32f3xx_hal_tim.c ****   * @param  Channel: TIM Channels to be enabled
1279:Drivers/STM32F3xx_HAL_Driver/Src/stm32f3xx_hal_tim.c ****   *          This parameter can be one of the following values:
1280:Drivers/STM32F3xx_HAL_Driver/Src/stm32f3xx_hal_tim.c ****   *            @arg TIM_CHANNEL_1: TIM Channel 1 selected
1281:Drivers/STM32F3xx_HAL_Driver/Src/stm32f3xx_hal_tim.c ****   *            @arg TIM_CHANNEL_2: TIM Channel 2 selected
1282:Drivers/STM32F3xx_HAL_Driver/Src/stm32f3xx_hal_tim.c ****   *            @arg TIM_CHANNEL_3: TIM Channel 3 selected
1283:Drivers/STM32F3xx_HAL_Driver/Src/stm32f3xx_hal_tim.c ****   *            @arg TIM_CHANNEL_4: TIM Channel 4 selected
1284:Drivers/STM32F3xx_HAL_Driver/Src/stm32f3xx_hal_tim.c ****   * @param  pData: The source Buffer address.
1285:Drivers/STM32F3xx_HAL_Driver/Src/stm32f3xx_hal_tim.c ****   * @param  Length: The length of data to be transferred from memory to TIM peripheral
1286:Drivers/STM32F3xx_HAL_Driver/Src/stm32f3xx_hal_tim.c ****   * @retval HAL status
1287:Drivers/STM32F3xx_HAL_Driver/Src/stm32f3xx_hal_tim.c **** */
1288:Drivers/STM32F3xx_HAL_Driver/Src/stm32f3xx_hal_tim.c **** HAL_StatusTypeDef HAL_TIM_PWM_Start_DMA(TIM_HandleTypeDef *htim, uint32_t Channel, uint32_t *pData,
1289:Drivers/STM32F3xx_HAL_Driver/Src/stm32f3xx_hal_tim.c **** {
 2857              		.loc 1 1289 0
 2858              		.cfi_startproc
 2859              		@ args = 0, pretend = 0, frame = 16
 2860              		@ frame_needed = 1, uses_anonymous_args = 0
 2861 0000 80B5     		push	{r7, lr}
 2862              	.LCFI84:
 2863              		.cfi_def_cfa_offset 8
 2864              		.cfi_offset 7, -8
 2865              		.cfi_offset 14, -4
 2866 0002 84B0     		sub	sp, sp, #16
 2867              	.LCFI85:
 2868              		.cfi_def_cfa_offset 24
 2869 0004 00AF     		add	r7, sp, #0
 2870              	.LCFI86:
 2871              		.cfi_def_cfa_register 7
 2872 0006 F860     		str	r0, [r7, #12]
ARM GAS  /tmp/ccZyKULX.s 			page 73


 2873 0008 B960     		str	r1, [r7, #8]
 2874 000a 7A60     		str	r2, [r7, #4]
 2875 000c 7B80     		strh	r3, [r7, #2]	@ movhi
1290:Drivers/STM32F3xx_HAL_Driver/Src/stm32f3xx_hal_tim.c ****   /* Check the parameters */
1291:Drivers/STM32F3xx_HAL_Driver/Src/stm32f3xx_hal_tim.c ****   assert_param(IS_TIM_CCX_INSTANCE(htim->Instance, Channel));
1292:Drivers/STM32F3xx_HAL_Driver/Src/stm32f3xx_hal_tim.c ****   
1293:Drivers/STM32F3xx_HAL_Driver/Src/stm32f3xx_hal_tim.c ****   if((htim->State == HAL_TIM_STATE_BUSY))
 2876              		.loc 1 1293 0
 2877 000e FB68     		ldr	r3, [r7, #12]
 2878 0010 93F83930 		ldrb	r3, [r3, #57]
 2879 0014 DBB2     		uxtb	r3, r3
 2880 0016 022B     		cmp	r3, #2
 2881 0018 01D1     		bne	.L185
1294:Drivers/STM32F3xx_HAL_Driver/Src/stm32f3xx_hal_tim.c ****   {
1295:Drivers/STM32F3xx_HAL_Driver/Src/stm32f3xx_hal_tim.c ****      return HAL_BUSY;
 2882              		.loc 1 1295 0
 2883 001a 0223     		movs	r3, #2
 2884 001c D5E0     		b	.L186
 2885              	.L185:
1296:Drivers/STM32F3xx_HAL_Driver/Src/stm32f3xx_hal_tim.c ****   }
1297:Drivers/STM32F3xx_HAL_Driver/Src/stm32f3xx_hal_tim.c ****   else if((htim->State == HAL_TIM_STATE_READY))
 2886              		.loc 1 1297 0
 2887 001e FB68     		ldr	r3, [r7, #12]
 2888 0020 93F83930 		ldrb	r3, [r3, #57]
 2889 0024 DBB2     		uxtb	r3, r3
 2890 0026 012B     		cmp	r3, #1
 2891 0028 0BD1     		bne	.L187
1298:Drivers/STM32F3xx_HAL_Driver/Src/stm32f3xx_hal_tim.c ****   {
1299:Drivers/STM32F3xx_HAL_Driver/Src/stm32f3xx_hal_tim.c ****     if(((uint32_t)pData == 0 ) && (Length > 0)) 
 2892              		.loc 1 1299 0
 2893 002a 7B68     		ldr	r3, [r7, #4]
 2894 002c 002B     		cmp	r3, #0
 2895 002e 04D1     		bne	.L188
 2896              		.loc 1 1299 0 is_stmt 0 discriminator 1
 2897 0030 7B88     		ldrh	r3, [r7, #2]
 2898 0032 002B     		cmp	r3, #0
 2899 0034 01D0     		beq	.L188
1300:Drivers/STM32F3xx_HAL_Driver/Src/stm32f3xx_hal_tim.c ****     {
1301:Drivers/STM32F3xx_HAL_Driver/Src/stm32f3xx_hal_tim.c ****       return HAL_ERROR;                                    
 2900              		.loc 1 1301 0 is_stmt 1
 2901 0036 0123     		movs	r3, #1
 2902 0038 C7E0     		b	.L186
 2903              	.L188:
1302:Drivers/STM32F3xx_HAL_Driver/Src/stm32f3xx_hal_tim.c ****     }
1303:Drivers/STM32F3xx_HAL_Driver/Src/stm32f3xx_hal_tim.c ****     else
1304:Drivers/STM32F3xx_HAL_Driver/Src/stm32f3xx_hal_tim.c ****     {
1305:Drivers/STM32F3xx_HAL_Driver/Src/stm32f3xx_hal_tim.c ****       htim->State = HAL_TIM_STATE_BUSY;
 2904              		.loc 1 1305 0
 2905 003a FB68     		ldr	r3, [r7, #12]
 2906 003c 0222     		movs	r2, #2
 2907 003e 83F83920 		strb	r2, [r3, #57]
 2908              	.L187:
1306:Drivers/STM32F3xx_HAL_Driver/Src/stm32f3xx_hal_tim.c ****     }
1307:Drivers/STM32F3xx_HAL_Driver/Src/stm32f3xx_hal_tim.c ****   }    
1308:Drivers/STM32F3xx_HAL_Driver/Src/stm32f3xx_hal_tim.c ****   switch (Channel)
 2909              		.loc 1 1308 0
 2910 0042 BB68     		ldr	r3, [r7, #8]
ARM GAS  /tmp/ccZyKULX.s 			page 74


 2911 0044 0C2B     		cmp	r3, #12
 2912 0046 00F28980 		bhi	.L200
 2913 004a 01A2     		adr	r2, .L191
 2914 004c 52F823F0 		ldr	pc, [r2, r3, lsl #2]
 2915              		.p2align 2
 2916              	.L191:
 2917 0050 85000000 		.word	.L190+1
 2918 0054 5D010000 		.word	.L200+1
 2919 0058 5D010000 		.word	.L200+1
 2920 005c 5D010000 		.word	.L200+1
 2921 0060 BB000000 		.word	.L192+1
 2922 0064 5D010000 		.word	.L200+1
 2923 0068 5D010000 		.word	.L200+1
 2924 006c 5D010000 		.word	.L200+1
 2925 0070 F1000000 		.word	.L193+1
 2926 0074 5D010000 		.word	.L200+1
 2927 0078 5D010000 		.word	.L200+1
 2928 007c 5D010000 		.word	.L200+1
 2929 0080 27010000 		.word	.L194+1
 2930              		.p2align 1
 2931              	.L190:
1309:Drivers/STM32F3xx_HAL_Driver/Src/stm32f3xx_hal_tim.c ****   {
1310:Drivers/STM32F3xx_HAL_Driver/Src/stm32f3xx_hal_tim.c ****     case TIM_CHANNEL_1:
1311:Drivers/STM32F3xx_HAL_Driver/Src/stm32f3xx_hal_tim.c ****     {
1312:Drivers/STM32F3xx_HAL_Driver/Src/stm32f3xx_hal_tim.c ****       /* Set the DMA Period elapsed callback */
1313:Drivers/STM32F3xx_HAL_Driver/Src/stm32f3xx_hal_tim.c ****       htim->hdma[TIM_DMA_ID_CC1]->XferCpltCallback = TIM_DMADelayPulseCplt;
 2932              		.loc 1 1313 0
 2933 0084 FB68     		ldr	r3, [r7, #12]
 2934 0086 1B6A     		ldr	r3, [r3, #32]
 2935 0088 524A     		ldr	r2, .L201
 2936 008a 9A62     		str	r2, [r3, #40]
1314:Drivers/STM32F3xx_HAL_Driver/Src/stm32f3xx_hal_tim.c ****      
1315:Drivers/STM32F3xx_HAL_Driver/Src/stm32f3xx_hal_tim.c ****       /* Set the DMA error callback */
1316:Drivers/STM32F3xx_HAL_Driver/Src/stm32f3xx_hal_tim.c ****       htim->hdma[TIM_DMA_ID_CC1]->XferErrorCallback = TIM_DMAError ;
 2937              		.loc 1 1316 0
 2938 008c FB68     		ldr	r3, [r7, #12]
 2939 008e 1B6A     		ldr	r3, [r3, #32]
 2940 0090 514A     		ldr	r2, .L201+4
 2941 0092 1A63     		str	r2, [r3, #48]
1317:Drivers/STM32F3xx_HAL_Driver/Src/stm32f3xx_hal_tim.c ****       
1318:Drivers/STM32F3xx_HAL_Driver/Src/stm32f3xx_hal_tim.c ****       /* Enable the DMA channel */
1319:Drivers/STM32F3xx_HAL_Driver/Src/stm32f3xx_hal_tim.c ****       HAL_DMA_Start_IT(htim->hdma[TIM_DMA_ID_CC1], (uint32_t)pData, (uint32_t)&htim->Instance->CCR1
 2942              		.loc 1 1319 0
 2943 0094 FB68     		ldr	r3, [r7, #12]
 2944 0096 186A     		ldr	r0, [r3, #32]
 2945 0098 7968     		ldr	r1, [r7, #4]
 2946 009a FB68     		ldr	r3, [r7, #12]
 2947 009c 1B68     		ldr	r3, [r3]
 2948 009e 3433     		adds	r3, r3, #52
 2949 00a0 1A46     		mov	r2, r3
 2950 00a2 7B88     		ldrh	r3, [r7, #2]
 2951 00a4 FFF7FEFF 		bl	HAL_DMA_Start_IT
1320:Drivers/STM32F3xx_HAL_Driver/Src/stm32f3xx_hal_tim.c ****       
1321:Drivers/STM32F3xx_HAL_Driver/Src/stm32f3xx_hal_tim.c ****       /* Enable the TIM Capture/Compare 1 DMA request */
1322:Drivers/STM32F3xx_HAL_Driver/Src/stm32f3xx_hal_tim.c ****       __HAL_TIM_ENABLE_DMA(htim, TIM_DMA_CC1);
 2952              		.loc 1 1322 0
 2953 00a8 FB68     		ldr	r3, [r7, #12]
ARM GAS  /tmp/ccZyKULX.s 			page 75


 2954 00aa 1B68     		ldr	r3, [r3]
 2955 00ac FA68     		ldr	r2, [r7, #12]
 2956 00ae 1268     		ldr	r2, [r2]
 2957 00b0 D268     		ldr	r2, [r2, #12]
 2958 00b2 42F40072 		orr	r2, r2, #512
 2959 00b6 DA60     		str	r2, [r3, #12]
1323:Drivers/STM32F3xx_HAL_Driver/Src/stm32f3xx_hal_tim.c ****     }
1324:Drivers/STM32F3xx_HAL_Driver/Src/stm32f3xx_hal_tim.c ****     break;
 2960              		.loc 1 1324 0
 2961 00b8 51E0     		b	.L195
 2962              	.L192:
1325:Drivers/STM32F3xx_HAL_Driver/Src/stm32f3xx_hal_tim.c ****     
1326:Drivers/STM32F3xx_HAL_Driver/Src/stm32f3xx_hal_tim.c ****     case TIM_CHANNEL_2:
1327:Drivers/STM32F3xx_HAL_Driver/Src/stm32f3xx_hal_tim.c ****     {
1328:Drivers/STM32F3xx_HAL_Driver/Src/stm32f3xx_hal_tim.c ****       /* Set the DMA Period elapsed callback */
1329:Drivers/STM32F3xx_HAL_Driver/Src/stm32f3xx_hal_tim.c ****       htim->hdma[TIM_DMA_ID_CC2]->XferCpltCallback = TIM_DMADelayPulseCplt;
 2963              		.loc 1 1329 0
 2964 00ba FB68     		ldr	r3, [r7, #12]
 2965 00bc 5B6A     		ldr	r3, [r3, #36]
 2966 00be 454A     		ldr	r2, .L201
 2967 00c0 9A62     		str	r2, [r3, #40]
1330:Drivers/STM32F3xx_HAL_Driver/Src/stm32f3xx_hal_tim.c ****      
1331:Drivers/STM32F3xx_HAL_Driver/Src/stm32f3xx_hal_tim.c ****       /* Set the DMA error callback */
1332:Drivers/STM32F3xx_HAL_Driver/Src/stm32f3xx_hal_tim.c ****       htim->hdma[TIM_DMA_ID_CC2]->XferErrorCallback = TIM_DMAError ;
 2968              		.loc 1 1332 0
 2969 00c2 FB68     		ldr	r3, [r7, #12]
 2970 00c4 5B6A     		ldr	r3, [r3, #36]
 2971 00c6 444A     		ldr	r2, .L201+4
 2972 00c8 1A63     		str	r2, [r3, #48]
1333:Drivers/STM32F3xx_HAL_Driver/Src/stm32f3xx_hal_tim.c ****       
1334:Drivers/STM32F3xx_HAL_Driver/Src/stm32f3xx_hal_tim.c ****       /* Enable the DMA channel */
1335:Drivers/STM32F3xx_HAL_Driver/Src/stm32f3xx_hal_tim.c ****       HAL_DMA_Start_IT(htim->hdma[TIM_DMA_ID_CC2], (uint32_t)pData, (uint32_t)&htim->Instance->CCR2
 2973              		.loc 1 1335 0
 2974 00ca FB68     		ldr	r3, [r7, #12]
 2975 00cc 586A     		ldr	r0, [r3, #36]
 2976 00ce 7968     		ldr	r1, [r7, #4]
 2977 00d0 FB68     		ldr	r3, [r7, #12]
 2978 00d2 1B68     		ldr	r3, [r3]
 2979 00d4 3833     		adds	r3, r3, #56
 2980 00d6 1A46     		mov	r2, r3
 2981 00d8 7B88     		ldrh	r3, [r7, #2]
 2982 00da FFF7FEFF 		bl	HAL_DMA_Start_IT
1336:Drivers/STM32F3xx_HAL_Driver/Src/stm32f3xx_hal_tim.c ****       
1337:Drivers/STM32F3xx_HAL_Driver/Src/stm32f3xx_hal_tim.c ****       /* Enable the TIM Capture/Compare 2 DMA request */
1338:Drivers/STM32F3xx_HAL_Driver/Src/stm32f3xx_hal_tim.c ****       __HAL_TIM_ENABLE_DMA(htim, TIM_DMA_CC2);
 2983              		.loc 1 1338 0
 2984 00de FB68     		ldr	r3, [r7, #12]
 2985 00e0 1B68     		ldr	r3, [r3]
 2986 00e2 FA68     		ldr	r2, [r7, #12]
 2987 00e4 1268     		ldr	r2, [r2]
 2988 00e6 D268     		ldr	r2, [r2, #12]
 2989 00e8 42F48062 		orr	r2, r2, #1024
 2990 00ec DA60     		str	r2, [r3, #12]
1339:Drivers/STM32F3xx_HAL_Driver/Src/stm32f3xx_hal_tim.c ****     }
1340:Drivers/STM32F3xx_HAL_Driver/Src/stm32f3xx_hal_tim.c ****     break;
 2991              		.loc 1 1340 0
 2992 00ee 36E0     		b	.L195
ARM GAS  /tmp/ccZyKULX.s 			page 76


 2993              	.L193:
1341:Drivers/STM32F3xx_HAL_Driver/Src/stm32f3xx_hal_tim.c ****     
1342:Drivers/STM32F3xx_HAL_Driver/Src/stm32f3xx_hal_tim.c ****     case TIM_CHANNEL_3:
1343:Drivers/STM32F3xx_HAL_Driver/Src/stm32f3xx_hal_tim.c ****     {
1344:Drivers/STM32F3xx_HAL_Driver/Src/stm32f3xx_hal_tim.c ****       /* Set the DMA Period elapsed callback */
1345:Drivers/STM32F3xx_HAL_Driver/Src/stm32f3xx_hal_tim.c ****       htim->hdma[TIM_DMA_ID_CC3]->XferCpltCallback = TIM_DMADelayPulseCplt;
 2994              		.loc 1 1345 0
 2995 00f0 FB68     		ldr	r3, [r7, #12]
 2996 00f2 9B6A     		ldr	r3, [r3, #40]
 2997 00f4 374A     		ldr	r2, .L201
 2998 00f6 9A62     		str	r2, [r3, #40]
1346:Drivers/STM32F3xx_HAL_Driver/Src/stm32f3xx_hal_tim.c ****      
1347:Drivers/STM32F3xx_HAL_Driver/Src/stm32f3xx_hal_tim.c ****       /* Set the DMA error callback */
1348:Drivers/STM32F3xx_HAL_Driver/Src/stm32f3xx_hal_tim.c ****       htim->hdma[TIM_DMA_ID_CC3]->XferErrorCallback = TIM_DMAError ;
 2999              		.loc 1 1348 0
 3000 00f8 FB68     		ldr	r3, [r7, #12]
 3001 00fa 9B6A     		ldr	r3, [r3, #40]
 3002 00fc 364A     		ldr	r2, .L201+4
 3003 00fe 1A63     		str	r2, [r3, #48]
1349:Drivers/STM32F3xx_HAL_Driver/Src/stm32f3xx_hal_tim.c ****       
1350:Drivers/STM32F3xx_HAL_Driver/Src/stm32f3xx_hal_tim.c ****       /* Enable the DMA channel */
1351:Drivers/STM32F3xx_HAL_Driver/Src/stm32f3xx_hal_tim.c ****       HAL_DMA_Start_IT(htim->hdma[TIM_DMA_ID_CC3], (uint32_t)pData, (uint32_t)&htim->Instance->CCR3
 3004              		.loc 1 1351 0
 3005 0100 FB68     		ldr	r3, [r7, #12]
 3006 0102 986A     		ldr	r0, [r3, #40]
 3007 0104 7968     		ldr	r1, [r7, #4]
 3008 0106 FB68     		ldr	r3, [r7, #12]
 3009 0108 1B68     		ldr	r3, [r3]
 3010 010a 3C33     		adds	r3, r3, #60
 3011 010c 1A46     		mov	r2, r3
 3012 010e 7B88     		ldrh	r3, [r7, #2]
 3013 0110 FFF7FEFF 		bl	HAL_DMA_Start_IT
1352:Drivers/STM32F3xx_HAL_Driver/Src/stm32f3xx_hal_tim.c ****       
1353:Drivers/STM32F3xx_HAL_Driver/Src/stm32f3xx_hal_tim.c ****       /* Enable the TIM Output Capture/Compare 3 request */
1354:Drivers/STM32F3xx_HAL_Driver/Src/stm32f3xx_hal_tim.c ****       __HAL_TIM_ENABLE_DMA(htim, TIM_DMA_CC3);
 3014              		.loc 1 1354 0
 3015 0114 FB68     		ldr	r3, [r7, #12]
 3016 0116 1B68     		ldr	r3, [r3]
 3017 0118 FA68     		ldr	r2, [r7, #12]
 3018 011a 1268     		ldr	r2, [r2]
 3019 011c D268     		ldr	r2, [r2, #12]
 3020 011e 42F40062 		orr	r2, r2, #2048
 3021 0122 DA60     		str	r2, [r3, #12]
1355:Drivers/STM32F3xx_HAL_Driver/Src/stm32f3xx_hal_tim.c ****     }
1356:Drivers/STM32F3xx_HAL_Driver/Src/stm32f3xx_hal_tim.c ****     break;
 3022              		.loc 1 1356 0
 3023 0124 1BE0     		b	.L195
 3024              	.L194:
1357:Drivers/STM32F3xx_HAL_Driver/Src/stm32f3xx_hal_tim.c ****     
1358:Drivers/STM32F3xx_HAL_Driver/Src/stm32f3xx_hal_tim.c ****     case TIM_CHANNEL_4:
1359:Drivers/STM32F3xx_HAL_Driver/Src/stm32f3xx_hal_tim.c ****     {
1360:Drivers/STM32F3xx_HAL_Driver/Src/stm32f3xx_hal_tim.c ****      /* Set the DMA Period elapsed callback */
1361:Drivers/STM32F3xx_HAL_Driver/Src/stm32f3xx_hal_tim.c ****       htim->hdma[TIM_DMA_ID_CC4]->XferCpltCallback = TIM_DMADelayPulseCplt;
 3025              		.loc 1 1361 0
 3026 0126 FB68     		ldr	r3, [r7, #12]
 3027 0128 DB6A     		ldr	r3, [r3, #44]
 3028 012a 2A4A     		ldr	r2, .L201
ARM GAS  /tmp/ccZyKULX.s 			page 77


 3029 012c 9A62     		str	r2, [r3, #40]
1362:Drivers/STM32F3xx_HAL_Driver/Src/stm32f3xx_hal_tim.c ****      
1363:Drivers/STM32F3xx_HAL_Driver/Src/stm32f3xx_hal_tim.c ****       /* Set the DMA error callback */
1364:Drivers/STM32F3xx_HAL_Driver/Src/stm32f3xx_hal_tim.c ****       htim->hdma[TIM_DMA_ID_CC4]->XferErrorCallback = TIM_DMAError ;
 3030              		.loc 1 1364 0
 3031 012e FB68     		ldr	r3, [r7, #12]
 3032 0130 DB6A     		ldr	r3, [r3, #44]
 3033 0132 294A     		ldr	r2, .L201+4
 3034 0134 1A63     		str	r2, [r3, #48]
1365:Drivers/STM32F3xx_HAL_Driver/Src/stm32f3xx_hal_tim.c ****       
1366:Drivers/STM32F3xx_HAL_Driver/Src/stm32f3xx_hal_tim.c ****       /* Enable the DMA channel */
1367:Drivers/STM32F3xx_HAL_Driver/Src/stm32f3xx_hal_tim.c ****       HAL_DMA_Start_IT(htim->hdma[TIM_DMA_ID_CC4], (uint32_t)pData, (uint32_t)&htim->Instance->CCR4
 3035              		.loc 1 1367 0
 3036 0136 FB68     		ldr	r3, [r7, #12]
 3037 0138 D86A     		ldr	r0, [r3, #44]
 3038 013a 7968     		ldr	r1, [r7, #4]
 3039 013c FB68     		ldr	r3, [r7, #12]
 3040 013e 1B68     		ldr	r3, [r3]
 3041 0140 4033     		adds	r3, r3, #64
 3042 0142 1A46     		mov	r2, r3
 3043 0144 7B88     		ldrh	r3, [r7, #2]
 3044 0146 FFF7FEFF 		bl	HAL_DMA_Start_IT
1368:Drivers/STM32F3xx_HAL_Driver/Src/stm32f3xx_hal_tim.c ****       
1369:Drivers/STM32F3xx_HAL_Driver/Src/stm32f3xx_hal_tim.c ****       /* Enable the TIM Capture/Compare 4 DMA request */
1370:Drivers/STM32F3xx_HAL_Driver/Src/stm32f3xx_hal_tim.c ****       __HAL_TIM_ENABLE_DMA(htim, TIM_DMA_CC4);
 3045              		.loc 1 1370 0
 3046 014a FB68     		ldr	r3, [r7, #12]
 3047 014c 1B68     		ldr	r3, [r3]
 3048 014e FA68     		ldr	r2, [r7, #12]
 3049 0150 1268     		ldr	r2, [r2]
 3050 0152 D268     		ldr	r2, [r2, #12]
 3051 0154 42F48052 		orr	r2, r2, #4096
 3052 0158 DA60     		str	r2, [r3, #12]
1371:Drivers/STM32F3xx_HAL_Driver/Src/stm32f3xx_hal_tim.c ****     }
1372:Drivers/STM32F3xx_HAL_Driver/Src/stm32f3xx_hal_tim.c ****     break;
 3053              		.loc 1 1372 0
 3054 015a 00E0     		b	.L195
 3055              	.L200:
1373:Drivers/STM32F3xx_HAL_Driver/Src/stm32f3xx_hal_tim.c ****     
1374:Drivers/STM32F3xx_HAL_Driver/Src/stm32f3xx_hal_tim.c ****     default:
1375:Drivers/STM32F3xx_HAL_Driver/Src/stm32f3xx_hal_tim.c ****     break;
 3056              		.loc 1 1375 0
 3057 015c 00BF     		nop
 3058              	.L195:
1376:Drivers/STM32F3xx_HAL_Driver/Src/stm32f3xx_hal_tim.c ****   }
1377:Drivers/STM32F3xx_HAL_Driver/Src/stm32f3xx_hal_tim.c **** 
1378:Drivers/STM32F3xx_HAL_Driver/Src/stm32f3xx_hal_tim.c ****   /* Enable the Capture compare channel */
1379:Drivers/STM32F3xx_HAL_Driver/Src/stm32f3xx_hal_tim.c ****   TIM_CCxChannelCmd(htim->Instance, Channel, TIM_CCx_ENABLE);
 3059              		.loc 1 1379 0
 3060 015e FB68     		ldr	r3, [r7, #12]
 3061 0160 1B68     		ldr	r3, [r3]
 3062 0162 1846     		mov	r0, r3
 3063 0164 B968     		ldr	r1, [r7, #8]
 3064 0166 0122     		movs	r2, #1
 3065 0168 FFF7FEFF 		bl	TIM_CCxChannelCmd
1380:Drivers/STM32F3xx_HAL_Driver/Src/stm32f3xx_hal_tim.c ****   
1381:Drivers/STM32F3xx_HAL_Driver/Src/stm32f3xx_hal_tim.c ****   if(IS_TIM_BREAK_INSTANCE(htim->Instance) != RESET)  
ARM GAS  /tmp/ccZyKULX.s 			page 78


 3066              		.loc 1 1381 0
 3067 016c FB68     		ldr	r3, [r7, #12]
 3068 016e 1A68     		ldr	r2, [r3]
 3069 0170 1A4B     		ldr	r3, .L201+8
 3070 0172 9A42     		cmp	r2, r3
 3071 0174 13D0     		beq	.L196
 3072              		.loc 1 1381 0 is_stmt 0 discriminator 2
 3073 0176 FB68     		ldr	r3, [r7, #12]
 3074 0178 1A68     		ldr	r2, [r3]
 3075 017a 194B     		ldr	r3, .L201+12
 3076 017c 9A42     		cmp	r2, r3
 3077 017e 0ED0     		beq	.L196
 3078              		.loc 1 1381 0 discriminator 1
 3079 0180 FB68     		ldr	r3, [r7, #12]
 3080 0182 1A68     		ldr	r2, [r3]
 3081 0184 174B     		ldr	r3, .L201+16
 3082 0186 9A42     		cmp	r2, r3
 3083 0188 09D0     		beq	.L196
 3084 018a FB68     		ldr	r3, [r7, #12]
 3085 018c 1A68     		ldr	r2, [r3]
 3086 018e 164B     		ldr	r3, .L201+20
 3087 0190 9A42     		cmp	r2, r3
 3088 0192 04D0     		beq	.L196
 3089 0194 FB68     		ldr	r3, [r7, #12]
 3090 0196 1A68     		ldr	r2, [r3]
 3091 0198 144B     		ldr	r3, .L201+24
 3092 019a 9A42     		cmp	r2, r3
 3093 019c 01D1     		bne	.L197
 3094              	.L196:
 3095 019e 0123     		movs	r3, #1
 3096 01a0 00E0     		b	.L198
 3097              	.L197:
 3098              		.loc 1 1381 0 discriminator 3
 3099 01a2 0023     		movs	r3, #0
 3100              	.L198:
 3101              		.loc 1 1381 0 discriminator 4
 3102 01a4 002B     		cmp	r3, #0
 3103 01a6 07D0     		beq	.L199
1382:Drivers/STM32F3xx_HAL_Driver/Src/stm32f3xx_hal_tim.c ****   {
1383:Drivers/STM32F3xx_HAL_Driver/Src/stm32f3xx_hal_tim.c ****     /* Enable the main output */
1384:Drivers/STM32F3xx_HAL_Driver/Src/stm32f3xx_hal_tim.c ****     __HAL_TIM_MOE_ENABLE(htim);
 3104              		.loc 1 1384 0 is_stmt 1
 3105 01a8 FB68     		ldr	r3, [r7, #12]
 3106 01aa 1B68     		ldr	r3, [r3]
 3107 01ac FA68     		ldr	r2, [r7, #12]
 3108 01ae 1268     		ldr	r2, [r2]
 3109 01b0 526C     		ldr	r2, [r2, #68]
 3110 01b2 42F40042 		orr	r2, r2, #32768
 3111 01b6 5A64     		str	r2, [r3, #68]
 3112              	.L199:
1385:Drivers/STM32F3xx_HAL_Driver/Src/stm32f3xx_hal_tim.c ****   }
1386:Drivers/STM32F3xx_HAL_Driver/Src/stm32f3xx_hal_tim.c ****   
1387:Drivers/STM32F3xx_HAL_Driver/Src/stm32f3xx_hal_tim.c ****   /* Enable the Peripheral */
1388:Drivers/STM32F3xx_HAL_Driver/Src/stm32f3xx_hal_tim.c ****   __HAL_TIM_ENABLE(htim); 
 3113              		.loc 1 1388 0
 3114 01b8 FB68     		ldr	r3, [r7, #12]
 3115 01ba 1B68     		ldr	r3, [r3]
ARM GAS  /tmp/ccZyKULX.s 			page 79


 3116 01bc FA68     		ldr	r2, [r7, #12]
 3117 01be 1268     		ldr	r2, [r2]
 3118 01c0 1268     		ldr	r2, [r2]
 3119 01c2 42F00102 		orr	r2, r2, #1
 3120 01c6 1A60     		str	r2, [r3]
1389:Drivers/STM32F3xx_HAL_Driver/Src/stm32f3xx_hal_tim.c ****   
1390:Drivers/STM32F3xx_HAL_Driver/Src/stm32f3xx_hal_tim.c ****   /* Return function status */
1391:Drivers/STM32F3xx_HAL_Driver/Src/stm32f3xx_hal_tim.c ****   return HAL_OK;
 3121              		.loc 1 1391 0
 3122 01c8 0023     		movs	r3, #0
 3123              	.L186:
1392:Drivers/STM32F3xx_HAL_Driver/Src/stm32f3xx_hal_tim.c **** }
 3124              		.loc 1 1392 0
 3125 01ca 1846     		mov	r0, r3
 3126 01cc 1037     		adds	r7, r7, #16
 3127 01ce BD46     		mov	sp, r7
 3128              		@ sp needed
 3129 01d0 80BD     		pop	{r7, pc}
 3130              	.L202:
 3131 01d2 00BF     		.align	2
 3132              	.L201:
 3133 01d4 00000000 		.word	TIM_DMADelayPulseCplt
 3134 01d8 00000000 		.word	TIM_DMAError
 3135 01dc 002C0140 		.word	1073818624
 3136 01e0 00340140 		.word	1073820672
 3137 01e4 00400140 		.word	1073823744
 3138 01e8 00440140 		.word	1073824768
 3139 01ec 00480140 		.word	1073825792
 3140              		.cfi_endproc
 3141              	.LFE153:
 3143              		.section	.text.HAL_TIM_PWM_Stop_DMA,"ax",%progbits
 3144              		.align	2
 3145              		.global	HAL_TIM_PWM_Stop_DMA
 3146              		.thumb
 3147              		.thumb_func
 3149              	HAL_TIM_PWM_Stop_DMA:
 3150              	.LFB154:
1393:Drivers/STM32F3xx_HAL_Driver/Src/stm32f3xx_hal_tim.c **** 
1394:Drivers/STM32F3xx_HAL_Driver/Src/stm32f3xx_hal_tim.c **** /**
1395:Drivers/STM32F3xx_HAL_Driver/Src/stm32f3xx_hal_tim.c ****   * @brief  Stops the TIM PWM signal generation in DMA mode.
1396:Drivers/STM32F3xx_HAL_Driver/Src/stm32f3xx_hal_tim.c ****   * @param  htim: TIM handle
1397:Drivers/STM32F3xx_HAL_Driver/Src/stm32f3xx_hal_tim.c ****   * @param  Channel: TIM Channels to be disabled
1398:Drivers/STM32F3xx_HAL_Driver/Src/stm32f3xx_hal_tim.c ****   *          This parameter can be one of the following values:
1399:Drivers/STM32F3xx_HAL_Driver/Src/stm32f3xx_hal_tim.c ****   *            @arg TIM_CHANNEL_1: TIM Channel 1 selected
1400:Drivers/STM32F3xx_HAL_Driver/Src/stm32f3xx_hal_tim.c ****   *            @arg TIM_CHANNEL_2: TIM Channel 2 selected
1401:Drivers/STM32F3xx_HAL_Driver/Src/stm32f3xx_hal_tim.c ****   *            @arg TIM_CHANNEL_3: TIM Channel 3 selected
1402:Drivers/STM32F3xx_HAL_Driver/Src/stm32f3xx_hal_tim.c ****   *            @arg TIM_CHANNEL_4: TIM Channel 4 selected
1403:Drivers/STM32F3xx_HAL_Driver/Src/stm32f3xx_hal_tim.c ****   * @retval HAL status
1404:Drivers/STM32F3xx_HAL_Driver/Src/stm32f3xx_hal_tim.c **** */
1405:Drivers/STM32F3xx_HAL_Driver/Src/stm32f3xx_hal_tim.c **** HAL_StatusTypeDef HAL_TIM_PWM_Stop_DMA(TIM_HandleTypeDef *htim, uint32_t Channel)
1406:Drivers/STM32F3xx_HAL_Driver/Src/stm32f3xx_hal_tim.c **** {
 3151              		.loc 1 1406 0
 3152              		.cfi_startproc
 3153              		@ args = 0, pretend = 0, frame = 8
 3154              		@ frame_needed = 1, uses_anonymous_args = 0
 3155 0000 80B5     		push	{r7, lr}
 3156              	.LCFI87:
ARM GAS  /tmp/ccZyKULX.s 			page 80


 3157              		.cfi_def_cfa_offset 8
 3158              		.cfi_offset 7, -8
 3159              		.cfi_offset 14, -4
 3160 0002 82B0     		sub	sp, sp, #8
 3161              	.LCFI88:
 3162              		.cfi_def_cfa_offset 16
 3163 0004 00AF     		add	r7, sp, #0
 3164              	.LCFI89:
 3165              		.cfi_def_cfa_register 7
 3166 0006 7860     		str	r0, [r7, #4]
 3167 0008 3960     		str	r1, [r7]
1407:Drivers/STM32F3xx_HAL_Driver/Src/stm32f3xx_hal_tim.c ****   /* Check the parameters */
1408:Drivers/STM32F3xx_HAL_Driver/Src/stm32f3xx_hal_tim.c ****   assert_param(IS_TIM_CCX_INSTANCE(htim->Instance, Channel));
1409:Drivers/STM32F3xx_HAL_Driver/Src/stm32f3xx_hal_tim.c ****   
1410:Drivers/STM32F3xx_HAL_Driver/Src/stm32f3xx_hal_tim.c ****   switch (Channel)
 3168              		.loc 1 1410 0
 3169 000a 3B68     		ldr	r3, [r7]
 3170 000c 0C2B     		cmp	r3, #12
 3171 000e 41D8     		bhi	.L217
 3172 0010 01A2     		adr	r2, .L206
 3173 0012 52F823F0 		ldr	pc, [r2, r3, lsl #2]
 3174 0016 00BF     		.p2align 2
 3175              	.L206:
 3176 0018 4D000000 		.word	.L205+1
 3177 001c 95000000 		.word	.L217+1
 3178 0020 95000000 		.word	.L217+1
 3179 0024 95000000 		.word	.L217+1
 3180 0028 5F000000 		.word	.L207+1
 3181 002c 95000000 		.word	.L217+1
 3182 0030 95000000 		.word	.L217+1
 3183 0034 95000000 		.word	.L217+1
 3184 0038 71000000 		.word	.L208+1
 3185 003c 95000000 		.word	.L217+1
 3186 0040 95000000 		.word	.L217+1
 3187 0044 95000000 		.word	.L217+1
 3188 0048 83000000 		.word	.L209+1
 3189              		.p2align 1
 3190              	.L205:
1411:Drivers/STM32F3xx_HAL_Driver/Src/stm32f3xx_hal_tim.c ****   {
1412:Drivers/STM32F3xx_HAL_Driver/Src/stm32f3xx_hal_tim.c ****     case TIM_CHANNEL_1:
1413:Drivers/STM32F3xx_HAL_Driver/Src/stm32f3xx_hal_tim.c ****     {       
1414:Drivers/STM32F3xx_HAL_Driver/Src/stm32f3xx_hal_tim.c ****       /* Disable the TIM Capture/Compare 1 DMA request */
1415:Drivers/STM32F3xx_HAL_Driver/Src/stm32f3xx_hal_tim.c ****       __HAL_TIM_DISABLE_DMA(htim, TIM_DMA_CC1);
 3191              		.loc 1 1415 0
 3192 004c 7B68     		ldr	r3, [r7, #4]
 3193 004e 1B68     		ldr	r3, [r3]
 3194 0050 7A68     		ldr	r2, [r7, #4]
 3195 0052 1268     		ldr	r2, [r2]
 3196 0054 D268     		ldr	r2, [r2, #12]
 3197 0056 22F40072 		bic	r2, r2, #512
 3198 005a DA60     		str	r2, [r3, #12]
1416:Drivers/STM32F3xx_HAL_Driver/Src/stm32f3xx_hal_tim.c ****     }
1417:Drivers/STM32F3xx_HAL_Driver/Src/stm32f3xx_hal_tim.c ****     break;
 3199              		.loc 1 1417 0
 3200 005c 1BE0     		b	.L210
 3201              	.L207:
1418:Drivers/STM32F3xx_HAL_Driver/Src/stm32f3xx_hal_tim.c ****     
ARM GAS  /tmp/ccZyKULX.s 			page 81


1419:Drivers/STM32F3xx_HAL_Driver/Src/stm32f3xx_hal_tim.c ****     case TIM_CHANNEL_2:
1420:Drivers/STM32F3xx_HAL_Driver/Src/stm32f3xx_hal_tim.c ****     {
1421:Drivers/STM32F3xx_HAL_Driver/Src/stm32f3xx_hal_tim.c ****       /* Disable the TIM Capture/Compare 2 DMA request */
1422:Drivers/STM32F3xx_HAL_Driver/Src/stm32f3xx_hal_tim.c ****       __HAL_TIM_DISABLE_DMA(htim, TIM_DMA_CC2);
 3202              		.loc 1 1422 0
 3203 005e 7B68     		ldr	r3, [r7, #4]
 3204 0060 1B68     		ldr	r3, [r3]
 3205 0062 7A68     		ldr	r2, [r7, #4]
 3206 0064 1268     		ldr	r2, [r2]
 3207 0066 D268     		ldr	r2, [r2, #12]
 3208 0068 22F48062 		bic	r2, r2, #1024
 3209 006c DA60     		str	r2, [r3, #12]
1423:Drivers/STM32F3xx_HAL_Driver/Src/stm32f3xx_hal_tim.c ****     }
1424:Drivers/STM32F3xx_HAL_Driver/Src/stm32f3xx_hal_tim.c ****     break;
 3210              		.loc 1 1424 0
 3211 006e 12E0     		b	.L210
 3212              	.L208:
1425:Drivers/STM32F3xx_HAL_Driver/Src/stm32f3xx_hal_tim.c ****     
1426:Drivers/STM32F3xx_HAL_Driver/Src/stm32f3xx_hal_tim.c ****     case TIM_CHANNEL_3:
1427:Drivers/STM32F3xx_HAL_Driver/Src/stm32f3xx_hal_tim.c ****     {
1428:Drivers/STM32F3xx_HAL_Driver/Src/stm32f3xx_hal_tim.c ****       /* Disable the TIM Capture/Compare 3 DMA request */
1429:Drivers/STM32F3xx_HAL_Driver/Src/stm32f3xx_hal_tim.c ****       __HAL_TIM_DISABLE_DMA(htim, TIM_DMA_CC3);
 3213              		.loc 1 1429 0
 3214 0070 7B68     		ldr	r3, [r7, #4]
 3215 0072 1B68     		ldr	r3, [r3]
 3216 0074 7A68     		ldr	r2, [r7, #4]
 3217 0076 1268     		ldr	r2, [r2]
 3218 0078 D268     		ldr	r2, [r2, #12]
 3219 007a 22F40062 		bic	r2, r2, #2048
 3220 007e DA60     		str	r2, [r3, #12]
1430:Drivers/STM32F3xx_HAL_Driver/Src/stm32f3xx_hal_tim.c ****     }
1431:Drivers/STM32F3xx_HAL_Driver/Src/stm32f3xx_hal_tim.c ****     break;
 3221              		.loc 1 1431 0
 3222 0080 09E0     		b	.L210
 3223              	.L209:
1432:Drivers/STM32F3xx_HAL_Driver/Src/stm32f3xx_hal_tim.c ****     
1433:Drivers/STM32F3xx_HAL_Driver/Src/stm32f3xx_hal_tim.c ****     case TIM_CHANNEL_4:
1434:Drivers/STM32F3xx_HAL_Driver/Src/stm32f3xx_hal_tim.c ****     {
1435:Drivers/STM32F3xx_HAL_Driver/Src/stm32f3xx_hal_tim.c ****       /* Disable the TIM Capture/Compare 4 interrupt */
1436:Drivers/STM32F3xx_HAL_Driver/Src/stm32f3xx_hal_tim.c ****       __HAL_TIM_DISABLE_DMA(htim, TIM_DMA_CC4);
 3224              		.loc 1 1436 0
 3225 0082 7B68     		ldr	r3, [r7, #4]
 3226 0084 1B68     		ldr	r3, [r3]
 3227 0086 7A68     		ldr	r2, [r7, #4]
 3228 0088 1268     		ldr	r2, [r2]
 3229 008a D268     		ldr	r2, [r2, #12]
 3230 008c 22F48052 		bic	r2, r2, #4096
 3231 0090 DA60     		str	r2, [r3, #12]
1437:Drivers/STM32F3xx_HAL_Driver/Src/stm32f3xx_hal_tim.c ****     }
1438:Drivers/STM32F3xx_HAL_Driver/Src/stm32f3xx_hal_tim.c ****     break;
 3232              		.loc 1 1438 0
 3233 0092 00E0     		b	.L210
 3234              	.L217:
1439:Drivers/STM32F3xx_HAL_Driver/Src/stm32f3xx_hal_tim.c ****     
1440:Drivers/STM32F3xx_HAL_Driver/Src/stm32f3xx_hal_tim.c ****     default:
1441:Drivers/STM32F3xx_HAL_Driver/Src/stm32f3xx_hal_tim.c ****     break;
 3235              		.loc 1 1441 0
ARM GAS  /tmp/ccZyKULX.s 			page 82


 3236 0094 00BF     		nop
 3237              	.L210:
1442:Drivers/STM32F3xx_HAL_Driver/Src/stm32f3xx_hal_tim.c ****   } 
1443:Drivers/STM32F3xx_HAL_Driver/Src/stm32f3xx_hal_tim.c ****   
1444:Drivers/STM32F3xx_HAL_Driver/Src/stm32f3xx_hal_tim.c ****   /* Disable the Capture compare channel */
1445:Drivers/STM32F3xx_HAL_Driver/Src/stm32f3xx_hal_tim.c ****   TIM_CCxChannelCmd(htim->Instance, Channel, TIM_CCx_DISABLE);
 3238              		.loc 1 1445 0
 3239 0096 7B68     		ldr	r3, [r7, #4]
 3240 0098 1B68     		ldr	r3, [r3]
 3241 009a 1846     		mov	r0, r3
 3242 009c 3968     		ldr	r1, [r7]
 3243 009e 0022     		movs	r2, #0
 3244 00a0 FFF7FEFF 		bl	TIM_CCxChannelCmd
1446:Drivers/STM32F3xx_HAL_Driver/Src/stm32f3xx_hal_tim.c ****   
1447:Drivers/STM32F3xx_HAL_Driver/Src/stm32f3xx_hal_tim.c ****   if(IS_TIM_BREAK_INSTANCE(htim->Instance) != RESET)  
 3245              		.loc 1 1447 0
 3246 00a4 7B68     		ldr	r3, [r7, #4]
 3247 00a6 1A68     		ldr	r2, [r3]
 3248 00a8 2A4B     		ldr	r3, .L218
 3249 00aa 9A42     		cmp	r2, r3
 3250 00ac 13D0     		beq	.L211
 3251              		.loc 1 1447 0 is_stmt 0 discriminator 2
 3252 00ae 7B68     		ldr	r3, [r7, #4]
 3253 00b0 1A68     		ldr	r2, [r3]
 3254 00b2 294B     		ldr	r3, .L218+4
 3255 00b4 9A42     		cmp	r2, r3
 3256 00b6 0ED0     		beq	.L211
 3257              		.loc 1 1447 0 discriminator 1
 3258 00b8 7B68     		ldr	r3, [r7, #4]
 3259 00ba 1A68     		ldr	r2, [r3]
 3260 00bc 274B     		ldr	r3, .L218+8
 3261 00be 9A42     		cmp	r2, r3
 3262 00c0 09D0     		beq	.L211
 3263 00c2 7B68     		ldr	r3, [r7, #4]
 3264 00c4 1A68     		ldr	r2, [r3]
 3265 00c6 264B     		ldr	r3, .L218+12
 3266 00c8 9A42     		cmp	r2, r3
 3267 00ca 04D0     		beq	.L211
 3268 00cc 7B68     		ldr	r3, [r7, #4]
 3269 00ce 1A68     		ldr	r2, [r3]
 3270 00d0 244B     		ldr	r3, .L218+16
 3271 00d2 9A42     		cmp	r2, r3
 3272 00d4 01D1     		bne	.L212
 3273              	.L211:
 3274 00d6 0123     		movs	r3, #1
 3275 00d8 00E0     		b	.L213
 3276              	.L212:
 3277              		.loc 1 1447 0 discriminator 3
 3278 00da 0023     		movs	r3, #0
 3279              	.L213:
 3280              		.loc 1 1447 0 discriminator 4
 3281 00dc 002B     		cmp	r3, #0
 3282 00de 17D0     		beq	.L214
1448:Drivers/STM32F3xx_HAL_Driver/Src/stm32f3xx_hal_tim.c ****   {
1449:Drivers/STM32F3xx_HAL_Driver/Src/stm32f3xx_hal_tim.c ****     /* Disable the Main Ouput */
1450:Drivers/STM32F3xx_HAL_Driver/Src/stm32f3xx_hal_tim.c ****     __HAL_TIM_MOE_DISABLE(htim);
 3283              		.loc 1 1450 0 is_stmt 1
ARM GAS  /tmp/ccZyKULX.s 			page 83


 3284 00e0 7B68     		ldr	r3, [r7, #4]
 3285 00e2 1B68     		ldr	r3, [r3]
 3286 00e4 1A6A     		ldr	r2, [r3, #32]
 3287 00e6 41F21113 		movw	r3, #4369
 3288 00ea 1340     		ands	r3, r3, r2
 3289 00ec 002B     		cmp	r3, #0
 3290 00ee 0FD1     		bne	.L214
 3291              		.loc 1 1450 0 is_stmt 0 discriminator 1
 3292 00f0 7B68     		ldr	r3, [r7, #4]
 3293 00f2 1B68     		ldr	r3, [r3]
 3294 00f4 1A6A     		ldr	r2, [r3, #32]
 3295 00f6 40F24443 		movw	r3, #1092
 3296 00fa 1340     		ands	r3, r3, r2
 3297 00fc 002B     		cmp	r3, #0
 3298 00fe 07D1     		bne	.L214
 3299 0100 7B68     		ldr	r3, [r7, #4]
 3300 0102 1B68     		ldr	r3, [r3]
 3301 0104 7A68     		ldr	r2, [r7, #4]
 3302 0106 1268     		ldr	r2, [r2]
 3303 0108 526C     		ldr	r2, [r2, #68]
 3304 010a 22F40042 		bic	r2, r2, #32768
 3305 010e 5A64     		str	r2, [r3, #68]
 3306              	.L214:
1451:Drivers/STM32F3xx_HAL_Driver/Src/stm32f3xx_hal_tim.c ****   }
1452:Drivers/STM32F3xx_HAL_Driver/Src/stm32f3xx_hal_tim.c ****   
1453:Drivers/STM32F3xx_HAL_Driver/Src/stm32f3xx_hal_tim.c ****   /* Disable the Peripheral */
1454:Drivers/STM32F3xx_HAL_Driver/Src/stm32f3xx_hal_tim.c ****   __HAL_TIM_DISABLE(htim);
 3307              		.loc 1 1454 0 is_stmt 1
 3308 0110 7B68     		ldr	r3, [r7, #4]
 3309 0112 1B68     		ldr	r3, [r3]
 3310 0114 1A6A     		ldr	r2, [r3, #32]
 3311 0116 41F21113 		movw	r3, #4369
 3312 011a 1340     		ands	r3, r3, r2
 3313 011c 002B     		cmp	r3, #0
 3314 011e 0FD1     		bne	.L215
 3315              		.loc 1 1454 0 is_stmt 0 discriminator 1
 3316 0120 7B68     		ldr	r3, [r7, #4]
 3317 0122 1B68     		ldr	r3, [r3]
 3318 0124 1A6A     		ldr	r2, [r3, #32]
 3319 0126 40F24443 		movw	r3, #1092
 3320 012a 1340     		ands	r3, r3, r2
 3321 012c 002B     		cmp	r3, #0
 3322 012e 07D1     		bne	.L215
 3323 0130 7B68     		ldr	r3, [r7, #4]
 3324 0132 1B68     		ldr	r3, [r3]
 3325 0134 7A68     		ldr	r2, [r7, #4]
 3326 0136 1268     		ldr	r2, [r2]
 3327 0138 1268     		ldr	r2, [r2]
 3328 013a 22F00102 		bic	r2, r2, #1
 3329 013e 1A60     		str	r2, [r3]
 3330              	.L215:
1455:Drivers/STM32F3xx_HAL_Driver/Src/stm32f3xx_hal_tim.c ****   
1456:Drivers/STM32F3xx_HAL_Driver/Src/stm32f3xx_hal_tim.c ****   /* Change the htim state */
1457:Drivers/STM32F3xx_HAL_Driver/Src/stm32f3xx_hal_tim.c ****   htim->State = HAL_TIM_STATE_READY;
 3331              		.loc 1 1457 0 is_stmt 1
 3332 0140 7B68     		ldr	r3, [r7, #4]
 3333 0142 0122     		movs	r2, #1
ARM GAS  /tmp/ccZyKULX.s 			page 84


 3334 0144 83F83920 		strb	r2, [r3, #57]
1458:Drivers/STM32F3xx_HAL_Driver/Src/stm32f3xx_hal_tim.c ****   
1459:Drivers/STM32F3xx_HAL_Driver/Src/stm32f3xx_hal_tim.c ****   /* Return function status */
1460:Drivers/STM32F3xx_HAL_Driver/Src/stm32f3xx_hal_tim.c ****   return HAL_OK;
 3335              		.loc 1 1460 0
 3336 0148 0023     		movs	r3, #0
1461:Drivers/STM32F3xx_HAL_Driver/Src/stm32f3xx_hal_tim.c **** }
 3337              		.loc 1 1461 0
 3338 014a 1846     		mov	r0, r3
 3339 014c 0837     		adds	r7, r7, #8
 3340 014e BD46     		mov	sp, r7
 3341              		@ sp needed
 3342 0150 80BD     		pop	{r7, pc}
 3343              	.L219:
 3344 0152 00BF     		.align	2
 3345              	.L218:
 3346 0154 002C0140 		.word	1073818624
 3347 0158 00340140 		.word	1073820672
 3348 015c 00400140 		.word	1073823744
 3349 0160 00440140 		.word	1073824768
 3350 0164 00480140 		.word	1073825792
 3351              		.cfi_endproc
 3352              	.LFE154:
 3354              		.section	.text.HAL_TIM_IC_Init,"ax",%progbits
 3355              		.align	2
 3356              		.global	HAL_TIM_IC_Init
 3357              		.thumb
 3358              		.thumb_func
 3360              	HAL_TIM_IC_Init:
 3361              	.LFB155:
1462:Drivers/STM32F3xx_HAL_Driver/Src/stm32f3xx_hal_tim.c **** 
1463:Drivers/STM32F3xx_HAL_Driver/Src/stm32f3xx_hal_tim.c **** /**
1464:Drivers/STM32F3xx_HAL_Driver/Src/stm32f3xx_hal_tim.c ****   * @}
1465:Drivers/STM32F3xx_HAL_Driver/Src/stm32f3xx_hal_tim.c ****   */
1466:Drivers/STM32F3xx_HAL_Driver/Src/stm32f3xx_hal_tim.c **** 
1467:Drivers/STM32F3xx_HAL_Driver/Src/stm32f3xx_hal_tim.c **** /** @defgroup TIM_Exported_Functions_Group4 Time Input Capture functions 
1468:Drivers/STM32F3xx_HAL_Driver/Src/stm32f3xx_hal_tim.c ****  *  @brief    Time Input Capture functions 
1469:Drivers/STM32F3xx_HAL_Driver/Src/stm32f3xx_hal_tim.c ****  *
1470:Drivers/STM32F3xx_HAL_Driver/Src/stm32f3xx_hal_tim.c **** @verbatim    
1471:Drivers/STM32F3xx_HAL_Driver/Src/stm32f3xx_hal_tim.c ****   ==============================================================================
1472:Drivers/STM32F3xx_HAL_Driver/Src/stm32f3xx_hal_tim.c ****               ##### Time Input Capture functions #####
1473:Drivers/STM32F3xx_HAL_Driver/Src/stm32f3xx_hal_tim.c ****   ==============================================================================
1474:Drivers/STM32F3xx_HAL_Driver/Src/stm32f3xx_hal_tim.c ****  [..]  
1475:Drivers/STM32F3xx_HAL_Driver/Src/stm32f3xx_hal_tim.c ****    This section provides functions allowing to:
1476:Drivers/STM32F3xx_HAL_Driver/Src/stm32f3xx_hal_tim.c ****    (+) Initialize and configure the TIM Input Capture. 
1477:Drivers/STM32F3xx_HAL_Driver/Src/stm32f3xx_hal_tim.c ****    (+) De-initialize the TIM Input Capture.
1478:Drivers/STM32F3xx_HAL_Driver/Src/stm32f3xx_hal_tim.c ****    (+) Start the Time Input Capture.
1479:Drivers/STM32F3xx_HAL_Driver/Src/stm32f3xx_hal_tim.c ****    (+) Stop the Time Input Capture.
1480:Drivers/STM32F3xx_HAL_Driver/Src/stm32f3xx_hal_tim.c ****    (+) Start the Time Input Capture and enable interrupt.
1481:Drivers/STM32F3xx_HAL_Driver/Src/stm32f3xx_hal_tim.c ****    (+) Stop the Time Input Capture and disable interrupt.
1482:Drivers/STM32F3xx_HAL_Driver/Src/stm32f3xx_hal_tim.c ****    (+) Start the Time Input Capture and enable DMA transfer.
1483:Drivers/STM32F3xx_HAL_Driver/Src/stm32f3xx_hal_tim.c ****    (+) Stop the Time Input Capture and disable DMA transfer.
1484:Drivers/STM32F3xx_HAL_Driver/Src/stm32f3xx_hal_tim.c ****  
1485:Drivers/STM32F3xx_HAL_Driver/Src/stm32f3xx_hal_tim.c **** @endverbatim
1486:Drivers/STM32F3xx_HAL_Driver/Src/stm32f3xx_hal_tim.c ****   * @{
1487:Drivers/STM32F3xx_HAL_Driver/Src/stm32f3xx_hal_tim.c ****   */
1488:Drivers/STM32F3xx_HAL_Driver/Src/stm32f3xx_hal_tim.c **** /**
ARM GAS  /tmp/ccZyKULX.s 			page 85


1489:Drivers/STM32F3xx_HAL_Driver/Src/stm32f3xx_hal_tim.c ****   * @brief  Initializes the TIM Input Capture Time base according to the specified
1490:Drivers/STM32F3xx_HAL_Driver/Src/stm32f3xx_hal_tim.c ****   *         parameters in the TIM_HandleTypeDef and create the associated handle.
1491:Drivers/STM32F3xx_HAL_Driver/Src/stm32f3xx_hal_tim.c ****   * @param  htim: TIM Input Capture handle
1492:Drivers/STM32F3xx_HAL_Driver/Src/stm32f3xx_hal_tim.c ****   * @retval HAL status
1493:Drivers/STM32F3xx_HAL_Driver/Src/stm32f3xx_hal_tim.c ****   */
1494:Drivers/STM32F3xx_HAL_Driver/Src/stm32f3xx_hal_tim.c **** HAL_StatusTypeDef HAL_TIM_IC_Init(TIM_HandleTypeDef *htim)
1495:Drivers/STM32F3xx_HAL_Driver/Src/stm32f3xx_hal_tim.c **** {
 3362              		.loc 1 1495 0
 3363              		.cfi_startproc
 3364              		@ args = 0, pretend = 0, frame = 8
 3365              		@ frame_needed = 1, uses_anonymous_args = 0
 3366 0000 80B5     		push	{r7, lr}
 3367              	.LCFI90:
 3368              		.cfi_def_cfa_offset 8
 3369              		.cfi_offset 7, -8
 3370              		.cfi_offset 14, -4
 3371 0002 82B0     		sub	sp, sp, #8
 3372              	.LCFI91:
 3373              		.cfi_def_cfa_offset 16
 3374 0004 00AF     		add	r7, sp, #0
 3375              	.LCFI92:
 3376              		.cfi_def_cfa_register 7
 3377 0006 7860     		str	r0, [r7, #4]
1496:Drivers/STM32F3xx_HAL_Driver/Src/stm32f3xx_hal_tim.c ****   /* Check the TIM handle allocation */
1497:Drivers/STM32F3xx_HAL_Driver/Src/stm32f3xx_hal_tim.c ****   if(htim == NULL)
 3378              		.loc 1 1497 0
 3379 0008 7B68     		ldr	r3, [r7, #4]
 3380 000a 002B     		cmp	r3, #0
 3381 000c 01D1     		bne	.L221
1498:Drivers/STM32F3xx_HAL_Driver/Src/stm32f3xx_hal_tim.c ****   {
1499:Drivers/STM32F3xx_HAL_Driver/Src/stm32f3xx_hal_tim.c ****     return HAL_ERROR;
 3382              		.loc 1 1499 0
 3383 000e 0123     		movs	r3, #1
 3384 0010 1DE0     		b	.L222
 3385              	.L221:
1500:Drivers/STM32F3xx_HAL_Driver/Src/stm32f3xx_hal_tim.c ****   }
1501:Drivers/STM32F3xx_HAL_Driver/Src/stm32f3xx_hal_tim.c **** 
1502:Drivers/STM32F3xx_HAL_Driver/Src/stm32f3xx_hal_tim.c ****   /* Check the parameters */
1503:Drivers/STM32F3xx_HAL_Driver/Src/stm32f3xx_hal_tim.c ****   assert_param(IS_TIM_INSTANCE(htim->Instance));
1504:Drivers/STM32F3xx_HAL_Driver/Src/stm32f3xx_hal_tim.c ****   assert_param(IS_TIM_COUNTER_MODE(htim->Init.CounterMode));
1505:Drivers/STM32F3xx_HAL_Driver/Src/stm32f3xx_hal_tim.c ****   assert_param(IS_TIM_CLOCKDIVISION_DIV(htim->Init.ClockDivision)); 
1506:Drivers/STM32F3xx_HAL_Driver/Src/stm32f3xx_hal_tim.c **** 
1507:Drivers/STM32F3xx_HAL_Driver/Src/stm32f3xx_hal_tim.c ****   if(htim->State == HAL_TIM_STATE_RESET)
 3386              		.loc 1 1507 0
 3387 0012 7B68     		ldr	r3, [r7, #4]
 3388 0014 93F83930 		ldrb	r3, [r3, #57]
 3389 0018 DBB2     		uxtb	r3, r3
 3390 001a 002B     		cmp	r3, #0
 3391 001c 06D1     		bne	.L223
1508:Drivers/STM32F3xx_HAL_Driver/Src/stm32f3xx_hal_tim.c ****   {  
1509:Drivers/STM32F3xx_HAL_Driver/Src/stm32f3xx_hal_tim.c ****     /* Allocate lock resource and initialize it */
1510:Drivers/STM32F3xx_HAL_Driver/Src/stm32f3xx_hal_tim.c ****     htim->Lock = HAL_UNLOCKED;
 3392              		.loc 1 1510 0
 3393 001e 7B68     		ldr	r3, [r7, #4]
 3394 0020 0022     		movs	r2, #0
 3395 0022 83F83820 		strb	r2, [r3, #56]
1511:Drivers/STM32F3xx_HAL_Driver/Src/stm32f3xx_hal_tim.c **** 
ARM GAS  /tmp/ccZyKULX.s 			page 86


1512:Drivers/STM32F3xx_HAL_Driver/Src/stm32f3xx_hal_tim.c ****     /* Init the low level hardware : GPIO, CLOCK, NVIC and DMA */
1513:Drivers/STM32F3xx_HAL_Driver/Src/stm32f3xx_hal_tim.c ****     HAL_TIM_IC_MspInit(htim);
 3396              		.loc 1 1513 0
 3397 0026 7868     		ldr	r0, [r7, #4]
 3398 0028 FFF7FEFF 		bl	HAL_TIM_IC_MspInit
 3399              	.L223:
1514:Drivers/STM32F3xx_HAL_Driver/Src/stm32f3xx_hal_tim.c ****   }
1515:Drivers/STM32F3xx_HAL_Driver/Src/stm32f3xx_hal_tim.c ****   
1516:Drivers/STM32F3xx_HAL_Driver/Src/stm32f3xx_hal_tim.c ****   /* Set the TIM state */
1517:Drivers/STM32F3xx_HAL_Driver/Src/stm32f3xx_hal_tim.c ****   htim->State= HAL_TIM_STATE_BUSY; 
 3400              		.loc 1 1517 0
 3401 002c 7B68     		ldr	r3, [r7, #4]
 3402 002e 0222     		movs	r2, #2
 3403 0030 83F83920 		strb	r2, [r3, #57]
1518:Drivers/STM32F3xx_HAL_Driver/Src/stm32f3xx_hal_tim.c ****   
1519:Drivers/STM32F3xx_HAL_Driver/Src/stm32f3xx_hal_tim.c ****   /* Init the base time for the input capture */  
1520:Drivers/STM32F3xx_HAL_Driver/Src/stm32f3xx_hal_tim.c ****   TIM_Base_SetConfig(htim->Instance, &htim->Init); 
 3404              		.loc 1 1520 0
 3405 0034 7B68     		ldr	r3, [r7, #4]
 3406 0036 1A68     		ldr	r2, [r3]
 3407 0038 7B68     		ldr	r3, [r7, #4]
 3408 003a 0433     		adds	r3, r3, #4
 3409 003c 1046     		mov	r0, r2
 3410 003e 1946     		mov	r1, r3
 3411 0040 FFF7FEFF 		bl	TIM_Base_SetConfig
1521:Drivers/STM32F3xx_HAL_Driver/Src/stm32f3xx_hal_tim.c ****    
1522:Drivers/STM32F3xx_HAL_Driver/Src/stm32f3xx_hal_tim.c ****   /* Initialize the TIM state*/
1523:Drivers/STM32F3xx_HAL_Driver/Src/stm32f3xx_hal_tim.c ****   htim->State= HAL_TIM_STATE_READY;
 3412              		.loc 1 1523 0
 3413 0044 7B68     		ldr	r3, [r7, #4]
 3414 0046 0122     		movs	r2, #1
 3415 0048 83F83920 		strb	r2, [r3, #57]
1524:Drivers/STM32F3xx_HAL_Driver/Src/stm32f3xx_hal_tim.c ****   
1525:Drivers/STM32F3xx_HAL_Driver/Src/stm32f3xx_hal_tim.c ****   return HAL_OK;
 3416              		.loc 1 1525 0
 3417 004c 0023     		movs	r3, #0
 3418              	.L222:
1526:Drivers/STM32F3xx_HAL_Driver/Src/stm32f3xx_hal_tim.c **** }
 3419              		.loc 1 1526 0
 3420 004e 1846     		mov	r0, r3
 3421 0050 0837     		adds	r7, r7, #8
 3422 0052 BD46     		mov	sp, r7
 3423              		@ sp needed
 3424 0054 80BD     		pop	{r7, pc}
 3425              		.cfi_endproc
 3426              	.LFE155:
 3428 0056 00BF     		.section	.text.HAL_TIM_IC_DeInit,"ax",%progbits
 3429              		.align	2
 3430              		.global	HAL_TIM_IC_DeInit
 3431              		.thumb
 3432              		.thumb_func
 3434              	HAL_TIM_IC_DeInit:
 3435              	.LFB156:
1527:Drivers/STM32F3xx_HAL_Driver/Src/stm32f3xx_hal_tim.c **** 
1528:Drivers/STM32F3xx_HAL_Driver/Src/stm32f3xx_hal_tim.c **** /**
1529:Drivers/STM32F3xx_HAL_Driver/Src/stm32f3xx_hal_tim.c ****   * @brief  DeInitializes the TIM peripheral 
1530:Drivers/STM32F3xx_HAL_Driver/Src/stm32f3xx_hal_tim.c ****   * @param  htim: TIM Input Capture handle
ARM GAS  /tmp/ccZyKULX.s 			page 87


1531:Drivers/STM32F3xx_HAL_Driver/Src/stm32f3xx_hal_tim.c ****   * @retval HAL status
1532:Drivers/STM32F3xx_HAL_Driver/Src/stm32f3xx_hal_tim.c ****   */
1533:Drivers/STM32F3xx_HAL_Driver/Src/stm32f3xx_hal_tim.c **** HAL_StatusTypeDef HAL_TIM_IC_DeInit(TIM_HandleTypeDef *htim)
1534:Drivers/STM32F3xx_HAL_Driver/Src/stm32f3xx_hal_tim.c **** {
 3436              		.loc 1 1534 0
 3437              		.cfi_startproc
 3438              		@ args = 0, pretend = 0, frame = 8
 3439              		@ frame_needed = 1, uses_anonymous_args = 0
 3440 0000 80B5     		push	{r7, lr}
 3441              	.LCFI93:
 3442              		.cfi_def_cfa_offset 8
 3443              		.cfi_offset 7, -8
 3444              		.cfi_offset 14, -4
 3445 0002 82B0     		sub	sp, sp, #8
 3446              	.LCFI94:
 3447              		.cfi_def_cfa_offset 16
 3448 0004 00AF     		add	r7, sp, #0
 3449              	.LCFI95:
 3450              		.cfi_def_cfa_register 7
 3451 0006 7860     		str	r0, [r7, #4]
1535:Drivers/STM32F3xx_HAL_Driver/Src/stm32f3xx_hal_tim.c ****   /* Check the parameters */
1536:Drivers/STM32F3xx_HAL_Driver/Src/stm32f3xx_hal_tim.c ****   assert_param(IS_TIM_INSTANCE(htim->Instance));
1537:Drivers/STM32F3xx_HAL_Driver/Src/stm32f3xx_hal_tim.c ****   
1538:Drivers/STM32F3xx_HAL_Driver/Src/stm32f3xx_hal_tim.c ****   htim->State = HAL_TIM_STATE_BUSY;
 3452              		.loc 1 1538 0
 3453 0008 7B68     		ldr	r3, [r7, #4]
 3454 000a 0222     		movs	r2, #2
 3455 000c 83F83920 		strb	r2, [r3, #57]
1539:Drivers/STM32F3xx_HAL_Driver/Src/stm32f3xx_hal_tim.c ****   
1540:Drivers/STM32F3xx_HAL_Driver/Src/stm32f3xx_hal_tim.c ****   /* Disable the TIM Peripheral Clock */
1541:Drivers/STM32F3xx_HAL_Driver/Src/stm32f3xx_hal_tim.c ****   __HAL_TIM_DISABLE(htim);
 3456              		.loc 1 1541 0
 3457 0010 7B68     		ldr	r3, [r7, #4]
 3458 0012 1B68     		ldr	r3, [r3]
 3459 0014 1A6A     		ldr	r2, [r3, #32]
 3460 0016 41F21113 		movw	r3, #4369
 3461 001a 1340     		ands	r3, r3, r2
 3462 001c 002B     		cmp	r3, #0
 3463 001e 0FD1     		bne	.L225
 3464              		.loc 1 1541 0 is_stmt 0 discriminator 1
 3465 0020 7B68     		ldr	r3, [r7, #4]
 3466 0022 1B68     		ldr	r3, [r3]
 3467 0024 1A6A     		ldr	r2, [r3, #32]
 3468 0026 40F24443 		movw	r3, #1092
 3469 002a 1340     		ands	r3, r3, r2
 3470 002c 002B     		cmp	r3, #0
 3471 002e 07D1     		bne	.L225
 3472 0030 7B68     		ldr	r3, [r7, #4]
 3473 0032 1B68     		ldr	r3, [r3]
 3474 0034 7A68     		ldr	r2, [r7, #4]
 3475 0036 1268     		ldr	r2, [r2]
 3476 0038 1268     		ldr	r2, [r2]
 3477 003a 22F00102 		bic	r2, r2, #1
 3478 003e 1A60     		str	r2, [r3]
 3479              	.L225:
1542:Drivers/STM32F3xx_HAL_Driver/Src/stm32f3xx_hal_tim.c ****     
1543:Drivers/STM32F3xx_HAL_Driver/Src/stm32f3xx_hal_tim.c ****   /* DeInit the low level hardware: GPIO, CLOCK, NVIC and DMA */
ARM GAS  /tmp/ccZyKULX.s 			page 88


1544:Drivers/STM32F3xx_HAL_Driver/Src/stm32f3xx_hal_tim.c ****   HAL_TIM_IC_MspDeInit(htim);
 3480              		.loc 1 1544 0 is_stmt 1
 3481 0040 7868     		ldr	r0, [r7, #4]
 3482 0042 FFF7FEFF 		bl	HAL_TIM_IC_MspDeInit
1545:Drivers/STM32F3xx_HAL_Driver/Src/stm32f3xx_hal_tim.c ****     
1546:Drivers/STM32F3xx_HAL_Driver/Src/stm32f3xx_hal_tim.c ****   /* Change TIM state */  
1547:Drivers/STM32F3xx_HAL_Driver/Src/stm32f3xx_hal_tim.c ****   htim->State = HAL_TIM_STATE_RESET;
 3483              		.loc 1 1547 0
 3484 0046 7B68     		ldr	r3, [r7, #4]
 3485 0048 0022     		movs	r2, #0
 3486 004a 83F83920 		strb	r2, [r3, #57]
1548:Drivers/STM32F3xx_HAL_Driver/Src/stm32f3xx_hal_tim.c ****    
1549:Drivers/STM32F3xx_HAL_Driver/Src/stm32f3xx_hal_tim.c ****   /* Release Lock */
1550:Drivers/STM32F3xx_HAL_Driver/Src/stm32f3xx_hal_tim.c ****   __HAL_UNLOCK(htim);
 3487              		.loc 1 1550 0
 3488 004e 7B68     		ldr	r3, [r7, #4]
 3489 0050 0022     		movs	r2, #0
 3490 0052 83F83820 		strb	r2, [r3, #56]
1551:Drivers/STM32F3xx_HAL_Driver/Src/stm32f3xx_hal_tim.c **** 
1552:Drivers/STM32F3xx_HAL_Driver/Src/stm32f3xx_hal_tim.c ****   return HAL_OK;
 3491              		.loc 1 1552 0
 3492 0056 0023     		movs	r3, #0
1553:Drivers/STM32F3xx_HAL_Driver/Src/stm32f3xx_hal_tim.c **** }
 3493              		.loc 1 1553 0
 3494 0058 1846     		mov	r0, r3
 3495 005a 0837     		adds	r7, r7, #8
 3496 005c BD46     		mov	sp, r7
 3497              		@ sp needed
 3498 005e 80BD     		pop	{r7, pc}
 3499              		.cfi_endproc
 3500              	.LFE156:
 3502              		.section	.text.HAL_TIM_IC_MspInit,"ax",%progbits
 3503              		.align	2
 3504              		.weak	HAL_TIM_IC_MspInit
 3505              		.thumb
 3506              		.thumb_func
 3508              	HAL_TIM_IC_MspInit:
 3509              	.LFB157:
1554:Drivers/STM32F3xx_HAL_Driver/Src/stm32f3xx_hal_tim.c **** 
1555:Drivers/STM32F3xx_HAL_Driver/Src/stm32f3xx_hal_tim.c **** /**
1556:Drivers/STM32F3xx_HAL_Driver/Src/stm32f3xx_hal_tim.c ****   * @brief  Initializes the TIM Input Capture MSP.
1557:Drivers/STM32F3xx_HAL_Driver/Src/stm32f3xx_hal_tim.c ****   * @param  htim: TIM handle
1558:Drivers/STM32F3xx_HAL_Driver/Src/stm32f3xx_hal_tim.c ****   * @retval None
1559:Drivers/STM32F3xx_HAL_Driver/Src/stm32f3xx_hal_tim.c ****   */
1560:Drivers/STM32F3xx_HAL_Driver/Src/stm32f3xx_hal_tim.c **** __weak void HAL_TIM_IC_MspInit(TIM_HandleTypeDef *htim)
1561:Drivers/STM32F3xx_HAL_Driver/Src/stm32f3xx_hal_tim.c **** {
 3510              		.loc 1 1561 0
 3511              		.cfi_startproc
 3512              		@ args = 0, pretend = 0, frame = 8
 3513              		@ frame_needed = 1, uses_anonymous_args = 0
 3514              		@ link register save eliminated.
 3515 0000 80B4     		push	{r7}
 3516              	.LCFI96:
 3517              		.cfi_def_cfa_offset 4
 3518              		.cfi_offset 7, -4
 3519 0002 83B0     		sub	sp, sp, #12
 3520              	.LCFI97:
ARM GAS  /tmp/ccZyKULX.s 			page 89


 3521              		.cfi_def_cfa_offset 16
 3522 0004 00AF     		add	r7, sp, #0
 3523              	.LCFI98:
 3524              		.cfi_def_cfa_register 7
 3525 0006 7860     		str	r0, [r7, #4]
1562:Drivers/STM32F3xx_HAL_Driver/Src/stm32f3xx_hal_tim.c ****   /* Prevent unused argument(s) compilation warning */
1563:Drivers/STM32F3xx_HAL_Driver/Src/stm32f3xx_hal_tim.c ****   UNUSED(htim);
1564:Drivers/STM32F3xx_HAL_Driver/Src/stm32f3xx_hal_tim.c **** 
1565:Drivers/STM32F3xx_HAL_Driver/Src/stm32f3xx_hal_tim.c ****   /* NOTE : This function Should not be modified, when the callback is needed,
1566:Drivers/STM32F3xx_HAL_Driver/Src/stm32f3xx_hal_tim.c ****             the HAL_TIM_IC_MspInit could be implemented in the user file
1567:Drivers/STM32F3xx_HAL_Driver/Src/stm32f3xx_hal_tim.c ****    */
1568:Drivers/STM32F3xx_HAL_Driver/Src/stm32f3xx_hal_tim.c **** }
 3526              		.loc 1 1568 0
 3527 0008 0C37     		adds	r7, r7, #12
 3528 000a BD46     		mov	sp, r7
 3529              		@ sp needed
 3530 000c 5DF8047B 		ldr	r7, [sp], #4
 3531 0010 7047     		bx	lr
 3532              		.cfi_endproc
 3533              	.LFE157:
 3535 0012 00BF     		.section	.text.HAL_TIM_IC_MspDeInit,"ax",%progbits
 3536              		.align	2
 3537              		.weak	HAL_TIM_IC_MspDeInit
 3538              		.thumb
 3539              		.thumb_func
 3541              	HAL_TIM_IC_MspDeInit:
 3542              	.LFB158:
1569:Drivers/STM32F3xx_HAL_Driver/Src/stm32f3xx_hal_tim.c **** 
1570:Drivers/STM32F3xx_HAL_Driver/Src/stm32f3xx_hal_tim.c **** /**
1571:Drivers/STM32F3xx_HAL_Driver/Src/stm32f3xx_hal_tim.c ****   * @brief  DeInitializes TIM Input Capture MSP.
1572:Drivers/STM32F3xx_HAL_Driver/Src/stm32f3xx_hal_tim.c ****   * @param  htim: TIM handle
1573:Drivers/STM32F3xx_HAL_Driver/Src/stm32f3xx_hal_tim.c ****   * @retval None
1574:Drivers/STM32F3xx_HAL_Driver/Src/stm32f3xx_hal_tim.c ****   */
1575:Drivers/STM32F3xx_HAL_Driver/Src/stm32f3xx_hal_tim.c **** __weak void HAL_TIM_IC_MspDeInit(TIM_HandleTypeDef *htim)
1576:Drivers/STM32F3xx_HAL_Driver/Src/stm32f3xx_hal_tim.c **** {
 3543              		.loc 1 1576 0
 3544              		.cfi_startproc
 3545              		@ args = 0, pretend = 0, frame = 8
 3546              		@ frame_needed = 1, uses_anonymous_args = 0
 3547              		@ link register save eliminated.
 3548 0000 80B4     		push	{r7}
 3549              	.LCFI99:
 3550              		.cfi_def_cfa_offset 4
 3551              		.cfi_offset 7, -4
 3552 0002 83B0     		sub	sp, sp, #12
 3553              	.LCFI100:
 3554              		.cfi_def_cfa_offset 16
 3555 0004 00AF     		add	r7, sp, #0
 3556              	.LCFI101:
 3557              		.cfi_def_cfa_register 7
 3558 0006 7860     		str	r0, [r7, #4]
1577:Drivers/STM32F3xx_HAL_Driver/Src/stm32f3xx_hal_tim.c ****   /* Prevent unused argument(s) compilation warning */
1578:Drivers/STM32F3xx_HAL_Driver/Src/stm32f3xx_hal_tim.c ****   UNUSED(htim);
1579:Drivers/STM32F3xx_HAL_Driver/Src/stm32f3xx_hal_tim.c **** 
1580:Drivers/STM32F3xx_HAL_Driver/Src/stm32f3xx_hal_tim.c ****   /* NOTE : This function Should not be modified, when the callback is needed,
1581:Drivers/STM32F3xx_HAL_Driver/Src/stm32f3xx_hal_tim.c ****             the HAL_TIM_IC_MspDeInit could be implemented in the user file
1582:Drivers/STM32F3xx_HAL_Driver/Src/stm32f3xx_hal_tim.c ****    */
ARM GAS  /tmp/ccZyKULX.s 			page 90


1583:Drivers/STM32F3xx_HAL_Driver/Src/stm32f3xx_hal_tim.c **** }
 3559              		.loc 1 1583 0
 3560 0008 0C37     		adds	r7, r7, #12
 3561 000a BD46     		mov	sp, r7
 3562              		@ sp needed
 3563 000c 5DF8047B 		ldr	r7, [sp], #4
 3564 0010 7047     		bx	lr
 3565              		.cfi_endproc
 3566              	.LFE158:
 3568 0012 00BF     		.section	.text.HAL_TIM_IC_Start,"ax",%progbits
 3569              		.align	2
 3570              		.global	HAL_TIM_IC_Start
 3571              		.thumb
 3572              		.thumb_func
 3574              	HAL_TIM_IC_Start:
 3575              	.LFB159:
1584:Drivers/STM32F3xx_HAL_Driver/Src/stm32f3xx_hal_tim.c **** 
1585:Drivers/STM32F3xx_HAL_Driver/Src/stm32f3xx_hal_tim.c **** /**
1586:Drivers/STM32F3xx_HAL_Driver/Src/stm32f3xx_hal_tim.c ****   * @brief  Starts the TIM Input Capture measurement.
1587:Drivers/STM32F3xx_HAL_Driver/Src/stm32f3xx_hal_tim.c ****   * @param  htim: TIM Input Capture handle
1588:Drivers/STM32F3xx_HAL_Driver/Src/stm32f3xx_hal_tim.c ****   * @param  Channel: TIM Channels to be enabled
1589:Drivers/STM32F3xx_HAL_Driver/Src/stm32f3xx_hal_tim.c ****   *          This parameter can be one of the following values:
1590:Drivers/STM32F3xx_HAL_Driver/Src/stm32f3xx_hal_tim.c ****   *            @arg TIM_CHANNEL_1: TIM Channel 1 selected
1591:Drivers/STM32F3xx_HAL_Driver/Src/stm32f3xx_hal_tim.c ****   *            @arg TIM_CHANNEL_2: TIM Channel 2 selected
1592:Drivers/STM32F3xx_HAL_Driver/Src/stm32f3xx_hal_tim.c ****   *            @arg TIM_CHANNEL_3: TIM Channel 3 selected
1593:Drivers/STM32F3xx_HAL_Driver/Src/stm32f3xx_hal_tim.c ****   *            @arg TIM_CHANNEL_4: TIM Channel 4 selected
1594:Drivers/STM32F3xx_HAL_Driver/Src/stm32f3xx_hal_tim.c ****   * @retval HAL status
1595:Drivers/STM32F3xx_HAL_Driver/Src/stm32f3xx_hal_tim.c **** */
1596:Drivers/STM32F3xx_HAL_Driver/Src/stm32f3xx_hal_tim.c **** HAL_StatusTypeDef HAL_TIM_IC_Start (TIM_HandleTypeDef *htim, uint32_t Channel)
1597:Drivers/STM32F3xx_HAL_Driver/Src/stm32f3xx_hal_tim.c **** {
 3576              		.loc 1 1597 0
 3577              		.cfi_startproc
 3578              		@ args = 0, pretend = 0, frame = 8
 3579              		@ frame_needed = 1, uses_anonymous_args = 0
 3580 0000 80B5     		push	{r7, lr}
 3581              	.LCFI102:
 3582              		.cfi_def_cfa_offset 8
 3583              		.cfi_offset 7, -8
 3584              		.cfi_offset 14, -4
 3585 0002 82B0     		sub	sp, sp, #8
 3586              	.LCFI103:
 3587              		.cfi_def_cfa_offset 16
 3588 0004 00AF     		add	r7, sp, #0
 3589              	.LCFI104:
 3590              		.cfi_def_cfa_register 7
 3591 0006 7860     		str	r0, [r7, #4]
 3592 0008 3960     		str	r1, [r7]
1598:Drivers/STM32F3xx_HAL_Driver/Src/stm32f3xx_hal_tim.c ****   /* Check the parameters */
1599:Drivers/STM32F3xx_HAL_Driver/Src/stm32f3xx_hal_tim.c ****   assert_param(IS_TIM_CCX_INSTANCE(htim->Instance, Channel));
1600:Drivers/STM32F3xx_HAL_Driver/Src/stm32f3xx_hal_tim.c ****   
1601:Drivers/STM32F3xx_HAL_Driver/Src/stm32f3xx_hal_tim.c ****   /* Enable the Input Capture channel */
1602:Drivers/STM32F3xx_HAL_Driver/Src/stm32f3xx_hal_tim.c ****   TIM_CCxChannelCmd(htim->Instance, Channel, TIM_CCx_ENABLE);
 3593              		.loc 1 1602 0
 3594 000a 7B68     		ldr	r3, [r7, #4]
 3595 000c 1B68     		ldr	r3, [r3]
 3596 000e 1846     		mov	r0, r3
 3597 0010 3968     		ldr	r1, [r7]
ARM GAS  /tmp/ccZyKULX.s 			page 91


 3598 0012 0122     		movs	r2, #1
 3599 0014 FFF7FEFF 		bl	TIM_CCxChannelCmd
1603:Drivers/STM32F3xx_HAL_Driver/Src/stm32f3xx_hal_tim.c ****     
1604:Drivers/STM32F3xx_HAL_Driver/Src/stm32f3xx_hal_tim.c ****   /* Enable the Peripheral */
1605:Drivers/STM32F3xx_HAL_Driver/Src/stm32f3xx_hal_tim.c ****   __HAL_TIM_ENABLE(htim);  
 3600              		.loc 1 1605 0
 3601 0018 7B68     		ldr	r3, [r7, #4]
 3602 001a 1B68     		ldr	r3, [r3]
 3603 001c 7A68     		ldr	r2, [r7, #4]
 3604 001e 1268     		ldr	r2, [r2]
 3605 0020 1268     		ldr	r2, [r2]
 3606 0022 42F00102 		orr	r2, r2, #1
 3607 0026 1A60     		str	r2, [r3]
1606:Drivers/STM32F3xx_HAL_Driver/Src/stm32f3xx_hal_tim.c **** 
1607:Drivers/STM32F3xx_HAL_Driver/Src/stm32f3xx_hal_tim.c ****   /* Return function status */
1608:Drivers/STM32F3xx_HAL_Driver/Src/stm32f3xx_hal_tim.c ****   return HAL_OK;  
 3608              		.loc 1 1608 0
 3609 0028 0023     		movs	r3, #0
1609:Drivers/STM32F3xx_HAL_Driver/Src/stm32f3xx_hal_tim.c **** } 
 3610              		.loc 1 1609 0
 3611 002a 1846     		mov	r0, r3
 3612 002c 0837     		adds	r7, r7, #8
 3613 002e BD46     		mov	sp, r7
 3614              		@ sp needed
 3615 0030 80BD     		pop	{r7, pc}
 3616              		.cfi_endproc
 3617              	.LFE159:
 3619 0032 00BF     		.section	.text.HAL_TIM_IC_Stop,"ax",%progbits
 3620              		.align	2
 3621              		.global	HAL_TIM_IC_Stop
 3622              		.thumb
 3623              		.thumb_func
 3625              	HAL_TIM_IC_Stop:
 3626              	.LFB160:
1610:Drivers/STM32F3xx_HAL_Driver/Src/stm32f3xx_hal_tim.c **** 
1611:Drivers/STM32F3xx_HAL_Driver/Src/stm32f3xx_hal_tim.c **** /**
1612:Drivers/STM32F3xx_HAL_Driver/Src/stm32f3xx_hal_tim.c ****   * @brief  Stops the TIM Input Capture measurement.
1613:Drivers/STM32F3xx_HAL_Driver/Src/stm32f3xx_hal_tim.c ****   * @param  htim: TIM handle
1614:Drivers/STM32F3xx_HAL_Driver/Src/stm32f3xx_hal_tim.c ****   * @param  Channel: TIM Channels to be disabled
1615:Drivers/STM32F3xx_HAL_Driver/Src/stm32f3xx_hal_tim.c ****   *          This parameter can be one of the following values:
1616:Drivers/STM32F3xx_HAL_Driver/Src/stm32f3xx_hal_tim.c ****   *            @arg TIM_CHANNEL_1: TIM Channel 1 selected
1617:Drivers/STM32F3xx_HAL_Driver/Src/stm32f3xx_hal_tim.c ****   *            @arg TIM_CHANNEL_2: TIM Channel 2 selected
1618:Drivers/STM32F3xx_HAL_Driver/Src/stm32f3xx_hal_tim.c ****   *            @arg TIM_CHANNEL_3: TIM Channel 3 selected
1619:Drivers/STM32F3xx_HAL_Driver/Src/stm32f3xx_hal_tim.c ****   *            @arg TIM_CHANNEL_4: TIM Channel 4 selected
1620:Drivers/STM32F3xx_HAL_Driver/Src/stm32f3xx_hal_tim.c ****   * @retval HAL status
1621:Drivers/STM32F3xx_HAL_Driver/Src/stm32f3xx_hal_tim.c **** */
1622:Drivers/STM32F3xx_HAL_Driver/Src/stm32f3xx_hal_tim.c **** HAL_StatusTypeDef HAL_TIM_IC_Stop(TIM_HandleTypeDef *htim, uint32_t Channel)
1623:Drivers/STM32F3xx_HAL_Driver/Src/stm32f3xx_hal_tim.c **** { 
 3627              		.loc 1 1623 0
 3628              		.cfi_startproc
 3629              		@ args = 0, pretend = 0, frame = 8
 3630              		@ frame_needed = 1, uses_anonymous_args = 0
 3631 0000 80B5     		push	{r7, lr}
 3632              	.LCFI105:
 3633              		.cfi_def_cfa_offset 8
 3634              		.cfi_offset 7, -8
 3635              		.cfi_offset 14, -4
ARM GAS  /tmp/ccZyKULX.s 			page 92


 3636 0002 82B0     		sub	sp, sp, #8
 3637              	.LCFI106:
 3638              		.cfi_def_cfa_offset 16
 3639 0004 00AF     		add	r7, sp, #0
 3640              	.LCFI107:
 3641              		.cfi_def_cfa_register 7
 3642 0006 7860     		str	r0, [r7, #4]
 3643 0008 3960     		str	r1, [r7]
1624:Drivers/STM32F3xx_HAL_Driver/Src/stm32f3xx_hal_tim.c ****   /* Check the parameters */
1625:Drivers/STM32F3xx_HAL_Driver/Src/stm32f3xx_hal_tim.c ****   assert_param(IS_TIM_CCX_INSTANCE(htim->Instance, Channel));
1626:Drivers/STM32F3xx_HAL_Driver/Src/stm32f3xx_hal_tim.c ****   
1627:Drivers/STM32F3xx_HAL_Driver/Src/stm32f3xx_hal_tim.c ****   /* Disable the Input Capture channel */
1628:Drivers/STM32F3xx_HAL_Driver/Src/stm32f3xx_hal_tim.c ****   TIM_CCxChannelCmd(htim->Instance, Channel, TIM_CCx_DISABLE);
 3644              		.loc 1 1628 0
 3645 000a 7B68     		ldr	r3, [r7, #4]
 3646 000c 1B68     		ldr	r3, [r3]
 3647 000e 1846     		mov	r0, r3
 3648 0010 3968     		ldr	r1, [r7]
 3649 0012 0022     		movs	r2, #0
 3650 0014 FFF7FEFF 		bl	TIM_CCxChannelCmd
1629:Drivers/STM32F3xx_HAL_Driver/Src/stm32f3xx_hal_tim.c ****   
1630:Drivers/STM32F3xx_HAL_Driver/Src/stm32f3xx_hal_tim.c ****   /* Disable the Peripheral */
1631:Drivers/STM32F3xx_HAL_Driver/Src/stm32f3xx_hal_tim.c ****   __HAL_TIM_DISABLE(htim); 
 3651              		.loc 1 1631 0
 3652 0018 7B68     		ldr	r3, [r7, #4]
 3653 001a 1B68     		ldr	r3, [r3]
 3654 001c 1A6A     		ldr	r2, [r3, #32]
 3655 001e 41F21113 		movw	r3, #4369
 3656 0022 1340     		ands	r3, r3, r2
 3657 0024 002B     		cmp	r3, #0
 3658 0026 0FD1     		bne	.L232
 3659              		.loc 1 1631 0 is_stmt 0 discriminator 1
 3660 0028 7B68     		ldr	r3, [r7, #4]
 3661 002a 1B68     		ldr	r3, [r3]
 3662 002c 1A6A     		ldr	r2, [r3, #32]
 3663 002e 40F24443 		movw	r3, #1092
 3664 0032 1340     		ands	r3, r3, r2
 3665 0034 002B     		cmp	r3, #0
 3666 0036 07D1     		bne	.L232
 3667 0038 7B68     		ldr	r3, [r7, #4]
 3668 003a 1B68     		ldr	r3, [r3]
 3669 003c 7A68     		ldr	r2, [r7, #4]
 3670 003e 1268     		ldr	r2, [r2]
 3671 0040 1268     		ldr	r2, [r2]
 3672 0042 22F00102 		bic	r2, r2, #1
 3673 0046 1A60     		str	r2, [r3]
 3674              	.L232:
1632:Drivers/STM32F3xx_HAL_Driver/Src/stm32f3xx_hal_tim.c ****   
1633:Drivers/STM32F3xx_HAL_Driver/Src/stm32f3xx_hal_tim.c ****   /* Return function status */
1634:Drivers/STM32F3xx_HAL_Driver/Src/stm32f3xx_hal_tim.c ****   return HAL_OK;
 3675              		.loc 1 1634 0 is_stmt 1
 3676 0048 0023     		movs	r3, #0
1635:Drivers/STM32F3xx_HAL_Driver/Src/stm32f3xx_hal_tim.c **** }
 3677              		.loc 1 1635 0
 3678 004a 1846     		mov	r0, r3
 3679 004c 0837     		adds	r7, r7, #8
 3680 004e BD46     		mov	sp, r7
ARM GAS  /tmp/ccZyKULX.s 			page 93


 3681              		@ sp needed
 3682 0050 80BD     		pop	{r7, pc}
 3683              		.cfi_endproc
 3684              	.LFE160:
 3686 0052 00BF     		.section	.text.HAL_TIM_IC_Start_IT,"ax",%progbits
 3687              		.align	2
 3688              		.global	HAL_TIM_IC_Start_IT
 3689              		.thumb
 3690              		.thumb_func
 3692              	HAL_TIM_IC_Start_IT:
 3693              	.LFB161:
1636:Drivers/STM32F3xx_HAL_Driver/Src/stm32f3xx_hal_tim.c **** 
1637:Drivers/STM32F3xx_HAL_Driver/Src/stm32f3xx_hal_tim.c **** /**
1638:Drivers/STM32F3xx_HAL_Driver/Src/stm32f3xx_hal_tim.c ****   * @brief  Starts the TIM Input Capture measurement in interrupt mode.
1639:Drivers/STM32F3xx_HAL_Driver/Src/stm32f3xx_hal_tim.c ****   * @param  htim: TIM Input Capture handle
1640:Drivers/STM32F3xx_HAL_Driver/Src/stm32f3xx_hal_tim.c ****   * @param  Channel: TIM Channels to be enabled
1641:Drivers/STM32F3xx_HAL_Driver/Src/stm32f3xx_hal_tim.c ****   *          This parameter can be one of the following values:
1642:Drivers/STM32F3xx_HAL_Driver/Src/stm32f3xx_hal_tim.c ****   *            @arg TIM_CHANNEL_1: TIM Channel 1 selected
1643:Drivers/STM32F3xx_HAL_Driver/Src/stm32f3xx_hal_tim.c ****   *            @arg TIM_CHANNEL_2: TIM Channel 2 selected
1644:Drivers/STM32F3xx_HAL_Driver/Src/stm32f3xx_hal_tim.c ****   *            @arg TIM_CHANNEL_3: TIM Channel 3 selected
1645:Drivers/STM32F3xx_HAL_Driver/Src/stm32f3xx_hal_tim.c ****   *            @arg TIM_CHANNEL_4: TIM Channel 4 selected
1646:Drivers/STM32F3xx_HAL_Driver/Src/stm32f3xx_hal_tim.c ****   * @retval HAL status
1647:Drivers/STM32F3xx_HAL_Driver/Src/stm32f3xx_hal_tim.c **** */
1648:Drivers/STM32F3xx_HAL_Driver/Src/stm32f3xx_hal_tim.c **** HAL_StatusTypeDef HAL_TIM_IC_Start_IT (TIM_HandleTypeDef *htim, uint32_t Channel)
1649:Drivers/STM32F3xx_HAL_Driver/Src/stm32f3xx_hal_tim.c **** {
 3694              		.loc 1 1649 0
 3695              		.cfi_startproc
 3696              		@ args = 0, pretend = 0, frame = 8
 3697              		@ frame_needed = 1, uses_anonymous_args = 0
 3698 0000 80B5     		push	{r7, lr}
 3699              	.LCFI108:
 3700              		.cfi_def_cfa_offset 8
 3701              		.cfi_offset 7, -8
 3702              		.cfi_offset 14, -4
 3703 0002 82B0     		sub	sp, sp, #8
 3704              	.LCFI109:
 3705              		.cfi_def_cfa_offset 16
 3706 0004 00AF     		add	r7, sp, #0
 3707              	.LCFI110:
 3708              		.cfi_def_cfa_register 7
 3709 0006 7860     		str	r0, [r7, #4]
 3710 0008 3960     		str	r1, [r7]
1650:Drivers/STM32F3xx_HAL_Driver/Src/stm32f3xx_hal_tim.c ****   /* Check the parameters */
1651:Drivers/STM32F3xx_HAL_Driver/Src/stm32f3xx_hal_tim.c ****   assert_param(IS_TIM_CCX_INSTANCE(htim->Instance, Channel));
1652:Drivers/STM32F3xx_HAL_Driver/Src/stm32f3xx_hal_tim.c ****   
1653:Drivers/STM32F3xx_HAL_Driver/Src/stm32f3xx_hal_tim.c ****   switch (Channel)
 3711              		.loc 1 1653 0
 3712 000a 3B68     		ldr	r3, [r7]
 3713 000c 0C2B     		cmp	r3, #12
 3714 000e 41D8     		bhi	.L243
 3715 0010 01A2     		adr	r2, .L237
 3716 0012 52F823F0 		ldr	pc, [r2, r3, lsl #2]
 3717 0016 00BF     		.p2align 2
 3718              	.L237:
 3719 0018 4D000000 		.word	.L236+1
 3720 001c 95000000 		.word	.L243+1
 3721 0020 95000000 		.word	.L243+1
ARM GAS  /tmp/ccZyKULX.s 			page 94


 3722 0024 95000000 		.word	.L243+1
 3723 0028 5F000000 		.word	.L238+1
 3724 002c 95000000 		.word	.L243+1
 3725 0030 95000000 		.word	.L243+1
 3726 0034 95000000 		.word	.L243+1
 3727 0038 71000000 		.word	.L239+1
 3728 003c 95000000 		.word	.L243+1
 3729 0040 95000000 		.word	.L243+1
 3730 0044 95000000 		.word	.L243+1
 3731 0048 83000000 		.word	.L240+1
 3732              		.p2align 1
 3733              	.L236:
1654:Drivers/STM32F3xx_HAL_Driver/Src/stm32f3xx_hal_tim.c ****   {
1655:Drivers/STM32F3xx_HAL_Driver/Src/stm32f3xx_hal_tim.c ****     case TIM_CHANNEL_1:
1656:Drivers/STM32F3xx_HAL_Driver/Src/stm32f3xx_hal_tim.c ****     {       
1657:Drivers/STM32F3xx_HAL_Driver/Src/stm32f3xx_hal_tim.c ****       /* Enable the TIM Capture/Compare 1 interrupt */
1658:Drivers/STM32F3xx_HAL_Driver/Src/stm32f3xx_hal_tim.c ****       __HAL_TIM_ENABLE_IT(htim, TIM_IT_CC1);
 3734              		.loc 1 1658 0
 3735 004c 7B68     		ldr	r3, [r7, #4]
 3736 004e 1B68     		ldr	r3, [r3]
 3737 0050 7A68     		ldr	r2, [r7, #4]
 3738 0052 1268     		ldr	r2, [r2]
 3739 0054 D268     		ldr	r2, [r2, #12]
 3740 0056 42F00202 		orr	r2, r2, #2
 3741 005a DA60     		str	r2, [r3, #12]
1659:Drivers/STM32F3xx_HAL_Driver/Src/stm32f3xx_hal_tim.c ****     }
1660:Drivers/STM32F3xx_HAL_Driver/Src/stm32f3xx_hal_tim.c ****     break;
 3742              		.loc 1 1660 0
 3743 005c 1BE0     		b	.L241
 3744              	.L238:
1661:Drivers/STM32F3xx_HAL_Driver/Src/stm32f3xx_hal_tim.c ****     
1662:Drivers/STM32F3xx_HAL_Driver/Src/stm32f3xx_hal_tim.c ****     case TIM_CHANNEL_2:
1663:Drivers/STM32F3xx_HAL_Driver/Src/stm32f3xx_hal_tim.c ****     {
1664:Drivers/STM32F3xx_HAL_Driver/Src/stm32f3xx_hal_tim.c ****       /* Enable the TIM Capture/Compare 2 interrupt */
1665:Drivers/STM32F3xx_HAL_Driver/Src/stm32f3xx_hal_tim.c ****       __HAL_TIM_ENABLE_IT(htim, TIM_IT_CC2);
 3745              		.loc 1 1665 0
 3746 005e 7B68     		ldr	r3, [r7, #4]
 3747 0060 1B68     		ldr	r3, [r3]
 3748 0062 7A68     		ldr	r2, [r7, #4]
 3749 0064 1268     		ldr	r2, [r2]
 3750 0066 D268     		ldr	r2, [r2, #12]
 3751 0068 42F00402 		orr	r2, r2, #4
 3752 006c DA60     		str	r2, [r3, #12]
1666:Drivers/STM32F3xx_HAL_Driver/Src/stm32f3xx_hal_tim.c ****     }
1667:Drivers/STM32F3xx_HAL_Driver/Src/stm32f3xx_hal_tim.c ****     break;
 3753              		.loc 1 1667 0
 3754 006e 12E0     		b	.L241
 3755              	.L239:
1668:Drivers/STM32F3xx_HAL_Driver/Src/stm32f3xx_hal_tim.c ****     
1669:Drivers/STM32F3xx_HAL_Driver/Src/stm32f3xx_hal_tim.c ****     case TIM_CHANNEL_3:
1670:Drivers/STM32F3xx_HAL_Driver/Src/stm32f3xx_hal_tim.c ****     {
1671:Drivers/STM32F3xx_HAL_Driver/Src/stm32f3xx_hal_tim.c ****       /* Enable the TIM Capture/Compare 3 interrupt */
1672:Drivers/STM32F3xx_HAL_Driver/Src/stm32f3xx_hal_tim.c ****       __HAL_TIM_ENABLE_IT(htim, TIM_IT_CC3);
 3756              		.loc 1 1672 0
 3757 0070 7B68     		ldr	r3, [r7, #4]
 3758 0072 1B68     		ldr	r3, [r3]
 3759 0074 7A68     		ldr	r2, [r7, #4]
ARM GAS  /tmp/ccZyKULX.s 			page 95


 3760 0076 1268     		ldr	r2, [r2]
 3761 0078 D268     		ldr	r2, [r2, #12]
 3762 007a 42F00802 		orr	r2, r2, #8
 3763 007e DA60     		str	r2, [r3, #12]
1673:Drivers/STM32F3xx_HAL_Driver/Src/stm32f3xx_hal_tim.c ****     }
1674:Drivers/STM32F3xx_HAL_Driver/Src/stm32f3xx_hal_tim.c ****     break;
 3764              		.loc 1 1674 0
 3765 0080 09E0     		b	.L241
 3766              	.L240:
1675:Drivers/STM32F3xx_HAL_Driver/Src/stm32f3xx_hal_tim.c ****     
1676:Drivers/STM32F3xx_HAL_Driver/Src/stm32f3xx_hal_tim.c ****     case TIM_CHANNEL_4:
1677:Drivers/STM32F3xx_HAL_Driver/Src/stm32f3xx_hal_tim.c ****     {
1678:Drivers/STM32F3xx_HAL_Driver/Src/stm32f3xx_hal_tim.c ****       /* Enable the TIM Capture/Compare 4 interrupt */
1679:Drivers/STM32F3xx_HAL_Driver/Src/stm32f3xx_hal_tim.c ****       __HAL_TIM_ENABLE_IT(htim, TIM_IT_CC4);
 3767              		.loc 1 1679 0
 3768 0082 7B68     		ldr	r3, [r7, #4]
 3769 0084 1B68     		ldr	r3, [r3]
 3770 0086 7A68     		ldr	r2, [r7, #4]
 3771 0088 1268     		ldr	r2, [r2]
 3772 008a D268     		ldr	r2, [r2, #12]
 3773 008c 42F01002 		orr	r2, r2, #16
 3774 0090 DA60     		str	r2, [r3, #12]
1680:Drivers/STM32F3xx_HAL_Driver/Src/stm32f3xx_hal_tim.c ****     }
1681:Drivers/STM32F3xx_HAL_Driver/Src/stm32f3xx_hal_tim.c ****     break;
 3775              		.loc 1 1681 0
 3776 0092 00E0     		b	.L241
 3777              	.L243:
1682:Drivers/STM32F3xx_HAL_Driver/Src/stm32f3xx_hal_tim.c ****     
1683:Drivers/STM32F3xx_HAL_Driver/Src/stm32f3xx_hal_tim.c ****     default:
1684:Drivers/STM32F3xx_HAL_Driver/Src/stm32f3xx_hal_tim.c ****     break;
 3778              		.loc 1 1684 0
 3779 0094 00BF     		nop
 3780              	.L241:
1685:Drivers/STM32F3xx_HAL_Driver/Src/stm32f3xx_hal_tim.c ****   }  
1686:Drivers/STM32F3xx_HAL_Driver/Src/stm32f3xx_hal_tim.c ****   /* Enable the Input Capture channel */
1687:Drivers/STM32F3xx_HAL_Driver/Src/stm32f3xx_hal_tim.c ****   TIM_CCxChannelCmd(htim->Instance, Channel, TIM_CCx_ENABLE);
 3781              		.loc 1 1687 0
 3782 0096 7B68     		ldr	r3, [r7, #4]
 3783 0098 1B68     		ldr	r3, [r3]
 3784 009a 1846     		mov	r0, r3
 3785 009c 3968     		ldr	r1, [r7]
 3786 009e 0122     		movs	r2, #1
 3787 00a0 FFF7FEFF 		bl	TIM_CCxChannelCmd
1688:Drivers/STM32F3xx_HAL_Driver/Src/stm32f3xx_hal_tim.c ****     
1689:Drivers/STM32F3xx_HAL_Driver/Src/stm32f3xx_hal_tim.c ****   /* Enable the Peripheral */
1690:Drivers/STM32F3xx_HAL_Driver/Src/stm32f3xx_hal_tim.c ****   __HAL_TIM_ENABLE(htim);  
 3788              		.loc 1 1690 0
 3789 00a4 7B68     		ldr	r3, [r7, #4]
 3790 00a6 1B68     		ldr	r3, [r3]
 3791 00a8 7A68     		ldr	r2, [r7, #4]
 3792 00aa 1268     		ldr	r2, [r2]
 3793 00ac 1268     		ldr	r2, [r2]
 3794 00ae 42F00102 		orr	r2, r2, #1
 3795 00b2 1A60     		str	r2, [r3]
1691:Drivers/STM32F3xx_HAL_Driver/Src/stm32f3xx_hal_tim.c **** 
1692:Drivers/STM32F3xx_HAL_Driver/Src/stm32f3xx_hal_tim.c ****   /* Return function status */
1693:Drivers/STM32F3xx_HAL_Driver/Src/stm32f3xx_hal_tim.c ****   return HAL_OK;  
ARM GAS  /tmp/ccZyKULX.s 			page 96


 3796              		.loc 1 1693 0
 3797 00b4 0023     		movs	r3, #0
1694:Drivers/STM32F3xx_HAL_Driver/Src/stm32f3xx_hal_tim.c **** } 
 3798              		.loc 1 1694 0
 3799 00b6 1846     		mov	r0, r3
 3800 00b8 0837     		adds	r7, r7, #8
 3801 00ba BD46     		mov	sp, r7
 3802              		@ sp needed
 3803 00bc 80BD     		pop	{r7, pc}
 3804              		.cfi_endproc
 3805              	.LFE161:
 3807 00be 00BF     		.section	.text.HAL_TIM_IC_Stop_IT,"ax",%progbits
 3808              		.align	2
 3809              		.global	HAL_TIM_IC_Stop_IT
 3810              		.thumb
 3811              		.thumb_func
 3813              	HAL_TIM_IC_Stop_IT:
 3814              	.LFB162:
1695:Drivers/STM32F3xx_HAL_Driver/Src/stm32f3xx_hal_tim.c **** 
1696:Drivers/STM32F3xx_HAL_Driver/Src/stm32f3xx_hal_tim.c **** /**
1697:Drivers/STM32F3xx_HAL_Driver/Src/stm32f3xx_hal_tim.c ****   * @brief  Stops the TIM Input Capture measurement in interrupt mode.
1698:Drivers/STM32F3xx_HAL_Driver/Src/stm32f3xx_hal_tim.c ****   * @param  htim: TIM handle
1699:Drivers/STM32F3xx_HAL_Driver/Src/stm32f3xx_hal_tim.c ****   * @param  Channel: TIM Channels to be disabled
1700:Drivers/STM32F3xx_HAL_Driver/Src/stm32f3xx_hal_tim.c ****   *          This parameter can be one of the following values:
1701:Drivers/STM32F3xx_HAL_Driver/Src/stm32f3xx_hal_tim.c ****   *            @arg TIM_CHANNEL_1: TIM Channel 1 selected
1702:Drivers/STM32F3xx_HAL_Driver/Src/stm32f3xx_hal_tim.c ****   *            @arg TIM_CHANNEL_2: TIM Channel 2 selected
1703:Drivers/STM32F3xx_HAL_Driver/Src/stm32f3xx_hal_tim.c ****   *            @arg TIM_CHANNEL_3: TIM Channel 3 selected
1704:Drivers/STM32F3xx_HAL_Driver/Src/stm32f3xx_hal_tim.c ****   *            @arg TIM_CHANNEL_4: TIM Channel 4 selected
1705:Drivers/STM32F3xx_HAL_Driver/Src/stm32f3xx_hal_tim.c ****   * @retval HAL status
1706:Drivers/STM32F3xx_HAL_Driver/Src/stm32f3xx_hal_tim.c **** */
1707:Drivers/STM32F3xx_HAL_Driver/Src/stm32f3xx_hal_tim.c **** HAL_StatusTypeDef HAL_TIM_IC_Stop_IT(TIM_HandleTypeDef *htim, uint32_t Channel)
1708:Drivers/STM32F3xx_HAL_Driver/Src/stm32f3xx_hal_tim.c **** {
 3815              		.loc 1 1708 0
 3816              		.cfi_startproc
 3817              		@ args = 0, pretend = 0, frame = 8
 3818              		@ frame_needed = 1, uses_anonymous_args = 0
 3819 0000 80B5     		push	{r7, lr}
 3820              	.LCFI111:
 3821              		.cfi_def_cfa_offset 8
 3822              		.cfi_offset 7, -8
 3823              		.cfi_offset 14, -4
 3824 0002 82B0     		sub	sp, sp, #8
 3825              	.LCFI112:
 3826              		.cfi_def_cfa_offset 16
 3827 0004 00AF     		add	r7, sp, #0
 3828              	.LCFI113:
 3829              		.cfi_def_cfa_register 7
 3830 0006 7860     		str	r0, [r7, #4]
 3831 0008 3960     		str	r1, [r7]
1709:Drivers/STM32F3xx_HAL_Driver/Src/stm32f3xx_hal_tim.c ****   /* Check the parameters */
1710:Drivers/STM32F3xx_HAL_Driver/Src/stm32f3xx_hal_tim.c ****   assert_param(IS_TIM_CCX_INSTANCE(htim->Instance, Channel));
1711:Drivers/STM32F3xx_HAL_Driver/Src/stm32f3xx_hal_tim.c ****   
1712:Drivers/STM32F3xx_HAL_Driver/Src/stm32f3xx_hal_tim.c ****   switch (Channel)
 3832              		.loc 1 1712 0
 3833 000a 3B68     		ldr	r3, [r7]
 3834 000c 0C2B     		cmp	r3, #12
 3835 000e 41D8     		bhi	.L254
ARM GAS  /tmp/ccZyKULX.s 			page 97


 3836 0010 01A2     		adr	r2, .L247
 3837 0012 52F823F0 		ldr	pc, [r2, r3, lsl #2]
 3838 0016 00BF     		.p2align 2
 3839              	.L247:
 3840 0018 4D000000 		.word	.L246+1
 3841 001c 95000000 		.word	.L254+1
 3842 0020 95000000 		.word	.L254+1
 3843 0024 95000000 		.word	.L254+1
 3844 0028 5F000000 		.word	.L248+1
 3845 002c 95000000 		.word	.L254+1
 3846 0030 95000000 		.word	.L254+1
 3847 0034 95000000 		.word	.L254+1
 3848 0038 71000000 		.word	.L249+1
 3849 003c 95000000 		.word	.L254+1
 3850 0040 95000000 		.word	.L254+1
 3851 0044 95000000 		.word	.L254+1
 3852 0048 83000000 		.word	.L250+1
 3853              		.p2align 1
 3854              	.L246:
1713:Drivers/STM32F3xx_HAL_Driver/Src/stm32f3xx_hal_tim.c ****   {
1714:Drivers/STM32F3xx_HAL_Driver/Src/stm32f3xx_hal_tim.c ****     case TIM_CHANNEL_1:
1715:Drivers/STM32F3xx_HAL_Driver/Src/stm32f3xx_hal_tim.c ****     {       
1716:Drivers/STM32F3xx_HAL_Driver/Src/stm32f3xx_hal_tim.c ****       /* Disable the TIM Capture/Compare 1 interrupt */
1717:Drivers/STM32F3xx_HAL_Driver/Src/stm32f3xx_hal_tim.c ****       __HAL_TIM_DISABLE_IT(htim, TIM_IT_CC1);
 3855              		.loc 1 1717 0
 3856 004c 7B68     		ldr	r3, [r7, #4]
 3857 004e 1B68     		ldr	r3, [r3]
 3858 0050 7A68     		ldr	r2, [r7, #4]
 3859 0052 1268     		ldr	r2, [r2]
 3860 0054 D268     		ldr	r2, [r2, #12]
 3861 0056 22F00202 		bic	r2, r2, #2
 3862 005a DA60     		str	r2, [r3, #12]
1718:Drivers/STM32F3xx_HAL_Driver/Src/stm32f3xx_hal_tim.c ****     }
1719:Drivers/STM32F3xx_HAL_Driver/Src/stm32f3xx_hal_tim.c ****     break;
 3863              		.loc 1 1719 0
 3864 005c 1BE0     		b	.L251
 3865              	.L248:
1720:Drivers/STM32F3xx_HAL_Driver/Src/stm32f3xx_hal_tim.c ****     
1721:Drivers/STM32F3xx_HAL_Driver/Src/stm32f3xx_hal_tim.c ****     case TIM_CHANNEL_2:
1722:Drivers/STM32F3xx_HAL_Driver/Src/stm32f3xx_hal_tim.c ****     {
1723:Drivers/STM32F3xx_HAL_Driver/Src/stm32f3xx_hal_tim.c ****       /* Disable the TIM Capture/Compare 2 interrupt */
1724:Drivers/STM32F3xx_HAL_Driver/Src/stm32f3xx_hal_tim.c ****       __HAL_TIM_DISABLE_IT(htim, TIM_IT_CC2);
 3866              		.loc 1 1724 0
 3867 005e 7B68     		ldr	r3, [r7, #4]
 3868 0060 1B68     		ldr	r3, [r3]
 3869 0062 7A68     		ldr	r2, [r7, #4]
 3870 0064 1268     		ldr	r2, [r2]
 3871 0066 D268     		ldr	r2, [r2, #12]
 3872 0068 22F00402 		bic	r2, r2, #4
 3873 006c DA60     		str	r2, [r3, #12]
1725:Drivers/STM32F3xx_HAL_Driver/Src/stm32f3xx_hal_tim.c ****     }
1726:Drivers/STM32F3xx_HAL_Driver/Src/stm32f3xx_hal_tim.c ****     break;
 3874              		.loc 1 1726 0
 3875 006e 12E0     		b	.L251
 3876              	.L249:
1727:Drivers/STM32F3xx_HAL_Driver/Src/stm32f3xx_hal_tim.c ****     
1728:Drivers/STM32F3xx_HAL_Driver/Src/stm32f3xx_hal_tim.c ****     case TIM_CHANNEL_3:
ARM GAS  /tmp/ccZyKULX.s 			page 98


1729:Drivers/STM32F3xx_HAL_Driver/Src/stm32f3xx_hal_tim.c ****     {
1730:Drivers/STM32F3xx_HAL_Driver/Src/stm32f3xx_hal_tim.c ****       /* Disable the TIM Capture/Compare 3 interrupt */
1731:Drivers/STM32F3xx_HAL_Driver/Src/stm32f3xx_hal_tim.c ****       __HAL_TIM_DISABLE_IT(htim, TIM_IT_CC3);
 3877              		.loc 1 1731 0
 3878 0070 7B68     		ldr	r3, [r7, #4]
 3879 0072 1B68     		ldr	r3, [r3]
 3880 0074 7A68     		ldr	r2, [r7, #4]
 3881 0076 1268     		ldr	r2, [r2]
 3882 0078 D268     		ldr	r2, [r2, #12]
 3883 007a 22F00802 		bic	r2, r2, #8
 3884 007e DA60     		str	r2, [r3, #12]
1732:Drivers/STM32F3xx_HAL_Driver/Src/stm32f3xx_hal_tim.c ****     }
1733:Drivers/STM32F3xx_HAL_Driver/Src/stm32f3xx_hal_tim.c ****     break;
 3885              		.loc 1 1733 0
 3886 0080 09E0     		b	.L251
 3887              	.L250:
1734:Drivers/STM32F3xx_HAL_Driver/Src/stm32f3xx_hal_tim.c ****     
1735:Drivers/STM32F3xx_HAL_Driver/Src/stm32f3xx_hal_tim.c ****     case TIM_CHANNEL_4:
1736:Drivers/STM32F3xx_HAL_Driver/Src/stm32f3xx_hal_tim.c ****     {
1737:Drivers/STM32F3xx_HAL_Driver/Src/stm32f3xx_hal_tim.c ****       /* Disable the TIM Capture/Compare 4 interrupt */
1738:Drivers/STM32F3xx_HAL_Driver/Src/stm32f3xx_hal_tim.c ****       __HAL_TIM_DISABLE_IT(htim, TIM_IT_CC4);
 3888              		.loc 1 1738 0
 3889 0082 7B68     		ldr	r3, [r7, #4]
 3890 0084 1B68     		ldr	r3, [r3]
 3891 0086 7A68     		ldr	r2, [r7, #4]
 3892 0088 1268     		ldr	r2, [r2]
 3893 008a D268     		ldr	r2, [r2, #12]
 3894 008c 22F01002 		bic	r2, r2, #16
 3895 0090 DA60     		str	r2, [r3, #12]
1739:Drivers/STM32F3xx_HAL_Driver/Src/stm32f3xx_hal_tim.c ****     }
1740:Drivers/STM32F3xx_HAL_Driver/Src/stm32f3xx_hal_tim.c ****     break;
 3896              		.loc 1 1740 0
 3897 0092 00E0     		b	.L251
 3898              	.L254:
1741:Drivers/STM32F3xx_HAL_Driver/Src/stm32f3xx_hal_tim.c ****     
1742:Drivers/STM32F3xx_HAL_Driver/Src/stm32f3xx_hal_tim.c ****     default:
1743:Drivers/STM32F3xx_HAL_Driver/Src/stm32f3xx_hal_tim.c ****     break; 
 3899              		.loc 1 1743 0
 3900 0094 00BF     		nop
 3901              	.L251:
1744:Drivers/STM32F3xx_HAL_Driver/Src/stm32f3xx_hal_tim.c ****   } 
1745:Drivers/STM32F3xx_HAL_Driver/Src/stm32f3xx_hal_tim.c ****   
1746:Drivers/STM32F3xx_HAL_Driver/Src/stm32f3xx_hal_tim.c ****   /* Disable the Input Capture channel */
1747:Drivers/STM32F3xx_HAL_Driver/Src/stm32f3xx_hal_tim.c ****   TIM_CCxChannelCmd(htim->Instance, Channel, TIM_CCx_DISABLE); 
 3902              		.loc 1 1747 0
 3903 0096 7B68     		ldr	r3, [r7, #4]
 3904 0098 1B68     		ldr	r3, [r3]
 3905 009a 1846     		mov	r0, r3
 3906 009c 3968     		ldr	r1, [r7]
 3907 009e 0022     		movs	r2, #0
 3908 00a0 FFF7FEFF 		bl	TIM_CCxChannelCmd
1748:Drivers/STM32F3xx_HAL_Driver/Src/stm32f3xx_hal_tim.c ****   
1749:Drivers/STM32F3xx_HAL_Driver/Src/stm32f3xx_hal_tim.c ****   /* Disable the Peripheral */
1750:Drivers/STM32F3xx_HAL_Driver/Src/stm32f3xx_hal_tim.c ****   __HAL_TIM_DISABLE(htim); 
 3909              		.loc 1 1750 0
 3910 00a4 7B68     		ldr	r3, [r7, #4]
 3911 00a6 1B68     		ldr	r3, [r3]
ARM GAS  /tmp/ccZyKULX.s 			page 99


 3912 00a8 1A6A     		ldr	r2, [r3, #32]
 3913 00aa 41F21113 		movw	r3, #4369
 3914 00ae 1340     		ands	r3, r3, r2
 3915 00b0 002B     		cmp	r3, #0
 3916 00b2 0FD1     		bne	.L252
 3917              		.loc 1 1750 0 is_stmt 0 discriminator 1
 3918 00b4 7B68     		ldr	r3, [r7, #4]
 3919 00b6 1B68     		ldr	r3, [r3]
 3920 00b8 1A6A     		ldr	r2, [r3, #32]
 3921 00ba 40F24443 		movw	r3, #1092
 3922 00be 1340     		ands	r3, r3, r2
 3923 00c0 002B     		cmp	r3, #0
 3924 00c2 07D1     		bne	.L252
 3925 00c4 7B68     		ldr	r3, [r7, #4]
 3926 00c6 1B68     		ldr	r3, [r3]
 3927 00c8 7A68     		ldr	r2, [r7, #4]
 3928 00ca 1268     		ldr	r2, [r2]
 3929 00cc 1268     		ldr	r2, [r2]
 3930 00ce 22F00102 		bic	r2, r2, #1
 3931 00d2 1A60     		str	r2, [r3]
 3932              	.L252:
1751:Drivers/STM32F3xx_HAL_Driver/Src/stm32f3xx_hal_tim.c ****   
1752:Drivers/STM32F3xx_HAL_Driver/Src/stm32f3xx_hal_tim.c ****   /* Return function status */
1753:Drivers/STM32F3xx_HAL_Driver/Src/stm32f3xx_hal_tim.c ****   return HAL_OK;
 3933              		.loc 1 1753 0 is_stmt 1
 3934 00d4 0023     		movs	r3, #0
1754:Drivers/STM32F3xx_HAL_Driver/Src/stm32f3xx_hal_tim.c **** }
 3935              		.loc 1 1754 0
 3936 00d6 1846     		mov	r0, r3
 3937 00d8 0837     		adds	r7, r7, #8
 3938 00da BD46     		mov	sp, r7
 3939              		@ sp needed
 3940 00dc 80BD     		pop	{r7, pc}
 3941              		.cfi_endproc
 3942              	.LFE162:
 3944 00de 00BF     		.section	.text.HAL_TIM_IC_Start_DMA,"ax",%progbits
 3945              		.align	2
 3946              		.global	HAL_TIM_IC_Start_DMA
 3947              		.thumb
 3948              		.thumb_func
 3950              	HAL_TIM_IC_Start_DMA:
 3951              	.LFB163:
1755:Drivers/STM32F3xx_HAL_Driver/Src/stm32f3xx_hal_tim.c **** 
1756:Drivers/STM32F3xx_HAL_Driver/Src/stm32f3xx_hal_tim.c **** /**
1757:Drivers/STM32F3xx_HAL_Driver/Src/stm32f3xx_hal_tim.c ****   * @brief  Starts the TIM Input Capture measurement in DMA mode.
1758:Drivers/STM32F3xx_HAL_Driver/Src/stm32f3xx_hal_tim.c ****   * @param  htim: TIM Input Capture handle
1759:Drivers/STM32F3xx_HAL_Driver/Src/stm32f3xx_hal_tim.c ****   * @param  Channel: TIM Channels to be enabled
1760:Drivers/STM32F3xx_HAL_Driver/Src/stm32f3xx_hal_tim.c ****   *          This parameter can be one of the following values:
1761:Drivers/STM32F3xx_HAL_Driver/Src/stm32f3xx_hal_tim.c ****   *            @arg TIM_CHANNEL_1: TIM Channel 1 selected
1762:Drivers/STM32F3xx_HAL_Driver/Src/stm32f3xx_hal_tim.c ****   *            @arg TIM_CHANNEL_2: TIM Channel 2 selected
1763:Drivers/STM32F3xx_HAL_Driver/Src/stm32f3xx_hal_tim.c ****   *            @arg TIM_CHANNEL_3: TIM Channel 3 selected
1764:Drivers/STM32F3xx_HAL_Driver/Src/stm32f3xx_hal_tim.c ****   *            @arg TIM_CHANNEL_4: TIM Channel 4 selected
1765:Drivers/STM32F3xx_HAL_Driver/Src/stm32f3xx_hal_tim.c ****   * @param  pData: The destination Buffer address.
1766:Drivers/STM32F3xx_HAL_Driver/Src/stm32f3xx_hal_tim.c ****   * @param  Length: The length of data to be transferred from TIM peripheral to memory.
1767:Drivers/STM32F3xx_HAL_Driver/Src/stm32f3xx_hal_tim.c ****   * @retval HAL status
1768:Drivers/STM32F3xx_HAL_Driver/Src/stm32f3xx_hal_tim.c **** */
1769:Drivers/STM32F3xx_HAL_Driver/Src/stm32f3xx_hal_tim.c **** HAL_StatusTypeDef HAL_TIM_IC_Start_DMA(TIM_HandleTypeDef *htim, uint32_t Channel, uint32_t *pData, 
ARM GAS  /tmp/ccZyKULX.s 			page 100


1770:Drivers/STM32F3xx_HAL_Driver/Src/stm32f3xx_hal_tim.c **** {
 3952              		.loc 1 1770 0
 3953              		.cfi_startproc
 3954              		@ args = 0, pretend = 0, frame = 16
 3955              		@ frame_needed = 1, uses_anonymous_args = 0
 3956 0000 80B5     		push	{r7, lr}
 3957              	.LCFI114:
 3958              		.cfi_def_cfa_offset 8
 3959              		.cfi_offset 7, -8
 3960              		.cfi_offset 14, -4
 3961 0002 84B0     		sub	sp, sp, #16
 3962              	.LCFI115:
 3963              		.cfi_def_cfa_offset 24
 3964 0004 00AF     		add	r7, sp, #0
 3965              	.LCFI116:
 3966              		.cfi_def_cfa_register 7
 3967 0006 F860     		str	r0, [r7, #12]
 3968 0008 B960     		str	r1, [r7, #8]
 3969 000a 7A60     		str	r2, [r7, #4]
 3970 000c 7B80     		strh	r3, [r7, #2]	@ movhi
1771:Drivers/STM32F3xx_HAL_Driver/Src/stm32f3xx_hal_tim.c ****   /* Check the parameters */
1772:Drivers/STM32F3xx_HAL_Driver/Src/stm32f3xx_hal_tim.c ****   assert_param(IS_TIM_CCX_INSTANCE(htim->Instance, Channel));
1773:Drivers/STM32F3xx_HAL_Driver/Src/stm32f3xx_hal_tim.c ****   assert_param(IS_TIM_DMA_CC_INSTANCE(htim->Instance));
1774:Drivers/STM32F3xx_HAL_Driver/Src/stm32f3xx_hal_tim.c ****   
1775:Drivers/STM32F3xx_HAL_Driver/Src/stm32f3xx_hal_tim.c ****   if((htim->State == HAL_TIM_STATE_BUSY))
 3971              		.loc 1 1775 0
 3972 000e FB68     		ldr	r3, [r7, #12]
 3973 0010 93F83930 		ldrb	r3, [r3, #57]
 3974 0014 DBB2     		uxtb	r3, r3
 3975 0016 022B     		cmp	r3, #2
 3976 0018 01D1     		bne	.L256
1776:Drivers/STM32F3xx_HAL_Driver/Src/stm32f3xx_hal_tim.c ****   {
1777:Drivers/STM32F3xx_HAL_Driver/Src/stm32f3xx_hal_tim.c ****      return HAL_BUSY;
 3977              		.loc 1 1777 0
 3978 001a 0223     		movs	r3, #2
 3979 001c AFE0     		b	.L257
 3980              	.L256:
1778:Drivers/STM32F3xx_HAL_Driver/Src/stm32f3xx_hal_tim.c ****   }
1779:Drivers/STM32F3xx_HAL_Driver/Src/stm32f3xx_hal_tim.c ****   else if((htim->State == HAL_TIM_STATE_READY))
 3981              		.loc 1 1779 0
 3982 001e FB68     		ldr	r3, [r7, #12]
 3983 0020 93F83930 		ldrb	r3, [r3, #57]
 3984 0024 DBB2     		uxtb	r3, r3
 3985 0026 012B     		cmp	r3, #1
 3986 0028 0BD1     		bne	.L258
1780:Drivers/STM32F3xx_HAL_Driver/Src/stm32f3xx_hal_tim.c ****   {
1781:Drivers/STM32F3xx_HAL_Driver/Src/stm32f3xx_hal_tim.c ****     if((pData == 0 ) && (Length > 0)) 
 3987              		.loc 1 1781 0
 3988 002a 7B68     		ldr	r3, [r7, #4]
 3989 002c 002B     		cmp	r3, #0
 3990 002e 04D1     		bne	.L259
 3991              		.loc 1 1781 0 is_stmt 0 discriminator 1
 3992 0030 7B88     		ldrh	r3, [r7, #2]
 3993 0032 002B     		cmp	r3, #0
 3994 0034 01D0     		beq	.L259
1782:Drivers/STM32F3xx_HAL_Driver/Src/stm32f3xx_hal_tim.c ****     {
1783:Drivers/STM32F3xx_HAL_Driver/Src/stm32f3xx_hal_tim.c ****       return HAL_ERROR;                                    
ARM GAS  /tmp/ccZyKULX.s 			page 101


 3995              		.loc 1 1783 0 is_stmt 1
 3996 0036 0123     		movs	r3, #1
 3997 0038 A1E0     		b	.L257
 3998              	.L259:
1784:Drivers/STM32F3xx_HAL_Driver/Src/stm32f3xx_hal_tim.c ****     }
1785:Drivers/STM32F3xx_HAL_Driver/Src/stm32f3xx_hal_tim.c ****     else
1786:Drivers/STM32F3xx_HAL_Driver/Src/stm32f3xx_hal_tim.c ****     {
1787:Drivers/STM32F3xx_HAL_Driver/Src/stm32f3xx_hal_tim.c ****       htim->State = HAL_TIM_STATE_BUSY;
 3999              		.loc 1 1787 0
 4000 003a FB68     		ldr	r3, [r7, #12]
 4001 003c 0222     		movs	r2, #2
 4002 003e 83F83920 		strb	r2, [r3, #57]
 4003              	.L258:
1788:Drivers/STM32F3xx_HAL_Driver/Src/stm32f3xx_hal_tim.c ****     }
1789:Drivers/STM32F3xx_HAL_Driver/Src/stm32f3xx_hal_tim.c ****   }  
1790:Drivers/STM32F3xx_HAL_Driver/Src/stm32f3xx_hal_tim.c ****    
1791:Drivers/STM32F3xx_HAL_Driver/Src/stm32f3xx_hal_tim.c ****   switch (Channel)
 4004              		.loc 1 1791 0
 4005 0042 BB68     		ldr	r3, [r7, #8]
 4006 0044 0C2B     		cmp	r3, #12
 4007 0046 00F28980 		bhi	.L267
 4008 004a 01A2     		adr	r2, .L262
 4009 004c 52F823F0 		ldr	pc, [r2, r3, lsl #2]
 4010              		.p2align 2
 4011              	.L262:
 4012 0050 85000000 		.word	.L261+1
 4013 0054 5D010000 		.word	.L267+1
 4014 0058 5D010000 		.word	.L267+1
 4015 005c 5D010000 		.word	.L267+1
 4016 0060 BB000000 		.word	.L263+1
 4017 0064 5D010000 		.word	.L267+1
 4018 0068 5D010000 		.word	.L267+1
 4019 006c 5D010000 		.word	.L267+1
 4020 0070 F1000000 		.word	.L264+1
 4021 0074 5D010000 		.word	.L267+1
 4022 0078 5D010000 		.word	.L267+1
 4023 007c 5D010000 		.word	.L267+1
 4024 0080 27010000 		.word	.L265+1
 4025              		.p2align 1
 4026              	.L261:
1792:Drivers/STM32F3xx_HAL_Driver/Src/stm32f3xx_hal_tim.c ****   {
1793:Drivers/STM32F3xx_HAL_Driver/Src/stm32f3xx_hal_tim.c ****     case TIM_CHANNEL_1:
1794:Drivers/STM32F3xx_HAL_Driver/Src/stm32f3xx_hal_tim.c ****     {
1795:Drivers/STM32F3xx_HAL_Driver/Src/stm32f3xx_hal_tim.c ****       /* Set the DMA Period elapsed callback */
1796:Drivers/STM32F3xx_HAL_Driver/Src/stm32f3xx_hal_tim.c ****       htim->hdma[TIM_DMA_ID_CC1]->XferCpltCallback = TIM_DMACaptureCplt;
 4027              		.loc 1 1796 0
 4028 0084 FB68     		ldr	r3, [r7, #12]
 4029 0086 1B6A     		ldr	r3, [r3, #32]
 4030 0088 3F4A     		ldr	r2, .L268
 4031 008a 9A62     		str	r2, [r3, #40]
1797:Drivers/STM32F3xx_HAL_Driver/Src/stm32f3xx_hal_tim.c ****      
1798:Drivers/STM32F3xx_HAL_Driver/Src/stm32f3xx_hal_tim.c ****       /* Set the DMA error callback */
1799:Drivers/STM32F3xx_HAL_Driver/Src/stm32f3xx_hal_tim.c ****       htim->hdma[TIM_DMA_ID_CC1]->XferErrorCallback = TIM_DMAError ;
 4032              		.loc 1 1799 0
 4033 008c FB68     		ldr	r3, [r7, #12]
 4034 008e 1B6A     		ldr	r3, [r3, #32]
 4035 0090 3E4A     		ldr	r2, .L268+4
ARM GAS  /tmp/ccZyKULX.s 			page 102


 4036 0092 1A63     		str	r2, [r3, #48]
1800:Drivers/STM32F3xx_HAL_Driver/Src/stm32f3xx_hal_tim.c ****       
1801:Drivers/STM32F3xx_HAL_Driver/Src/stm32f3xx_hal_tim.c ****       /* Enable the DMA channel */
1802:Drivers/STM32F3xx_HAL_Driver/Src/stm32f3xx_hal_tim.c ****       HAL_DMA_Start_IT(htim->hdma[TIM_DMA_ID_CC1], (uint32_t)&htim->Instance->CCR1, (uint32_t)pData
 4037              		.loc 1 1802 0
 4038 0094 FB68     		ldr	r3, [r7, #12]
 4039 0096 186A     		ldr	r0, [r3, #32]
 4040 0098 FB68     		ldr	r3, [r7, #12]
 4041 009a 1B68     		ldr	r3, [r3]
 4042 009c 3433     		adds	r3, r3, #52
 4043 009e 1946     		mov	r1, r3
 4044 00a0 7A68     		ldr	r2, [r7, #4]
 4045 00a2 7B88     		ldrh	r3, [r7, #2]
 4046 00a4 FFF7FEFF 		bl	HAL_DMA_Start_IT
1803:Drivers/STM32F3xx_HAL_Driver/Src/stm32f3xx_hal_tim.c ****       
1804:Drivers/STM32F3xx_HAL_Driver/Src/stm32f3xx_hal_tim.c ****       /* Enable the TIM Capture/Compare 1 DMA request */      
1805:Drivers/STM32F3xx_HAL_Driver/Src/stm32f3xx_hal_tim.c ****       __HAL_TIM_ENABLE_DMA(htim, TIM_DMA_CC1);
 4047              		.loc 1 1805 0
 4048 00a8 FB68     		ldr	r3, [r7, #12]
 4049 00aa 1B68     		ldr	r3, [r3]
 4050 00ac FA68     		ldr	r2, [r7, #12]
 4051 00ae 1268     		ldr	r2, [r2]
 4052 00b0 D268     		ldr	r2, [r2, #12]
 4053 00b2 42F40072 		orr	r2, r2, #512
 4054 00b6 DA60     		str	r2, [r3, #12]
1806:Drivers/STM32F3xx_HAL_Driver/Src/stm32f3xx_hal_tim.c ****     }
1807:Drivers/STM32F3xx_HAL_Driver/Src/stm32f3xx_hal_tim.c ****     break;
 4055              		.loc 1 1807 0
 4056 00b8 51E0     		b	.L266
 4057              	.L263:
1808:Drivers/STM32F3xx_HAL_Driver/Src/stm32f3xx_hal_tim.c ****     
1809:Drivers/STM32F3xx_HAL_Driver/Src/stm32f3xx_hal_tim.c ****     case TIM_CHANNEL_2:
1810:Drivers/STM32F3xx_HAL_Driver/Src/stm32f3xx_hal_tim.c ****     {
1811:Drivers/STM32F3xx_HAL_Driver/Src/stm32f3xx_hal_tim.c ****       /* Set the DMA Period elapsed callback */
1812:Drivers/STM32F3xx_HAL_Driver/Src/stm32f3xx_hal_tim.c ****       htim->hdma[TIM_DMA_ID_CC2]->XferCpltCallback = TIM_DMACaptureCplt;
 4058              		.loc 1 1812 0
 4059 00ba FB68     		ldr	r3, [r7, #12]
 4060 00bc 5B6A     		ldr	r3, [r3, #36]
 4061 00be 324A     		ldr	r2, .L268
 4062 00c0 9A62     		str	r2, [r3, #40]
1813:Drivers/STM32F3xx_HAL_Driver/Src/stm32f3xx_hal_tim.c ****      
1814:Drivers/STM32F3xx_HAL_Driver/Src/stm32f3xx_hal_tim.c ****       /* Set the DMA error callback */
1815:Drivers/STM32F3xx_HAL_Driver/Src/stm32f3xx_hal_tim.c ****       htim->hdma[TIM_DMA_ID_CC2]->XferErrorCallback = TIM_DMAError ;
 4063              		.loc 1 1815 0
 4064 00c2 FB68     		ldr	r3, [r7, #12]
 4065 00c4 5B6A     		ldr	r3, [r3, #36]
 4066 00c6 314A     		ldr	r2, .L268+4
 4067 00c8 1A63     		str	r2, [r3, #48]
1816:Drivers/STM32F3xx_HAL_Driver/Src/stm32f3xx_hal_tim.c ****       
1817:Drivers/STM32F3xx_HAL_Driver/Src/stm32f3xx_hal_tim.c ****       /* Enable the DMA channel */
1818:Drivers/STM32F3xx_HAL_Driver/Src/stm32f3xx_hal_tim.c ****       HAL_DMA_Start_IT(htim->hdma[TIM_DMA_ID_CC2], (uint32_t)&htim->Instance->CCR2, (uint32_t)pData
 4068              		.loc 1 1818 0
 4069 00ca FB68     		ldr	r3, [r7, #12]
 4070 00cc 586A     		ldr	r0, [r3, #36]
 4071 00ce FB68     		ldr	r3, [r7, #12]
 4072 00d0 1B68     		ldr	r3, [r3]
 4073 00d2 3833     		adds	r3, r3, #56
ARM GAS  /tmp/ccZyKULX.s 			page 103


 4074 00d4 1946     		mov	r1, r3
 4075 00d6 7A68     		ldr	r2, [r7, #4]
 4076 00d8 7B88     		ldrh	r3, [r7, #2]
 4077 00da FFF7FEFF 		bl	HAL_DMA_Start_IT
1819:Drivers/STM32F3xx_HAL_Driver/Src/stm32f3xx_hal_tim.c ****       
1820:Drivers/STM32F3xx_HAL_Driver/Src/stm32f3xx_hal_tim.c ****       /* Enable the TIM Capture/Compare 2  DMA request */
1821:Drivers/STM32F3xx_HAL_Driver/Src/stm32f3xx_hal_tim.c ****       __HAL_TIM_ENABLE_DMA(htim, TIM_DMA_CC2);
 4078              		.loc 1 1821 0
 4079 00de FB68     		ldr	r3, [r7, #12]
 4080 00e0 1B68     		ldr	r3, [r3]
 4081 00e2 FA68     		ldr	r2, [r7, #12]
 4082 00e4 1268     		ldr	r2, [r2]
 4083 00e6 D268     		ldr	r2, [r2, #12]
 4084 00e8 42F48062 		orr	r2, r2, #1024
 4085 00ec DA60     		str	r2, [r3, #12]
1822:Drivers/STM32F3xx_HAL_Driver/Src/stm32f3xx_hal_tim.c ****     }
1823:Drivers/STM32F3xx_HAL_Driver/Src/stm32f3xx_hal_tim.c ****     break;
 4086              		.loc 1 1823 0
 4087 00ee 36E0     		b	.L266
 4088              	.L264:
1824:Drivers/STM32F3xx_HAL_Driver/Src/stm32f3xx_hal_tim.c ****     
1825:Drivers/STM32F3xx_HAL_Driver/Src/stm32f3xx_hal_tim.c ****     case TIM_CHANNEL_3:
1826:Drivers/STM32F3xx_HAL_Driver/Src/stm32f3xx_hal_tim.c ****     {
1827:Drivers/STM32F3xx_HAL_Driver/Src/stm32f3xx_hal_tim.c ****       /* Set the DMA Period elapsed callback */
1828:Drivers/STM32F3xx_HAL_Driver/Src/stm32f3xx_hal_tim.c ****       htim->hdma[TIM_DMA_ID_CC3]->XferCpltCallback = TIM_DMACaptureCplt;
 4089              		.loc 1 1828 0
 4090 00f0 FB68     		ldr	r3, [r7, #12]
 4091 00f2 9B6A     		ldr	r3, [r3, #40]
 4092 00f4 244A     		ldr	r2, .L268
 4093 00f6 9A62     		str	r2, [r3, #40]
1829:Drivers/STM32F3xx_HAL_Driver/Src/stm32f3xx_hal_tim.c ****      
1830:Drivers/STM32F3xx_HAL_Driver/Src/stm32f3xx_hal_tim.c ****       /* Set the DMA error callback */
1831:Drivers/STM32F3xx_HAL_Driver/Src/stm32f3xx_hal_tim.c ****       htim->hdma[TIM_DMA_ID_CC3]->XferErrorCallback = TIM_DMAError ;
 4094              		.loc 1 1831 0
 4095 00f8 FB68     		ldr	r3, [r7, #12]
 4096 00fa 9B6A     		ldr	r3, [r3, #40]
 4097 00fc 234A     		ldr	r2, .L268+4
 4098 00fe 1A63     		str	r2, [r3, #48]
1832:Drivers/STM32F3xx_HAL_Driver/Src/stm32f3xx_hal_tim.c ****       
1833:Drivers/STM32F3xx_HAL_Driver/Src/stm32f3xx_hal_tim.c ****       /* Enable the DMA channel */
1834:Drivers/STM32F3xx_HAL_Driver/Src/stm32f3xx_hal_tim.c ****       HAL_DMA_Start_IT(htim->hdma[TIM_DMA_ID_CC3], (uint32_t)&htim->Instance->CCR3, (uint32_t)pData
 4099              		.loc 1 1834 0
 4100 0100 FB68     		ldr	r3, [r7, #12]
 4101 0102 986A     		ldr	r0, [r3, #40]
 4102 0104 FB68     		ldr	r3, [r7, #12]
 4103 0106 1B68     		ldr	r3, [r3]
 4104 0108 3C33     		adds	r3, r3, #60
 4105 010a 1946     		mov	r1, r3
 4106 010c 7A68     		ldr	r2, [r7, #4]
 4107 010e 7B88     		ldrh	r3, [r7, #2]
 4108 0110 FFF7FEFF 		bl	HAL_DMA_Start_IT
1835:Drivers/STM32F3xx_HAL_Driver/Src/stm32f3xx_hal_tim.c ****       
1836:Drivers/STM32F3xx_HAL_Driver/Src/stm32f3xx_hal_tim.c ****       /* Enable the TIM Capture/Compare 3  DMA request */
1837:Drivers/STM32F3xx_HAL_Driver/Src/stm32f3xx_hal_tim.c ****       __HAL_TIM_ENABLE_DMA(htim, TIM_DMA_CC3);
 4109              		.loc 1 1837 0
 4110 0114 FB68     		ldr	r3, [r7, #12]
 4111 0116 1B68     		ldr	r3, [r3]
ARM GAS  /tmp/ccZyKULX.s 			page 104


 4112 0118 FA68     		ldr	r2, [r7, #12]
 4113 011a 1268     		ldr	r2, [r2]
 4114 011c D268     		ldr	r2, [r2, #12]
 4115 011e 42F40062 		orr	r2, r2, #2048
 4116 0122 DA60     		str	r2, [r3, #12]
1838:Drivers/STM32F3xx_HAL_Driver/Src/stm32f3xx_hal_tim.c ****     }
1839:Drivers/STM32F3xx_HAL_Driver/Src/stm32f3xx_hal_tim.c ****     break;
 4117              		.loc 1 1839 0
 4118 0124 1BE0     		b	.L266
 4119              	.L265:
1840:Drivers/STM32F3xx_HAL_Driver/Src/stm32f3xx_hal_tim.c ****     
1841:Drivers/STM32F3xx_HAL_Driver/Src/stm32f3xx_hal_tim.c ****     case TIM_CHANNEL_4:
1842:Drivers/STM32F3xx_HAL_Driver/Src/stm32f3xx_hal_tim.c ****     {
1843:Drivers/STM32F3xx_HAL_Driver/Src/stm32f3xx_hal_tim.c ****       /* Set the DMA Period elapsed callback */
1844:Drivers/STM32F3xx_HAL_Driver/Src/stm32f3xx_hal_tim.c ****       htim->hdma[TIM_DMA_ID_CC4]->XferCpltCallback = TIM_DMACaptureCplt;
 4120              		.loc 1 1844 0
 4121 0126 FB68     		ldr	r3, [r7, #12]
 4122 0128 DB6A     		ldr	r3, [r3, #44]
 4123 012a 174A     		ldr	r2, .L268
 4124 012c 9A62     		str	r2, [r3, #40]
1845:Drivers/STM32F3xx_HAL_Driver/Src/stm32f3xx_hal_tim.c ****      
1846:Drivers/STM32F3xx_HAL_Driver/Src/stm32f3xx_hal_tim.c ****       /* Set the DMA error callback */
1847:Drivers/STM32F3xx_HAL_Driver/Src/stm32f3xx_hal_tim.c ****       htim->hdma[TIM_DMA_ID_CC4]->XferErrorCallback = TIM_DMAError ;
 4125              		.loc 1 1847 0
 4126 012e FB68     		ldr	r3, [r7, #12]
 4127 0130 DB6A     		ldr	r3, [r3, #44]
 4128 0132 164A     		ldr	r2, .L268+4
 4129 0134 1A63     		str	r2, [r3, #48]
1848:Drivers/STM32F3xx_HAL_Driver/Src/stm32f3xx_hal_tim.c ****       
1849:Drivers/STM32F3xx_HAL_Driver/Src/stm32f3xx_hal_tim.c ****       /* Enable the DMA channel */
1850:Drivers/STM32F3xx_HAL_Driver/Src/stm32f3xx_hal_tim.c ****       HAL_DMA_Start_IT(htim->hdma[TIM_DMA_ID_CC4], (uint32_t)&htim->Instance->CCR4, (uint32_t)pData
 4130              		.loc 1 1850 0
 4131 0136 FB68     		ldr	r3, [r7, #12]
 4132 0138 D86A     		ldr	r0, [r3, #44]
 4133 013a FB68     		ldr	r3, [r7, #12]
 4134 013c 1B68     		ldr	r3, [r3]
 4135 013e 4033     		adds	r3, r3, #64
 4136 0140 1946     		mov	r1, r3
 4137 0142 7A68     		ldr	r2, [r7, #4]
 4138 0144 7B88     		ldrh	r3, [r7, #2]
 4139 0146 FFF7FEFF 		bl	HAL_DMA_Start_IT
1851:Drivers/STM32F3xx_HAL_Driver/Src/stm32f3xx_hal_tim.c ****       
1852:Drivers/STM32F3xx_HAL_Driver/Src/stm32f3xx_hal_tim.c ****       /* Enable the TIM Capture/Compare 4  DMA request */
1853:Drivers/STM32F3xx_HAL_Driver/Src/stm32f3xx_hal_tim.c ****       __HAL_TIM_ENABLE_DMA(htim, TIM_DMA_CC4);
 4140              		.loc 1 1853 0
 4141 014a FB68     		ldr	r3, [r7, #12]
 4142 014c 1B68     		ldr	r3, [r3]
 4143 014e FA68     		ldr	r2, [r7, #12]
 4144 0150 1268     		ldr	r2, [r2]
 4145 0152 D268     		ldr	r2, [r2, #12]
 4146 0154 42F48052 		orr	r2, r2, #4096
 4147 0158 DA60     		str	r2, [r3, #12]
1854:Drivers/STM32F3xx_HAL_Driver/Src/stm32f3xx_hal_tim.c ****     }
1855:Drivers/STM32F3xx_HAL_Driver/Src/stm32f3xx_hal_tim.c ****     break;
 4148              		.loc 1 1855 0
 4149 015a 00E0     		b	.L266
 4150              	.L267:
ARM GAS  /tmp/ccZyKULX.s 			page 105


1856:Drivers/STM32F3xx_HAL_Driver/Src/stm32f3xx_hal_tim.c ****     
1857:Drivers/STM32F3xx_HAL_Driver/Src/stm32f3xx_hal_tim.c ****     default:
1858:Drivers/STM32F3xx_HAL_Driver/Src/stm32f3xx_hal_tim.c ****     break;
 4151              		.loc 1 1858 0
 4152 015c 00BF     		nop
 4153              	.L266:
1859:Drivers/STM32F3xx_HAL_Driver/Src/stm32f3xx_hal_tim.c ****   }
1860:Drivers/STM32F3xx_HAL_Driver/Src/stm32f3xx_hal_tim.c **** 
1861:Drivers/STM32F3xx_HAL_Driver/Src/stm32f3xx_hal_tim.c ****   /* Enable the Input Capture channel */
1862:Drivers/STM32F3xx_HAL_Driver/Src/stm32f3xx_hal_tim.c ****   TIM_CCxChannelCmd(htim->Instance, Channel, TIM_CCx_ENABLE);
 4154              		.loc 1 1862 0
 4155 015e FB68     		ldr	r3, [r7, #12]
 4156 0160 1B68     		ldr	r3, [r3]
 4157 0162 1846     		mov	r0, r3
 4158 0164 B968     		ldr	r1, [r7, #8]
 4159 0166 0122     		movs	r2, #1
 4160 0168 FFF7FEFF 		bl	TIM_CCxChannelCmd
1863:Drivers/STM32F3xx_HAL_Driver/Src/stm32f3xx_hal_tim.c ****    
1864:Drivers/STM32F3xx_HAL_Driver/Src/stm32f3xx_hal_tim.c ****   /* Enable the Peripheral */
1865:Drivers/STM32F3xx_HAL_Driver/Src/stm32f3xx_hal_tim.c ****   __HAL_TIM_ENABLE(htim); 
 4161              		.loc 1 1865 0
 4162 016c FB68     		ldr	r3, [r7, #12]
 4163 016e 1B68     		ldr	r3, [r3]
 4164 0170 FA68     		ldr	r2, [r7, #12]
 4165 0172 1268     		ldr	r2, [r2]
 4166 0174 1268     		ldr	r2, [r2]
 4167 0176 42F00102 		orr	r2, r2, #1
 4168 017a 1A60     		str	r2, [r3]
1866:Drivers/STM32F3xx_HAL_Driver/Src/stm32f3xx_hal_tim.c ****   
1867:Drivers/STM32F3xx_HAL_Driver/Src/stm32f3xx_hal_tim.c ****   /* Return function status */
1868:Drivers/STM32F3xx_HAL_Driver/Src/stm32f3xx_hal_tim.c ****   return HAL_OK;
 4169              		.loc 1 1868 0
 4170 017c 0023     		movs	r3, #0
 4171              	.L257:
1869:Drivers/STM32F3xx_HAL_Driver/Src/stm32f3xx_hal_tim.c **** }
 4172              		.loc 1 1869 0
 4173 017e 1846     		mov	r0, r3
 4174 0180 1037     		adds	r7, r7, #16
 4175 0182 BD46     		mov	sp, r7
 4176              		@ sp needed
 4177 0184 80BD     		pop	{r7, pc}
 4178              	.L269:
 4179 0186 00BF     		.align	2
 4180              	.L268:
 4181 0188 00000000 		.word	TIM_DMACaptureCplt
 4182 018c 00000000 		.word	TIM_DMAError
 4183              		.cfi_endproc
 4184              	.LFE163:
 4186              		.section	.text.HAL_TIM_IC_Stop_DMA,"ax",%progbits
 4187              		.align	2
 4188              		.global	HAL_TIM_IC_Stop_DMA
 4189              		.thumb
 4190              		.thumb_func
 4192              	HAL_TIM_IC_Stop_DMA:
 4193              	.LFB164:
1870:Drivers/STM32F3xx_HAL_Driver/Src/stm32f3xx_hal_tim.c **** 
1871:Drivers/STM32F3xx_HAL_Driver/Src/stm32f3xx_hal_tim.c **** /**
ARM GAS  /tmp/ccZyKULX.s 			page 106


1872:Drivers/STM32F3xx_HAL_Driver/Src/stm32f3xx_hal_tim.c ****   * @brief  Stops the TIM Input Capture measurement in DMA mode.
1873:Drivers/STM32F3xx_HAL_Driver/Src/stm32f3xx_hal_tim.c ****   * @param  htim: TIM Input Capture handle
1874:Drivers/STM32F3xx_HAL_Driver/Src/stm32f3xx_hal_tim.c ****   * @param  Channel: TIM Channels to be disabled
1875:Drivers/STM32F3xx_HAL_Driver/Src/stm32f3xx_hal_tim.c ****   *          This parameter can be one of the following values:
1876:Drivers/STM32F3xx_HAL_Driver/Src/stm32f3xx_hal_tim.c ****   *            @arg TIM_CHANNEL_1: TIM Channel 1 selected
1877:Drivers/STM32F3xx_HAL_Driver/Src/stm32f3xx_hal_tim.c ****   *            @arg TIM_CHANNEL_2: TIM Channel 2 selected
1878:Drivers/STM32F3xx_HAL_Driver/Src/stm32f3xx_hal_tim.c ****   *            @arg TIM_CHANNEL_3: TIM Channel 3 selected
1879:Drivers/STM32F3xx_HAL_Driver/Src/stm32f3xx_hal_tim.c ****   *            @arg TIM_CHANNEL_4: TIM Channel 4 selected
1880:Drivers/STM32F3xx_HAL_Driver/Src/stm32f3xx_hal_tim.c ****   * @retval HAL status
1881:Drivers/STM32F3xx_HAL_Driver/Src/stm32f3xx_hal_tim.c **** */
1882:Drivers/STM32F3xx_HAL_Driver/Src/stm32f3xx_hal_tim.c **** HAL_StatusTypeDef HAL_TIM_IC_Stop_DMA(TIM_HandleTypeDef *htim, uint32_t Channel)
1883:Drivers/STM32F3xx_HAL_Driver/Src/stm32f3xx_hal_tim.c **** {
 4194              		.loc 1 1883 0
 4195              		.cfi_startproc
 4196              		@ args = 0, pretend = 0, frame = 8
 4197              		@ frame_needed = 1, uses_anonymous_args = 0
 4198 0000 80B5     		push	{r7, lr}
 4199              	.LCFI117:
 4200              		.cfi_def_cfa_offset 8
 4201              		.cfi_offset 7, -8
 4202              		.cfi_offset 14, -4
 4203 0002 82B0     		sub	sp, sp, #8
 4204              	.LCFI118:
 4205              		.cfi_def_cfa_offset 16
 4206 0004 00AF     		add	r7, sp, #0
 4207              	.LCFI119:
 4208              		.cfi_def_cfa_register 7
 4209 0006 7860     		str	r0, [r7, #4]
 4210 0008 3960     		str	r1, [r7]
1884:Drivers/STM32F3xx_HAL_Driver/Src/stm32f3xx_hal_tim.c ****   /* Check the parameters */
1885:Drivers/STM32F3xx_HAL_Driver/Src/stm32f3xx_hal_tim.c ****   assert_param(IS_TIM_CCX_INSTANCE(htim->Instance, Channel));
1886:Drivers/STM32F3xx_HAL_Driver/Src/stm32f3xx_hal_tim.c ****   assert_param(IS_TIM_DMA_CC_INSTANCE(htim->Instance));
1887:Drivers/STM32F3xx_HAL_Driver/Src/stm32f3xx_hal_tim.c ****   
1888:Drivers/STM32F3xx_HAL_Driver/Src/stm32f3xx_hal_tim.c ****   switch (Channel)
 4211              		.loc 1 1888 0
 4212 000a 3B68     		ldr	r3, [r7]
 4213 000c 0C2B     		cmp	r3, #12
 4214 000e 41D8     		bhi	.L280
 4215 0010 01A2     		adr	r2, .L273
 4216 0012 52F823F0 		ldr	pc, [r2, r3, lsl #2]
 4217 0016 00BF     		.p2align 2
 4218              	.L273:
 4219 0018 4D000000 		.word	.L272+1
 4220 001c 95000000 		.word	.L280+1
 4221 0020 95000000 		.word	.L280+1
 4222 0024 95000000 		.word	.L280+1
 4223 0028 5F000000 		.word	.L274+1
 4224 002c 95000000 		.word	.L280+1
 4225 0030 95000000 		.word	.L280+1
 4226 0034 95000000 		.word	.L280+1
 4227 0038 71000000 		.word	.L275+1
 4228 003c 95000000 		.word	.L280+1
 4229 0040 95000000 		.word	.L280+1
 4230 0044 95000000 		.word	.L280+1
 4231 0048 83000000 		.word	.L276+1
 4232              		.p2align 1
 4233              	.L272:
ARM GAS  /tmp/ccZyKULX.s 			page 107


1889:Drivers/STM32F3xx_HAL_Driver/Src/stm32f3xx_hal_tim.c ****   {
1890:Drivers/STM32F3xx_HAL_Driver/Src/stm32f3xx_hal_tim.c ****     case TIM_CHANNEL_1:
1891:Drivers/STM32F3xx_HAL_Driver/Src/stm32f3xx_hal_tim.c ****     {       
1892:Drivers/STM32F3xx_HAL_Driver/Src/stm32f3xx_hal_tim.c ****       /* Disable the TIM Capture/Compare 1 DMA request */
1893:Drivers/STM32F3xx_HAL_Driver/Src/stm32f3xx_hal_tim.c ****       __HAL_TIM_DISABLE_DMA(htim, TIM_DMA_CC1);
 4234              		.loc 1 1893 0
 4235 004c 7B68     		ldr	r3, [r7, #4]
 4236 004e 1B68     		ldr	r3, [r3]
 4237 0050 7A68     		ldr	r2, [r7, #4]
 4238 0052 1268     		ldr	r2, [r2]
 4239 0054 D268     		ldr	r2, [r2, #12]
 4240 0056 22F40072 		bic	r2, r2, #512
 4241 005a DA60     		str	r2, [r3, #12]
1894:Drivers/STM32F3xx_HAL_Driver/Src/stm32f3xx_hal_tim.c ****     }
1895:Drivers/STM32F3xx_HAL_Driver/Src/stm32f3xx_hal_tim.c ****     break;
 4242              		.loc 1 1895 0
 4243 005c 1BE0     		b	.L277
 4244              	.L274:
1896:Drivers/STM32F3xx_HAL_Driver/Src/stm32f3xx_hal_tim.c ****     
1897:Drivers/STM32F3xx_HAL_Driver/Src/stm32f3xx_hal_tim.c ****     case TIM_CHANNEL_2:
1898:Drivers/STM32F3xx_HAL_Driver/Src/stm32f3xx_hal_tim.c ****     {
1899:Drivers/STM32F3xx_HAL_Driver/Src/stm32f3xx_hal_tim.c ****       /* Disable the TIM Capture/Compare 2 DMA request */
1900:Drivers/STM32F3xx_HAL_Driver/Src/stm32f3xx_hal_tim.c ****       __HAL_TIM_DISABLE_DMA(htim, TIM_DMA_CC2);
 4245              		.loc 1 1900 0
 4246 005e 7B68     		ldr	r3, [r7, #4]
 4247 0060 1B68     		ldr	r3, [r3]
 4248 0062 7A68     		ldr	r2, [r7, #4]
 4249 0064 1268     		ldr	r2, [r2]
 4250 0066 D268     		ldr	r2, [r2, #12]
 4251 0068 22F48062 		bic	r2, r2, #1024
 4252 006c DA60     		str	r2, [r3, #12]
1901:Drivers/STM32F3xx_HAL_Driver/Src/stm32f3xx_hal_tim.c ****     }
1902:Drivers/STM32F3xx_HAL_Driver/Src/stm32f3xx_hal_tim.c ****     break;
 4253              		.loc 1 1902 0
 4254 006e 12E0     		b	.L277
 4255              	.L275:
1903:Drivers/STM32F3xx_HAL_Driver/Src/stm32f3xx_hal_tim.c ****     
1904:Drivers/STM32F3xx_HAL_Driver/Src/stm32f3xx_hal_tim.c ****     case TIM_CHANNEL_3:
1905:Drivers/STM32F3xx_HAL_Driver/Src/stm32f3xx_hal_tim.c ****     {
1906:Drivers/STM32F3xx_HAL_Driver/Src/stm32f3xx_hal_tim.c ****       /* Disable the TIM Capture/Compare 3  DMA request */
1907:Drivers/STM32F3xx_HAL_Driver/Src/stm32f3xx_hal_tim.c ****       __HAL_TIM_DISABLE_DMA(htim, TIM_DMA_CC3);
 4256              		.loc 1 1907 0
 4257 0070 7B68     		ldr	r3, [r7, #4]
 4258 0072 1B68     		ldr	r3, [r3]
 4259 0074 7A68     		ldr	r2, [r7, #4]
 4260 0076 1268     		ldr	r2, [r2]
 4261 0078 D268     		ldr	r2, [r2, #12]
 4262 007a 22F40062 		bic	r2, r2, #2048
 4263 007e DA60     		str	r2, [r3, #12]
1908:Drivers/STM32F3xx_HAL_Driver/Src/stm32f3xx_hal_tim.c ****     }
1909:Drivers/STM32F3xx_HAL_Driver/Src/stm32f3xx_hal_tim.c ****     break;
 4264              		.loc 1 1909 0
 4265 0080 09E0     		b	.L277
 4266              	.L276:
1910:Drivers/STM32F3xx_HAL_Driver/Src/stm32f3xx_hal_tim.c ****     
1911:Drivers/STM32F3xx_HAL_Driver/Src/stm32f3xx_hal_tim.c ****     case TIM_CHANNEL_4:
1912:Drivers/STM32F3xx_HAL_Driver/Src/stm32f3xx_hal_tim.c ****     {
ARM GAS  /tmp/ccZyKULX.s 			page 108


1913:Drivers/STM32F3xx_HAL_Driver/Src/stm32f3xx_hal_tim.c ****       /* Disable the TIM Capture/Compare 4  DMA request */
1914:Drivers/STM32F3xx_HAL_Driver/Src/stm32f3xx_hal_tim.c ****       __HAL_TIM_DISABLE_DMA(htim, TIM_DMA_CC4);
 4267              		.loc 1 1914 0
 4268 0082 7B68     		ldr	r3, [r7, #4]
 4269 0084 1B68     		ldr	r3, [r3]
 4270 0086 7A68     		ldr	r2, [r7, #4]
 4271 0088 1268     		ldr	r2, [r2]
 4272 008a D268     		ldr	r2, [r2, #12]
 4273 008c 22F48052 		bic	r2, r2, #4096
 4274 0090 DA60     		str	r2, [r3, #12]
1915:Drivers/STM32F3xx_HAL_Driver/Src/stm32f3xx_hal_tim.c ****     }
1916:Drivers/STM32F3xx_HAL_Driver/Src/stm32f3xx_hal_tim.c ****     break;
 4275              		.loc 1 1916 0
 4276 0092 00E0     		b	.L277
 4277              	.L280:
1917:Drivers/STM32F3xx_HAL_Driver/Src/stm32f3xx_hal_tim.c ****     
1918:Drivers/STM32F3xx_HAL_Driver/Src/stm32f3xx_hal_tim.c ****     default:
1919:Drivers/STM32F3xx_HAL_Driver/Src/stm32f3xx_hal_tim.c ****     break;
 4278              		.loc 1 1919 0
 4279 0094 00BF     		nop
 4280              	.L277:
1920:Drivers/STM32F3xx_HAL_Driver/Src/stm32f3xx_hal_tim.c ****   }
1921:Drivers/STM32F3xx_HAL_Driver/Src/stm32f3xx_hal_tim.c **** 
1922:Drivers/STM32F3xx_HAL_Driver/Src/stm32f3xx_hal_tim.c ****   /* Disable the Input Capture channel */
1923:Drivers/STM32F3xx_HAL_Driver/Src/stm32f3xx_hal_tim.c ****   TIM_CCxChannelCmd(htim->Instance, Channel, TIM_CCx_DISABLE);
 4281              		.loc 1 1923 0
 4282 0096 7B68     		ldr	r3, [r7, #4]
 4283 0098 1B68     		ldr	r3, [r3]
 4284 009a 1846     		mov	r0, r3
 4285 009c 3968     		ldr	r1, [r7]
 4286 009e 0022     		movs	r2, #0
 4287 00a0 FFF7FEFF 		bl	TIM_CCxChannelCmd
1924:Drivers/STM32F3xx_HAL_Driver/Src/stm32f3xx_hal_tim.c ****   
1925:Drivers/STM32F3xx_HAL_Driver/Src/stm32f3xx_hal_tim.c ****   /* Disable the Peripheral */
1926:Drivers/STM32F3xx_HAL_Driver/Src/stm32f3xx_hal_tim.c ****   __HAL_TIM_DISABLE(htim); 
 4288              		.loc 1 1926 0
 4289 00a4 7B68     		ldr	r3, [r7, #4]
 4290 00a6 1B68     		ldr	r3, [r3]
 4291 00a8 1A6A     		ldr	r2, [r3, #32]
 4292 00aa 41F21113 		movw	r3, #4369
 4293 00ae 1340     		ands	r3, r3, r2
 4294 00b0 002B     		cmp	r3, #0
 4295 00b2 0FD1     		bne	.L278
 4296              		.loc 1 1926 0 is_stmt 0 discriminator 1
 4297 00b4 7B68     		ldr	r3, [r7, #4]
 4298 00b6 1B68     		ldr	r3, [r3]
 4299 00b8 1A6A     		ldr	r2, [r3, #32]
 4300 00ba 40F24443 		movw	r3, #1092
 4301 00be 1340     		ands	r3, r3, r2
 4302 00c0 002B     		cmp	r3, #0
 4303 00c2 07D1     		bne	.L278
 4304 00c4 7B68     		ldr	r3, [r7, #4]
 4305 00c6 1B68     		ldr	r3, [r3]
 4306 00c8 7A68     		ldr	r2, [r7, #4]
 4307 00ca 1268     		ldr	r2, [r2]
 4308 00cc 1268     		ldr	r2, [r2]
 4309 00ce 22F00102 		bic	r2, r2, #1
ARM GAS  /tmp/ccZyKULX.s 			page 109


 4310 00d2 1A60     		str	r2, [r3]
 4311              	.L278:
1927:Drivers/STM32F3xx_HAL_Driver/Src/stm32f3xx_hal_tim.c ****   
1928:Drivers/STM32F3xx_HAL_Driver/Src/stm32f3xx_hal_tim.c ****   /* Change the htim state */
1929:Drivers/STM32F3xx_HAL_Driver/Src/stm32f3xx_hal_tim.c ****   htim->State = HAL_TIM_STATE_READY;
 4312              		.loc 1 1929 0 is_stmt 1
 4313 00d4 7B68     		ldr	r3, [r7, #4]
 4314 00d6 0122     		movs	r2, #1
 4315 00d8 83F83920 		strb	r2, [r3, #57]
1930:Drivers/STM32F3xx_HAL_Driver/Src/stm32f3xx_hal_tim.c ****   
1931:Drivers/STM32F3xx_HAL_Driver/Src/stm32f3xx_hal_tim.c ****   /* Return function status */
1932:Drivers/STM32F3xx_HAL_Driver/Src/stm32f3xx_hal_tim.c ****   return HAL_OK;
 4316              		.loc 1 1932 0
 4317 00dc 0023     		movs	r3, #0
1933:Drivers/STM32F3xx_HAL_Driver/Src/stm32f3xx_hal_tim.c **** }
 4318              		.loc 1 1933 0
 4319 00de 1846     		mov	r0, r3
 4320 00e0 0837     		adds	r7, r7, #8
 4321 00e2 BD46     		mov	sp, r7
 4322              		@ sp needed
 4323 00e4 80BD     		pop	{r7, pc}
 4324              		.cfi_endproc
 4325              	.LFE164:
 4327 00e6 00BF     		.section	.text.HAL_TIM_OnePulse_Init,"ax",%progbits
 4328              		.align	2
 4329              		.global	HAL_TIM_OnePulse_Init
 4330              		.thumb
 4331              		.thumb_func
 4333              	HAL_TIM_OnePulse_Init:
 4334              	.LFB165:
1934:Drivers/STM32F3xx_HAL_Driver/Src/stm32f3xx_hal_tim.c **** /**
1935:Drivers/STM32F3xx_HAL_Driver/Src/stm32f3xx_hal_tim.c ****   * @}
1936:Drivers/STM32F3xx_HAL_Driver/Src/stm32f3xx_hal_tim.c ****   */
1937:Drivers/STM32F3xx_HAL_Driver/Src/stm32f3xx_hal_tim.c **** 
1938:Drivers/STM32F3xx_HAL_Driver/Src/stm32f3xx_hal_tim.c **** /** @defgroup TIM_Exported_Functions_Group5 Time One Pulse functions 
1939:Drivers/STM32F3xx_HAL_Driver/Src/stm32f3xx_hal_tim.c ****  *  @brief    Time One Pulse functions 
1940:Drivers/STM32F3xx_HAL_Driver/Src/stm32f3xx_hal_tim.c ****  *
1941:Drivers/STM32F3xx_HAL_Driver/Src/stm32f3xx_hal_tim.c **** @verbatim    
1942:Drivers/STM32F3xx_HAL_Driver/Src/stm32f3xx_hal_tim.c ****   ==============================================================================
1943:Drivers/STM32F3xx_HAL_Driver/Src/stm32f3xx_hal_tim.c ****                         ##### Time One Pulse functions #####
1944:Drivers/STM32F3xx_HAL_Driver/Src/stm32f3xx_hal_tim.c ****   ==============================================================================
1945:Drivers/STM32F3xx_HAL_Driver/Src/stm32f3xx_hal_tim.c ****   [..]  
1946:Drivers/STM32F3xx_HAL_Driver/Src/stm32f3xx_hal_tim.c ****     This section provides functions allowing to:
1947:Drivers/STM32F3xx_HAL_Driver/Src/stm32f3xx_hal_tim.c ****     (+) Initialize and configure the TIM One Pulse. 
1948:Drivers/STM32F3xx_HAL_Driver/Src/stm32f3xx_hal_tim.c ****     (+) De-initialize the TIM One Pulse.
1949:Drivers/STM32F3xx_HAL_Driver/Src/stm32f3xx_hal_tim.c ****     (+) Start the Time One Pulse.
1950:Drivers/STM32F3xx_HAL_Driver/Src/stm32f3xx_hal_tim.c ****     (+) Stop the Time One Pulse.
1951:Drivers/STM32F3xx_HAL_Driver/Src/stm32f3xx_hal_tim.c ****     (+) Start the Time One Pulse and enable interrupt.
1952:Drivers/STM32F3xx_HAL_Driver/Src/stm32f3xx_hal_tim.c ****     (+) Stop the Time One Pulse and disable interrupt.
1953:Drivers/STM32F3xx_HAL_Driver/Src/stm32f3xx_hal_tim.c ****     (+) Start the Time One Pulse and enable DMA transfer.
1954:Drivers/STM32F3xx_HAL_Driver/Src/stm32f3xx_hal_tim.c ****     (+) Stop the Time One Pulse and disable DMA transfer.
1955:Drivers/STM32F3xx_HAL_Driver/Src/stm32f3xx_hal_tim.c ****  
1956:Drivers/STM32F3xx_HAL_Driver/Src/stm32f3xx_hal_tim.c **** @endverbatim
1957:Drivers/STM32F3xx_HAL_Driver/Src/stm32f3xx_hal_tim.c ****   * @{
1958:Drivers/STM32F3xx_HAL_Driver/Src/stm32f3xx_hal_tim.c ****   */
1959:Drivers/STM32F3xx_HAL_Driver/Src/stm32f3xx_hal_tim.c **** /**
1960:Drivers/STM32F3xx_HAL_Driver/Src/stm32f3xx_hal_tim.c ****   * @brief  Initializes the TIM One Pulse Time Base according to the specified
ARM GAS  /tmp/ccZyKULX.s 			page 110


1961:Drivers/STM32F3xx_HAL_Driver/Src/stm32f3xx_hal_tim.c ****   *         parameters in the TIM_HandleTypeDef and create the associated handle.
1962:Drivers/STM32F3xx_HAL_Driver/Src/stm32f3xx_hal_tim.c ****   * @param  htim: TIM OnePulse handle
1963:Drivers/STM32F3xx_HAL_Driver/Src/stm32f3xx_hal_tim.c ****   * @param  OnePulseMode: Select the One pulse mode.
1964:Drivers/STM32F3xx_HAL_Driver/Src/stm32f3xx_hal_tim.c ****   *         This parameter can be one of the following values:
1965:Drivers/STM32F3xx_HAL_Driver/Src/stm32f3xx_hal_tim.c ****   *            @arg TIM_OPMODE_SINGLE: Only one pulse will be generated.
1966:Drivers/STM32F3xx_HAL_Driver/Src/stm32f3xx_hal_tim.c ****   *            @arg TIM_OPMODE_REPETITIVE: Repetitive pulses wil be generated.
1967:Drivers/STM32F3xx_HAL_Driver/Src/stm32f3xx_hal_tim.c ****   * @retval HAL status
1968:Drivers/STM32F3xx_HAL_Driver/Src/stm32f3xx_hal_tim.c ****   */
1969:Drivers/STM32F3xx_HAL_Driver/Src/stm32f3xx_hal_tim.c **** HAL_StatusTypeDef HAL_TIM_OnePulse_Init(TIM_HandleTypeDef *htim, uint32_t OnePulseMode)
1970:Drivers/STM32F3xx_HAL_Driver/Src/stm32f3xx_hal_tim.c **** {
 4335              		.loc 1 1970 0
 4336              		.cfi_startproc
 4337              		@ args = 0, pretend = 0, frame = 8
 4338              		@ frame_needed = 1, uses_anonymous_args = 0
 4339 0000 80B5     		push	{r7, lr}
 4340              	.LCFI120:
 4341              		.cfi_def_cfa_offset 8
 4342              		.cfi_offset 7, -8
 4343              		.cfi_offset 14, -4
 4344 0002 82B0     		sub	sp, sp, #8
 4345              	.LCFI121:
 4346              		.cfi_def_cfa_offset 16
 4347 0004 00AF     		add	r7, sp, #0
 4348              	.LCFI122:
 4349              		.cfi_def_cfa_register 7
 4350 0006 7860     		str	r0, [r7, #4]
 4351 0008 3960     		str	r1, [r7]
1971:Drivers/STM32F3xx_HAL_Driver/Src/stm32f3xx_hal_tim.c ****   /* Check the TIM handle allocation */
1972:Drivers/STM32F3xx_HAL_Driver/Src/stm32f3xx_hal_tim.c ****   if(htim == NULL)
 4352              		.loc 1 1972 0
 4353 000a 7B68     		ldr	r3, [r7, #4]
 4354 000c 002B     		cmp	r3, #0
 4355 000e 01D1     		bne	.L282
1973:Drivers/STM32F3xx_HAL_Driver/Src/stm32f3xx_hal_tim.c ****   {
1974:Drivers/STM32F3xx_HAL_Driver/Src/stm32f3xx_hal_tim.c ****     return HAL_ERROR;
 4356              		.loc 1 1974 0
 4357 0010 0123     		movs	r3, #1
 4358 0012 2DE0     		b	.L283
 4359              	.L282:
1975:Drivers/STM32F3xx_HAL_Driver/Src/stm32f3xx_hal_tim.c ****   }
1976:Drivers/STM32F3xx_HAL_Driver/Src/stm32f3xx_hal_tim.c **** 
1977:Drivers/STM32F3xx_HAL_Driver/Src/stm32f3xx_hal_tim.c ****   /* Check the parameters */
1978:Drivers/STM32F3xx_HAL_Driver/Src/stm32f3xx_hal_tim.c ****   assert_param(IS_TIM_INSTANCE(htim->Instance));
1979:Drivers/STM32F3xx_HAL_Driver/Src/stm32f3xx_hal_tim.c ****   assert_param(IS_TIM_COUNTER_MODE(htim->Init.CounterMode));
1980:Drivers/STM32F3xx_HAL_Driver/Src/stm32f3xx_hal_tim.c ****   assert_param(IS_TIM_CLOCKDIVISION_DIV(htim->Init.ClockDivision));
1981:Drivers/STM32F3xx_HAL_Driver/Src/stm32f3xx_hal_tim.c ****   assert_param(IS_TIM_OPM_MODE(OnePulseMode));
1982:Drivers/STM32F3xx_HAL_Driver/Src/stm32f3xx_hal_tim.c ****   
1983:Drivers/STM32F3xx_HAL_Driver/Src/stm32f3xx_hal_tim.c ****   if(htim->State == HAL_TIM_STATE_RESET)
 4360              		.loc 1 1983 0
 4361 0014 7B68     		ldr	r3, [r7, #4]
 4362 0016 93F83930 		ldrb	r3, [r3, #57]
 4363 001a DBB2     		uxtb	r3, r3
 4364 001c 002B     		cmp	r3, #0
 4365 001e 06D1     		bne	.L284
1984:Drivers/STM32F3xx_HAL_Driver/Src/stm32f3xx_hal_tim.c ****   {   
1985:Drivers/STM32F3xx_HAL_Driver/Src/stm32f3xx_hal_tim.c ****     /* Allocate lock resource and initialize it */
1986:Drivers/STM32F3xx_HAL_Driver/Src/stm32f3xx_hal_tim.c ****     htim->Lock = HAL_UNLOCKED;
ARM GAS  /tmp/ccZyKULX.s 			page 111


 4366              		.loc 1 1986 0
 4367 0020 7B68     		ldr	r3, [r7, #4]
 4368 0022 0022     		movs	r2, #0
 4369 0024 83F83820 		strb	r2, [r3, #56]
1987:Drivers/STM32F3xx_HAL_Driver/Src/stm32f3xx_hal_tim.c ****     
1988:Drivers/STM32F3xx_HAL_Driver/Src/stm32f3xx_hal_tim.c ****     /* Init the low level hardware : GPIO, CLOCK, NVIC and DMA */
1989:Drivers/STM32F3xx_HAL_Driver/Src/stm32f3xx_hal_tim.c ****     HAL_TIM_OnePulse_MspInit(htim);
 4370              		.loc 1 1989 0
 4371 0028 7868     		ldr	r0, [r7, #4]
 4372 002a FFF7FEFF 		bl	HAL_TIM_OnePulse_MspInit
 4373              	.L284:
1990:Drivers/STM32F3xx_HAL_Driver/Src/stm32f3xx_hal_tim.c ****   }
1991:Drivers/STM32F3xx_HAL_Driver/Src/stm32f3xx_hal_tim.c ****   
1992:Drivers/STM32F3xx_HAL_Driver/Src/stm32f3xx_hal_tim.c ****   /* Set the TIM state */
1993:Drivers/STM32F3xx_HAL_Driver/Src/stm32f3xx_hal_tim.c ****   htim->State= HAL_TIM_STATE_BUSY;
 4374              		.loc 1 1993 0
 4375 002e 7B68     		ldr	r3, [r7, #4]
 4376 0030 0222     		movs	r2, #2
 4377 0032 83F83920 		strb	r2, [r3, #57]
1994:Drivers/STM32F3xx_HAL_Driver/Src/stm32f3xx_hal_tim.c ****   
1995:Drivers/STM32F3xx_HAL_Driver/Src/stm32f3xx_hal_tim.c ****   /* Configure the Time base in the One Pulse Mode */
1996:Drivers/STM32F3xx_HAL_Driver/Src/stm32f3xx_hal_tim.c ****   TIM_Base_SetConfig(htim->Instance, &htim->Init);
 4378              		.loc 1 1996 0
 4379 0036 7B68     		ldr	r3, [r7, #4]
 4380 0038 1A68     		ldr	r2, [r3]
 4381 003a 7B68     		ldr	r3, [r7, #4]
 4382 003c 0433     		adds	r3, r3, #4
 4383 003e 1046     		mov	r0, r2
 4384 0040 1946     		mov	r1, r3
 4385 0042 FFF7FEFF 		bl	TIM_Base_SetConfig
1997:Drivers/STM32F3xx_HAL_Driver/Src/stm32f3xx_hal_tim.c ****   
1998:Drivers/STM32F3xx_HAL_Driver/Src/stm32f3xx_hal_tim.c ****   /* Reset the OPM Bit */
1999:Drivers/STM32F3xx_HAL_Driver/Src/stm32f3xx_hal_tim.c ****   htim->Instance->CR1 &= ~TIM_CR1_OPM;
 4386              		.loc 1 1999 0
 4387 0046 7B68     		ldr	r3, [r7, #4]
 4388 0048 1B68     		ldr	r3, [r3]
 4389 004a 7A68     		ldr	r2, [r7, #4]
 4390 004c 1268     		ldr	r2, [r2]
 4391 004e 1268     		ldr	r2, [r2]
 4392 0050 22F00802 		bic	r2, r2, #8
 4393 0054 1A60     		str	r2, [r3]
2000:Drivers/STM32F3xx_HAL_Driver/Src/stm32f3xx_hal_tim.c **** 
2001:Drivers/STM32F3xx_HAL_Driver/Src/stm32f3xx_hal_tim.c ****   /* Configure the OPM Mode */
2002:Drivers/STM32F3xx_HAL_Driver/Src/stm32f3xx_hal_tim.c ****   htim->Instance->CR1 |= OnePulseMode;
 4394              		.loc 1 2002 0
 4395 0056 7B68     		ldr	r3, [r7, #4]
 4396 0058 1B68     		ldr	r3, [r3]
 4397 005a 7A68     		ldr	r2, [r7, #4]
 4398 005c 1268     		ldr	r2, [r2]
 4399 005e 1168     		ldr	r1, [r2]
 4400 0060 3A68     		ldr	r2, [r7]
 4401 0062 0A43     		orrs	r2, r2, r1
 4402 0064 1A60     		str	r2, [r3]
2003:Drivers/STM32F3xx_HAL_Driver/Src/stm32f3xx_hal_tim.c ****    
2004:Drivers/STM32F3xx_HAL_Driver/Src/stm32f3xx_hal_tim.c ****   /* Initialize the TIM state*/
2005:Drivers/STM32F3xx_HAL_Driver/Src/stm32f3xx_hal_tim.c ****   htim->State= HAL_TIM_STATE_READY;
 4403              		.loc 1 2005 0
ARM GAS  /tmp/ccZyKULX.s 			page 112


 4404 0066 7B68     		ldr	r3, [r7, #4]
 4405 0068 0122     		movs	r2, #1
 4406 006a 83F83920 		strb	r2, [r3, #57]
2006:Drivers/STM32F3xx_HAL_Driver/Src/stm32f3xx_hal_tim.c ****   
2007:Drivers/STM32F3xx_HAL_Driver/Src/stm32f3xx_hal_tim.c ****   return HAL_OK;
 4407              		.loc 1 2007 0
 4408 006e 0023     		movs	r3, #0
 4409              	.L283:
2008:Drivers/STM32F3xx_HAL_Driver/Src/stm32f3xx_hal_tim.c **** }
 4410              		.loc 1 2008 0
 4411 0070 1846     		mov	r0, r3
 4412 0072 0837     		adds	r7, r7, #8
 4413 0074 BD46     		mov	sp, r7
 4414              		@ sp needed
 4415 0076 80BD     		pop	{r7, pc}
 4416              		.cfi_endproc
 4417              	.LFE165:
 4419              		.section	.text.HAL_TIM_OnePulse_DeInit,"ax",%progbits
 4420              		.align	2
 4421              		.global	HAL_TIM_OnePulse_DeInit
 4422              		.thumb
 4423              		.thumb_func
 4425              	HAL_TIM_OnePulse_DeInit:
 4426              	.LFB166:
2009:Drivers/STM32F3xx_HAL_Driver/Src/stm32f3xx_hal_tim.c **** 
2010:Drivers/STM32F3xx_HAL_Driver/Src/stm32f3xx_hal_tim.c **** /**
2011:Drivers/STM32F3xx_HAL_Driver/Src/stm32f3xx_hal_tim.c ****   * @brief  DeInitializes the TIM One Pulse  
2012:Drivers/STM32F3xx_HAL_Driver/Src/stm32f3xx_hal_tim.c ****   * @param  htim: TIM One Pulse handle
2013:Drivers/STM32F3xx_HAL_Driver/Src/stm32f3xx_hal_tim.c ****   * @retval HAL status
2014:Drivers/STM32F3xx_HAL_Driver/Src/stm32f3xx_hal_tim.c ****   */
2015:Drivers/STM32F3xx_HAL_Driver/Src/stm32f3xx_hal_tim.c **** HAL_StatusTypeDef HAL_TIM_OnePulse_DeInit(TIM_HandleTypeDef *htim)
2016:Drivers/STM32F3xx_HAL_Driver/Src/stm32f3xx_hal_tim.c **** {
 4427              		.loc 1 2016 0
 4428              		.cfi_startproc
 4429              		@ args = 0, pretend = 0, frame = 8
 4430              		@ frame_needed = 1, uses_anonymous_args = 0
 4431 0000 80B5     		push	{r7, lr}
 4432              	.LCFI123:
 4433              		.cfi_def_cfa_offset 8
 4434              		.cfi_offset 7, -8
 4435              		.cfi_offset 14, -4
 4436 0002 82B0     		sub	sp, sp, #8
 4437              	.LCFI124:
 4438              		.cfi_def_cfa_offset 16
 4439 0004 00AF     		add	r7, sp, #0
 4440              	.LCFI125:
 4441              		.cfi_def_cfa_register 7
 4442 0006 7860     		str	r0, [r7, #4]
2017:Drivers/STM32F3xx_HAL_Driver/Src/stm32f3xx_hal_tim.c ****   /* Check the parameters */
2018:Drivers/STM32F3xx_HAL_Driver/Src/stm32f3xx_hal_tim.c ****   assert_param(IS_TIM_INSTANCE(htim->Instance));
2019:Drivers/STM32F3xx_HAL_Driver/Src/stm32f3xx_hal_tim.c ****   
2020:Drivers/STM32F3xx_HAL_Driver/Src/stm32f3xx_hal_tim.c ****   htim->State = HAL_TIM_STATE_BUSY;
 4443              		.loc 1 2020 0
 4444 0008 7B68     		ldr	r3, [r7, #4]
 4445 000a 0222     		movs	r2, #2
 4446 000c 83F83920 		strb	r2, [r3, #57]
2021:Drivers/STM32F3xx_HAL_Driver/Src/stm32f3xx_hal_tim.c ****   
ARM GAS  /tmp/ccZyKULX.s 			page 113


2022:Drivers/STM32F3xx_HAL_Driver/Src/stm32f3xx_hal_tim.c ****   /* Disable the TIM Peripheral Clock */
2023:Drivers/STM32F3xx_HAL_Driver/Src/stm32f3xx_hal_tim.c ****   __HAL_TIM_DISABLE(htim);
 4447              		.loc 1 2023 0
 4448 0010 7B68     		ldr	r3, [r7, #4]
 4449 0012 1B68     		ldr	r3, [r3]
 4450 0014 1A6A     		ldr	r2, [r3, #32]
 4451 0016 41F21113 		movw	r3, #4369
 4452 001a 1340     		ands	r3, r3, r2
 4453 001c 002B     		cmp	r3, #0
 4454 001e 0FD1     		bne	.L286
 4455              		.loc 1 2023 0 is_stmt 0 discriminator 1
 4456 0020 7B68     		ldr	r3, [r7, #4]
 4457 0022 1B68     		ldr	r3, [r3]
 4458 0024 1A6A     		ldr	r2, [r3, #32]
 4459 0026 40F24443 		movw	r3, #1092
 4460 002a 1340     		ands	r3, r3, r2
 4461 002c 002B     		cmp	r3, #0
 4462 002e 07D1     		bne	.L286
 4463 0030 7B68     		ldr	r3, [r7, #4]
 4464 0032 1B68     		ldr	r3, [r3]
 4465 0034 7A68     		ldr	r2, [r7, #4]
 4466 0036 1268     		ldr	r2, [r2]
 4467 0038 1268     		ldr	r2, [r2]
 4468 003a 22F00102 		bic	r2, r2, #1
 4469 003e 1A60     		str	r2, [r3]
 4470              	.L286:
2024:Drivers/STM32F3xx_HAL_Driver/Src/stm32f3xx_hal_tim.c ****   
2025:Drivers/STM32F3xx_HAL_Driver/Src/stm32f3xx_hal_tim.c ****   /* DeInit the low level hardware: GPIO, CLOCK, NVIC */
2026:Drivers/STM32F3xx_HAL_Driver/Src/stm32f3xx_hal_tim.c ****   HAL_TIM_OnePulse_MspDeInit(htim);
 4471              		.loc 1 2026 0 is_stmt 1
 4472 0040 7868     		ldr	r0, [r7, #4]
 4473 0042 FFF7FEFF 		bl	HAL_TIM_OnePulse_MspDeInit
2027:Drivers/STM32F3xx_HAL_Driver/Src/stm32f3xx_hal_tim.c ****     
2028:Drivers/STM32F3xx_HAL_Driver/Src/stm32f3xx_hal_tim.c ****   /* Change TIM state */  
2029:Drivers/STM32F3xx_HAL_Driver/Src/stm32f3xx_hal_tim.c ****   htim->State = HAL_TIM_STATE_RESET; 
 4474              		.loc 1 2029 0
 4475 0046 7B68     		ldr	r3, [r7, #4]
 4476 0048 0022     		movs	r2, #0
 4477 004a 83F83920 		strb	r2, [r3, #57]
2030:Drivers/STM32F3xx_HAL_Driver/Src/stm32f3xx_hal_tim.c ****   
2031:Drivers/STM32F3xx_HAL_Driver/Src/stm32f3xx_hal_tim.c ****   /* Release Lock */
2032:Drivers/STM32F3xx_HAL_Driver/Src/stm32f3xx_hal_tim.c ****   __HAL_UNLOCK(htim);
 4478              		.loc 1 2032 0
 4479 004e 7B68     		ldr	r3, [r7, #4]
 4480 0050 0022     		movs	r2, #0
 4481 0052 83F83820 		strb	r2, [r3, #56]
2033:Drivers/STM32F3xx_HAL_Driver/Src/stm32f3xx_hal_tim.c **** 
2034:Drivers/STM32F3xx_HAL_Driver/Src/stm32f3xx_hal_tim.c ****   return HAL_OK;
 4482              		.loc 1 2034 0
 4483 0056 0023     		movs	r3, #0
2035:Drivers/STM32F3xx_HAL_Driver/Src/stm32f3xx_hal_tim.c **** }
 4484              		.loc 1 2035 0
 4485 0058 1846     		mov	r0, r3
 4486 005a 0837     		adds	r7, r7, #8
 4487 005c BD46     		mov	sp, r7
 4488              		@ sp needed
 4489 005e 80BD     		pop	{r7, pc}
ARM GAS  /tmp/ccZyKULX.s 			page 114


 4490              		.cfi_endproc
 4491              	.LFE166:
 4493              		.section	.text.HAL_TIM_OnePulse_MspInit,"ax",%progbits
 4494              		.align	2
 4495              		.weak	HAL_TIM_OnePulse_MspInit
 4496              		.thumb
 4497              		.thumb_func
 4499              	HAL_TIM_OnePulse_MspInit:
 4500              	.LFB167:
2036:Drivers/STM32F3xx_HAL_Driver/Src/stm32f3xx_hal_tim.c **** 
2037:Drivers/STM32F3xx_HAL_Driver/Src/stm32f3xx_hal_tim.c **** /**
2038:Drivers/STM32F3xx_HAL_Driver/Src/stm32f3xx_hal_tim.c ****   * @brief  Initializes the TIM One Pulse MSP.
2039:Drivers/STM32F3xx_HAL_Driver/Src/stm32f3xx_hal_tim.c ****   * @param  htim: TIM handle
2040:Drivers/STM32F3xx_HAL_Driver/Src/stm32f3xx_hal_tim.c ****   * @retval None
2041:Drivers/STM32F3xx_HAL_Driver/Src/stm32f3xx_hal_tim.c ****   */
2042:Drivers/STM32F3xx_HAL_Driver/Src/stm32f3xx_hal_tim.c **** __weak void HAL_TIM_OnePulse_MspInit(TIM_HandleTypeDef *htim)
2043:Drivers/STM32F3xx_HAL_Driver/Src/stm32f3xx_hal_tim.c **** {
 4501              		.loc 1 2043 0
 4502              		.cfi_startproc
 4503              		@ args = 0, pretend = 0, frame = 8
 4504              		@ frame_needed = 1, uses_anonymous_args = 0
 4505              		@ link register save eliminated.
 4506 0000 80B4     		push	{r7}
 4507              	.LCFI126:
 4508              		.cfi_def_cfa_offset 4
 4509              		.cfi_offset 7, -4
 4510 0002 83B0     		sub	sp, sp, #12
 4511              	.LCFI127:
 4512              		.cfi_def_cfa_offset 16
 4513 0004 00AF     		add	r7, sp, #0
 4514              	.LCFI128:
 4515              		.cfi_def_cfa_register 7
 4516 0006 7860     		str	r0, [r7, #4]
2044:Drivers/STM32F3xx_HAL_Driver/Src/stm32f3xx_hal_tim.c ****   /* Prevent unused argument(s) compilation warning */
2045:Drivers/STM32F3xx_HAL_Driver/Src/stm32f3xx_hal_tim.c ****   UNUSED(htim);
2046:Drivers/STM32F3xx_HAL_Driver/Src/stm32f3xx_hal_tim.c **** 
2047:Drivers/STM32F3xx_HAL_Driver/Src/stm32f3xx_hal_tim.c ****   /* NOTE : This function Should not be modified, when the callback is needed,
2048:Drivers/STM32F3xx_HAL_Driver/Src/stm32f3xx_hal_tim.c ****             the HAL_TIM_OnePulse_MspInit could be implemented in the user file
2049:Drivers/STM32F3xx_HAL_Driver/Src/stm32f3xx_hal_tim.c ****    */
2050:Drivers/STM32F3xx_HAL_Driver/Src/stm32f3xx_hal_tim.c **** }
 4517              		.loc 1 2050 0
 4518 0008 0C37     		adds	r7, r7, #12
 4519 000a BD46     		mov	sp, r7
 4520              		@ sp needed
 4521 000c 5DF8047B 		ldr	r7, [sp], #4
 4522 0010 7047     		bx	lr
 4523              		.cfi_endproc
 4524              	.LFE167:
 4526 0012 00BF     		.section	.text.HAL_TIM_OnePulse_MspDeInit,"ax",%progbits
 4527              		.align	2
 4528              		.weak	HAL_TIM_OnePulse_MspDeInit
 4529              		.thumb
 4530              		.thumb_func
 4532              	HAL_TIM_OnePulse_MspDeInit:
 4533              	.LFB168:
2051:Drivers/STM32F3xx_HAL_Driver/Src/stm32f3xx_hal_tim.c **** 
2052:Drivers/STM32F3xx_HAL_Driver/Src/stm32f3xx_hal_tim.c **** /**
ARM GAS  /tmp/ccZyKULX.s 			page 115


2053:Drivers/STM32F3xx_HAL_Driver/Src/stm32f3xx_hal_tim.c ****   * @brief  DeInitializes TIM One Pulse MSP.
2054:Drivers/STM32F3xx_HAL_Driver/Src/stm32f3xx_hal_tim.c ****   * @param  htim: TIM handle
2055:Drivers/STM32F3xx_HAL_Driver/Src/stm32f3xx_hal_tim.c ****   * @retval None
2056:Drivers/STM32F3xx_HAL_Driver/Src/stm32f3xx_hal_tim.c ****   */
2057:Drivers/STM32F3xx_HAL_Driver/Src/stm32f3xx_hal_tim.c **** __weak void HAL_TIM_OnePulse_MspDeInit(TIM_HandleTypeDef *htim)
2058:Drivers/STM32F3xx_HAL_Driver/Src/stm32f3xx_hal_tim.c **** {
 4534              		.loc 1 2058 0
 4535              		.cfi_startproc
 4536              		@ args = 0, pretend = 0, frame = 8
 4537              		@ frame_needed = 1, uses_anonymous_args = 0
 4538              		@ link register save eliminated.
 4539 0000 80B4     		push	{r7}
 4540              	.LCFI129:
 4541              		.cfi_def_cfa_offset 4
 4542              		.cfi_offset 7, -4
 4543 0002 83B0     		sub	sp, sp, #12
 4544              	.LCFI130:
 4545              		.cfi_def_cfa_offset 16
 4546 0004 00AF     		add	r7, sp, #0
 4547              	.LCFI131:
 4548              		.cfi_def_cfa_register 7
 4549 0006 7860     		str	r0, [r7, #4]
2059:Drivers/STM32F3xx_HAL_Driver/Src/stm32f3xx_hal_tim.c ****   /* Prevent unused argument(s) compilation warning */
2060:Drivers/STM32F3xx_HAL_Driver/Src/stm32f3xx_hal_tim.c ****   UNUSED(htim);
2061:Drivers/STM32F3xx_HAL_Driver/Src/stm32f3xx_hal_tim.c **** 
2062:Drivers/STM32F3xx_HAL_Driver/Src/stm32f3xx_hal_tim.c ****   /* NOTE : This function Should not be modified, when the callback is needed,
2063:Drivers/STM32F3xx_HAL_Driver/Src/stm32f3xx_hal_tim.c ****             the HAL_TIM_OnePulse_MspDeInit could be implemented in the user file
2064:Drivers/STM32F3xx_HAL_Driver/Src/stm32f3xx_hal_tim.c ****    */
2065:Drivers/STM32F3xx_HAL_Driver/Src/stm32f3xx_hal_tim.c **** }
 4550              		.loc 1 2065 0
 4551 0008 0C37     		adds	r7, r7, #12
 4552 000a BD46     		mov	sp, r7
 4553              		@ sp needed
 4554 000c 5DF8047B 		ldr	r7, [sp], #4
 4555 0010 7047     		bx	lr
 4556              		.cfi_endproc
 4557              	.LFE168:
 4559 0012 00BF     		.section	.text.HAL_TIM_OnePulse_Start,"ax",%progbits
 4560              		.align	2
 4561              		.global	HAL_TIM_OnePulse_Start
 4562              		.thumb
 4563              		.thumb_func
 4565              	HAL_TIM_OnePulse_Start:
 4566              	.LFB169:
2066:Drivers/STM32F3xx_HAL_Driver/Src/stm32f3xx_hal_tim.c **** 
2067:Drivers/STM32F3xx_HAL_Driver/Src/stm32f3xx_hal_tim.c **** /**
2068:Drivers/STM32F3xx_HAL_Driver/Src/stm32f3xx_hal_tim.c ****   * @brief  Starts the TIM One Pulse signal generation.
2069:Drivers/STM32F3xx_HAL_Driver/Src/stm32f3xx_hal_tim.c ****   * @param  htim: TIM One Pulse handle
2070:Drivers/STM32F3xx_HAL_Driver/Src/stm32f3xx_hal_tim.c ****   * @param  OutputChannel: TIM Channels to be enabled
2071:Drivers/STM32F3xx_HAL_Driver/Src/stm32f3xx_hal_tim.c ****   *          This parameter can be one of the following values:
2072:Drivers/STM32F3xx_HAL_Driver/Src/stm32f3xx_hal_tim.c ****   *            @arg TIM_CHANNEL_1: TIM Channel 1 selected
2073:Drivers/STM32F3xx_HAL_Driver/Src/stm32f3xx_hal_tim.c ****   *            @arg TIM_CHANNEL_2: TIM Channel 2 selected
2074:Drivers/STM32F3xx_HAL_Driver/Src/stm32f3xx_hal_tim.c ****   * @retval HAL status
2075:Drivers/STM32F3xx_HAL_Driver/Src/stm32f3xx_hal_tim.c **** */
2076:Drivers/STM32F3xx_HAL_Driver/Src/stm32f3xx_hal_tim.c **** HAL_StatusTypeDef HAL_TIM_OnePulse_Start(TIM_HandleTypeDef *htim, uint32_t OutputChannel)
2077:Drivers/STM32F3xx_HAL_Driver/Src/stm32f3xx_hal_tim.c **** {
 4567              		.loc 1 2077 0
ARM GAS  /tmp/ccZyKULX.s 			page 116


 4568              		.cfi_startproc
 4569              		@ args = 0, pretend = 0, frame = 8
 4570              		@ frame_needed = 1, uses_anonymous_args = 0
 4571 0000 80B5     		push	{r7, lr}
 4572              	.LCFI132:
 4573              		.cfi_def_cfa_offset 8
 4574              		.cfi_offset 7, -8
 4575              		.cfi_offset 14, -4
 4576 0002 82B0     		sub	sp, sp, #8
 4577              	.LCFI133:
 4578              		.cfi_def_cfa_offset 16
 4579 0004 00AF     		add	r7, sp, #0
 4580              	.LCFI134:
 4581              		.cfi_def_cfa_register 7
 4582 0006 7860     		str	r0, [r7, #4]
 4583 0008 3960     		str	r1, [r7]
2078:Drivers/STM32F3xx_HAL_Driver/Src/stm32f3xx_hal_tim.c ****   /* Enable the Capture compare and the Input Capture channels 
2079:Drivers/STM32F3xx_HAL_Driver/Src/stm32f3xx_hal_tim.c ****     (in the OPM Mode the two possible channels that can be used are TIM_CHANNEL_1 and TIM_CHANNEL_2
2080:Drivers/STM32F3xx_HAL_Driver/Src/stm32f3xx_hal_tim.c ****     if TIM_CHANNEL_1 is used as output, the TIM_CHANNEL_2 will be used as input and
2081:Drivers/STM32F3xx_HAL_Driver/Src/stm32f3xx_hal_tim.c ****     if TIM_CHANNEL_1 is used as input, the TIM_CHANNEL_2 will be used as output 
2082:Drivers/STM32F3xx_HAL_Driver/Src/stm32f3xx_hal_tim.c ****     in all combinations, the TIM_CHANNEL_1 and TIM_CHANNEL_2 should be enabled together 
2083:Drivers/STM32F3xx_HAL_Driver/Src/stm32f3xx_hal_tim.c ****     
2084:Drivers/STM32F3xx_HAL_Driver/Src/stm32f3xx_hal_tim.c ****     No need to enable the counter, it's enabled automatically by hardware 
2085:Drivers/STM32F3xx_HAL_Driver/Src/stm32f3xx_hal_tim.c ****     (the counter starts in response to a stimulus and generate a pulse */
2086:Drivers/STM32F3xx_HAL_Driver/Src/stm32f3xx_hal_tim.c ****   
2087:Drivers/STM32F3xx_HAL_Driver/Src/stm32f3xx_hal_tim.c ****   TIM_CCxChannelCmd(htim->Instance, TIM_CHANNEL_1, TIM_CCx_ENABLE); 
 4584              		.loc 1 2087 0
 4585 000a 7B68     		ldr	r3, [r7, #4]
 4586 000c 1B68     		ldr	r3, [r3]
 4587 000e 1846     		mov	r0, r3
 4588 0010 0021     		movs	r1, #0
 4589 0012 0122     		movs	r2, #1
 4590 0014 FFF7FEFF 		bl	TIM_CCxChannelCmd
2088:Drivers/STM32F3xx_HAL_Driver/Src/stm32f3xx_hal_tim.c ****   TIM_CCxChannelCmd(htim->Instance, TIM_CHANNEL_2, TIM_CCx_ENABLE); 
 4591              		.loc 1 2088 0
 4592 0018 7B68     		ldr	r3, [r7, #4]
 4593 001a 1B68     		ldr	r3, [r3]
 4594 001c 1846     		mov	r0, r3
 4595 001e 0421     		movs	r1, #4
 4596 0020 0122     		movs	r2, #1
 4597 0022 FFF7FEFF 		bl	TIM_CCxChannelCmd
2089:Drivers/STM32F3xx_HAL_Driver/Src/stm32f3xx_hal_tim.c ****   
2090:Drivers/STM32F3xx_HAL_Driver/Src/stm32f3xx_hal_tim.c ****   if(IS_TIM_BREAK_INSTANCE(htim->Instance) != RESET)  
 4598              		.loc 1 2090 0
 4599 0026 7B68     		ldr	r3, [r7, #4]
 4600 0028 1A68     		ldr	r2, [r3]
 4601 002a 144B     		ldr	r3, .L296
 4602 002c 9A42     		cmp	r2, r3
 4603 002e 13D0     		beq	.L291
 4604              		.loc 1 2090 0 is_stmt 0 discriminator 2
 4605 0030 7B68     		ldr	r3, [r7, #4]
 4606 0032 1A68     		ldr	r2, [r3]
 4607 0034 124B     		ldr	r3, .L296+4
 4608 0036 9A42     		cmp	r2, r3
 4609 0038 0ED0     		beq	.L291
 4610              		.loc 1 2090 0 discriminator 1
 4611 003a 7B68     		ldr	r3, [r7, #4]
ARM GAS  /tmp/ccZyKULX.s 			page 117


 4612 003c 1A68     		ldr	r2, [r3]
 4613 003e 114B     		ldr	r3, .L296+8
 4614 0040 9A42     		cmp	r2, r3
 4615 0042 09D0     		beq	.L291
 4616 0044 7B68     		ldr	r3, [r7, #4]
 4617 0046 1A68     		ldr	r2, [r3]
 4618 0048 0F4B     		ldr	r3, .L296+12
 4619 004a 9A42     		cmp	r2, r3
 4620 004c 04D0     		beq	.L291
 4621 004e 7B68     		ldr	r3, [r7, #4]
 4622 0050 1A68     		ldr	r2, [r3]
 4623 0052 0E4B     		ldr	r3, .L296+16
 4624 0054 9A42     		cmp	r2, r3
 4625 0056 01D1     		bne	.L292
 4626              	.L291:
 4627 0058 0123     		movs	r3, #1
 4628 005a 00E0     		b	.L293
 4629              	.L292:
 4630              		.loc 1 2090 0 discriminator 3
 4631 005c 0023     		movs	r3, #0
 4632              	.L293:
 4633              		.loc 1 2090 0 discriminator 4
 4634 005e 002B     		cmp	r3, #0
 4635 0060 07D0     		beq	.L294
2091:Drivers/STM32F3xx_HAL_Driver/Src/stm32f3xx_hal_tim.c ****   {
2092:Drivers/STM32F3xx_HAL_Driver/Src/stm32f3xx_hal_tim.c ****     /* Enable the main output */
2093:Drivers/STM32F3xx_HAL_Driver/Src/stm32f3xx_hal_tim.c ****     __HAL_TIM_MOE_ENABLE(htim);
 4636              		.loc 1 2093 0 is_stmt 1
 4637 0062 7B68     		ldr	r3, [r7, #4]
 4638 0064 1B68     		ldr	r3, [r3]
 4639 0066 7A68     		ldr	r2, [r7, #4]
 4640 0068 1268     		ldr	r2, [r2]
 4641 006a 526C     		ldr	r2, [r2, #68]
 4642 006c 42F40042 		orr	r2, r2, #32768
 4643 0070 5A64     		str	r2, [r3, #68]
 4644              	.L294:
2094:Drivers/STM32F3xx_HAL_Driver/Src/stm32f3xx_hal_tim.c ****   }
2095:Drivers/STM32F3xx_HAL_Driver/Src/stm32f3xx_hal_tim.c ****   
2096:Drivers/STM32F3xx_HAL_Driver/Src/stm32f3xx_hal_tim.c ****   /* Return function status */
2097:Drivers/STM32F3xx_HAL_Driver/Src/stm32f3xx_hal_tim.c ****   return HAL_OK;
 4645              		.loc 1 2097 0
 4646 0072 0023     		movs	r3, #0
2098:Drivers/STM32F3xx_HAL_Driver/Src/stm32f3xx_hal_tim.c **** }
 4647              		.loc 1 2098 0
 4648 0074 1846     		mov	r0, r3
 4649 0076 0837     		adds	r7, r7, #8
 4650 0078 BD46     		mov	sp, r7
 4651              		@ sp needed
 4652 007a 80BD     		pop	{r7, pc}
 4653              	.L297:
 4654              		.align	2
 4655              	.L296:
 4656 007c 002C0140 		.word	1073818624
 4657 0080 00340140 		.word	1073820672
 4658 0084 00400140 		.word	1073823744
 4659 0088 00440140 		.word	1073824768
 4660 008c 00480140 		.word	1073825792
ARM GAS  /tmp/ccZyKULX.s 			page 118


 4661              		.cfi_endproc
 4662              	.LFE169:
 4664              		.section	.text.HAL_TIM_OnePulse_Stop,"ax",%progbits
 4665              		.align	2
 4666              		.global	HAL_TIM_OnePulse_Stop
 4667              		.thumb
 4668              		.thumb_func
 4670              	HAL_TIM_OnePulse_Stop:
 4671              	.LFB170:
2099:Drivers/STM32F3xx_HAL_Driver/Src/stm32f3xx_hal_tim.c **** 
2100:Drivers/STM32F3xx_HAL_Driver/Src/stm32f3xx_hal_tim.c **** /**
2101:Drivers/STM32F3xx_HAL_Driver/Src/stm32f3xx_hal_tim.c ****   * @brief  Stops the TIM One Pulse signal generation.
2102:Drivers/STM32F3xx_HAL_Driver/Src/stm32f3xx_hal_tim.c ****   * @param  htim: TIM One Pulse handle
2103:Drivers/STM32F3xx_HAL_Driver/Src/stm32f3xx_hal_tim.c ****   * @param  OutputChannel: TIM Channels to be disable
2104:Drivers/STM32F3xx_HAL_Driver/Src/stm32f3xx_hal_tim.c ****   *          This parameter can be one of the following values:
2105:Drivers/STM32F3xx_HAL_Driver/Src/stm32f3xx_hal_tim.c ****   *            @arg TIM_CHANNEL_1: TIM Channel 1 selected
2106:Drivers/STM32F3xx_HAL_Driver/Src/stm32f3xx_hal_tim.c ****   *            @arg TIM_CHANNEL_2: TIM Channel 2 selected
2107:Drivers/STM32F3xx_HAL_Driver/Src/stm32f3xx_hal_tim.c ****   * @retval HAL status
2108:Drivers/STM32F3xx_HAL_Driver/Src/stm32f3xx_hal_tim.c **** */
2109:Drivers/STM32F3xx_HAL_Driver/Src/stm32f3xx_hal_tim.c **** HAL_StatusTypeDef HAL_TIM_OnePulse_Stop(TIM_HandleTypeDef *htim, uint32_t OutputChannel)
2110:Drivers/STM32F3xx_HAL_Driver/Src/stm32f3xx_hal_tim.c **** {
 4672              		.loc 1 2110 0
 4673              		.cfi_startproc
 4674              		@ args = 0, pretend = 0, frame = 8
 4675              		@ frame_needed = 1, uses_anonymous_args = 0
 4676 0000 80B5     		push	{r7, lr}
 4677              	.LCFI135:
 4678              		.cfi_def_cfa_offset 8
 4679              		.cfi_offset 7, -8
 4680              		.cfi_offset 14, -4
 4681 0002 82B0     		sub	sp, sp, #8
 4682              	.LCFI136:
 4683              		.cfi_def_cfa_offset 16
 4684 0004 00AF     		add	r7, sp, #0
 4685              	.LCFI137:
 4686              		.cfi_def_cfa_register 7
 4687 0006 7860     		str	r0, [r7, #4]
 4688 0008 3960     		str	r1, [r7]
2111:Drivers/STM32F3xx_HAL_Driver/Src/stm32f3xx_hal_tim.c ****   /* Disable the Capture compare and the Input Capture channels 
2112:Drivers/STM32F3xx_HAL_Driver/Src/stm32f3xx_hal_tim.c ****   (in the OPM Mode the two possible channels that can be used are TIM_CHANNEL_1 and TIM_CHANNEL_2)
2113:Drivers/STM32F3xx_HAL_Driver/Src/stm32f3xx_hal_tim.c ****   if TIM_CHANNEL_1 is used as output, the TIM_CHANNEL_2 will be used as input and
2114:Drivers/STM32F3xx_HAL_Driver/Src/stm32f3xx_hal_tim.c ****   if TIM_CHANNEL_1 is used as input, the TIM_CHANNEL_2 will be used as output 
2115:Drivers/STM32F3xx_HAL_Driver/Src/stm32f3xx_hal_tim.c ****   in all combinations, the TIM_CHANNEL_1 and TIM_CHANNEL_2 should be disabled together */
2116:Drivers/STM32F3xx_HAL_Driver/Src/stm32f3xx_hal_tim.c ****   
2117:Drivers/STM32F3xx_HAL_Driver/Src/stm32f3xx_hal_tim.c ****   TIM_CCxChannelCmd(htim->Instance, TIM_CHANNEL_1, TIM_CCx_DISABLE); 
 4689              		.loc 1 2117 0
 4690 000a 7B68     		ldr	r3, [r7, #4]
 4691 000c 1B68     		ldr	r3, [r3]
 4692 000e 1846     		mov	r0, r3
 4693 0010 0021     		movs	r1, #0
 4694 0012 0022     		movs	r2, #0
 4695 0014 FFF7FEFF 		bl	TIM_CCxChannelCmd
2118:Drivers/STM32F3xx_HAL_Driver/Src/stm32f3xx_hal_tim.c ****   TIM_CCxChannelCmd(htim->Instance, TIM_CHANNEL_2, TIM_CCx_DISABLE); 
 4696              		.loc 1 2118 0
 4697 0018 7B68     		ldr	r3, [r7, #4]
 4698 001a 1B68     		ldr	r3, [r3]
 4699 001c 1846     		mov	r0, r3
ARM GAS  /tmp/ccZyKULX.s 			page 119


 4700 001e 0421     		movs	r1, #4
 4701 0020 0022     		movs	r2, #0
 4702 0022 FFF7FEFF 		bl	TIM_CCxChannelCmd
2119:Drivers/STM32F3xx_HAL_Driver/Src/stm32f3xx_hal_tim.c ****     
2120:Drivers/STM32F3xx_HAL_Driver/Src/stm32f3xx_hal_tim.c ****   if(IS_TIM_BREAK_INSTANCE(htim->Instance) != RESET)  
 4703              		.loc 1 2120 0
 4704 0026 7B68     		ldr	r3, [r7, #4]
 4705 0028 1A68     		ldr	r2, [r3]
 4706 002a 284B     		ldr	r3, .L305
 4707 002c 9A42     		cmp	r2, r3
 4708 002e 13D0     		beq	.L299
 4709              		.loc 1 2120 0 is_stmt 0 discriminator 2
 4710 0030 7B68     		ldr	r3, [r7, #4]
 4711 0032 1A68     		ldr	r2, [r3]
 4712 0034 264B     		ldr	r3, .L305+4
 4713 0036 9A42     		cmp	r2, r3
 4714 0038 0ED0     		beq	.L299
 4715              		.loc 1 2120 0 discriminator 1
 4716 003a 7B68     		ldr	r3, [r7, #4]
 4717 003c 1A68     		ldr	r2, [r3]
 4718 003e 254B     		ldr	r3, .L305+8
 4719 0040 9A42     		cmp	r2, r3
 4720 0042 09D0     		beq	.L299
 4721 0044 7B68     		ldr	r3, [r7, #4]
 4722 0046 1A68     		ldr	r2, [r3]
 4723 0048 234B     		ldr	r3, .L305+12
 4724 004a 9A42     		cmp	r2, r3
 4725 004c 04D0     		beq	.L299
 4726 004e 7B68     		ldr	r3, [r7, #4]
 4727 0050 1A68     		ldr	r2, [r3]
 4728 0052 224B     		ldr	r3, .L305+16
 4729 0054 9A42     		cmp	r2, r3
 4730 0056 01D1     		bne	.L300
 4731              	.L299:
 4732 0058 0123     		movs	r3, #1
 4733 005a 00E0     		b	.L301
 4734              	.L300:
 4735              		.loc 1 2120 0 discriminator 3
 4736 005c 0023     		movs	r3, #0
 4737              	.L301:
 4738              		.loc 1 2120 0 discriminator 4
 4739 005e 002B     		cmp	r3, #0
 4740 0060 17D0     		beq	.L302
2121:Drivers/STM32F3xx_HAL_Driver/Src/stm32f3xx_hal_tim.c ****   {
2122:Drivers/STM32F3xx_HAL_Driver/Src/stm32f3xx_hal_tim.c ****     /* Disable the Main Ouput */
2123:Drivers/STM32F3xx_HAL_Driver/Src/stm32f3xx_hal_tim.c ****     __HAL_TIM_MOE_DISABLE(htim);
 4741              		.loc 1 2123 0 is_stmt 1
 4742 0062 7B68     		ldr	r3, [r7, #4]
 4743 0064 1B68     		ldr	r3, [r3]
 4744 0066 1A6A     		ldr	r2, [r3, #32]
 4745 0068 41F21113 		movw	r3, #4369
 4746 006c 1340     		ands	r3, r3, r2
 4747 006e 002B     		cmp	r3, #0
 4748 0070 0FD1     		bne	.L302
 4749              		.loc 1 2123 0 is_stmt 0 discriminator 1
 4750 0072 7B68     		ldr	r3, [r7, #4]
 4751 0074 1B68     		ldr	r3, [r3]
ARM GAS  /tmp/ccZyKULX.s 			page 120


 4752 0076 1A6A     		ldr	r2, [r3, #32]
 4753 0078 40F24443 		movw	r3, #1092
 4754 007c 1340     		ands	r3, r3, r2
 4755 007e 002B     		cmp	r3, #0
 4756 0080 07D1     		bne	.L302
 4757 0082 7B68     		ldr	r3, [r7, #4]
 4758 0084 1B68     		ldr	r3, [r3]
 4759 0086 7A68     		ldr	r2, [r7, #4]
 4760 0088 1268     		ldr	r2, [r2]
 4761 008a 526C     		ldr	r2, [r2, #68]
 4762 008c 22F40042 		bic	r2, r2, #32768
 4763 0090 5A64     		str	r2, [r3, #68]
 4764              	.L302:
2124:Drivers/STM32F3xx_HAL_Driver/Src/stm32f3xx_hal_tim.c ****   }
2125:Drivers/STM32F3xx_HAL_Driver/Src/stm32f3xx_hal_tim.c ****     
2126:Drivers/STM32F3xx_HAL_Driver/Src/stm32f3xx_hal_tim.c ****   /* Disable the Peripheral */
2127:Drivers/STM32F3xx_HAL_Driver/Src/stm32f3xx_hal_tim.c ****   __HAL_TIM_DISABLE(htim); 
 4765              		.loc 1 2127 0 is_stmt 1
 4766 0092 7B68     		ldr	r3, [r7, #4]
 4767 0094 1B68     		ldr	r3, [r3]
 4768 0096 1A6A     		ldr	r2, [r3, #32]
 4769 0098 41F21113 		movw	r3, #4369
 4770 009c 1340     		ands	r3, r3, r2
 4771 009e 002B     		cmp	r3, #0
 4772 00a0 0FD1     		bne	.L303
 4773              		.loc 1 2127 0 is_stmt 0 discriminator 1
 4774 00a2 7B68     		ldr	r3, [r7, #4]
 4775 00a4 1B68     		ldr	r3, [r3]
 4776 00a6 1A6A     		ldr	r2, [r3, #32]
 4777 00a8 40F24443 		movw	r3, #1092
 4778 00ac 1340     		ands	r3, r3, r2
 4779 00ae 002B     		cmp	r3, #0
 4780 00b0 07D1     		bne	.L303
 4781 00b2 7B68     		ldr	r3, [r7, #4]
 4782 00b4 1B68     		ldr	r3, [r3]
 4783 00b6 7A68     		ldr	r2, [r7, #4]
 4784 00b8 1268     		ldr	r2, [r2]
 4785 00ba 1268     		ldr	r2, [r2]
 4786 00bc 22F00102 		bic	r2, r2, #1
 4787 00c0 1A60     		str	r2, [r3]
 4788              	.L303:
2128:Drivers/STM32F3xx_HAL_Driver/Src/stm32f3xx_hal_tim.c ****   
2129:Drivers/STM32F3xx_HAL_Driver/Src/stm32f3xx_hal_tim.c ****   /* Return function status */
2130:Drivers/STM32F3xx_HAL_Driver/Src/stm32f3xx_hal_tim.c ****   return HAL_OK;
 4789              		.loc 1 2130 0 is_stmt 1
 4790 00c2 0023     		movs	r3, #0
2131:Drivers/STM32F3xx_HAL_Driver/Src/stm32f3xx_hal_tim.c **** }
 4791              		.loc 1 2131 0
 4792 00c4 1846     		mov	r0, r3
 4793 00c6 0837     		adds	r7, r7, #8
 4794 00c8 BD46     		mov	sp, r7
 4795              		@ sp needed
 4796 00ca 80BD     		pop	{r7, pc}
 4797              	.L306:
 4798              		.align	2
 4799              	.L305:
 4800 00cc 002C0140 		.word	1073818624
ARM GAS  /tmp/ccZyKULX.s 			page 121


 4801 00d0 00340140 		.word	1073820672
 4802 00d4 00400140 		.word	1073823744
 4803 00d8 00440140 		.word	1073824768
 4804 00dc 00480140 		.word	1073825792
 4805              		.cfi_endproc
 4806              	.LFE170:
 4808              		.section	.text.HAL_TIM_OnePulse_Start_IT,"ax",%progbits
 4809              		.align	2
 4810              		.global	HAL_TIM_OnePulse_Start_IT
 4811              		.thumb
 4812              		.thumb_func
 4814              	HAL_TIM_OnePulse_Start_IT:
 4815              	.LFB171:
2132:Drivers/STM32F3xx_HAL_Driver/Src/stm32f3xx_hal_tim.c **** 
2133:Drivers/STM32F3xx_HAL_Driver/Src/stm32f3xx_hal_tim.c **** /**
2134:Drivers/STM32F3xx_HAL_Driver/Src/stm32f3xx_hal_tim.c ****   * @brief  Starts the TIM One Pulse signal generation in interrupt mode.
2135:Drivers/STM32F3xx_HAL_Driver/Src/stm32f3xx_hal_tim.c ****   * @param  htim: TIM One Pulse handle
2136:Drivers/STM32F3xx_HAL_Driver/Src/stm32f3xx_hal_tim.c ****   * @param  OutputChannel: TIM Channels to be enabled
2137:Drivers/STM32F3xx_HAL_Driver/Src/stm32f3xx_hal_tim.c ****   *          This parameter can be one of the following values:
2138:Drivers/STM32F3xx_HAL_Driver/Src/stm32f3xx_hal_tim.c ****   *            @arg TIM_CHANNEL_1: TIM Channel 1 selected
2139:Drivers/STM32F3xx_HAL_Driver/Src/stm32f3xx_hal_tim.c ****   *            @arg TIM_CHANNEL_2: TIM Channel 2 selected
2140:Drivers/STM32F3xx_HAL_Driver/Src/stm32f3xx_hal_tim.c ****   * @retval HAL status
2141:Drivers/STM32F3xx_HAL_Driver/Src/stm32f3xx_hal_tim.c **** */
2142:Drivers/STM32F3xx_HAL_Driver/Src/stm32f3xx_hal_tim.c **** HAL_StatusTypeDef HAL_TIM_OnePulse_Start_IT(TIM_HandleTypeDef *htim, uint32_t OutputChannel)
2143:Drivers/STM32F3xx_HAL_Driver/Src/stm32f3xx_hal_tim.c **** {
 4816              		.loc 1 2143 0
 4817              		.cfi_startproc
 4818              		@ args = 0, pretend = 0, frame = 8
 4819              		@ frame_needed = 1, uses_anonymous_args = 0
 4820 0000 80B5     		push	{r7, lr}
 4821              	.LCFI138:
 4822              		.cfi_def_cfa_offset 8
 4823              		.cfi_offset 7, -8
 4824              		.cfi_offset 14, -4
 4825 0002 82B0     		sub	sp, sp, #8
 4826              	.LCFI139:
 4827              		.cfi_def_cfa_offset 16
 4828 0004 00AF     		add	r7, sp, #0
 4829              	.LCFI140:
 4830              		.cfi_def_cfa_register 7
 4831 0006 7860     		str	r0, [r7, #4]
 4832 0008 3960     		str	r1, [r7]
2144:Drivers/STM32F3xx_HAL_Driver/Src/stm32f3xx_hal_tim.c ****   /* Enable the Capture compare and the Input Capture channels 
2145:Drivers/STM32F3xx_HAL_Driver/Src/stm32f3xx_hal_tim.c ****     (in the OPM Mode the two possible channels that can be used are TIM_CHANNEL_1 and TIM_CHANNEL_2
2146:Drivers/STM32F3xx_HAL_Driver/Src/stm32f3xx_hal_tim.c ****     if TIM_CHANNEL_1 is used as output, the TIM_CHANNEL_2 will be used as input and
2147:Drivers/STM32F3xx_HAL_Driver/Src/stm32f3xx_hal_tim.c ****     if TIM_CHANNEL_1 is used as input, the TIM_CHANNEL_2 will be used as output 
2148:Drivers/STM32F3xx_HAL_Driver/Src/stm32f3xx_hal_tim.c ****     in all combinations, the TIM_CHANNEL_1 and TIM_CHANNEL_2 should be enabled together 
2149:Drivers/STM32F3xx_HAL_Driver/Src/stm32f3xx_hal_tim.c ****     
2150:Drivers/STM32F3xx_HAL_Driver/Src/stm32f3xx_hal_tim.c ****     No need to enable the counter, it's enabled automatically by hardware 
2151:Drivers/STM32F3xx_HAL_Driver/Src/stm32f3xx_hal_tim.c ****     (the counter starts in response to a stimulus and generate a pulse */
2152:Drivers/STM32F3xx_HAL_Driver/Src/stm32f3xx_hal_tim.c ****  
2153:Drivers/STM32F3xx_HAL_Driver/Src/stm32f3xx_hal_tim.c ****   /* Enable the TIM Capture/Compare 1 interrupt */
2154:Drivers/STM32F3xx_HAL_Driver/Src/stm32f3xx_hal_tim.c ****   __HAL_TIM_ENABLE_IT(htim, TIM_IT_CC1);
 4833              		.loc 1 2154 0
 4834 000a 7B68     		ldr	r3, [r7, #4]
 4835 000c 1B68     		ldr	r3, [r3]
 4836 000e 7A68     		ldr	r2, [r7, #4]
ARM GAS  /tmp/ccZyKULX.s 			page 122


 4837 0010 1268     		ldr	r2, [r2]
 4838 0012 D268     		ldr	r2, [r2, #12]
 4839 0014 42F00202 		orr	r2, r2, #2
 4840 0018 DA60     		str	r2, [r3, #12]
2155:Drivers/STM32F3xx_HAL_Driver/Src/stm32f3xx_hal_tim.c ****   
2156:Drivers/STM32F3xx_HAL_Driver/Src/stm32f3xx_hal_tim.c ****   /* Enable the TIM Capture/Compare 2 interrupt */
2157:Drivers/STM32F3xx_HAL_Driver/Src/stm32f3xx_hal_tim.c ****   __HAL_TIM_ENABLE_IT(htim, TIM_IT_CC2);
 4841              		.loc 1 2157 0
 4842 001a 7B68     		ldr	r3, [r7, #4]
 4843 001c 1B68     		ldr	r3, [r3]
 4844 001e 7A68     		ldr	r2, [r7, #4]
 4845 0020 1268     		ldr	r2, [r2]
 4846 0022 D268     		ldr	r2, [r2, #12]
 4847 0024 42F00402 		orr	r2, r2, #4
 4848 0028 DA60     		str	r2, [r3, #12]
2158:Drivers/STM32F3xx_HAL_Driver/Src/stm32f3xx_hal_tim.c ****   
2159:Drivers/STM32F3xx_HAL_Driver/Src/stm32f3xx_hal_tim.c ****   TIM_CCxChannelCmd(htim->Instance, TIM_CHANNEL_1, TIM_CCx_ENABLE); 
 4849              		.loc 1 2159 0
 4850 002a 7B68     		ldr	r3, [r7, #4]
 4851 002c 1B68     		ldr	r3, [r3]
 4852 002e 1846     		mov	r0, r3
 4853 0030 0021     		movs	r1, #0
 4854 0032 0122     		movs	r2, #1
 4855 0034 FFF7FEFF 		bl	TIM_CCxChannelCmd
2160:Drivers/STM32F3xx_HAL_Driver/Src/stm32f3xx_hal_tim.c ****   TIM_CCxChannelCmd(htim->Instance, TIM_CHANNEL_2, TIM_CCx_ENABLE); 
 4856              		.loc 1 2160 0
 4857 0038 7B68     		ldr	r3, [r7, #4]
 4858 003a 1B68     		ldr	r3, [r3]
 4859 003c 1846     		mov	r0, r3
 4860 003e 0421     		movs	r1, #4
 4861 0040 0122     		movs	r2, #1
 4862 0042 FFF7FEFF 		bl	TIM_CCxChannelCmd
2161:Drivers/STM32F3xx_HAL_Driver/Src/stm32f3xx_hal_tim.c ****   
2162:Drivers/STM32F3xx_HAL_Driver/Src/stm32f3xx_hal_tim.c ****   if(IS_TIM_BREAK_INSTANCE(htim->Instance) != RESET)  
 4863              		.loc 1 2162 0
 4864 0046 7B68     		ldr	r3, [r7, #4]
 4865 0048 1A68     		ldr	r2, [r3]
 4866 004a 144B     		ldr	r3, .L313
 4867 004c 9A42     		cmp	r2, r3
 4868 004e 13D0     		beq	.L308
 4869              		.loc 1 2162 0 is_stmt 0 discriminator 2
 4870 0050 7B68     		ldr	r3, [r7, #4]
 4871 0052 1A68     		ldr	r2, [r3]
 4872 0054 124B     		ldr	r3, .L313+4
 4873 0056 9A42     		cmp	r2, r3
 4874 0058 0ED0     		beq	.L308
 4875              		.loc 1 2162 0 discriminator 1
 4876 005a 7B68     		ldr	r3, [r7, #4]
 4877 005c 1A68     		ldr	r2, [r3]
 4878 005e 114B     		ldr	r3, .L313+8
 4879 0060 9A42     		cmp	r2, r3
 4880 0062 09D0     		beq	.L308
 4881 0064 7B68     		ldr	r3, [r7, #4]
 4882 0066 1A68     		ldr	r2, [r3]
 4883 0068 0F4B     		ldr	r3, .L313+12
 4884 006a 9A42     		cmp	r2, r3
 4885 006c 04D0     		beq	.L308
ARM GAS  /tmp/ccZyKULX.s 			page 123


 4886 006e 7B68     		ldr	r3, [r7, #4]
 4887 0070 1A68     		ldr	r2, [r3]
 4888 0072 0E4B     		ldr	r3, .L313+16
 4889 0074 9A42     		cmp	r2, r3
 4890 0076 01D1     		bne	.L309
 4891              	.L308:
 4892 0078 0123     		movs	r3, #1
 4893 007a 00E0     		b	.L310
 4894              	.L309:
 4895              		.loc 1 2162 0 discriminator 3
 4896 007c 0023     		movs	r3, #0
 4897              	.L310:
 4898              		.loc 1 2162 0 discriminator 4
 4899 007e 002B     		cmp	r3, #0
 4900 0080 07D0     		beq	.L311
2163:Drivers/STM32F3xx_HAL_Driver/Src/stm32f3xx_hal_tim.c ****   {
2164:Drivers/STM32F3xx_HAL_Driver/Src/stm32f3xx_hal_tim.c ****     /* Enable the main output */
2165:Drivers/STM32F3xx_HAL_Driver/Src/stm32f3xx_hal_tim.c ****     __HAL_TIM_MOE_ENABLE(htim);
 4901              		.loc 1 2165 0 is_stmt 1
 4902 0082 7B68     		ldr	r3, [r7, #4]
 4903 0084 1B68     		ldr	r3, [r3]
 4904 0086 7A68     		ldr	r2, [r7, #4]
 4905 0088 1268     		ldr	r2, [r2]
 4906 008a 526C     		ldr	r2, [r2, #68]
 4907 008c 42F40042 		orr	r2, r2, #32768
 4908 0090 5A64     		str	r2, [r3, #68]
 4909              	.L311:
2166:Drivers/STM32F3xx_HAL_Driver/Src/stm32f3xx_hal_tim.c ****   }
2167:Drivers/STM32F3xx_HAL_Driver/Src/stm32f3xx_hal_tim.c ****   
2168:Drivers/STM32F3xx_HAL_Driver/Src/stm32f3xx_hal_tim.c ****   /* Return function status */
2169:Drivers/STM32F3xx_HAL_Driver/Src/stm32f3xx_hal_tim.c ****   return HAL_OK;
 4910              		.loc 1 2169 0
 4911 0092 0023     		movs	r3, #0
2170:Drivers/STM32F3xx_HAL_Driver/Src/stm32f3xx_hal_tim.c **** }
 4912              		.loc 1 2170 0
 4913 0094 1846     		mov	r0, r3
 4914 0096 0837     		adds	r7, r7, #8
 4915 0098 BD46     		mov	sp, r7
 4916              		@ sp needed
 4917 009a 80BD     		pop	{r7, pc}
 4918              	.L314:
 4919              		.align	2
 4920              	.L313:
 4921 009c 002C0140 		.word	1073818624
 4922 00a0 00340140 		.word	1073820672
 4923 00a4 00400140 		.word	1073823744
 4924 00a8 00440140 		.word	1073824768
 4925 00ac 00480140 		.word	1073825792
 4926              		.cfi_endproc
 4927              	.LFE171:
 4929              		.section	.text.HAL_TIM_OnePulse_Stop_IT,"ax",%progbits
 4930              		.align	2
 4931              		.global	HAL_TIM_OnePulse_Stop_IT
 4932              		.thumb
 4933              		.thumb_func
 4935              	HAL_TIM_OnePulse_Stop_IT:
 4936              	.LFB172:
ARM GAS  /tmp/ccZyKULX.s 			page 124


2171:Drivers/STM32F3xx_HAL_Driver/Src/stm32f3xx_hal_tim.c **** 
2172:Drivers/STM32F3xx_HAL_Driver/Src/stm32f3xx_hal_tim.c **** /**
2173:Drivers/STM32F3xx_HAL_Driver/Src/stm32f3xx_hal_tim.c ****   * @brief  Stops the TIM One Pulse signal generation in interrupt mode.
2174:Drivers/STM32F3xx_HAL_Driver/Src/stm32f3xx_hal_tim.c ****   * @param  htim: TIM One Pulse handle
2175:Drivers/STM32F3xx_HAL_Driver/Src/stm32f3xx_hal_tim.c ****   * @param  OutputChannel: TIM Channels to be enabled
2176:Drivers/STM32F3xx_HAL_Driver/Src/stm32f3xx_hal_tim.c ****   *          This parameter can be one of the following values:
2177:Drivers/STM32F3xx_HAL_Driver/Src/stm32f3xx_hal_tim.c ****   *            @arg TIM_CHANNEL_1: TIM Channel 1 selected
2178:Drivers/STM32F3xx_HAL_Driver/Src/stm32f3xx_hal_tim.c ****   *            @arg TIM_CHANNEL_2: TIM Channel 2 selected
2179:Drivers/STM32F3xx_HAL_Driver/Src/stm32f3xx_hal_tim.c ****   * @retval HAL status
2180:Drivers/STM32F3xx_HAL_Driver/Src/stm32f3xx_hal_tim.c **** */
2181:Drivers/STM32F3xx_HAL_Driver/Src/stm32f3xx_hal_tim.c **** HAL_StatusTypeDef HAL_TIM_OnePulse_Stop_IT(TIM_HandleTypeDef *htim, uint32_t OutputChannel)
2182:Drivers/STM32F3xx_HAL_Driver/Src/stm32f3xx_hal_tim.c **** {
 4937              		.loc 1 2182 0
 4938              		.cfi_startproc
 4939              		@ args = 0, pretend = 0, frame = 8
 4940              		@ frame_needed = 1, uses_anonymous_args = 0
 4941 0000 80B5     		push	{r7, lr}
 4942              	.LCFI141:
 4943              		.cfi_def_cfa_offset 8
 4944              		.cfi_offset 7, -8
 4945              		.cfi_offset 14, -4
 4946 0002 82B0     		sub	sp, sp, #8
 4947              	.LCFI142:
 4948              		.cfi_def_cfa_offset 16
 4949 0004 00AF     		add	r7, sp, #0
 4950              	.LCFI143:
 4951              		.cfi_def_cfa_register 7
 4952 0006 7860     		str	r0, [r7, #4]
 4953 0008 3960     		str	r1, [r7]
2183:Drivers/STM32F3xx_HAL_Driver/Src/stm32f3xx_hal_tim.c ****   /* Disable the TIM Capture/Compare 1 interrupt */
2184:Drivers/STM32F3xx_HAL_Driver/Src/stm32f3xx_hal_tim.c ****   __HAL_TIM_DISABLE_IT(htim, TIM_IT_CC1);  
 4954              		.loc 1 2184 0
 4955 000a 7B68     		ldr	r3, [r7, #4]
 4956 000c 1B68     		ldr	r3, [r3]
 4957 000e 7A68     		ldr	r2, [r7, #4]
 4958 0010 1268     		ldr	r2, [r2]
 4959 0012 D268     		ldr	r2, [r2, #12]
 4960 0014 22F00202 		bic	r2, r2, #2
 4961 0018 DA60     		str	r2, [r3, #12]
2185:Drivers/STM32F3xx_HAL_Driver/Src/stm32f3xx_hal_tim.c ****   
2186:Drivers/STM32F3xx_HAL_Driver/Src/stm32f3xx_hal_tim.c ****   /* Disable the TIM Capture/Compare 2 interrupt */
2187:Drivers/STM32F3xx_HAL_Driver/Src/stm32f3xx_hal_tim.c ****   __HAL_TIM_DISABLE_IT(htim, TIM_IT_CC2);
 4962              		.loc 1 2187 0
 4963 001a 7B68     		ldr	r3, [r7, #4]
 4964 001c 1B68     		ldr	r3, [r3]
 4965 001e 7A68     		ldr	r2, [r7, #4]
 4966 0020 1268     		ldr	r2, [r2]
 4967 0022 D268     		ldr	r2, [r2, #12]
 4968 0024 22F00402 		bic	r2, r2, #4
 4969 0028 DA60     		str	r2, [r3, #12]
2188:Drivers/STM32F3xx_HAL_Driver/Src/stm32f3xx_hal_tim.c ****   
2189:Drivers/STM32F3xx_HAL_Driver/Src/stm32f3xx_hal_tim.c ****   /* Disable the Capture compare and the Input Capture channels 
2190:Drivers/STM32F3xx_HAL_Driver/Src/stm32f3xx_hal_tim.c ****   (in the OPM Mode the two possible channels that can be used are TIM_CHANNEL_1 and TIM_CHANNEL_2)
2191:Drivers/STM32F3xx_HAL_Driver/Src/stm32f3xx_hal_tim.c ****   if TIM_CHANNEL_1 is used as output, the TIM_CHANNEL_2 will be used as input and
2192:Drivers/STM32F3xx_HAL_Driver/Src/stm32f3xx_hal_tim.c ****   if TIM_CHANNEL_1 is used as input, the TIM_CHANNEL_2 will be used as output 
2193:Drivers/STM32F3xx_HAL_Driver/Src/stm32f3xx_hal_tim.c ****   in all combinations, the TIM_CHANNEL_1 and TIM_CHANNEL_2 should be disabled together */  
2194:Drivers/STM32F3xx_HAL_Driver/Src/stm32f3xx_hal_tim.c ****   TIM_CCxChannelCmd(htim->Instance, TIM_CHANNEL_1, TIM_CCx_DISABLE); 
ARM GAS  /tmp/ccZyKULX.s 			page 125


 4970              		.loc 1 2194 0
 4971 002a 7B68     		ldr	r3, [r7, #4]
 4972 002c 1B68     		ldr	r3, [r3]
 4973 002e 1846     		mov	r0, r3
 4974 0030 0021     		movs	r1, #0
 4975 0032 0022     		movs	r2, #0
 4976 0034 FFF7FEFF 		bl	TIM_CCxChannelCmd
2195:Drivers/STM32F3xx_HAL_Driver/Src/stm32f3xx_hal_tim.c ****   TIM_CCxChannelCmd(htim->Instance, TIM_CHANNEL_2, TIM_CCx_DISABLE); 
 4977              		.loc 1 2195 0
 4978 0038 7B68     		ldr	r3, [r7, #4]
 4979 003a 1B68     		ldr	r3, [r3]
 4980 003c 1846     		mov	r0, r3
 4981 003e 0421     		movs	r1, #4
 4982 0040 0022     		movs	r2, #0
 4983 0042 FFF7FEFF 		bl	TIM_CCxChannelCmd
2196:Drivers/STM32F3xx_HAL_Driver/Src/stm32f3xx_hal_tim.c ****     
2197:Drivers/STM32F3xx_HAL_Driver/Src/stm32f3xx_hal_tim.c ****   if(IS_TIM_BREAK_INSTANCE(htim->Instance) != RESET)  
 4984              		.loc 1 2197 0
 4985 0046 7B68     		ldr	r3, [r7, #4]
 4986 0048 1A68     		ldr	r2, [r3]
 4987 004a 284B     		ldr	r3, .L322
 4988 004c 9A42     		cmp	r2, r3
 4989 004e 13D0     		beq	.L316
 4990              		.loc 1 2197 0 is_stmt 0 discriminator 2
 4991 0050 7B68     		ldr	r3, [r7, #4]
 4992 0052 1A68     		ldr	r2, [r3]
 4993 0054 264B     		ldr	r3, .L322+4
 4994 0056 9A42     		cmp	r2, r3
 4995 0058 0ED0     		beq	.L316
 4996              		.loc 1 2197 0 discriminator 1
 4997 005a 7B68     		ldr	r3, [r7, #4]
 4998 005c 1A68     		ldr	r2, [r3]
 4999 005e 254B     		ldr	r3, .L322+8
 5000 0060 9A42     		cmp	r2, r3
 5001 0062 09D0     		beq	.L316
 5002 0064 7B68     		ldr	r3, [r7, #4]
 5003 0066 1A68     		ldr	r2, [r3]
 5004 0068 234B     		ldr	r3, .L322+12
 5005 006a 9A42     		cmp	r2, r3
 5006 006c 04D0     		beq	.L316
 5007 006e 7B68     		ldr	r3, [r7, #4]
 5008 0070 1A68     		ldr	r2, [r3]
 5009 0072 224B     		ldr	r3, .L322+16
 5010 0074 9A42     		cmp	r2, r3
 5011 0076 01D1     		bne	.L317
 5012              	.L316:
 5013 0078 0123     		movs	r3, #1
 5014 007a 00E0     		b	.L318
 5015              	.L317:
 5016              		.loc 1 2197 0 discriminator 3
 5017 007c 0023     		movs	r3, #0
 5018              	.L318:
 5019              		.loc 1 2197 0 discriminator 4
 5020 007e 002B     		cmp	r3, #0
 5021 0080 17D0     		beq	.L319
2198:Drivers/STM32F3xx_HAL_Driver/Src/stm32f3xx_hal_tim.c ****   {
2199:Drivers/STM32F3xx_HAL_Driver/Src/stm32f3xx_hal_tim.c ****     /* Disable the Main Ouput */
ARM GAS  /tmp/ccZyKULX.s 			page 126


2200:Drivers/STM32F3xx_HAL_Driver/Src/stm32f3xx_hal_tim.c ****     __HAL_TIM_MOE_DISABLE(htim);
 5022              		.loc 1 2200 0 is_stmt 1
 5023 0082 7B68     		ldr	r3, [r7, #4]
 5024 0084 1B68     		ldr	r3, [r3]
 5025 0086 1A6A     		ldr	r2, [r3, #32]
 5026 0088 41F21113 		movw	r3, #4369
 5027 008c 1340     		ands	r3, r3, r2
 5028 008e 002B     		cmp	r3, #0
 5029 0090 0FD1     		bne	.L319
 5030              		.loc 1 2200 0 is_stmt 0 discriminator 1
 5031 0092 7B68     		ldr	r3, [r7, #4]
 5032 0094 1B68     		ldr	r3, [r3]
 5033 0096 1A6A     		ldr	r2, [r3, #32]
 5034 0098 40F24443 		movw	r3, #1092
 5035 009c 1340     		ands	r3, r3, r2
 5036 009e 002B     		cmp	r3, #0
 5037 00a0 07D1     		bne	.L319
 5038 00a2 7B68     		ldr	r3, [r7, #4]
 5039 00a4 1B68     		ldr	r3, [r3]
 5040 00a6 7A68     		ldr	r2, [r7, #4]
 5041 00a8 1268     		ldr	r2, [r2]
 5042 00aa 526C     		ldr	r2, [r2, #68]
 5043 00ac 22F40042 		bic	r2, r2, #32768
 5044 00b0 5A64     		str	r2, [r3, #68]
 5045              	.L319:
2201:Drivers/STM32F3xx_HAL_Driver/Src/stm32f3xx_hal_tim.c ****   }
2202:Drivers/STM32F3xx_HAL_Driver/Src/stm32f3xx_hal_tim.c ****     
2203:Drivers/STM32F3xx_HAL_Driver/Src/stm32f3xx_hal_tim.c ****   /* Disable the Peripheral */
2204:Drivers/STM32F3xx_HAL_Driver/Src/stm32f3xx_hal_tim.c ****    __HAL_TIM_DISABLE(htim);  
 5046              		.loc 1 2204 0 is_stmt 1
 5047 00b2 7B68     		ldr	r3, [r7, #4]
 5048 00b4 1B68     		ldr	r3, [r3]
 5049 00b6 1A6A     		ldr	r2, [r3, #32]
 5050 00b8 41F21113 		movw	r3, #4369
 5051 00bc 1340     		ands	r3, r3, r2
 5052 00be 002B     		cmp	r3, #0
 5053 00c0 0FD1     		bne	.L320
 5054              		.loc 1 2204 0 is_stmt 0 discriminator 1
 5055 00c2 7B68     		ldr	r3, [r7, #4]
 5056 00c4 1B68     		ldr	r3, [r3]
 5057 00c6 1A6A     		ldr	r2, [r3, #32]
 5058 00c8 40F24443 		movw	r3, #1092
 5059 00cc 1340     		ands	r3, r3, r2
 5060 00ce 002B     		cmp	r3, #0
 5061 00d0 07D1     		bne	.L320
 5062 00d2 7B68     		ldr	r3, [r7, #4]
 5063 00d4 1B68     		ldr	r3, [r3]
 5064 00d6 7A68     		ldr	r2, [r7, #4]
 5065 00d8 1268     		ldr	r2, [r2]
 5066 00da 1268     		ldr	r2, [r2]
 5067 00dc 22F00102 		bic	r2, r2, #1
 5068 00e0 1A60     		str	r2, [r3]
 5069              	.L320:
2205:Drivers/STM32F3xx_HAL_Driver/Src/stm32f3xx_hal_tim.c ****   
2206:Drivers/STM32F3xx_HAL_Driver/Src/stm32f3xx_hal_tim.c ****   /* Return function status */
2207:Drivers/STM32F3xx_HAL_Driver/Src/stm32f3xx_hal_tim.c ****   return HAL_OK;
 5070              		.loc 1 2207 0 is_stmt 1
ARM GAS  /tmp/ccZyKULX.s 			page 127


 5071 00e2 0023     		movs	r3, #0
2208:Drivers/STM32F3xx_HAL_Driver/Src/stm32f3xx_hal_tim.c **** }
 5072              		.loc 1 2208 0
 5073 00e4 1846     		mov	r0, r3
 5074 00e6 0837     		adds	r7, r7, #8
 5075 00e8 BD46     		mov	sp, r7
 5076              		@ sp needed
 5077 00ea 80BD     		pop	{r7, pc}
 5078              	.L323:
 5079              		.align	2
 5080              	.L322:
 5081 00ec 002C0140 		.word	1073818624
 5082 00f0 00340140 		.word	1073820672
 5083 00f4 00400140 		.word	1073823744
 5084 00f8 00440140 		.word	1073824768
 5085 00fc 00480140 		.word	1073825792
 5086              		.cfi_endproc
 5087              	.LFE172:
 5089              		.section	.text.HAL_TIM_Encoder_Init,"ax",%progbits
 5090              		.align	2
 5091              		.global	HAL_TIM_Encoder_Init
 5092              		.thumb
 5093              		.thumb_func
 5095              	HAL_TIM_Encoder_Init:
 5096              	.LFB173:
2209:Drivers/STM32F3xx_HAL_Driver/Src/stm32f3xx_hal_tim.c **** 
2210:Drivers/STM32F3xx_HAL_Driver/Src/stm32f3xx_hal_tim.c **** /**
2211:Drivers/STM32F3xx_HAL_Driver/Src/stm32f3xx_hal_tim.c ****   * @}
2212:Drivers/STM32F3xx_HAL_Driver/Src/stm32f3xx_hal_tim.c ****   */
2213:Drivers/STM32F3xx_HAL_Driver/Src/stm32f3xx_hal_tim.c **** 
2214:Drivers/STM32F3xx_HAL_Driver/Src/stm32f3xx_hal_tim.c **** /** @defgroup TIM_Exported_Functions_Group6 Time Encoder functions 
2215:Drivers/STM32F3xx_HAL_Driver/Src/stm32f3xx_hal_tim.c ****  *  @brief    Time Encoder functions 
2216:Drivers/STM32F3xx_HAL_Driver/Src/stm32f3xx_hal_tim.c ****  *
2217:Drivers/STM32F3xx_HAL_Driver/Src/stm32f3xx_hal_tim.c **** @verbatim    
2218:Drivers/STM32F3xx_HAL_Driver/Src/stm32f3xx_hal_tim.c ****   ==============================================================================
2219:Drivers/STM32F3xx_HAL_Driver/Src/stm32f3xx_hal_tim.c ****                           ##### Time Encoder functions #####
2220:Drivers/STM32F3xx_HAL_Driver/Src/stm32f3xx_hal_tim.c ****   ==============================================================================
2221:Drivers/STM32F3xx_HAL_Driver/Src/stm32f3xx_hal_tim.c ****   [..]
2222:Drivers/STM32F3xx_HAL_Driver/Src/stm32f3xx_hal_tim.c ****     This section provides functions allowing to:
2223:Drivers/STM32F3xx_HAL_Driver/Src/stm32f3xx_hal_tim.c ****     (+) Initialize and configure the TIM Encoder. 
2224:Drivers/STM32F3xx_HAL_Driver/Src/stm32f3xx_hal_tim.c ****     (+) De-initialize the TIM Encoder.
2225:Drivers/STM32F3xx_HAL_Driver/Src/stm32f3xx_hal_tim.c ****     (+) Start the Time Encoder.
2226:Drivers/STM32F3xx_HAL_Driver/Src/stm32f3xx_hal_tim.c ****     (+) Stop the Time Encoder.
2227:Drivers/STM32F3xx_HAL_Driver/Src/stm32f3xx_hal_tim.c ****     (+) Start the Time Encoder and enable interrupt.
2228:Drivers/STM32F3xx_HAL_Driver/Src/stm32f3xx_hal_tim.c ****     (+) Stop the Time Encoder and disable interrupt.
2229:Drivers/STM32F3xx_HAL_Driver/Src/stm32f3xx_hal_tim.c ****     (+) Start the Time Encoder and enable DMA transfer.
2230:Drivers/STM32F3xx_HAL_Driver/Src/stm32f3xx_hal_tim.c ****     (+) Stop the Time Encoder and disable DMA transfer.
2231:Drivers/STM32F3xx_HAL_Driver/Src/stm32f3xx_hal_tim.c ****  
2232:Drivers/STM32F3xx_HAL_Driver/Src/stm32f3xx_hal_tim.c **** @endverbatim
2233:Drivers/STM32F3xx_HAL_Driver/Src/stm32f3xx_hal_tim.c ****   * @{
2234:Drivers/STM32F3xx_HAL_Driver/Src/stm32f3xx_hal_tim.c ****   */
2235:Drivers/STM32F3xx_HAL_Driver/Src/stm32f3xx_hal_tim.c **** /**
2236:Drivers/STM32F3xx_HAL_Driver/Src/stm32f3xx_hal_tim.c ****   * @brief  Initializes the TIM Encoder Interface and create the associated handle.
2237:Drivers/STM32F3xx_HAL_Driver/Src/stm32f3xx_hal_tim.c ****   * @param  htim: TIM Encoder Interface handle
2238:Drivers/STM32F3xx_HAL_Driver/Src/stm32f3xx_hal_tim.c ****   * @param  sConfig: TIM Encoder Interface configuration structure
2239:Drivers/STM32F3xx_HAL_Driver/Src/stm32f3xx_hal_tim.c ****   * @retval HAL status
2240:Drivers/STM32F3xx_HAL_Driver/Src/stm32f3xx_hal_tim.c ****   */
ARM GAS  /tmp/ccZyKULX.s 			page 128


2241:Drivers/STM32F3xx_HAL_Driver/Src/stm32f3xx_hal_tim.c **** HAL_StatusTypeDef HAL_TIM_Encoder_Init(TIM_HandleTypeDef *htim,  TIM_Encoder_InitTypeDef* sConfig)
2242:Drivers/STM32F3xx_HAL_Driver/Src/stm32f3xx_hal_tim.c **** {
 5097              		.loc 1 2242 0
 5098              		.cfi_startproc
 5099              		@ args = 0, pretend = 0, frame = 24
 5100              		@ frame_needed = 1, uses_anonymous_args = 0
 5101 0000 80B5     		push	{r7, lr}
 5102              	.LCFI144:
 5103              		.cfi_def_cfa_offset 8
 5104              		.cfi_offset 7, -8
 5105              		.cfi_offset 14, -4
 5106 0002 86B0     		sub	sp, sp, #24
 5107              	.LCFI145:
 5108              		.cfi_def_cfa_offset 32
 5109 0004 00AF     		add	r7, sp, #0
 5110              	.LCFI146:
 5111              		.cfi_def_cfa_register 7
 5112 0006 7860     		str	r0, [r7, #4]
 5113 0008 3960     		str	r1, [r7]
2243:Drivers/STM32F3xx_HAL_Driver/Src/stm32f3xx_hal_tim.c ****   uint32_t tmpsmcr = 0;
 5114              		.loc 1 2243 0
 5115 000a 0023     		movs	r3, #0
 5116 000c 7B61     		str	r3, [r7, #20]
2244:Drivers/STM32F3xx_HAL_Driver/Src/stm32f3xx_hal_tim.c ****   uint32_t tmpccmr1 = 0;
 5117              		.loc 1 2244 0
 5118 000e 0023     		movs	r3, #0
 5119 0010 3B61     		str	r3, [r7, #16]
2245:Drivers/STM32F3xx_HAL_Driver/Src/stm32f3xx_hal_tim.c ****   uint32_t tmpccer = 0;
 5120              		.loc 1 2245 0
 5121 0012 0023     		movs	r3, #0
 5122 0014 FB60     		str	r3, [r7, #12]
2246:Drivers/STM32F3xx_HAL_Driver/Src/stm32f3xx_hal_tim.c ****     
2247:Drivers/STM32F3xx_HAL_Driver/Src/stm32f3xx_hal_tim.c ****   /* Check the TIM handle allocation */
2248:Drivers/STM32F3xx_HAL_Driver/Src/stm32f3xx_hal_tim.c ****   if(htim == NULL)
 5123              		.loc 1 2248 0
 5124 0016 7B68     		ldr	r3, [r7, #4]
 5125 0018 002B     		cmp	r3, #0
 5126 001a 01D1     		bne	.L325
2249:Drivers/STM32F3xx_HAL_Driver/Src/stm32f3xx_hal_tim.c ****   {
2250:Drivers/STM32F3xx_HAL_Driver/Src/stm32f3xx_hal_tim.c ****     return HAL_ERROR;
 5127              		.loc 1 2250 0
 5128 001c 0123     		movs	r3, #1
 5129 001e 83E0     		b	.L326
 5130              	.L325:
2251:Drivers/STM32F3xx_HAL_Driver/Src/stm32f3xx_hal_tim.c ****   }
2252:Drivers/STM32F3xx_HAL_Driver/Src/stm32f3xx_hal_tim.c ****    
2253:Drivers/STM32F3xx_HAL_Driver/Src/stm32f3xx_hal_tim.c ****   /* Check the parameters */
2254:Drivers/STM32F3xx_HAL_Driver/Src/stm32f3xx_hal_tim.c ****   assert_param(IS_TIM_CC2_INSTANCE(htim->Instance));
2255:Drivers/STM32F3xx_HAL_Driver/Src/stm32f3xx_hal_tim.c ****   assert_param(IS_TIM_ENCODER_MODE(sConfig->EncoderMode));
2256:Drivers/STM32F3xx_HAL_Driver/Src/stm32f3xx_hal_tim.c ****   assert_param(IS_TIM_IC_SELECTION(sConfig->IC1Selection));
2257:Drivers/STM32F3xx_HAL_Driver/Src/stm32f3xx_hal_tim.c ****   assert_param(IS_TIM_IC_SELECTION(sConfig->IC2Selection));
2258:Drivers/STM32F3xx_HAL_Driver/Src/stm32f3xx_hal_tim.c ****   assert_param(IS_TIM_IC_POLARITY(sConfig->IC1Polarity));
2259:Drivers/STM32F3xx_HAL_Driver/Src/stm32f3xx_hal_tim.c ****   assert_param(IS_TIM_IC_POLARITY(sConfig->IC2Polarity));
2260:Drivers/STM32F3xx_HAL_Driver/Src/stm32f3xx_hal_tim.c ****   assert_param(IS_TIM_IC_PRESCALER(sConfig->IC1Prescaler));
2261:Drivers/STM32F3xx_HAL_Driver/Src/stm32f3xx_hal_tim.c ****   assert_param(IS_TIM_IC_PRESCALER(sConfig->IC2Prescaler));
2262:Drivers/STM32F3xx_HAL_Driver/Src/stm32f3xx_hal_tim.c ****   assert_param(IS_TIM_IC_FILTER(sConfig->IC1Filter));
2263:Drivers/STM32F3xx_HAL_Driver/Src/stm32f3xx_hal_tim.c ****   assert_param(IS_TIM_IC_FILTER(sConfig->IC2Filter));
ARM GAS  /tmp/ccZyKULX.s 			page 129


2264:Drivers/STM32F3xx_HAL_Driver/Src/stm32f3xx_hal_tim.c **** 
2265:Drivers/STM32F3xx_HAL_Driver/Src/stm32f3xx_hal_tim.c ****   if(htim->State == HAL_TIM_STATE_RESET)
 5131              		.loc 1 2265 0
 5132 0020 7B68     		ldr	r3, [r7, #4]
 5133 0022 93F83930 		ldrb	r3, [r3, #57]
 5134 0026 DBB2     		uxtb	r3, r3
 5135 0028 002B     		cmp	r3, #0
 5136 002a 06D1     		bne	.L327
2266:Drivers/STM32F3xx_HAL_Driver/Src/stm32f3xx_hal_tim.c ****   { 
2267:Drivers/STM32F3xx_HAL_Driver/Src/stm32f3xx_hal_tim.c ****     /* Allocate lock resource and initialize it */
2268:Drivers/STM32F3xx_HAL_Driver/Src/stm32f3xx_hal_tim.c ****     htim->Lock = HAL_UNLOCKED;
 5137              		.loc 1 2268 0
 5138 002c 7B68     		ldr	r3, [r7, #4]
 5139 002e 0022     		movs	r2, #0
 5140 0030 83F83820 		strb	r2, [r3, #56]
2269:Drivers/STM32F3xx_HAL_Driver/Src/stm32f3xx_hal_tim.c **** 
2270:Drivers/STM32F3xx_HAL_Driver/Src/stm32f3xx_hal_tim.c ****     /* Init the low level hardware : GPIO, CLOCK, NVIC and DMA */
2271:Drivers/STM32F3xx_HAL_Driver/Src/stm32f3xx_hal_tim.c ****     HAL_TIM_Encoder_MspInit(htim);
 5141              		.loc 1 2271 0
 5142 0034 7868     		ldr	r0, [r7, #4]
 5143 0036 FFF7FEFF 		bl	HAL_TIM_Encoder_MspInit
 5144              	.L327:
2272:Drivers/STM32F3xx_HAL_Driver/Src/stm32f3xx_hal_tim.c ****   }
2273:Drivers/STM32F3xx_HAL_Driver/Src/stm32f3xx_hal_tim.c ****   
2274:Drivers/STM32F3xx_HAL_Driver/Src/stm32f3xx_hal_tim.c ****   /* Set the TIM state */
2275:Drivers/STM32F3xx_HAL_Driver/Src/stm32f3xx_hal_tim.c ****   htim->State= HAL_TIM_STATE_BUSY;
 5145              		.loc 1 2275 0
 5146 003a 7B68     		ldr	r3, [r7, #4]
 5147 003c 0222     		movs	r2, #2
 5148 003e 83F83920 		strb	r2, [r3, #57]
2276:Drivers/STM32F3xx_HAL_Driver/Src/stm32f3xx_hal_tim.c ****   
2277:Drivers/STM32F3xx_HAL_Driver/Src/stm32f3xx_hal_tim.c ****   /* Reset the SMS bits */
2278:Drivers/STM32F3xx_HAL_Driver/Src/stm32f3xx_hal_tim.c ****   htim->Instance->SMCR &= ~TIM_SMCR_SMS;
 5149              		.loc 1 2278 0
 5150 0042 7B68     		ldr	r3, [r7, #4]
 5151 0044 1A68     		ldr	r2, [r3]
 5152 0046 7B68     		ldr	r3, [r7, #4]
 5153 0048 1B68     		ldr	r3, [r3]
 5154 004a 9B68     		ldr	r3, [r3, #8]
 5155 004c 23F48033 		bic	r3, r3, #65536
 5156 0050 23F00703 		bic	r3, r3, #7
 5157 0054 9360     		str	r3, [r2, #8]
2279:Drivers/STM32F3xx_HAL_Driver/Src/stm32f3xx_hal_tim.c ****   
2280:Drivers/STM32F3xx_HAL_Driver/Src/stm32f3xx_hal_tim.c ****   /* Configure the Time base in the Encoder Mode */
2281:Drivers/STM32F3xx_HAL_Driver/Src/stm32f3xx_hal_tim.c ****   TIM_Base_SetConfig(htim->Instance, &htim->Init);  
 5158              		.loc 1 2281 0
 5159 0056 7B68     		ldr	r3, [r7, #4]
 5160 0058 1A68     		ldr	r2, [r3]
 5161 005a 7B68     		ldr	r3, [r7, #4]
 5162 005c 0433     		adds	r3, r3, #4
 5163 005e 1046     		mov	r0, r2
 5164 0060 1946     		mov	r1, r3
 5165 0062 FFF7FEFF 		bl	TIM_Base_SetConfig
2282:Drivers/STM32F3xx_HAL_Driver/Src/stm32f3xx_hal_tim.c ****   
2283:Drivers/STM32F3xx_HAL_Driver/Src/stm32f3xx_hal_tim.c ****   /* Get the TIMx SMCR register value */
2284:Drivers/STM32F3xx_HAL_Driver/Src/stm32f3xx_hal_tim.c ****   tmpsmcr = htim->Instance->SMCR;
 5166              		.loc 1 2284 0
ARM GAS  /tmp/ccZyKULX.s 			page 130


 5167 0066 7B68     		ldr	r3, [r7, #4]
 5168 0068 1B68     		ldr	r3, [r3]
 5169 006a 9B68     		ldr	r3, [r3, #8]
 5170 006c 7B61     		str	r3, [r7, #20]
2285:Drivers/STM32F3xx_HAL_Driver/Src/stm32f3xx_hal_tim.c **** 
2286:Drivers/STM32F3xx_HAL_Driver/Src/stm32f3xx_hal_tim.c ****   /* Get the TIMx CCMR1 register value */
2287:Drivers/STM32F3xx_HAL_Driver/Src/stm32f3xx_hal_tim.c ****   tmpccmr1 = htim->Instance->CCMR1;
 5171              		.loc 1 2287 0
 5172 006e 7B68     		ldr	r3, [r7, #4]
 5173 0070 1B68     		ldr	r3, [r3]
 5174 0072 9B69     		ldr	r3, [r3, #24]
 5175 0074 3B61     		str	r3, [r7, #16]
2288:Drivers/STM32F3xx_HAL_Driver/Src/stm32f3xx_hal_tim.c **** 
2289:Drivers/STM32F3xx_HAL_Driver/Src/stm32f3xx_hal_tim.c ****   /* Get the TIMx CCER register value */
2290:Drivers/STM32F3xx_HAL_Driver/Src/stm32f3xx_hal_tim.c ****   tmpccer = htim->Instance->CCER;
 5176              		.loc 1 2290 0
 5177 0076 7B68     		ldr	r3, [r7, #4]
 5178 0078 1B68     		ldr	r3, [r3]
 5179 007a 1B6A     		ldr	r3, [r3, #32]
 5180 007c FB60     		str	r3, [r7, #12]
2291:Drivers/STM32F3xx_HAL_Driver/Src/stm32f3xx_hal_tim.c **** 
2292:Drivers/STM32F3xx_HAL_Driver/Src/stm32f3xx_hal_tim.c ****   /* Set the encoder Mode */
2293:Drivers/STM32F3xx_HAL_Driver/Src/stm32f3xx_hal_tim.c ****   tmpsmcr |= sConfig->EncoderMode;
 5181              		.loc 1 2293 0
 5182 007e 3B68     		ldr	r3, [r7]
 5183 0080 1B68     		ldr	r3, [r3]
 5184 0082 7A69     		ldr	r2, [r7, #20]
 5185 0084 1343     		orrs	r3, r3, r2
 5186 0086 7B61     		str	r3, [r7, #20]
2294:Drivers/STM32F3xx_HAL_Driver/Src/stm32f3xx_hal_tim.c **** 
2295:Drivers/STM32F3xx_HAL_Driver/Src/stm32f3xx_hal_tim.c ****   /* Select the Capture Compare 1 and the Capture Compare 2 as input */
2296:Drivers/STM32F3xx_HAL_Driver/Src/stm32f3xx_hal_tim.c ****   tmpccmr1 &= ~(TIM_CCMR1_CC1S | TIM_CCMR1_CC2S);
 5187              		.loc 1 2296 0
 5188 0088 3B69     		ldr	r3, [r7, #16]
 5189 008a 23F44073 		bic	r3, r3, #768
 5190 008e 23F00303 		bic	r3, r3, #3
 5191 0092 3B61     		str	r3, [r7, #16]
2297:Drivers/STM32F3xx_HAL_Driver/Src/stm32f3xx_hal_tim.c ****   tmpccmr1 |= (sConfig->IC1Selection | (sConfig->IC2Selection << 8));
 5192              		.loc 1 2297 0
 5193 0094 3B68     		ldr	r3, [r7]
 5194 0096 9A68     		ldr	r2, [r3, #8]
 5195 0098 3B68     		ldr	r3, [r7]
 5196 009a 9B69     		ldr	r3, [r3, #24]
 5197 009c 1B02     		lsls	r3, r3, #8
 5198 009e 1343     		orrs	r3, r3, r2
 5199 00a0 3A69     		ldr	r2, [r7, #16]
 5200 00a2 1343     		orrs	r3, r3, r2
 5201 00a4 3B61     		str	r3, [r7, #16]
2298:Drivers/STM32F3xx_HAL_Driver/Src/stm32f3xx_hal_tim.c ****   
2299:Drivers/STM32F3xx_HAL_Driver/Src/stm32f3xx_hal_tim.c ****   /* Set the the Capture Compare 1 and the Capture Compare 2 prescalers and filters */
2300:Drivers/STM32F3xx_HAL_Driver/Src/stm32f3xx_hal_tim.c ****   tmpccmr1 &= ~(TIM_CCMR1_IC1PSC | TIM_CCMR1_IC2PSC);
 5202              		.loc 1 2300 0
 5203 00a6 3B69     		ldr	r3, [r7, #16]
 5204 00a8 23F44063 		bic	r3, r3, #3072
 5205 00ac 23F00C03 		bic	r3, r3, #12
 5206 00b0 3B61     		str	r3, [r7, #16]
2301:Drivers/STM32F3xx_HAL_Driver/Src/stm32f3xx_hal_tim.c ****   tmpccmr1 &= ~(TIM_CCMR1_IC1F | TIM_CCMR1_IC2F);
ARM GAS  /tmp/ccZyKULX.s 			page 131


 5207              		.loc 1 2301 0
 5208 00b2 3B69     		ldr	r3, [r7, #16]
 5209 00b4 23F47043 		bic	r3, r3, #61440
 5210 00b8 23F0F003 		bic	r3, r3, #240
 5211 00bc 3B61     		str	r3, [r7, #16]
2302:Drivers/STM32F3xx_HAL_Driver/Src/stm32f3xx_hal_tim.c ****   tmpccmr1 |= sConfig->IC1Prescaler | (sConfig->IC2Prescaler << 8);
 5212              		.loc 1 2302 0
 5213 00be 3B68     		ldr	r3, [r7]
 5214 00c0 DA68     		ldr	r2, [r3, #12]
 5215 00c2 3B68     		ldr	r3, [r7]
 5216 00c4 DB69     		ldr	r3, [r3, #28]
 5217 00c6 1B02     		lsls	r3, r3, #8
 5218 00c8 1343     		orrs	r3, r3, r2
 5219 00ca 3A69     		ldr	r2, [r7, #16]
 5220 00cc 1343     		orrs	r3, r3, r2
 5221 00ce 3B61     		str	r3, [r7, #16]
2303:Drivers/STM32F3xx_HAL_Driver/Src/stm32f3xx_hal_tim.c ****   tmpccmr1 |= (sConfig->IC1Filter << 4) | (sConfig->IC2Filter << 12);
 5222              		.loc 1 2303 0
 5223 00d0 3B68     		ldr	r3, [r7]
 5224 00d2 1B69     		ldr	r3, [r3, #16]
 5225 00d4 1A01     		lsls	r2, r3, #4
 5226 00d6 3B68     		ldr	r3, [r7]
 5227 00d8 1B6A     		ldr	r3, [r3, #32]
 5228 00da 1B03     		lsls	r3, r3, #12
 5229 00dc 1343     		orrs	r3, r3, r2
 5230 00de 3A69     		ldr	r2, [r7, #16]
 5231 00e0 1343     		orrs	r3, r3, r2
 5232 00e2 3B61     		str	r3, [r7, #16]
2304:Drivers/STM32F3xx_HAL_Driver/Src/stm32f3xx_hal_tim.c **** 
2305:Drivers/STM32F3xx_HAL_Driver/Src/stm32f3xx_hal_tim.c ****   /* Set the TI1 and the TI2 Polarities */
2306:Drivers/STM32F3xx_HAL_Driver/Src/stm32f3xx_hal_tim.c ****   tmpccer &= ~(TIM_CCER_CC1P | TIM_CCER_CC2P);
 5233              		.loc 1 2306 0
 5234 00e4 FB68     		ldr	r3, [r7, #12]
 5235 00e6 23F02203 		bic	r3, r3, #34
 5236 00ea FB60     		str	r3, [r7, #12]
2307:Drivers/STM32F3xx_HAL_Driver/Src/stm32f3xx_hal_tim.c ****   tmpccer &= ~(TIM_CCER_CC1NP | TIM_CCER_CC2NP);
 5237              		.loc 1 2307 0
 5238 00ec FB68     		ldr	r3, [r7, #12]
 5239 00ee 23F08803 		bic	r3, r3, #136
 5240 00f2 FB60     		str	r3, [r7, #12]
2308:Drivers/STM32F3xx_HAL_Driver/Src/stm32f3xx_hal_tim.c ****   tmpccer |= sConfig->IC1Polarity | (sConfig->IC2Polarity << 4);
 5241              		.loc 1 2308 0
 5242 00f4 3B68     		ldr	r3, [r7]
 5243 00f6 5A68     		ldr	r2, [r3, #4]
 5244 00f8 3B68     		ldr	r3, [r7]
 5245 00fa 5B69     		ldr	r3, [r3, #20]
 5246 00fc 1B01     		lsls	r3, r3, #4
 5247 00fe 1343     		orrs	r3, r3, r2
 5248 0100 FA68     		ldr	r2, [r7, #12]
 5249 0102 1343     		orrs	r3, r3, r2
 5250 0104 FB60     		str	r3, [r7, #12]
2309:Drivers/STM32F3xx_HAL_Driver/Src/stm32f3xx_hal_tim.c ****   
2310:Drivers/STM32F3xx_HAL_Driver/Src/stm32f3xx_hal_tim.c ****   /* Write to TIMx SMCR */
2311:Drivers/STM32F3xx_HAL_Driver/Src/stm32f3xx_hal_tim.c ****   htim->Instance->SMCR = tmpsmcr;
 5251              		.loc 1 2311 0
 5252 0106 7B68     		ldr	r3, [r7, #4]
 5253 0108 1B68     		ldr	r3, [r3]
ARM GAS  /tmp/ccZyKULX.s 			page 132


 5254 010a 7A69     		ldr	r2, [r7, #20]
 5255 010c 9A60     		str	r2, [r3, #8]
2312:Drivers/STM32F3xx_HAL_Driver/Src/stm32f3xx_hal_tim.c **** 
2313:Drivers/STM32F3xx_HAL_Driver/Src/stm32f3xx_hal_tim.c ****   /* Write to TIMx CCMR1 */
2314:Drivers/STM32F3xx_HAL_Driver/Src/stm32f3xx_hal_tim.c ****   htim->Instance->CCMR1 = tmpccmr1;
 5256              		.loc 1 2314 0
 5257 010e 7B68     		ldr	r3, [r7, #4]
 5258 0110 1B68     		ldr	r3, [r3]
 5259 0112 3A69     		ldr	r2, [r7, #16]
 5260 0114 9A61     		str	r2, [r3, #24]
2315:Drivers/STM32F3xx_HAL_Driver/Src/stm32f3xx_hal_tim.c **** 
2316:Drivers/STM32F3xx_HAL_Driver/Src/stm32f3xx_hal_tim.c ****   /* Write to TIMx CCER */
2317:Drivers/STM32F3xx_HAL_Driver/Src/stm32f3xx_hal_tim.c ****   htim->Instance->CCER = tmpccer;
 5261              		.loc 1 2317 0
 5262 0116 7B68     		ldr	r3, [r7, #4]
 5263 0118 1B68     		ldr	r3, [r3]
 5264 011a FA68     		ldr	r2, [r7, #12]
 5265 011c 1A62     		str	r2, [r3, #32]
2318:Drivers/STM32F3xx_HAL_Driver/Src/stm32f3xx_hal_tim.c ****   
2319:Drivers/STM32F3xx_HAL_Driver/Src/stm32f3xx_hal_tim.c ****   /* Initialize the TIM state*/
2320:Drivers/STM32F3xx_HAL_Driver/Src/stm32f3xx_hal_tim.c ****   htim->State= HAL_TIM_STATE_READY;
 5266              		.loc 1 2320 0
 5267 011e 7B68     		ldr	r3, [r7, #4]
 5268 0120 0122     		movs	r2, #1
 5269 0122 83F83920 		strb	r2, [r3, #57]
2321:Drivers/STM32F3xx_HAL_Driver/Src/stm32f3xx_hal_tim.c ****   
2322:Drivers/STM32F3xx_HAL_Driver/Src/stm32f3xx_hal_tim.c ****   return HAL_OK;
 5270              		.loc 1 2322 0
 5271 0126 0023     		movs	r3, #0
 5272              	.L326:
2323:Drivers/STM32F3xx_HAL_Driver/Src/stm32f3xx_hal_tim.c **** }
 5273              		.loc 1 2323 0
 5274 0128 1846     		mov	r0, r3
 5275 012a 1837     		adds	r7, r7, #24
 5276 012c BD46     		mov	sp, r7
 5277              		@ sp needed
 5278 012e 80BD     		pop	{r7, pc}
 5279              		.cfi_endproc
 5280              	.LFE173:
 5282              		.section	.text.HAL_TIM_Encoder_DeInit,"ax",%progbits
 5283              		.align	2
 5284              		.global	HAL_TIM_Encoder_DeInit
 5285              		.thumb
 5286              		.thumb_func
 5288              	HAL_TIM_Encoder_DeInit:
 5289              	.LFB174:
2324:Drivers/STM32F3xx_HAL_Driver/Src/stm32f3xx_hal_tim.c **** 
2325:Drivers/STM32F3xx_HAL_Driver/Src/stm32f3xx_hal_tim.c **** 
2326:Drivers/STM32F3xx_HAL_Driver/Src/stm32f3xx_hal_tim.c **** /**
2327:Drivers/STM32F3xx_HAL_Driver/Src/stm32f3xx_hal_tim.c ****   * @brief  DeInitializes the TIM Encoder interface  
2328:Drivers/STM32F3xx_HAL_Driver/Src/stm32f3xx_hal_tim.c ****   * @param  htim: TIM Encoder handle
2329:Drivers/STM32F3xx_HAL_Driver/Src/stm32f3xx_hal_tim.c ****   * @retval HAL status
2330:Drivers/STM32F3xx_HAL_Driver/Src/stm32f3xx_hal_tim.c ****   */
2331:Drivers/STM32F3xx_HAL_Driver/Src/stm32f3xx_hal_tim.c **** HAL_StatusTypeDef HAL_TIM_Encoder_DeInit(TIM_HandleTypeDef *htim)
2332:Drivers/STM32F3xx_HAL_Driver/Src/stm32f3xx_hal_tim.c **** {
 5290              		.loc 1 2332 0
 5291              		.cfi_startproc
ARM GAS  /tmp/ccZyKULX.s 			page 133


 5292              		@ args = 0, pretend = 0, frame = 8
 5293              		@ frame_needed = 1, uses_anonymous_args = 0
 5294 0000 80B5     		push	{r7, lr}
 5295              	.LCFI147:
 5296              		.cfi_def_cfa_offset 8
 5297              		.cfi_offset 7, -8
 5298              		.cfi_offset 14, -4
 5299 0002 82B0     		sub	sp, sp, #8
 5300              	.LCFI148:
 5301              		.cfi_def_cfa_offset 16
 5302 0004 00AF     		add	r7, sp, #0
 5303              	.LCFI149:
 5304              		.cfi_def_cfa_register 7
 5305 0006 7860     		str	r0, [r7, #4]
2333:Drivers/STM32F3xx_HAL_Driver/Src/stm32f3xx_hal_tim.c ****   /* Check the parameters */
2334:Drivers/STM32F3xx_HAL_Driver/Src/stm32f3xx_hal_tim.c ****   assert_param(IS_TIM_INSTANCE(htim->Instance));
2335:Drivers/STM32F3xx_HAL_Driver/Src/stm32f3xx_hal_tim.c ****   
2336:Drivers/STM32F3xx_HAL_Driver/Src/stm32f3xx_hal_tim.c ****   htim->State = HAL_TIM_STATE_BUSY;
 5306              		.loc 1 2336 0
 5307 0008 7B68     		ldr	r3, [r7, #4]
 5308 000a 0222     		movs	r2, #2
 5309 000c 83F83920 		strb	r2, [r3, #57]
2337:Drivers/STM32F3xx_HAL_Driver/Src/stm32f3xx_hal_tim.c ****   
2338:Drivers/STM32F3xx_HAL_Driver/Src/stm32f3xx_hal_tim.c ****   /* Disable the TIM Peripheral Clock */
2339:Drivers/STM32F3xx_HAL_Driver/Src/stm32f3xx_hal_tim.c ****   __HAL_TIM_DISABLE(htim);
 5310              		.loc 1 2339 0
 5311 0010 7B68     		ldr	r3, [r7, #4]
 5312 0012 1B68     		ldr	r3, [r3]
 5313 0014 1A6A     		ldr	r2, [r3, #32]
 5314 0016 41F21113 		movw	r3, #4369
 5315 001a 1340     		ands	r3, r3, r2
 5316 001c 002B     		cmp	r3, #0
 5317 001e 0FD1     		bne	.L329
 5318              		.loc 1 2339 0 is_stmt 0 discriminator 1
 5319 0020 7B68     		ldr	r3, [r7, #4]
 5320 0022 1B68     		ldr	r3, [r3]
 5321 0024 1A6A     		ldr	r2, [r3, #32]
 5322 0026 40F24443 		movw	r3, #1092
 5323 002a 1340     		ands	r3, r3, r2
 5324 002c 002B     		cmp	r3, #0
 5325 002e 07D1     		bne	.L329
 5326 0030 7B68     		ldr	r3, [r7, #4]
 5327 0032 1B68     		ldr	r3, [r3]
 5328 0034 7A68     		ldr	r2, [r7, #4]
 5329 0036 1268     		ldr	r2, [r2]
 5330 0038 1268     		ldr	r2, [r2]
 5331 003a 22F00102 		bic	r2, r2, #1
 5332 003e 1A60     		str	r2, [r3]
 5333              	.L329:
2340:Drivers/STM32F3xx_HAL_Driver/Src/stm32f3xx_hal_tim.c ****   
2341:Drivers/STM32F3xx_HAL_Driver/Src/stm32f3xx_hal_tim.c ****   /* DeInit the low level hardware: GPIO, CLOCK, NVIC */
2342:Drivers/STM32F3xx_HAL_Driver/Src/stm32f3xx_hal_tim.c ****   HAL_TIM_Encoder_MspDeInit(htim);
 5334              		.loc 1 2342 0 is_stmt 1
 5335 0040 7868     		ldr	r0, [r7, #4]
 5336 0042 FFF7FEFF 		bl	HAL_TIM_Encoder_MspDeInit
2343:Drivers/STM32F3xx_HAL_Driver/Src/stm32f3xx_hal_tim.c ****     
2344:Drivers/STM32F3xx_HAL_Driver/Src/stm32f3xx_hal_tim.c ****   /* Change TIM state */  
ARM GAS  /tmp/ccZyKULX.s 			page 134


2345:Drivers/STM32F3xx_HAL_Driver/Src/stm32f3xx_hal_tim.c ****   htim->State = HAL_TIM_STATE_RESET; 
 5337              		.loc 1 2345 0
 5338 0046 7B68     		ldr	r3, [r7, #4]
 5339 0048 0022     		movs	r2, #0
 5340 004a 83F83920 		strb	r2, [r3, #57]
2346:Drivers/STM32F3xx_HAL_Driver/Src/stm32f3xx_hal_tim.c ****   
2347:Drivers/STM32F3xx_HAL_Driver/Src/stm32f3xx_hal_tim.c ****   /* Release Lock */
2348:Drivers/STM32F3xx_HAL_Driver/Src/stm32f3xx_hal_tim.c ****   __HAL_UNLOCK(htim);
 5341              		.loc 1 2348 0
 5342 004e 7B68     		ldr	r3, [r7, #4]
 5343 0050 0022     		movs	r2, #0
 5344 0052 83F83820 		strb	r2, [r3, #56]
2349:Drivers/STM32F3xx_HAL_Driver/Src/stm32f3xx_hal_tim.c **** 
2350:Drivers/STM32F3xx_HAL_Driver/Src/stm32f3xx_hal_tim.c ****   return HAL_OK;
 5345              		.loc 1 2350 0
 5346 0056 0023     		movs	r3, #0
2351:Drivers/STM32F3xx_HAL_Driver/Src/stm32f3xx_hal_tim.c **** }
 5347              		.loc 1 2351 0
 5348 0058 1846     		mov	r0, r3
 5349 005a 0837     		adds	r7, r7, #8
 5350 005c BD46     		mov	sp, r7
 5351              		@ sp needed
 5352 005e 80BD     		pop	{r7, pc}
 5353              		.cfi_endproc
 5354              	.LFE174:
 5356              		.section	.text.HAL_TIM_Encoder_MspInit,"ax",%progbits
 5357              		.align	2
 5358              		.weak	HAL_TIM_Encoder_MspInit
 5359              		.thumb
 5360              		.thumb_func
 5362              	HAL_TIM_Encoder_MspInit:
 5363              	.LFB175:
2352:Drivers/STM32F3xx_HAL_Driver/Src/stm32f3xx_hal_tim.c **** 
2353:Drivers/STM32F3xx_HAL_Driver/Src/stm32f3xx_hal_tim.c **** /**
2354:Drivers/STM32F3xx_HAL_Driver/Src/stm32f3xx_hal_tim.c ****   * @brief  Initializes the TIM Encoder Interface MSP.
2355:Drivers/STM32F3xx_HAL_Driver/Src/stm32f3xx_hal_tim.c ****   * @param  htim: TIM handle
2356:Drivers/STM32F3xx_HAL_Driver/Src/stm32f3xx_hal_tim.c ****   * @retval None
2357:Drivers/STM32F3xx_HAL_Driver/Src/stm32f3xx_hal_tim.c ****   */
2358:Drivers/STM32F3xx_HAL_Driver/Src/stm32f3xx_hal_tim.c **** __weak void HAL_TIM_Encoder_MspInit(TIM_HandleTypeDef *htim)
2359:Drivers/STM32F3xx_HAL_Driver/Src/stm32f3xx_hal_tim.c **** {
 5364              		.loc 1 2359 0
 5365              		.cfi_startproc
 5366              		@ args = 0, pretend = 0, frame = 8
 5367              		@ frame_needed = 1, uses_anonymous_args = 0
 5368              		@ link register save eliminated.
 5369 0000 80B4     		push	{r7}
 5370              	.LCFI150:
 5371              		.cfi_def_cfa_offset 4
 5372              		.cfi_offset 7, -4
 5373 0002 83B0     		sub	sp, sp, #12
 5374              	.LCFI151:
 5375              		.cfi_def_cfa_offset 16
 5376 0004 00AF     		add	r7, sp, #0
 5377              	.LCFI152:
 5378              		.cfi_def_cfa_register 7
 5379 0006 7860     		str	r0, [r7, #4]
2360:Drivers/STM32F3xx_HAL_Driver/Src/stm32f3xx_hal_tim.c ****   /* Prevent unused argument(s) compilation warning */
ARM GAS  /tmp/ccZyKULX.s 			page 135


2361:Drivers/STM32F3xx_HAL_Driver/Src/stm32f3xx_hal_tim.c ****   UNUSED(htim);
2362:Drivers/STM32F3xx_HAL_Driver/Src/stm32f3xx_hal_tim.c **** 
2363:Drivers/STM32F3xx_HAL_Driver/Src/stm32f3xx_hal_tim.c ****   /* NOTE : This function Should not be modified, when the callback is needed,
2364:Drivers/STM32F3xx_HAL_Driver/Src/stm32f3xx_hal_tim.c ****             the HAL_TIM_Encoder_MspInit could be implemented in the user file
2365:Drivers/STM32F3xx_HAL_Driver/Src/stm32f3xx_hal_tim.c ****    */
2366:Drivers/STM32F3xx_HAL_Driver/Src/stm32f3xx_hal_tim.c **** }
 5380              		.loc 1 2366 0
 5381 0008 0C37     		adds	r7, r7, #12
 5382 000a BD46     		mov	sp, r7
 5383              		@ sp needed
 5384 000c 5DF8047B 		ldr	r7, [sp], #4
 5385 0010 7047     		bx	lr
 5386              		.cfi_endproc
 5387              	.LFE175:
 5389 0012 00BF     		.section	.text.HAL_TIM_Encoder_MspDeInit,"ax",%progbits
 5390              		.align	2
 5391              		.weak	HAL_TIM_Encoder_MspDeInit
 5392              		.thumb
 5393              		.thumb_func
 5395              	HAL_TIM_Encoder_MspDeInit:
 5396              	.LFB176:
2367:Drivers/STM32F3xx_HAL_Driver/Src/stm32f3xx_hal_tim.c **** 
2368:Drivers/STM32F3xx_HAL_Driver/Src/stm32f3xx_hal_tim.c **** /**
2369:Drivers/STM32F3xx_HAL_Driver/Src/stm32f3xx_hal_tim.c ****   * @brief  DeInitializes TIM Encoder Interface MSP.
2370:Drivers/STM32F3xx_HAL_Driver/Src/stm32f3xx_hal_tim.c ****   * @param  htim: TIM handle
2371:Drivers/STM32F3xx_HAL_Driver/Src/stm32f3xx_hal_tim.c ****   * @retval None
2372:Drivers/STM32F3xx_HAL_Driver/Src/stm32f3xx_hal_tim.c ****   */
2373:Drivers/STM32F3xx_HAL_Driver/Src/stm32f3xx_hal_tim.c **** __weak void HAL_TIM_Encoder_MspDeInit(TIM_HandleTypeDef *htim)
2374:Drivers/STM32F3xx_HAL_Driver/Src/stm32f3xx_hal_tim.c **** {
 5397              		.loc 1 2374 0
 5398              		.cfi_startproc
 5399              		@ args = 0, pretend = 0, frame = 8
 5400              		@ frame_needed = 1, uses_anonymous_args = 0
 5401              		@ link register save eliminated.
 5402 0000 80B4     		push	{r7}
 5403              	.LCFI153:
 5404              		.cfi_def_cfa_offset 4
 5405              		.cfi_offset 7, -4
 5406 0002 83B0     		sub	sp, sp, #12
 5407              	.LCFI154:
 5408              		.cfi_def_cfa_offset 16
 5409 0004 00AF     		add	r7, sp, #0
 5410              	.LCFI155:
 5411              		.cfi_def_cfa_register 7
 5412 0006 7860     		str	r0, [r7, #4]
2375:Drivers/STM32F3xx_HAL_Driver/Src/stm32f3xx_hal_tim.c ****   /* Prevent unused argument(s) compilation warning */
2376:Drivers/STM32F3xx_HAL_Driver/Src/stm32f3xx_hal_tim.c ****   UNUSED(htim);
2377:Drivers/STM32F3xx_HAL_Driver/Src/stm32f3xx_hal_tim.c **** 
2378:Drivers/STM32F3xx_HAL_Driver/Src/stm32f3xx_hal_tim.c ****   /* NOTE : This function Should not be modified, when the callback is needed,
2379:Drivers/STM32F3xx_HAL_Driver/Src/stm32f3xx_hal_tim.c ****             the HAL_TIM_Encoder_MspDeInit could be implemented in the user file
2380:Drivers/STM32F3xx_HAL_Driver/Src/stm32f3xx_hal_tim.c ****    */
2381:Drivers/STM32F3xx_HAL_Driver/Src/stm32f3xx_hal_tim.c **** }
 5413              		.loc 1 2381 0
 5414 0008 0C37     		adds	r7, r7, #12
 5415 000a BD46     		mov	sp, r7
 5416              		@ sp needed
 5417 000c 5DF8047B 		ldr	r7, [sp], #4
ARM GAS  /tmp/ccZyKULX.s 			page 136


 5418 0010 7047     		bx	lr
 5419              		.cfi_endproc
 5420              	.LFE176:
 5422 0012 00BF     		.section	.text.HAL_TIM_Encoder_Start,"ax",%progbits
 5423              		.align	2
 5424              		.global	HAL_TIM_Encoder_Start
 5425              		.thumb
 5426              		.thumb_func
 5428              	HAL_TIM_Encoder_Start:
 5429              	.LFB177:
2382:Drivers/STM32F3xx_HAL_Driver/Src/stm32f3xx_hal_tim.c **** 
2383:Drivers/STM32F3xx_HAL_Driver/Src/stm32f3xx_hal_tim.c **** /**
2384:Drivers/STM32F3xx_HAL_Driver/Src/stm32f3xx_hal_tim.c ****   * @brief  Starts the TIM Encoder Interface.
2385:Drivers/STM32F3xx_HAL_Driver/Src/stm32f3xx_hal_tim.c ****   * @param  htim: TIM Encoder Interface handle
2386:Drivers/STM32F3xx_HAL_Driver/Src/stm32f3xx_hal_tim.c ****   * @param  Channel: TIM Channels to be enabled
2387:Drivers/STM32F3xx_HAL_Driver/Src/stm32f3xx_hal_tim.c ****   *          This parameter can be one of the following values:
2388:Drivers/STM32F3xx_HAL_Driver/Src/stm32f3xx_hal_tim.c ****   *            @arg TIM_CHANNEL_1: TIM Channel 1 selected
2389:Drivers/STM32F3xx_HAL_Driver/Src/stm32f3xx_hal_tim.c ****   *            @arg TIM_CHANNEL_2: TIM Channel 2 selected
2390:Drivers/STM32F3xx_HAL_Driver/Src/stm32f3xx_hal_tim.c ****   *            @arg TIM_CHANNEL_ALL: TIM Channel 1 and TIM Channel 2 are selected
2391:Drivers/STM32F3xx_HAL_Driver/Src/stm32f3xx_hal_tim.c ****   * @retval HAL status
2392:Drivers/STM32F3xx_HAL_Driver/Src/stm32f3xx_hal_tim.c **** */
2393:Drivers/STM32F3xx_HAL_Driver/Src/stm32f3xx_hal_tim.c **** HAL_StatusTypeDef HAL_TIM_Encoder_Start(TIM_HandleTypeDef *htim, uint32_t Channel)
2394:Drivers/STM32F3xx_HAL_Driver/Src/stm32f3xx_hal_tim.c **** {
 5430              		.loc 1 2394 0
 5431              		.cfi_startproc
 5432              		@ args = 0, pretend = 0, frame = 8
 5433              		@ frame_needed = 1, uses_anonymous_args = 0
 5434 0000 80B5     		push	{r7, lr}
 5435              	.LCFI156:
 5436              		.cfi_def_cfa_offset 8
 5437              		.cfi_offset 7, -8
 5438              		.cfi_offset 14, -4
 5439 0002 82B0     		sub	sp, sp, #8
 5440              	.LCFI157:
 5441              		.cfi_def_cfa_offset 16
 5442 0004 00AF     		add	r7, sp, #0
 5443              	.LCFI158:
 5444              		.cfi_def_cfa_register 7
 5445 0006 7860     		str	r0, [r7, #4]
 5446 0008 3960     		str	r1, [r7]
2395:Drivers/STM32F3xx_HAL_Driver/Src/stm32f3xx_hal_tim.c ****   /* Check the parameters */
2396:Drivers/STM32F3xx_HAL_Driver/Src/stm32f3xx_hal_tim.c ****   assert_param(IS_TIM_CC2_INSTANCE(htim->Instance));
2397:Drivers/STM32F3xx_HAL_Driver/Src/stm32f3xx_hal_tim.c ****   
2398:Drivers/STM32F3xx_HAL_Driver/Src/stm32f3xx_hal_tim.c ****   /* Enable the encoder interface channels */
2399:Drivers/STM32F3xx_HAL_Driver/Src/stm32f3xx_hal_tim.c ****   switch (Channel)
 5447              		.loc 1 2399 0
 5448 000a 3B68     		ldr	r3, [r7]
 5449 000c 002B     		cmp	r3, #0
 5450 000e 02D0     		beq	.L335
 5451 0010 042B     		cmp	r3, #4
 5452 0012 08D0     		beq	.L336
 5453 0014 0FE0     		b	.L339
 5454              	.L335:
2400:Drivers/STM32F3xx_HAL_Driver/Src/stm32f3xx_hal_tim.c ****   {
2401:Drivers/STM32F3xx_HAL_Driver/Src/stm32f3xx_hal_tim.c ****   case TIM_CHANNEL_1:
2402:Drivers/STM32F3xx_HAL_Driver/Src/stm32f3xx_hal_tim.c ****     {
2403:Drivers/STM32F3xx_HAL_Driver/Src/stm32f3xx_hal_tim.c ****       TIM_CCxChannelCmd(htim->Instance, TIM_CHANNEL_1, TIM_CCx_ENABLE); 
ARM GAS  /tmp/ccZyKULX.s 			page 137


 5455              		.loc 1 2403 0
 5456 0016 7B68     		ldr	r3, [r7, #4]
 5457 0018 1B68     		ldr	r3, [r3]
 5458 001a 1846     		mov	r0, r3
 5459 001c 0021     		movs	r1, #0
 5460 001e 0122     		movs	r2, #1
 5461 0020 FFF7FEFF 		bl	TIM_CCxChannelCmd
2404:Drivers/STM32F3xx_HAL_Driver/Src/stm32f3xx_hal_tim.c ****       break; 
 5462              		.loc 1 2404 0
 5463 0024 16E0     		b	.L337
 5464              	.L336:
2405:Drivers/STM32F3xx_HAL_Driver/Src/stm32f3xx_hal_tim.c ****     }  
2406:Drivers/STM32F3xx_HAL_Driver/Src/stm32f3xx_hal_tim.c ****   case TIM_CHANNEL_2:
2407:Drivers/STM32F3xx_HAL_Driver/Src/stm32f3xx_hal_tim.c ****     {  
2408:Drivers/STM32F3xx_HAL_Driver/Src/stm32f3xx_hal_tim.c ****       TIM_CCxChannelCmd(htim->Instance, TIM_CHANNEL_2, TIM_CCx_ENABLE); 
 5465              		.loc 1 2408 0
 5466 0026 7B68     		ldr	r3, [r7, #4]
 5467 0028 1B68     		ldr	r3, [r3]
 5468 002a 1846     		mov	r0, r3
 5469 002c 0421     		movs	r1, #4
 5470 002e 0122     		movs	r2, #1
 5471 0030 FFF7FEFF 		bl	TIM_CCxChannelCmd
2409:Drivers/STM32F3xx_HAL_Driver/Src/stm32f3xx_hal_tim.c ****       break;
 5472              		.loc 1 2409 0
 5473 0034 0EE0     		b	.L337
 5474              	.L339:
2410:Drivers/STM32F3xx_HAL_Driver/Src/stm32f3xx_hal_tim.c ****     }  
2411:Drivers/STM32F3xx_HAL_Driver/Src/stm32f3xx_hal_tim.c ****   default :
2412:Drivers/STM32F3xx_HAL_Driver/Src/stm32f3xx_hal_tim.c ****     {
2413:Drivers/STM32F3xx_HAL_Driver/Src/stm32f3xx_hal_tim.c ****       TIM_CCxChannelCmd(htim->Instance, TIM_CHANNEL_1, TIM_CCx_ENABLE);
 5475              		.loc 1 2413 0
 5476 0036 7B68     		ldr	r3, [r7, #4]
 5477 0038 1B68     		ldr	r3, [r3]
 5478 003a 1846     		mov	r0, r3
 5479 003c 0021     		movs	r1, #0
 5480 003e 0122     		movs	r2, #1
 5481 0040 FFF7FEFF 		bl	TIM_CCxChannelCmd
2414:Drivers/STM32F3xx_HAL_Driver/Src/stm32f3xx_hal_tim.c ****       TIM_CCxChannelCmd(htim->Instance, TIM_CHANNEL_2, TIM_CCx_ENABLE); 
 5482              		.loc 1 2414 0
 5483 0044 7B68     		ldr	r3, [r7, #4]
 5484 0046 1B68     		ldr	r3, [r3]
 5485 0048 1846     		mov	r0, r3
 5486 004a 0421     		movs	r1, #4
 5487 004c 0122     		movs	r2, #1
 5488 004e FFF7FEFF 		bl	TIM_CCxChannelCmd
2415:Drivers/STM32F3xx_HAL_Driver/Src/stm32f3xx_hal_tim.c ****       break; 
 5489              		.loc 1 2415 0
 5490 0052 00BF     		nop
 5491              	.L337:
2416:Drivers/STM32F3xx_HAL_Driver/Src/stm32f3xx_hal_tim.c ****     }
2417:Drivers/STM32F3xx_HAL_Driver/Src/stm32f3xx_hal_tim.c ****   }  
2418:Drivers/STM32F3xx_HAL_Driver/Src/stm32f3xx_hal_tim.c ****   /* Enable the Peripheral */
2419:Drivers/STM32F3xx_HAL_Driver/Src/stm32f3xx_hal_tim.c ****   __HAL_TIM_ENABLE(htim);
 5492              		.loc 1 2419 0
 5493 0054 7B68     		ldr	r3, [r7, #4]
 5494 0056 1B68     		ldr	r3, [r3]
 5495 0058 7A68     		ldr	r2, [r7, #4]
ARM GAS  /tmp/ccZyKULX.s 			page 138


 5496 005a 1268     		ldr	r2, [r2]
 5497 005c 1268     		ldr	r2, [r2]
 5498 005e 42F00102 		orr	r2, r2, #1
 5499 0062 1A60     		str	r2, [r3]
2420:Drivers/STM32F3xx_HAL_Driver/Src/stm32f3xx_hal_tim.c ****   
2421:Drivers/STM32F3xx_HAL_Driver/Src/stm32f3xx_hal_tim.c ****   /* Return function status */
2422:Drivers/STM32F3xx_HAL_Driver/Src/stm32f3xx_hal_tim.c ****   return HAL_OK;
 5500              		.loc 1 2422 0
 5501 0064 0023     		movs	r3, #0
2423:Drivers/STM32F3xx_HAL_Driver/Src/stm32f3xx_hal_tim.c **** }
 5502              		.loc 1 2423 0
 5503 0066 1846     		mov	r0, r3
 5504 0068 0837     		adds	r7, r7, #8
 5505 006a BD46     		mov	sp, r7
 5506              		@ sp needed
 5507 006c 80BD     		pop	{r7, pc}
 5508              		.cfi_endproc
 5509              	.LFE177:
 5511 006e 00BF     		.section	.text.HAL_TIM_Encoder_Stop,"ax",%progbits
 5512              		.align	2
 5513              		.global	HAL_TIM_Encoder_Stop
 5514              		.thumb
 5515              		.thumb_func
 5517              	HAL_TIM_Encoder_Stop:
 5518              	.LFB178:
2424:Drivers/STM32F3xx_HAL_Driver/Src/stm32f3xx_hal_tim.c **** 
2425:Drivers/STM32F3xx_HAL_Driver/Src/stm32f3xx_hal_tim.c **** /**
2426:Drivers/STM32F3xx_HAL_Driver/Src/stm32f3xx_hal_tim.c ****   * @brief  Stops the TIM Encoder Interface.
2427:Drivers/STM32F3xx_HAL_Driver/Src/stm32f3xx_hal_tim.c ****   * @param  htim: TIM Encoder Interface handle
2428:Drivers/STM32F3xx_HAL_Driver/Src/stm32f3xx_hal_tim.c ****   * @param  Channel: TIM Channels to be disabled
2429:Drivers/STM32F3xx_HAL_Driver/Src/stm32f3xx_hal_tim.c ****   *          This parameter can be one of the following values:
2430:Drivers/STM32F3xx_HAL_Driver/Src/stm32f3xx_hal_tim.c ****   *            @arg TIM_CHANNEL_1: TIM Channel 1 selected
2431:Drivers/STM32F3xx_HAL_Driver/Src/stm32f3xx_hal_tim.c ****   *            @arg TIM_CHANNEL_2: TIM Channel 2 selected
2432:Drivers/STM32F3xx_HAL_Driver/Src/stm32f3xx_hal_tim.c ****   *            @arg TIM_CHANNEL_ALL: TIM Channel 1 and TIM Channel 2 are selected
2433:Drivers/STM32F3xx_HAL_Driver/Src/stm32f3xx_hal_tim.c ****   * @retval HAL status
2434:Drivers/STM32F3xx_HAL_Driver/Src/stm32f3xx_hal_tim.c **** */
2435:Drivers/STM32F3xx_HAL_Driver/Src/stm32f3xx_hal_tim.c **** HAL_StatusTypeDef HAL_TIM_Encoder_Stop(TIM_HandleTypeDef *htim, uint32_t Channel)
2436:Drivers/STM32F3xx_HAL_Driver/Src/stm32f3xx_hal_tim.c **** {
 5519              		.loc 1 2436 0
 5520              		.cfi_startproc
 5521              		@ args = 0, pretend = 0, frame = 8
 5522              		@ frame_needed = 1, uses_anonymous_args = 0
 5523 0000 80B5     		push	{r7, lr}
 5524              	.LCFI159:
 5525              		.cfi_def_cfa_offset 8
 5526              		.cfi_offset 7, -8
 5527              		.cfi_offset 14, -4
 5528 0002 82B0     		sub	sp, sp, #8
 5529              	.LCFI160:
 5530              		.cfi_def_cfa_offset 16
 5531 0004 00AF     		add	r7, sp, #0
 5532              	.LCFI161:
 5533              		.cfi_def_cfa_register 7
 5534 0006 7860     		str	r0, [r7, #4]
 5535 0008 3960     		str	r1, [r7]
2437:Drivers/STM32F3xx_HAL_Driver/Src/stm32f3xx_hal_tim.c ****   /* Check the parameters */
2438:Drivers/STM32F3xx_HAL_Driver/Src/stm32f3xx_hal_tim.c ****   assert_param(IS_TIM_CC2_INSTANCE(htim->Instance));
ARM GAS  /tmp/ccZyKULX.s 			page 139


2439:Drivers/STM32F3xx_HAL_Driver/Src/stm32f3xx_hal_tim.c ****   
2440:Drivers/STM32F3xx_HAL_Driver/Src/stm32f3xx_hal_tim.c ****   /* Disable the Input Capture channels 1 and 2
2441:Drivers/STM32F3xx_HAL_Driver/Src/stm32f3xx_hal_tim.c ****   (in the EncoderInterface the two possible channels that can be used are TIM_CHANNEL_1 and TIM_CHA
2442:Drivers/STM32F3xx_HAL_Driver/Src/stm32f3xx_hal_tim.c ****   switch (Channel)
 5536              		.loc 1 2442 0
 5537 000a 3B68     		ldr	r3, [r7]
 5538 000c 002B     		cmp	r3, #0
 5539 000e 02D0     		beq	.L342
 5540 0010 042B     		cmp	r3, #4
 5541 0012 08D0     		beq	.L343
 5542 0014 0FE0     		b	.L347
 5543              	.L342:
2443:Drivers/STM32F3xx_HAL_Driver/Src/stm32f3xx_hal_tim.c ****   {
2444:Drivers/STM32F3xx_HAL_Driver/Src/stm32f3xx_hal_tim.c ****   case TIM_CHANNEL_1:
2445:Drivers/STM32F3xx_HAL_Driver/Src/stm32f3xx_hal_tim.c ****     {
2446:Drivers/STM32F3xx_HAL_Driver/Src/stm32f3xx_hal_tim.c ****       TIM_CCxChannelCmd(htim->Instance, TIM_CHANNEL_1, TIM_CCx_DISABLE); 
 5544              		.loc 1 2446 0
 5545 0016 7B68     		ldr	r3, [r7, #4]
 5546 0018 1B68     		ldr	r3, [r3]
 5547 001a 1846     		mov	r0, r3
 5548 001c 0021     		movs	r1, #0
 5549 001e 0022     		movs	r2, #0
 5550 0020 FFF7FEFF 		bl	TIM_CCxChannelCmd
2447:Drivers/STM32F3xx_HAL_Driver/Src/stm32f3xx_hal_tim.c ****       break; 
 5551              		.loc 1 2447 0
 5552 0024 16E0     		b	.L344
 5553              	.L343:
2448:Drivers/STM32F3xx_HAL_Driver/Src/stm32f3xx_hal_tim.c ****     }  
2449:Drivers/STM32F3xx_HAL_Driver/Src/stm32f3xx_hal_tim.c ****   case TIM_CHANNEL_2:
2450:Drivers/STM32F3xx_HAL_Driver/Src/stm32f3xx_hal_tim.c ****     {  
2451:Drivers/STM32F3xx_HAL_Driver/Src/stm32f3xx_hal_tim.c ****       TIM_CCxChannelCmd(htim->Instance, TIM_CHANNEL_2, TIM_CCx_DISABLE); 
 5554              		.loc 1 2451 0
 5555 0026 7B68     		ldr	r3, [r7, #4]
 5556 0028 1B68     		ldr	r3, [r3]
 5557 002a 1846     		mov	r0, r3
 5558 002c 0421     		movs	r1, #4
 5559 002e 0022     		movs	r2, #0
 5560 0030 FFF7FEFF 		bl	TIM_CCxChannelCmd
2452:Drivers/STM32F3xx_HAL_Driver/Src/stm32f3xx_hal_tim.c ****       break;
 5561              		.loc 1 2452 0
 5562 0034 0EE0     		b	.L344
 5563              	.L347:
2453:Drivers/STM32F3xx_HAL_Driver/Src/stm32f3xx_hal_tim.c ****     }  
2454:Drivers/STM32F3xx_HAL_Driver/Src/stm32f3xx_hal_tim.c ****   default :
2455:Drivers/STM32F3xx_HAL_Driver/Src/stm32f3xx_hal_tim.c ****     {
2456:Drivers/STM32F3xx_HAL_Driver/Src/stm32f3xx_hal_tim.c ****       TIM_CCxChannelCmd(htim->Instance, TIM_CHANNEL_1, TIM_CCx_DISABLE); 
 5564              		.loc 1 2456 0
 5565 0036 7B68     		ldr	r3, [r7, #4]
 5566 0038 1B68     		ldr	r3, [r3]
 5567 003a 1846     		mov	r0, r3
 5568 003c 0021     		movs	r1, #0
 5569 003e 0022     		movs	r2, #0
 5570 0040 FFF7FEFF 		bl	TIM_CCxChannelCmd
2457:Drivers/STM32F3xx_HAL_Driver/Src/stm32f3xx_hal_tim.c ****       TIM_CCxChannelCmd(htim->Instance, TIM_CHANNEL_2, TIM_CCx_DISABLE); 
 5571              		.loc 1 2457 0
 5572 0044 7B68     		ldr	r3, [r7, #4]
 5573 0046 1B68     		ldr	r3, [r3]
ARM GAS  /tmp/ccZyKULX.s 			page 140


 5574 0048 1846     		mov	r0, r3
 5575 004a 0421     		movs	r1, #4
 5576 004c 0022     		movs	r2, #0
 5577 004e FFF7FEFF 		bl	TIM_CCxChannelCmd
2458:Drivers/STM32F3xx_HAL_Driver/Src/stm32f3xx_hal_tim.c ****       break; 
 5578              		.loc 1 2458 0
 5579 0052 00BF     		nop
 5580              	.L344:
2459:Drivers/STM32F3xx_HAL_Driver/Src/stm32f3xx_hal_tim.c ****     }
2460:Drivers/STM32F3xx_HAL_Driver/Src/stm32f3xx_hal_tim.c ****   }
2461:Drivers/STM32F3xx_HAL_Driver/Src/stm32f3xx_hal_tim.c ****   
2462:Drivers/STM32F3xx_HAL_Driver/Src/stm32f3xx_hal_tim.c ****   /* Disable the Peripheral */
2463:Drivers/STM32F3xx_HAL_Driver/Src/stm32f3xx_hal_tim.c ****   __HAL_TIM_DISABLE(htim);
 5581              		.loc 1 2463 0
 5582 0054 7B68     		ldr	r3, [r7, #4]
 5583 0056 1B68     		ldr	r3, [r3]
 5584 0058 1A6A     		ldr	r2, [r3, #32]
 5585 005a 41F21113 		movw	r3, #4369
 5586 005e 1340     		ands	r3, r3, r2
 5587 0060 002B     		cmp	r3, #0
 5588 0062 0FD1     		bne	.L345
 5589              		.loc 1 2463 0 is_stmt 0 discriminator 1
 5590 0064 7B68     		ldr	r3, [r7, #4]
 5591 0066 1B68     		ldr	r3, [r3]
 5592 0068 1A6A     		ldr	r2, [r3, #32]
 5593 006a 40F24443 		movw	r3, #1092
 5594 006e 1340     		ands	r3, r3, r2
 5595 0070 002B     		cmp	r3, #0
 5596 0072 07D1     		bne	.L345
 5597 0074 7B68     		ldr	r3, [r7, #4]
 5598 0076 1B68     		ldr	r3, [r3]
 5599 0078 7A68     		ldr	r2, [r7, #4]
 5600 007a 1268     		ldr	r2, [r2]
 5601 007c 1268     		ldr	r2, [r2]
 5602 007e 22F00102 		bic	r2, r2, #1
 5603 0082 1A60     		str	r2, [r3]
 5604              	.L345:
2464:Drivers/STM32F3xx_HAL_Driver/Src/stm32f3xx_hal_tim.c ****   
2465:Drivers/STM32F3xx_HAL_Driver/Src/stm32f3xx_hal_tim.c ****   /* Return function status */
2466:Drivers/STM32F3xx_HAL_Driver/Src/stm32f3xx_hal_tim.c ****   return HAL_OK;
 5605              		.loc 1 2466 0 is_stmt 1
 5606 0084 0023     		movs	r3, #0
2467:Drivers/STM32F3xx_HAL_Driver/Src/stm32f3xx_hal_tim.c **** }
 5607              		.loc 1 2467 0
 5608 0086 1846     		mov	r0, r3
 5609 0088 0837     		adds	r7, r7, #8
 5610 008a BD46     		mov	sp, r7
 5611              		@ sp needed
 5612 008c 80BD     		pop	{r7, pc}
 5613              		.cfi_endproc
 5614              	.LFE178:
 5616 008e 00BF     		.section	.text.HAL_TIM_Encoder_Start_IT,"ax",%progbits
 5617              		.align	2
 5618              		.global	HAL_TIM_Encoder_Start_IT
 5619              		.thumb
 5620              		.thumb_func
 5622              	HAL_TIM_Encoder_Start_IT:
ARM GAS  /tmp/ccZyKULX.s 			page 141


 5623              	.LFB179:
2468:Drivers/STM32F3xx_HAL_Driver/Src/stm32f3xx_hal_tim.c **** 
2469:Drivers/STM32F3xx_HAL_Driver/Src/stm32f3xx_hal_tim.c **** /**
2470:Drivers/STM32F3xx_HAL_Driver/Src/stm32f3xx_hal_tim.c ****   * @brief  Starts the TIM Encoder Interface in interrupt mode.
2471:Drivers/STM32F3xx_HAL_Driver/Src/stm32f3xx_hal_tim.c ****   * @param  htim: TIM Encoder Interface handle
2472:Drivers/STM32F3xx_HAL_Driver/Src/stm32f3xx_hal_tim.c ****   * @param  Channel: TIM Channels to be enabled
2473:Drivers/STM32F3xx_HAL_Driver/Src/stm32f3xx_hal_tim.c ****   *          This parameter can be one of the following values:
2474:Drivers/STM32F3xx_HAL_Driver/Src/stm32f3xx_hal_tim.c ****   *            @arg TIM_CHANNEL_1: TIM Channel 1 selected
2475:Drivers/STM32F3xx_HAL_Driver/Src/stm32f3xx_hal_tim.c ****   *            @arg TIM_CHANNEL_2: TIM Channel 2 selected
2476:Drivers/STM32F3xx_HAL_Driver/Src/stm32f3xx_hal_tim.c ****   *            @arg TIM_CHANNEL_ALL: TIM Channel 1 and TIM Channel 2 are selected
2477:Drivers/STM32F3xx_HAL_Driver/Src/stm32f3xx_hal_tim.c ****   * @retval HAL status
2478:Drivers/STM32F3xx_HAL_Driver/Src/stm32f3xx_hal_tim.c **** */
2479:Drivers/STM32F3xx_HAL_Driver/Src/stm32f3xx_hal_tim.c **** HAL_StatusTypeDef HAL_TIM_Encoder_Start_IT(TIM_HandleTypeDef *htim, uint32_t Channel)
2480:Drivers/STM32F3xx_HAL_Driver/Src/stm32f3xx_hal_tim.c **** {
 5624              		.loc 1 2480 0
 5625              		.cfi_startproc
 5626              		@ args = 0, pretend = 0, frame = 8
 5627              		@ frame_needed = 1, uses_anonymous_args = 0
 5628 0000 80B5     		push	{r7, lr}
 5629              	.LCFI162:
 5630              		.cfi_def_cfa_offset 8
 5631              		.cfi_offset 7, -8
 5632              		.cfi_offset 14, -4
 5633 0002 82B0     		sub	sp, sp, #8
 5634              	.LCFI163:
 5635              		.cfi_def_cfa_offset 16
 5636 0004 00AF     		add	r7, sp, #0
 5637              	.LCFI164:
 5638              		.cfi_def_cfa_register 7
 5639 0006 7860     		str	r0, [r7, #4]
 5640 0008 3960     		str	r1, [r7]
2481:Drivers/STM32F3xx_HAL_Driver/Src/stm32f3xx_hal_tim.c ****   /* Check the parameters */
2482:Drivers/STM32F3xx_HAL_Driver/Src/stm32f3xx_hal_tim.c ****   assert_param(IS_TIM_CC2_INSTANCE(htim->Instance));
2483:Drivers/STM32F3xx_HAL_Driver/Src/stm32f3xx_hal_tim.c ****   
2484:Drivers/STM32F3xx_HAL_Driver/Src/stm32f3xx_hal_tim.c ****   /* Enable the encoder interface channels */
2485:Drivers/STM32F3xx_HAL_Driver/Src/stm32f3xx_hal_tim.c ****   /* Enable the capture compare Interrupts 1 and/or 2 */
2486:Drivers/STM32F3xx_HAL_Driver/Src/stm32f3xx_hal_tim.c ****   switch (Channel)
 5641              		.loc 1 2486 0
 5642 000a 3B68     		ldr	r3, [r7]
 5643 000c 002B     		cmp	r3, #0
 5644 000e 02D0     		beq	.L350
 5645 0010 042B     		cmp	r3, #4
 5646 0012 10D0     		beq	.L351
 5647 0014 1FE0     		b	.L354
 5648              	.L350:
2487:Drivers/STM32F3xx_HAL_Driver/Src/stm32f3xx_hal_tim.c ****   {
2488:Drivers/STM32F3xx_HAL_Driver/Src/stm32f3xx_hal_tim.c ****   case TIM_CHANNEL_1:
2489:Drivers/STM32F3xx_HAL_Driver/Src/stm32f3xx_hal_tim.c ****     {
2490:Drivers/STM32F3xx_HAL_Driver/Src/stm32f3xx_hal_tim.c ****       TIM_CCxChannelCmd(htim->Instance, TIM_CHANNEL_1, TIM_CCx_ENABLE); 
 5649              		.loc 1 2490 0
 5650 0016 7B68     		ldr	r3, [r7, #4]
 5651 0018 1B68     		ldr	r3, [r3]
 5652 001a 1846     		mov	r0, r3
 5653 001c 0021     		movs	r1, #0
 5654 001e 0122     		movs	r2, #1
 5655 0020 FFF7FEFF 		bl	TIM_CCxChannelCmd
2491:Drivers/STM32F3xx_HAL_Driver/Src/stm32f3xx_hal_tim.c ****       __HAL_TIM_ENABLE_IT(htim, TIM_IT_CC1);
ARM GAS  /tmp/ccZyKULX.s 			page 142


 5656              		.loc 1 2491 0
 5657 0024 7B68     		ldr	r3, [r7, #4]
 5658 0026 1B68     		ldr	r3, [r3]
 5659 0028 7A68     		ldr	r2, [r7, #4]
 5660 002a 1268     		ldr	r2, [r2]
 5661 002c D268     		ldr	r2, [r2, #12]
 5662 002e 42F00202 		orr	r2, r2, #2
 5663 0032 DA60     		str	r2, [r3, #12]
2492:Drivers/STM32F3xx_HAL_Driver/Src/stm32f3xx_hal_tim.c ****       break; 
 5664              		.loc 1 2492 0
 5665 0034 2EE0     		b	.L352
 5666              	.L351:
2493:Drivers/STM32F3xx_HAL_Driver/Src/stm32f3xx_hal_tim.c ****     }  
2494:Drivers/STM32F3xx_HAL_Driver/Src/stm32f3xx_hal_tim.c ****   case TIM_CHANNEL_2:
2495:Drivers/STM32F3xx_HAL_Driver/Src/stm32f3xx_hal_tim.c ****     {  
2496:Drivers/STM32F3xx_HAL_Driver/Src/stm32f3xx_hal_tim.c ****       TIM_CCxChannelCmd(htim->Instance, TIM_CHANNEL_2, TIM_CCx_ENABLE); 
 5667              		.loc 1 2496 0
 5668 0036 7B68     		ldr	r3, [r7, #4]
 5669 0038 1B68     		ldr	r3, [r3]
 5670 003a 1846     		mov	r0, r3
 5671 003c 0421     		movs	r1, #4
 5672 003e 0122     		movs	r2, #1
 5673 0040 FFF7FEFF 		bl	TIM_CCxChannelCmd
2497:Drivers/STM32F3xx_HAL_Driver/Src/stm32f3xx_hal_tim.c ****       __HAL_TIM_ENABLE_IT(htim, TIM_IT_CC2);
 5674              		.loc 1 2497 0
 5675 0044 7B68     		ldr	r3, [r7, #4]
 5676 0046 1B68     		ldr	r3, [r3]
 5677 0048 7A68     		ldr	r2, [r7, #4]
 5678 004a 1268     		ldr	r2, [r2]
 5679 004c D268     		ldr	r2, [r2, #12]
 5680 004e 42F00402 		orr	r2, r2, #4
 5681 0052 DA60     		str	r2, [r3, #12]
2498:Drivers/STM32F3xx_HAL_Driver/Src/stm32f3xx_hal_tim.c ****       break;
 5682              		.loc 1 2498 0
 5683 0054 1EE0     		b	.L352
 5684              	.L354:
2499:Drivers/STM32F3xx_HAL_Driver/Src/stm32f3xx_hal_tim.c ****     }  
2500:Drivers/STM32F3xx_HAL_Driver/Src/stm32f3xx_hal_tim.c ****   default :
2501:Drivers/STM32F3xx_HAL_Driver/Src/stm32f3xx_hal_tim.c ****     {
2502:Drivers/STM32F3xx_HAL_Driver/Src/stm32f3xx_hal_tim.c ****       TIM_CCxChannelCmd(htim->Instance, TIM_CHANNEL_1, TIM_CCx_ENABLE);
 5685              		.loc 1 2502 0
 5686 0056 7B68     		ldr	r3, [r7, #4]
 5687 0058 1B68     		ldr	r3, [r3]
 5688 005a 1846     		mov	r0, r3
 5689 005c 0021     		movs	r1, #0
 5690 005e 0122     		movs	r2, #1
 5691 0060 FFF7FEFF 		bl	TIM_CCxChannelCmd
2503:Drivers/STM32F3xx_HAL_Driver/Src/stm32f3xx_hal_tim.c ****       TIM_CCxChannelCmd(htim->Instance, TIM_CHANNEL_2, TIM_CCx_ENABLE); 
 5692              		.loc 1 2503 0
 5693 0064 7B68     		ldr	r3, [r7, #4]
 5694 0066 1B68     		ldr	r3, [r3]
 5695 0068 1846     		mov	r0, r3
 5696 006a 0421     		movs	r1, #4
 5697 006c 0122     		movs	r2, #1
 5698 006e FFF7FEFF 		bl	TIM_CCxChannelCmd
2504:Drivers/STM32F3xx_HAL_Driver/Src/stm32f3xx_hal_tim.c ****       __HAL_TIM_ENABLE_IT(htim, TIM_IT_CC1);
 5699              		.loc 1 2504 0
ARM GAS  /tmp/ccZyKULX.s 			page 143


 5700 0072 7B68     		ldr	r3, [r7, #4]
 5701 0074 1B68     		ldr	r3, [r3]
 5702 0076 7A68     		ldr	r2, [r7, #4]
 5703 0078 1268     		ldr	r2, [r2]
 5704 007a D268     		ldr	r2, [r2, #12]
 5705 007c 42F00202 		orr	r2, r2, #2
 5706 0080 DA60     		str	r2, [r3, #12]
2505:Drivers/STM32F3xx_HAL_Driver/Src/stm32f3xx_hal_tim.c ****       __HAL_TIM_ENABLE_IT(htim, TIM_IT_CC2);
 5707              		.loc 1 2505 0
 5708 0082 7B68     		ldr	r3, [r7, #4]
 5709 0084 1B68     		ldr	r3, [r3]
 5710 0086 7A68     		ldr	r2, [r7, #4]
 5711 0088 1268     		ldr	r2, [r2]
 5712 008a D268     		ldr	r2, [r2, #12]
 5713 008c 42F00402 		orr	r2, r2, #4
 5714 0090 DA60     		str	r2, [r3, #12]
2506:Drivers/STM32F3xx_HAL_Driver/Src/stm32f3xx_hal_tim.c ****       break; 
 5715              		.loc 1 2506 0
 5716 0092 00BF     		nop
 5717              	.L352:
2507:Drivers/STM32F3xx_HAL_Driver/Src/stm32f3xx_hal_tim.c ****     }
2508:Drivers/STM32F3xx_HAL_Driver/Src/stm32f3xx_hal_tim.c ****   }   
2509:Drivers/STM32F3xx_HAL_Driver/Src/stm32f3xx_hal_tim.c ****   
2510:Drivers/STM32F3xx_HAL_Driver/Src/stm32f3xx_hal_tim.c ****   /* Enable the Peripheral */
2511:Drivers/STM32F3xx_HAL_Driver/Src/stm32f3xx_hal_tim.c ****   __HAL_TIM_ENABLE(htim);
 5718              		.loc 1 2511 0
 5719 0094 7B68     		ldr	r3, [r7, #4]
 5720 0096 1B68     		ldr	r3, [r3]
 5721 0098 7A68     		ldr	r2, [r7, #4]
 5722 009a 1268     		ldr	r2, [r2]
 5723 009c 1268     		ldr	r2, [r2]
 5724 009e 42F00102 		orr	r2, r2, #1
 5725 00a2 1A60     		str	r2, [r3]
2512:Drivers/STM32F3xx_HAL_Driver/Src/stm32f3xx_hal_tim.c ****   
2513:Drivers/STM32F3xx_HAL_Driver/Src/stm32f3xx_hal_tim.c ****   /* Return function status */
2514:Drivers/STM32F3xx_HAL_Driver/Src/stm32f3xx_hal_tim.c ****   return HAL_OK;
 5726              		.loc 1 2514 0
 5727 00a4 0023     		movs	r3, #0
2515:Drivers/STM32F3xx_HAL_Driver/Src/stm32f3xx_hal_tim.c **** }
 5728              		.loc 1 2515 0
 5729 00a6 1846     		mov	r0, r3
 5730 00a8 0837     		adds	r7, r7, #8
 5731 00aa BD46     		mov	sp, r7
 5732              		@ sp needed
 5733 00ac 80BD     		pop	{r7, pc}
 5734              		.cfi_endproc
 5735              	.LFE179:
 5737 00ae 00BF     		.section	.text.HAL_TIM_Encoder_Stop_IT,"ax",%progbits
 5738              		.align	2
 5739              		.global	HAL_TIM_Encoder_Stop_IT
 5740              		.thumb
 5741              		.thumb_func
 5743              	HAL_TIM_Encoder_Stop_IT:
 5744              	.LFB180:
2516:Drivers/STM32F3xx_HAL_Driver/Src/stm32f3xx_hal_tim.c **** 
2517:Drivers/STM32F3xx_HAL_Driver/Src/stm32f3xx_hal_tim.c **** /**
2518:Drivers/STM32F3xx_HAL_Driver/Src/stm32f3xx_hal_tim.c ****   * @brief  Stops the TIM Encoder Interface in interrupt mode.
ARM GAS  /tmp/ccZyKULX.s 			page 144


2519:Drivers/STM32F3xx_HAL_Driver/Src/stm32f3xx_hal_tim.c ****   * @param  htim: TIM Encoder Interface handle
2520:Drivers/STM32F3xx_HAL_Driver/Src/stm32f3xx_hal_tim.c ****   * @param  Channel: TIM Channels to be disabled
2521:Drivers/STM32F3xx_HAL_Driver/Src/stm32f3xx_hal_tim.c ****   *          This parameter can be one of the following values:
2522:Drivers/STM32F3xx_HAL_Driver/Src/stm32f3xx_hal_tim.c ****   *            @arg TIM_CHANNEL_1: TIM Channel 1 selected
2523:Drivers/STM32F3xx_HAL_Driver/Src/stm32f3xx_hal_tim.c ****   *            @arg TIM_CHANNEL_2: TIM Channel 2 selected
2524:Drivers/STM32F3xx_HAL_Driver/Src/stm32f3xx_hal_tim.c ****   *            @arg TIM_CHANNEL_ALL: TIM Channel 1 and TIM Channel 2 are selected
2525:Drivers/STM32F3xx_HAL_Driver/Src/stm32f3xx_hal_tim.c ****   * @retval HAL status
2526:Drivers/STM32F3xx_HAL_Driver/Src/stm32f3xx_hal_tim.c **** */
2527:Drivers/STM32F3xx_HAL_Driver/Src/stm32f3xx_hal_tim.c **** HAL_StatusTypeDef HAL_TIM_Encoder_Stop_IT(TIM_HandleTypeDef *htim, uint32_t Channel)
2528:Drivers/STM32F3xx_HAL_Driver/Src/stm32f3xx_hal_tim.c **** {
 5745              		.loc 1 2528 0
 5746              		.cfi_startproc
 5747              		@ args = 0, pretend = 0, frame = 8
 5748              		@ frame_needed = 1, uses_anonymous_args = 0
 5749 0000 80B5     		push	{r7, lr}
 5750              	.LCFI165:
 5751              		.cfi_def_cfa_offset 8
 5752              		.cfi_offset 7, -8
 5753              		.cfi_offset 14, -4
 5754 0002 82B0     		sub	sp, sp, #8
 5755              	.LCFI166:
 5756              		.cfi_def_cfa_offset 16
 5757 0004 00AF     		add	r7, sp, #0
 5758              	.LCFI167:
 5759              		.cfi_def_cfa_register 7
 5760 0006 7860     		str	r0, [r7, #4]
 5761 0008 3960     		str	r1, [r7]
2529:Drivers/STM32F3xx_HAL_Driver/Src/stm32f3xx_hal_tim.c ****   /* Check the parameters */
2530:Drivers/STM32F3xx_HAL_Driver/Src/stm32f3xx_hal_tim.c ****   assert_param(IS_TIM_CC2_INSTANCE(htim->Instance));
2531:Drivers/STM32F3xx_HAL_Driver/Src/stm32f3xx_hal_tim.c ****   
2532:Drivers/STM32F3xx_HAL_Driver/Src/stm32f3xx_hal_tim.c ****   /* Disable the Input Capture channels 1 and 2
2533:Drivers/STM32F3xx_HAL_Driver/Src/stm32f3xx_hal_tim.c ****   (in the EncoderInterface the two possible channels that can be used are TIM_CHANNEL_1 and TIM_CHA
2534:Drivers/STM32F3xx_HAL_Driver/Src/stm32f3xx_hal_tim.c ****   if(Channel == TIM_CHANNEL_1)
 5762              		.loc 1 2534 0
 5763 000a 3B68     		ldr	r3, [r7]
 5764 000c 002B     		cmp	r3, #0
 5765 000e 0FD1     		bne	.L356
2535:Drivers/STM32F3xx_HAL_Driver/Src/stm32f3xx_hal_tim.c ****   {
2536:Drivers/STM32F3xx_HAL_Driver/Src/stm32f3xx_hal_tim.c ****     TIM_CCxChannelCmd(htim->Instance, TIM_CHANNEL_1, TIM_CCx_DISABLE); 
 5766              		.loc 1 2536 0
 5767 0010 7B68     		ldr	r3, [r7, #4]
 5768 0012 1B68     		ldr	r3, [r3]
 5769 0014 1846     		mov	r0, r3
 5770 0016 0021     		movs	r1, #0
 5771 0018 0022     		movs	r2, #0
 5772 001a FFF7FEFF 		bl	TIM_CCxChannelCmd
2537:Drivers/STM32F3xx_HAL_Driver/Src/stm32f3xx_hal_tim.c ****     
2538:Drivers/STM32F3xx_HAL_Driver/Src/stm32f3xx_hal_tim.c ****     /* Disable the capture compare Interrupts 1 */
2539:Drivers/STM32F3xx_HAL_Driver/Src/stm32f3xx_hal_tim.c ****     __HAL_TIM_DISABLE_IT(htim, TIM_IT_CC1);
 5773              		.loc 1 2539 0
 5774 001e 7B68     		ldr	r3, [r7, #4]
 5775 0020 1B68     		ldr	r3, [r3]
 5776 0022 7A68     		ldr	r2, [r7, #4]
 5777 0024 1268     		ldr	r2, [r2]
 5778 0026 D268     		ldr	r2, [r2, #12]
 5779 0028 22F00202 		bic	r2, r2, #2
 5780 002c DA60     		str	r2, [r3, #12]
ARM GAS  /tmp/ccZyKULX.s 			page 145


 5781 002e 30E0     		b	.L357
 5782              	.L356:
2540:Drivers/STM32F3xx_HAL_Driver/Src/stm32f3xx_hal_tim.c ****   }  
2541:Drivers/STM32F3xx_HAL_Driver/Src/stm32f3xx_hal_tim.c ****   else if(Channel == TIM_CHANNEL_2)
 5783              		.loc 1 2541 0
 5784 0030 3B68     		ldr	r3, [r7]
 5785 0032 042B     		cmp	r3, #4
 5786 0034 0FD1     		bne	.L358
2542:Drivers/STM32F3xx_HAL_Driver/Src/stm32f3xx_hal_tim.c ****   {  
2543:Drivers/STM32F3xx_HAL_Driver/Src/stm32f3xx_hal_tim.c ****     TIM_CCxChannelCmd(htim->Instance, TIM_CHANNEL_2, TIM_CCx_DISABLE); 
 5787              		.loc 1 2543 0
 5788 0036 7B68     		ldr	r3, [r7, #4]
 5789 0038 1B68     		ldr	r3, [r3]
 5790 003a 1846     		mov	r0, r3
 5791 003c 0421     		movs	r1, #4
 5792 003e 0022     		movs	r2, #0
 5793 0040 FFF7FEFF 		bl	TIM_CCxChannelCmd
2544:Drivers/STM32F3xx_HAL_Driver/Src/stm32f3xx_hal_tim.c ****     
2545:Drivers/STM32F3xx_HAL_Driver/Src/stm32f3xx_hal_tim.c ****     /* Disable the capture compare Interrupts 2 */
2546:Drivers/STM32F3xx_HAL_Driver/Src/stm32f3xx_hal_tim.c ****     __HAL_TIM_DISABLE_IT(htim, TIM_IT_CC2);
 5794              		.loc 1 2546 0
 5795 0044 7B68     		ldr	r3, [r7, #4]
 5796 0046 1B68     		ldr	r3, [r3]
 5797 0048 7A68     		ldr	r2, [r7, #4]
 5798 004a 1268     		ldr	r2, [r2]
 5799 004c D268     		ldr	r2, [r2, #12]
 5800 004e 22F00402 		bic	r2, r2, #4
 5801 0052 DA60     		str	r2, [r3, #12]
 5802 0054 1DE0     		b	.L357
 5803              	.L358:
2547:Drivers/STM32F3xx_HAL_Driver/Src/stm32f3xx_hal_tim.c ****   }  
2548:Drivers/STM32F3xx_HAL_Driver/Src/stm32f3xx_hal_tim.c ****   else
2549:Drivers/STM32F3xx_HAL_Driver/Src/stm32f3xx_hal_tim.c ****   {
2550:Drivers/STM32F3xx_HAL_Driver/Src/stm32f3xx_hal_tim.c ****     TIM_CCxChannelCmd(htim->Instance, TIM_CHANNEL_1, TIM_CCx_DISABLE); 
 5804              		.loc 1 2550 0
 5805 0056 7B68     		ldr	r3, [r7, #4]
 5806 0058 1B68     		ldr	r3, [r3]
 5807 005a 1846     		mov	r0, r3
 5808 005c 0021     		movs	r1, #0
 5809 005e 0022     		movs	r2, #0
 5810 0060 FFF7FEFF 		bl	TIM_CCxChannelCmd
2551:Drivers/STM32F3xx_HAL_Driver/Src/stm32f3xx_hal_tim.c ****     TIM_CCxChannelCmd(htim->Instance, TIM_CHANNEL_2, TIM_CCx_DISABLE); 
 5811              		.loc 1 2551 0
 5812 0064 7B68     		ldr	r3, [r7, #4]
 5813 0066 1B68     		ldr	r3, [r3]
 5814 0068 1846     		mov	r0, r3
 5815 006a 0421     		movs	r1, #4
 5816 006c 0022     		movs	r2, #0
 5817 006e FFF7FEFF 		bl	TIM_CCxChannelCmd
2552:Drivers/STM32F3xx_HAL_Driver/Src/stm32f3xx_hal_tim.c ****     
2553:Drivers/STM32F3xx_HAL_Driver/Src/stm32f3xx_hal_tim.c ****     /* Disable the capture compare Interrupts 1 and 2 */
2554:Drivers/STM32F3xx_HAL_Driver/Src/stm32f3xx_hal_tim.c ****     __HAL_TIM_DISABLE_IT(htim, TIM_IT_CC1);
 5818              		.loc 1 2554 0
 5819 0072 7B68     		ldr	r3, [r7, #4]
 5820 0074 1B68     		ldr	r3, [r3]
 5821 0076 7A68     		ldr	r2, [r7, #4]
 5822 0078 1268     		ldr	r2, [r2]
ARM GAS  /tmp/ccZyKULX.s 			page 146


 5823 007a D268     		ldr	r2, [r2, #12]
 5824 007c 22F00202 		bic	r2, r2, #2
 5825 0080 DA60     		str	r2, [r3, #12]
2555:Drivers/STM32F3xx_HAL_Driver/Src/stm32f3xx_hal_tim.c ****     __HAL_TIM_DISABLE_IT(htim, TIM_IT_CC2);
 5826              		.loc 1 2555 0
 5827 0082 7B68     		ldr	r3, [r7, #4]
 5828 0084 1B68     		ldr	r3, [r3]
 5829 0086 7A68     		ldr	r2, [r7, #4]
 5830 0088 1268     		ldr	r2, [r2]
 5831 008a D268     		ldr	r2, [r2, #12]
 5832 008c 22F00402 		bic	r2, r2, #4
 5833 0090 DA60     		str	r2, [r3, #12]
 5834              	.L357:
2556:Drivers/STM32F3xx_HAL_Driver/Src/stm32f3xx_hal_tim.c ****   }
2557:Drivers/STM32F3xx_HAL_Driver/Src/stm32f3xx_hal_tim.c ****   
2558:Drivers/STM32F3xx_HAL_Driver/Src/stm32f3xx_hal_tim.c ****   /* Disable the Peripheral */
2559:Drivers/STM32F3xx_HAL_Driver/Src/stm32f3xx_hal_tim.c ****   __HAL_TIM_DISABLE(htim);
 5835              		.loc 1 2559 0
 5836 0092 7B68     		ldr	r3, [r7, #4]
 5837 0094 1B68     		ldr	r3, [r3]
 5838 0096 1A6A     		ldr	r2, [r3, #32]
 5839 0098 41F21113 		movw	r3, #4369
 5840 009c 1340     		ands	r3, r3, r2
 5841 009e 002B     		cmp	r3, #0
 5842 00a0 0FD1     		bne	.L359
 5843              		.loc 1 2559 0 is_stmt 0 discriminator 1
 5844 00a2 7B68     		ldr	r3, [r7, #4]
 5845 00a4 1B68     		ldr	r3, [r3]
 5846 00a6 1A6A     		ldr	r2, [r3, #32]
 5847 00a8 40F24443 		movw	r3, #1092
 5848 00ac 1340     		ands	r3, r3, r2
 5849 00ae 002B     		cmp	r3, #0
 5850 00b0 07D1     		bne	.L359
 5851 00b2 7B68     		ldr	r3, [r7, #4]
 5852 00b4 1B68     		ldr	r3, [r3]
 5853 00b6 7A68     		ldr	r2, [r7, #4]
 5854 00b8 1268     		ldr	r2, [r2]
 5855 00ba 1268     		ldr	r2, [r2]
 5856 00bc 22F00102 		bic	r2, r2, #1
 5857 00c0 1A60     		str	r2, [r3]
 5858              	.L359:
2560:Drivers/STM32F3xx_HAL_Driver/Src/stm32f3xx_hal_tim.c ****   
2561:Drivers/STM32F3xx_HAL_Driver/Src/stm32f3xx_hal_tim.c ****   /* Change the htim state */
2562:Drivers/STM32F3xx_HAL_Driver/Src/stm32f3xx_hal_tim.c ****   htim->State = HAL_TIM_STATE_READY;
 5859              		.loc 1 2562 0 is_stmt 1
 5860 00c2 7B68     		ldr	r3, [r7, #4]
 5861 00c4 0122     		movs	r2, #1
 5862 00c6 83F83920 		strb	r2, [r3, #57]
2563:Drivers/STM32F3xx_HAL_Driver/Src/stm32f3xx_hal_tim.c ****   
2564:Drivers/STM32F3xx_HAL_Driver/Src/stm32f3xx_hal_tim.c ****   /* Return function status */
2565:Drivers/STM32F3xx_HAL_Driver/Src/stm32f3xx_hal_tim.c ****   return HAL_OK;
 5863              		.loc 1 2565 0
 5864 00ca 0023     		movs	r3, #0
2566:Drivers/STM32F3xx_HAL_Driver/Src/stm32f3xx_hal_tim.c **** }
 5865              		.loc 1 2566 0
 5866 00cc 1846     		mov	r0, r3
 5867 00ce 0837     		adds	r7, r7, #8
ARM GAS  /tmp/ccZyKULX.s 			page 147


 5868 00d0 BD46     		mov	sp, r7
 5869              		@ sp needed
 5870 00d2 80BD     		pop	{r7, pc}
 5871              		.cfi_endproc
 5872              	.LFE180:
 5874              		.section	.text.HAL_TIM_Encoder_Start_DMA,"ax",%progbits
 5875              		.align	2
 5876              		.global	HAL_TIM_Encoder_Start_DMA
 5877              		.thumb
 5878              		.thumb_func
 5880              	HAL_TIM_Encoder_Start_DMA:
 5881              	.LFB181:
2567:Drivers/STM32F3xx_HAL_Driver/Src/stm32f3xx_hal_tim.c **** 
2568:Drivers/STM32F3xx_HAL_Driver/Src/stm32f3xx_hal_tim.c **** /**
2569:Drivers/STM32F3xx_HAL_Driver/Src/stm32f3xx_hal_tim.c ****   * @brief  Starts the TIM Encoder Interface in DMA mode.
2570:Drivers/STM32F3xx_HAL_Driver/Src/stm32f3xx_hal_tim.c ****   * @param  htim: TIM Encoder Interface handle
2571:Drivers/STM32F3xx_HAL_Driver/Src/stm32f3xx_hal_tim.c ****   * @param  Channel: TIM Channels to be enabled
2572:Drivers/STM32F3xx_HAL_Driver/Src/stm32f3xx_hal_tim.c ****   *          This parameter can be one of the following values:
2573:Drivers/STM32F3xx_HAL_Driver/Src/stm32f3xx_hal_tim.c ****   *            @arg TIM_CHANNEL_1: TIM Channel 1 selected
2574:Drivers/STM32F3xx_HAL_Driver/Src/stm32f3xx_hal_tim.c ****   *            @arg TIM_CHANNEL_2: TIM Channel 2 selected
2575:Drivers/STM32F3xx_HAL_Driver/Src/stm32f3xx_hal_tim.c ****   *            @arg TIM_CHANNEL_ALL: TIM Channel 1 and TIM Channel 2 are selected
2576:Drivers/STM32F3xx_HAL_Driver/Src/stm32f3xx_hal_tim.c ****   * @param  pData1: The destination Buffer address for IC1.
2577:Drivers/STM32F3xx_HAL_Driver/Src/stm32f3xx_hal_tim.c ****   * @param  pData2: The destination Buffer address for IC2.
2578:Drivers/STM32F3xx_HAL_Driver/Src/stm32f3xx_hal_tim.c ****   * @param  Length: The length of data to be transferred from TIM peripheral to memory.
2579:Drivers/STM32F3xx_HAL_Driver/Src/stm32f3xx_hal_tim.c ****   * @retval HAL status
2580:Drivers/STM32F3xx_HAL_Driver/Src/stm32f3xx_hal_tim.c **** */
2581:Drivers/STM32F3xx_HAL_Driver/Src/stm32f3xx_hal_tim.c **** HAL_StatusTypeDef HAL_TIM_Encoder_Start_DMA(TIM_HandleTypeDef *htim, uint32_t Channel, uint32_t *pD
2582:Drivers/STM32F3xx_HAL_Driver/Src/stm32f3xx_hal_tim.c **** {
 5882              		.loc 1 2582 0
 5883              		.cfi_startproc
 5884              		@ args = 4, pretend = 0, frame = 16
 5885              		@ frame_needed = 1, uses_anonymous_args = 0
 5886 0000 80B5     		push	{r7, lr}
 5887              	.LCFI168:
 5888              		.cfi_def_cfa_offset 8
 5889              		.cfi_offset 7, -8
 5890              		.cfi_offset 14, -4
 5891 0002 84B0     		sub	sp, sp, #16
 5892              	.LCFI169:
 5893              		.cfi_def_cfa_offset 24
 5894 0004 00AF     		add	r7, sp, #0
 5895              	.LCFI170:
 5896              		.cfi_def_cfa_register 7
 5897 0006 F860     		str	r0, [r7, #12]
 5898 0008 B960     		str	r1, [r7, #8]
 5899 000a 7A60     		str	r2, [r7, #4]
 5900 000c 3B60     		str	r3, [r7]
2583:Drivers/STM32F3xx_HAL_Driver/Src/stm32f3xx_hal_tim.c ****   /* Check the parameters */
2584:Drivers/STM32F3xx_HAL_Driver/Src/stm32f3xx_hal_tim.c ****   assert_param(IS_TIM_DMA_CC_INSTANCE(htim->Instance));
2585:Drivers/STM32F3xx_HAL_Driver/Src/stm32f3xx_hal_tim.c ****   
2586:Drivers/STM32F3xx_HAL_Driver/Src/stm32f3xx_hal_tim.c ****   if((htim->State == HAL_TIM_STATE_BUSY))
 5901              		.loc 1 2586 0
 5902 000e FB68     		ldr	r3, [r7, #12]
 5903 0010 93F83930 		ldrb	r3, [r3, #57]
 5904 0014 DBB2     		uxtb	r3, r3
 5905 0016 022B     		cmp	r3, #2
 5906 0018 01D1     		bne	.L362
ARM GAS  /tmp/ccZyKULX.s 			page 148


2587:Drivers/STM32F3xx_HAL_Driver/Src/stm32f3xx_hal_tim.c ****   {
2588:Drivers/STM32F3xx_HAL_Driver/Src/stm32f3xx_hal_tim.c ****     return HAL_BUSY;
 5907              		.loc 1 2588 0
 5908 001a 0223     		movs	r3, #2
 5909 001c BCE0     		b	.L363
 5910              	.L362:
2589:Drivers/STM32F3xx_HAL_Driver/Src/stm32f3xx_hal_tim.c ****   }
2590:Drivers/STM32F3xx_HAL_Driver/Src/stm32f3xx_hal_tim.c ****   else if((htim->State == HAL_TIM_STATE_READY))
 5911              		.loc 1 2590 0
 5912 001e FB68     		ldr	r3, [r7, #12]
 5913 0020 93F83930 		ldrb	r3, [r3, #57]
 5914 0024 DBB2     		uxtb	r3, r3
 5915 0026 012B     		cmp	r3, #1
 5916 0028 0ED1     		bne	.L364
2591:Drivers/STM32F3xx_HAL_Driver/Src/stm32f3xx_hal_tim.c ****   {
2592:Drivers/STM32F3xx_HAL_Driver/Src/stm32f3xx_hal_tim.c ****     if((((pData1 == 0) || (pData2 == 0) )) && (Length > 0)) 
 5917              		.loc 1 2592 0
 5918 002a 7B68     		ldr	r3, [r7, #4]
 5919 002c 002B     		cmp	r3, #0
 5920 002e 02D0     		beq	.L365
 5921              		.loc 1 2592 0 is_stmt 0 discriminator 2
 5922 0030 3B68     		ldr	r3, [r7]
 5923 0032 002B     		cmp	r3, #0
 5924 0034 04D1     		bne	.L366
 5925              	.L365:
 5926              		.loc 1 2592 0 discriminator 1
 5927 0036 3B8B     		ldrh	r3, [r7, #24]
 5928 0038 002B     		cmp	r3, #0
 5929 003a 01D0     		beq	.L366
2593:Drivers/STM32F3xx_HAL_Driver/Src/stm32f3xx_hal_tim.c ****     {
2594:Drivers/STM32F3xx_HAL_Driver/Src/stm32f3xx_hal_tim.c ****       return HAL_ERROR;                                    
 5930              		.loc 1 2594 0 is_stmt 1
 5931 003c 0123     		movs	r3, #1
 5932 003e ABE0     		b	.L363
 5933              	.L366:
2595:Drivers/STM32F3xx_HAL_Driver/Src/stm32f3xx_hal_tim.c ****     }
2596:Drivers/STM32F3xx_HAL_Driver/Src/stm32f3xx_hal_tim.c ****     else
2597:Drivers/STM32F3xx_HAL_Driver/Src/stm32f3xx_hal_tim.c ****     {
2598:Drivers/STM32F3xx_HAL_Driver/Src/stm32f3xx_hal_tim.c ****       htim->State = HAL_TIM_STATE_BUSY;
 5934              		.loc 1 2598 0
 5935 0040 FB68     		ldr	r3, [r7, #12]
 5936 0042 0222     		movs	r2, #2
 5937 0044 83F83920 		strb	r2, [r3, #57]
 5938              	.L364:
2599:Drivers/STM32F3xx_HAL_Driver/Src/stm32f3xx_hal_tim.c ****     }
2600:Drivers/STM32F3xx_HAL_Driver/Src/stm32f3xx_hal_tim.c ****   }  
2601:Drivers/STM32F3xx_HAL_Driver/Src/stm32f3xx_hal_tim.c ****   
2602:Drivers/STM32F3xx_HAL_Driver/Src/stm32f3xx_hal_tim.c ****   switch (Channel)
 5939              		.loc 1 2602 0
 5940 0048 BB68     		ldr	r3, [r7, #8]
 5941 004a 042B     		cmp	r3, #4
 5942 004c 2ED0     		beq	.L368
 5943 004e 3C2B     		cmp	r3, #60
 5944 0050 56D0     		beq	.L369
 5945 0052 002B     		cmp	r3, #0
 5946 0054 00D0     		beq	.L370
2603:Drivers/STM32F3xx_HAL_Driver/Src/stm32f3xx_hal_tim.c ****   {
ARM GAS  /tmp/ccZyKULX.s 			page 149


2604:Drivers/STM32F3xx_HAL_Driver/Src/stm32f3xx_hal_tim.c ****   case TIM_CHANNEL_1:
2605:Drivers/STM32F3xx_HAL_Driver/Src/stm32f3xx_hal_tim.c ****     {
2606:Drivers/STM32F3xx_HAL_Driver/Src/stm32f3xx_hal_tim.c ****       /* Set the DMA Period elapsed callback */
2607:Drivers/STM32F3xx_HAL_Driver/Src/stm32f3xx_hal_tim.c ****       htim->hdma[TIM_DMA_ID_CC1]->XferCpltCallback = TIM_DMACaptureCplt;
2608:Drivers/STM32F3xx_HAL_Driver/Src/stm32f3xx_hal_tim.c ****       
2609:Drivers/STM32F3xx_HAL_Driver/Src/stm32f3xx_hal_tim.c ****       /* Set the DMA error callback */
2610:Drivers/STM32F3xx_HAL_Driver/Src/stm32f3xx_hal_tim.c ****       htim->hdma[TIM_DMA_ID_CC1]->XferErrorCallback = TIM_DMAError ;
2611:Drivers/STM32F3xx_HAL_Driver/Src/stm32f3xx_hal_tim.c ****       
2612:Drivers/STM32F3xx_HAL_Driver/Src/stm32f3xx_hal_tim.c ****       /* Enable the DMA channel */
2613:Drivers/STM32F3xx_HAL_Driver/Src/stm32f3xx_hal_tim.c ****       HAL_DMA_Start_IT(htim->hdma[TIM_DMA_ID_CC1], (uint32_t)&htim->Instance->CCR1, (uint32_t )pDat
2614:Drivers/STM32F3xx_HAL_Driver/Src/stm32f3xx_hal_tim.c ****       
2615:Drivers/STM32F3xx_HAL_Driver/Src/stm32f3xx_hal_tim.c ****       /* Enable the TIM Input Capture DMA request */      
2616:Drivers/STM32F3xx_HAL_Driver/Src/stm32f3xx_hal_tim.c ****       __HAL_TIM_ENABLE_DMA(htim, TIM_DMA_CC1);
2617:Drivers/STM32F3xx_HAL_Driver/Src/stm32f3xx_hal_tim.c ****       
2618:Drivers/STM32F3xx_HAL_Driver/Src/stm32f3xx_hal_tim.c ****       /* Enable the Peripheral */
2619:Drivers/STM32F3xx_HAL_Driver/Src/stm32f3xx_hal_tim.c ****       __HAL_TIM_ENABLE(htim);
2620:Drivers/STM32F3xx_HAL_Driver/Src/stm32f3xx_hal_tim.c ****       
2621:Drivers/STM32F3xx_HAL_Driver/Src/stm32f3xx_hal_tim.c ****       /* Enable the Capture compare channel */
2622:Drivers/STM32F3xx_HAL_Driver/Src/stm32f3xx_hal_tim.c ****       TIM_CCxChannelCmd(htim->Instance, TIM_CHANNEL_1, TIM_CCx_ENABLE);
2623:Drivers/STM32F3xx_HAL_Driver/Src/stm32f3xx_hal_tim.c ****     }
2624:Drivers/STM32F3xx_HAL_Driver/Src/stm32f3xx_hal_tim.c ****     break;
2625:Drivers/STM32F3xx_HAL_Driver/Src/stm32f3xx_hal_tim.c ****     
2626:Drivers/STM32F3xx_HAL_Driver/Src/stm32f3xx_hal_tim.c ****   case TIM_CHANNEL_2:
2627:Drivers/STM32F3xx_HAL_Driver/Src/stm32f3xx_hal_tim.c ****     {
2628:Drivers/STM32F3xx_HAL_Driver/Src/stm32f3xx_hal_tim.c ****       /* Set the DMA Period elapsed callback */
2629:Drivers/STM32F3xx_HAL_Driver/Src/stm32f3xx_hal_tim.c ****       htim->hdma[TIM_DMA_ID_CC2]->XferCpltCallback = TIM_DMACaptureCplt;
2630:Drivers/STM32F3xx_HAL_Driver/Src/stm32f3xx_hal_tim.c ****       
2631:Drivers/STM32F3xx_HAL_Driver/Src/stm32f3xx_hal_tim.c ****       /* Set the DMA error callback */
2632:Drivers/STM32F3xx_HAL_Driver/Src/stm32f3xx_hal_tim.c ****       htim->hdma[TIM_DMA_ID_CC2]->XferErrorCallback = TIM_DMAError;
2633:Drivers/STM32F3xx_HAL_Driver/Src/stm32f3xx_hal_tim.c ****       /* Enable the DMA channel */
2634:Drivers/STM32F3xx_HAL_Driver/Src/stm32f3xx_hal_tim.c ****       HAL_DMA_Start_IT(htim->hdma[TIM_DMA_ID_CC2], (uint32_t)&htim->Instance->CCR2, (uint32_t)pData
2635:Drivers/STM32F3xx_HAL_Driver/Src/stm32f3xx_hal_tim.c ****       
2636:Drivers/STM32F3xx_HAL_Driver/Src/stm32f3xx_hal_tim.c ****       /* Enable the TIM Input Capture  DMA request */
2637:Drivers/STM32F3xx_HAL_Driver/Src/stm32f3xx_hal_tim.c ****       __HAL_TIM_ENABLE_DMA(htim, TIM_DMA_CC2);
2638:Drivers/STM32F3xx_HAL_Driver/Src/stm32f3xx_hal_tim.c ****       
2639:Drivers/STM32F3xx_HAL_Driver/Src/stm32f3xx_hal_tim.c ****       /* Enable the Peripheral */
2640:Drivers/STM32F3xx_HAL_Driver/Src/stm32f3xx_hal_tim.c ****       __HAL_TIM_ENABLE(htim);
2641:Drivers/STM32F3xx_HAL_Driver/Src/stm32f3xx_hal_tim.c ****       
2642:Drivers/STM32F3xx_HAL_Driver/Src/stm32f3xx_hal_tim.c ****       /* Enable the Capture compare channel */
2643:Drivers/STM32F3xx_HAL_Driver/Src/stm32f3xx_hal_tim.c ****       TIM_CCxChannelCmd(htim->Instance, TIM_CHANNEL_2, TIM_CCx_ENABLE);
2644:Drivers/STM32F3xx_HAL_Driver/Src/stm32f3xx_hal_tim.c ****     }
2645:Drivers/STM32F3xx_HAL_Driver/Src/stm32f3xx_hal_tim.c ****     break;
2646:Drivers/STM32F3xx_HAL_Driver/Src/stm32f3xx_hal_tim.c ****     
2647:Drivers/STM32F3xx_HAL_Driver/Src/stm32f3xx_hal_tim.c ****   case TIM_CHANNEL_ALL:
2648:Drivers/STM32F3xx_HAL_Driver/Src/stm32f3xx_hal_tim.c ****     {
2649:Drivers/STM32F3xx_HAL_Driver/Src/stm32f3xx_hal_tim.c ****       /* Set the DMA Period elapsed callback */
2650:Drivers/STM32F3xx_HAL_Driver/Src/stm32f3xx_hal_tim.c ****       htim->hdma[TIM_DMA_ID_CC1]->XferCpltCallback = TIM_DMACaptureCplt;
2651:Drivers/STM32F3xx_HAL_Driver/Src/stm32f3xx_hal_tim.c ****       
2652:Drivers/STM32F3xx_HAL_Driver/Src/stm32f3xx_hal_tim.c ****       /* Set the DMA error callback */
2653:Drivers/STM32F3xx_HAL_Driver/Src/stm32f3xx_hal_tim.c ****       htim->hdma[TIM_DMA_ID_CC1]->XferErrorCallback = TIM_DMAError ;
2654:Drivers/STM32F3xx_HAL_Driver/Src/stm32f3xx_hal_tim.c ****       
2655:Drivers/STM32F3xx_HAL_Driver/Src/stm32f3xx_hal_tim.c ****       /* Enable the DMA channel */
2656:Drivers/STM32F3xx_HAL_Driver/Src/stm32f3xx_hal_tim.c ****       HAL_DMA_Start_IT(htim->hdma[TIM_DMA_ID_CC1], (uint32_t)&htim->Instance->CCR1, (uint32_t)pData
2657:Drivers/STM32F3xx_HAL_Driver/Src/stm32f3xx_hal_tim.c ****       
2658:Drivers/STM32F3xx_HAL_Driver/Src/stm32f3xx_hal_tim.c ****       /* Set the DMA Period elapsed callback */
2659:Drivers/STM32F3xx_HAL_Driver/Src/stm32f3xx_hal_tim.c ****       htim->hdma[TIM_DMA_ID_CC2]->XferCpltCallback = TIM_DMACaptureCplt;
2660:Drivers/STM32F3xx_HAL_Driver/Src/stm32f3xx_hal_tim.c ****       
ARM GAS  /tmp/ccZyKULX.s 			page 150


2661:Drivers/STM32F3xx_HAL_Driver/Src/stm32f3xx_hal_tim.c ****       /* Set the DMA error callback */
2662:Drivers/STM32F3xx_HAL_Driver/Src/stm32f3xx_hal_tim.c ****       htim->hdma[TIM_DMA_ID_CC2]->XferErrorCallback = TIM_DMAError ;
2663:Drivers/STM32F3xx_HAL_Driver/Src/stm32f3xx_hal_tim.c ****       
2664:Drivers/STM32F3xx_HAL_Driver/Src/stm32f3xx_hal_tim.c ****       /* Enable the DMA channel */
2665:Drivers/STM32F3xx_HAL_Driver/Src/stm32f3xx_hal_tim.c ****       HAL_DMA_Start_IT(htim->hdma[TIM_DMA_ID_CC2], (uint32_t)&htim->Instance->CCR2, (uint32_t)pData
2666:Drivers/STM32F3xx_HAL_Driver/Src/stm32f3xx_hal_tim.c ****       
2667:Drivers/STM32F3xx_HAL_Driver/Src/stm32f3xx_hal_tim.c ****       /* Enable the Peripheral */
2668:Drivers/STM32F3xx_HAL_Driver/Src/stm32f3xx_hal_tim.c ****       __HAL_TIM_ENABLE(htim);
2669:Drivers/STM32F3xx_HAL_Driver/Src/stm32f3xx_hal_tim.c ****       
2670:Drivers/STM32F3xx_HAL_Driver/Src/stm32f3xx_hal_tim.c ****       /* Enable the Capture compare channel */
2671:Drivers/STM32F3xx_HAL_Driver/Src/stm32f3xx_hal_tim.c ****       TIM_CCxChannelCmd(htim->Instance, TIM_CHANNEL_1, TIM_CCx_ENABLE);
2672:Drivers/STM32F3xx_HAL_Driver/Src/stm32f3xx_hal_tim.c ****       TIM_CCxChannelCmd(htim->Instance, TIM_CHANNEL_2, TIM_CCx_ENABLE);
2673:Drivers/STM32F3xx_HAL_Driver/Src/stm32f3xx_hal_tim.c ****       
2674:Drivers/STM32F3xx_HAL_Driver/Src/stm32f3xx_hal_tim.c ****       /* Enable the TIM Input Capture  DMA request */
2675:Drivers/STM32F3xx_HAL_Driver/Src/stm32f3xx_hal_tim.c ****       __HAL_TIM_ENABLE_DMA(htim, TIM_DMA_CC1);
2676:Drivers/STM32F3xx_HAL_Driver/Src/stm32f3xx_hal_tim.c ****       /* Enable the TIM Input Capture  DMA request */
2677:Drivers/STM32F3xx_HAL_Driver/Src/stm32f3xx_hal_tim.c ****       __HAL_TIM_ENABLE_DMA(htim, TIM_DMA_CC2);
2678:Drivers/STM32F3xx_HAL_Driver/Src/stm32f3xx_hal_tim.c ****     }
2679:Drivers/STM32F3xx_HAL_Driver/Src/stm32f3xx_hal_tim.c ****     break;
2680:Drivers/STM32F3xx_HAL_Driver/Src/stm32f3xx_hal_tim.c ****     
2681:Drivers/STM32F3xx_HAL_Driver/Src/stm32f3xx_hal_tim.c ****   default:
2682:Drivers/STM32F3xx_HAL_Driver/Src/stm32f3xx_hal_tim.c ****     break;
 5947              		.loc 1 2682 0
 5948 0056 9EE0     		b	.L371
 5949              	.L370:
2607:Drivers/STM32F3xx_HAL_Driver/Src/stm32f3xx_hal_tim.c ****       
 5950              		.loc 1 2607 0
 5951 0058 FB68     		ldr	r3, [r7, #12]
 5952 005a 1B6A     		ldr	r3, [r3, #32]
 5953 005c 504A     		ldr	r2, .L372
 5954 005e 9A62     		str	r2, [r3, #40]
2610:Drivers/STM32F3xx_HAL_Driver/Src/stm32f3xx_hal_tim.c ****       
 5955              		.loc 1 2610 0
 5956 0060 FB68     		ldr	r3, [r7, #12]
 5957 0062 1B6A     		ldr	r3, [r3, #32]
 5958 0064 4F4A     		ldr	r2, .L372+4
 5959 0066 1A63     		str	r2, [r3, #48]
2613:Drivers/STM32F3xx_HAL_Driver/Src/stm32f3xx_hal_tim.c ****       
 5960              		.loc 1 2613 0
 5961 0068 FB68     		ldr	r3, [r7, #12]
 5962 006a 186A     		ldr	r0, [r3, #32]
 5963 006c FB68     		ldr	r3, [r7, #12]
 5964 006e 1B68     		ldr	r3, [r3]
 5965 0070 3433     		adds	r3, r3, #52
 5966 0072 1946     		mov	r1, r3
 5967 0074 7A68     		ldr	r2, [r7, #4]
 5968 0076 3B8B     		ldrh	r3, [r7, #24]
 5969 0078 FFF7FEFF 		bl	HAL_DMA_Start_IT
2616:Drivers/STM32F3xx_HAL_Driver/Src/stm32f3xx_hal_tim.c ****       
 5970              		.loc 1 2616 0
 5971 007c FB68     		ldr	r3, [r7, #12]
 5972 007e 1B68     		ldr	r3, [r3]
 5973 0080 FA68     		ldr	r2, [r7, #12]
 5974 0082 1268     		ldr	r2, [r2]
 5975 0084 D268     		ldr	r2, [r2, #12]
 5976 0086 42F40072 		orr	r2, r2, #512
 5977 008a DA60     		str	r2, [r3, #12]
ARM GAS  /tmp/ccZyKULX.s 			page 151


2619:Drivers/STM32F3xx_HAL_Driver/Src/stm32f3xx_hal_tim.c ****       
 5978              		.loc 1 2619 0
 5979 008c FB68     		ldr	r3, [r7, #12]
 5980 008e 1B68     		ldr	r3, [r3]
 5981 0090 FA68     		ldr	r2, [r7, #12]
 5982 0092 1268     		ldr	r2, [r2]
 5983 0094 1268     		ldr	r2, [r2]
 5984 0096 42F00102 		orr	r2, r2, #1
 5985 009a 1A60     		str	r2, [r3]
2622:Drivers/STM32F3xx_HAL_Driver/Src/stm32f3xx_hal_tim.c ****     }
 5986              		.loc 1 2622 0
 5987 009c FB68     		ldr	r3, [r7, #12]
 5988 009e 1B68     		ldr	r3, [r3]
 5989 00a0 1846     		mov	r0, r3
 5990 00a2 0021     		movs	r1, #0
 5991 00a4 0122     		movs	r2, #1
 5992 00a6 FFF7FEFF 		bl	TIM_CCxChannelCmd
2624:Drivers/STM32F3xx_HAL_Driver/Src/stm32f3xx_hal_tim.c ****     
 5993              		.loc 1 2624 0
 5994 00aa 74E0     		b	.L371
 5995              	.L368:
2629:Drivers/STM32F3xx_HAL_Driver/Src/stm32f3xx_hal_tim.c ****       
 5996              		.loc 1 2629 0
 5997 00ac FB68     		ldr	r3, [r7, #12]
 5998 00ae 5B6A     		ldr	r3, [r3, #36]
 5999 00b0 3B4A     		ldr	r2, .L372
 6000 00b2 9A62     		str	r2, [r3, #40]
2632:Drivers/STM32F3xx_HAL_Driver/Src/stm32f3xx_hal_tim.c ****       /* Enable the DMA channel */
 6001              		.loc 1 2632 0
 6002 00b4 FB68     		ldr	r3, [r7, #12]
 6003 00b6 5B6A     		ldr	r3, [r3, #36]
 6004 00b8 3A4A     		ldr	r2, .L372+4
 6005 00ba 1A63     		str	r2, [r3, #48]
2634:Drivers/STM32F3xx_HAL_Driver/Src/stm32f3xx_hal_tim.c ****       
 6006              		.loc 1 2634 0
 6007 00bc FB68     		ldr	r3, [r7, #12]
 6008 00be 586A     		ldr	r0, [r3, #36]
 6009 00c0 FB68     		ldr	r3, [r7, #12]
 6010 00c2 1B68     		ldr	r3, [r3]
 6011 00c4 3833     		adds	r3, r3, #56
 6012 00c6 1946     		mov	r1, r3
 6013 00c8 3A68     		ldr	r2, [r7]
 6014 00ca 3B8B     		ldrh	r3, [r7, #24]
 6015 00cc FFF7FEFF 		bl	HAL_DMA_Start_IT
2637:Drivers/STM32F3xx_HAL_Driver/Src/stm32f3xx_hal_tim.c ****       
 6016              		.loc 1 2637 0
 6017 00d0 FB68     		ldr	r3, [r7, #12]
 6018 00d2 1B68     		ldr	r3, [r3]
 6019 00d4 FA68     		ldr	r2, [r7, #12]
 6020 00d6 1268     		ldr	r2, [r2]
 6021 00d8 D268     		ldr	r2, [r2, #12]
 6022 00da 42F48062 		orr	r2, r2, #1024
 6023 00de DA60     		str	r2, [r3, #12]
2640:Drivers/STM32F3xx_HAL_Driver/Src/stm32f3xx_hal_tim.c ****       
 6024              		.loc 1 2640 0
 6025 00e0 FB68     		ldr	r3, [r7, #12]
 6026 00e2 1B68     		ldr	r3, [r3]
ARM GAS  /tmp/ccZyKULX.s 			page 152


 6027 00e4 FA68     		ldr	r2, [r7, #12]
 6028 00e6 1268     		ldr	r2, [r2]
 6029 00e8 1268     		ldr	r2, [r2]
 6030 00ea 42F00102 		orr	r2, r2, #1
 6031 00ee 1A60     		str	r2, [r3]
2643:Drivers/STM32F3xx_HAL_Driver/Src/stm32f3xx_hal_tim.c ****     }
 6032              		.loc 1 2643 0
 6033 00f0 FB68     		ldr	r3, [r7, #12]
 6034 00f2 1B68     		ldr	r3, [r3]
 6035 00f4 1846     		mov	r0, r3
 6036 00f6 0421     		movs	r1, #4
 6037 00f8 0122     		movs	r2, #1
 6038 00fa FFF7FEFF 		bl	TIM_CCxChannelCmd
2645:Drivers/STM32F3xx_HAL_Driver/Src/stm32f3xx_hal_tim.c ****     
 6039              		.loc 1 2645 0
 6040 00fe 4AE0     		b	.L371
 6041              	.L369:
2650:Drivers/STM32F3xx_HAL_Driver/Src/stm32f3xx_hal_tim.c ****       
 6042              		.loc 1 2650 0
 6043 0100 FB68     		ldr	r3, [r7, #12]
 6044 0102 1B6A     		ldr	r3, [r3, #32]
 6045 0104 264A     		ldr	r2, .L372
 6046 0106 9A62     		str	r2, [r3, #40]
2653:Drivers/STM32F3xx_HAL_Driver/Src/stm32f3xx_hal_tim.c ****       
 6047              		.loc 1 2653 0
 6048 0108 FB68     		ldr	r3, [r7, #12]
 6049 010a 1B6A     		ldr	r3, [r3, #32]
 6050 010c 254A     		ldr	r2, .L372+4
 6051 010e 1A63     		str	r2, [r3, #48]
2656:Drivers/STM32F3xx_HAL_Driver/Src/stm32f3xx_hal_tim.c ****       
 6052              		.loc 1 2656 0
 6053 0110 FB68     		ldr	r3, [r7, #12]
 6054 0112 186A     		ldr	r0, [r3, #32]
 6055 0114 FB68     		ldr	r3, [r7, #12]
 6056 0116 1B68     		ldr	r3, [r3]
 6057 0118 3433     		adds	r3, r3, #52
 6058 011a 1946     		mov	r1, r3
 6059 011c 7A68     		ldr	r2, [r7, #4]
 6060 011e 3B8B     		ldrh	r3, [r7, #24]
 6061 0120 FFF7FEFF 		bl	HAL_DMA_Start_IT
2659:Drivers/STM32F3xx_HAL_Driver/Src/stm32f3xx_hal_tim.c ****       
 6062              		.loc 1 2659 0
 6063 0124 FB68     		ldr	r3, [r7, #12]
 6064 0126 5B6A     		ldr	r3, [r3, #36]
 6065 0128 1D4A     		ldr	r2, .L372
 6066 012a 9A62     		str	r2, [r3, #40]
2662:Drivers/STM32F3xx_HAL_Driver/Src/stm32f3xx_hal_tim.c ****       
 6067              		.loc 1 2662 0
 6068 012c FB68     		ldr	r3, [r7, #12]
 6069 012e 5B6A     		ldr	r3, [r3, #36]
 6070 0130 1C4A     		ldr	r2, .L372+4
 6071 0132 1A63     		str	r2, [r3, #48]
2665:Drivers/STM32F3xx_HAL_Driver/Src/stm32f3xx_hal_tim.c ****       
 6072              		.loc 1 2665 0
 6073 0134 FB68     		ldr	r3, [r7, #12]
 6074 0136 586A     		ldr	r0, [r3, #36]
 6075 0138 FB68     		ldr	r3, [r7, #12]
ARM GAS  /tmp/ccZyKULX.s 			page 153


 6076 013a 1B68     		ldr	r3, [r3]
 6077 013c 3833     		adds	r3, r3, #56
 6078 013e 1946     		mov	r1, r3
 6079 0140 3A68     		ldr	r2, [r7]
 6080 0142 3B8B     		ldrh	r3, [r7, #24]
 6081 0144 FFF7FEFF 		bl	HAL_DMA_Start_IT
2668:Drivers/STM32F3xx_HAL_Driver/Src/stm32f3xx_hal_tim.c ****       
 6082              		.loc 1 2668 0
 6083 0148 FB68     		ldr	r3, [r7, #12]
 6084 014a 1B68     		ldr	r3, [r3]
 6085 014c FA68     		ldr	r2, [r7, #12]
 6086 014e 1268     		ldr	r2, [r2]
 6087 0150 1268     		ldr	r2, [r2]
 6088 0152 42F00102 		orr	r2, r2, #1
 6089 0156 1A60     		str	r2, [r3]
2671:Drivers/STM32F3xx_HAL_Driver/Src/stm32f3xx_hal_tim.c ****       TIM_CCxChannelCmd(htim->Instance, TIM_CHANNEL_2, TIM_CCx_ENABLE);
 6090              		.loc 1 2671 0
 6091 0158 FB68     		ldr	r3, [r7, #12]
 6092 015a 1B68     		ldr	r3, [r3]
 6093 015c 1846     		mov	r0, r3
 6094 015e 0021     		movs	r1, #0
 6095 0160 0122     		movs	r2, #1
 6096 0162 FFF7FEFF 		bl	TIM_CCxChannelCmd
2672:Drivers/STM32F3xx_HAL_Driver/Src/stm32f3xx_hal_tim.c ****       
 6097              		.loc 1 2672 0
 6098 0166 FB68     		ldr	r3, [r7, #12]
 6099 0168 1B68     		ldr	r3, [r3]
 6100 016a 1846     		mov	r0, r3
 6101 016c 0421     		movs	r1, #4
 6102 016e 0122     		movs	r2, #1
 6103 0170 FFF7FEFF 		bl	TIM_CCxChannelCmd
2675:Drivers/STM32F3xx_HAL_Driver/Src/stm32f3xx_hal_tim.c ****       /* Enable the TIM Input Capture  DMA request */
 6104              		.loc 1 2675 0
 6105 0174 FB68     		ldr	r3, [r7, #12]
 6106 0176 1B68     		ldr	r3, [r3]
 6107 0178 FA68     		ldr	r2, [r7, #12]
 6108 017a 1268     		ldr	r2, [r2]
 6109 017c D268     		ldr	r2, [r2, #12]
 6110 017e 42F40072 		orr	r2, r2, #512
 6111 0182 DA60     		str	r2, [r3, #12]
2677:Drivers/STM32F3xx_HAL_Driver/Src/stm32f3xx_hal_tim.c ****     }
 6112              		.loc 1 2677 0
 6113 0184 FB68     		ldr	r3, [r7, #12]
 6114 0186 1B68     		ldr	r3, [r3]
 6115 0188 FA68     		ldr	r2, [r7, #12]
 6116 018a 1268     		ldr	r2, [r2]
 6117 018c D268     		ldr	r2, [r2, #12]
 6118 018e 42F48062 		orr	r2, r2, #1024
 6119 0192 DA60     		str	r2, [r3, #12]
2679:Drivers/STM32F3xx_HAL_Driver/Src/stm32f3xx_hal_tim.c ****     
 6120              		.loc 1 2679 0
 6121 0194 00BF     		nop
 6122              	.L371:
2683:Drivers/STM32F3xx_HAL_Driver/Src/stm32f3xx_hal_tim.c ****   }  
2684:Drivers/STM32F3xx_HAL_Driver/Src/stm32f3xx_hal_tim.c ****   /* Return function status */
2685:Drivers/STM32F3xx_HAL_Driver/Src/stm32f3xx_hal_tim.c ****   return HAL_OK;
 6123              		.loc 1 2685 0
ARM GAS  /tmp/ccZyKULX.s 			page 154


 6124 0196 0023     		movs	r3, #0
 6125              	.L363:
2686:Drivers/STM32F3xx_HAL_Driver/Src/stm32f3xx_hal_tim.c **** }
 6126              		.loc 1 2686 0
 6127 0198 1846     		mov	r0, r3
 6128 019a 1037     		adds	r7, r7, #16
 6129 019c BD46     		mov	sp, r7
 6130              		@ sp needed
 6131 019e 80BD     		pop	{r7, pc}
 6132              	.L373:
 6133              		.align	2
 6134              	.L372:
 6135 01a0 00000000 		.word	TIM_DMACaptureCplt
 6136 01a4 00000000 		.word	TIM_DMAError
 6137              		.cfi_endproc
 6138              	.LFE181:
 6140              		.section	.text.HAL_TIM_Encoder_Stop_DMA,"ax",%progbits
 6141              		.align	2
 6142              		.global	HAL_TIM_Encoder_Stop_DMA
 6143              		.thumb
 6144              		.thumb_func
 6146              	HAL_TIM_Encoder_Stop_DMA:
 6147              	.LFB182:
2687:Drivers/STM32F3xx_HAL_Driver/Src/stm32f3xx_hal_tim.c **** 
2688:Drivers/STM32F3xx_HAL_Driver/Src/stm32f3xx_hal_tim.c **** /**
2689:Drivers/STM32F3xx_HAL_Driver/Src/stm32f3xx_hal_tim.c ****   * @brief  Stops the TIM Encoder Interface in DMA mode.
2690:Drivers/STM32F3xx_HAL_Driver/Src/stm32f3xx_hal_tim.c ****   * @param  htim: TIM Encoder Interface handle
2691:Drivers/STM32F3xx_HAL_Driver/Src/stm32f3xx_hal_tim.c ****   * @param  Channel: TIM Channels to be enabled
2692:Drivers/STM32F3xx_HAL_Driver/Src/stm32f3xx_hal_tim.c ****   *          This parameter can be one of the following values:
2693:Drivers/STM32F3xx_HAL_Driver/Src/stm32f3xx_hal_tim.c ****   *            @arg TIM_CHANNEL_1: TIM Channel 1 selected
2694:Drivers/STM32F3xx_HAL_Driver/Src/stm32f3xx_hal_tim.c ****   *            @arg TIM_CHANNEL_2: TIM Channel 2 selected
2695:Drivers/STM32F3xx_HAL_Driver/Src/stm32f3xx_hal_tim.c ****   *            @arg TIM_CHANNEL_ALL: TIM Channel 1 and TIM Channel 2 are selected
2696:Drivers/STM32F3xx_HAL_Driver/Src/stm32f3xx_hal_tim.c ****   * @retval HAL status
2697:Drivers/STM32F3xx_HAL_Driver/Src/stm32f3xx_hal_tim.c **** */
2698:Drivers/STM32F3xx_HAL_Driver/Src/stm32f3xx_hal_tim.c **** HAL_StatusTypeDef HAL_TIM_Encoder_Stop_DMA(TIM_HandleTypeDef *htim, uint32_t Channel)
2699:Drivers/STM32F3xx_HAL_Driver/Src/stm32f3xx_hal_tim.c **** {
 6148              		.loc 1 2699 0
 6149              		.cfi_startproc
 6150              		@ args = 0, pretend = 0, frame = 8
 6151              		@ frame_needed = 1, uses_anonymous_args = 0
 6152 0000 80B5     		push	{r7, lr}
 6153              	.LCFI171:
 6154              		.cfi_def_cfa_offset 8
 6155              		.cfi_offset 7, -8
 6156              		.cfi_offset 14, -4
 6157 0002 82B0     		sub	sp, sp, #8
 6158              	.LCFI172:
 6159              		.cfi_def_cfa_offset 16
 6160 0004 00AF     		add	r7, sp, #0
 6161              	.LCFI173:
 6162              		.cfi_def_cfa_register 7
 6163 0006 7860     		str	r0, [r7, #4]
 6164 0008 3960     		str	r1, [r7]
2700:Drivers/STM32F3xx_HAL_Driver/Src/stm32f3xx_hal_tim.c ****   /* Check the parameters */
2701:Drivers/STM32F3xx_HAL_Driver/Src/stm32f3xx_hal_tim.c ****   assert_param(IS_TIM_DMA_CC_INSTANCE(htim->Instance));
2702:Drivers/STM32F3xx_HAL_Driver/Src/stm32f3xx_hal_tim.c ****   
2703:Drivers/STM32F3xx_HAL_Driver/Src/stm32f3xx_hal_tim.c ****   /* Disable the Input Capture channels 1 and 2
ARM GAS  /tmp/ccZyKULX.s 			page 155


2704:Drivers/STM32F3xx_HAL_Driver/Src/stm32f3xx_hal_tim.c ****   (in the EncoderInterface the two possible channels that can be used are TIM_CHANNEL_1 and TIM_CHA
2705:Drivers/STM32F3xx_HAL_Driver/Src/stm32f3xx_hal_tim.c ****   if(Channel == TIM_CHANNEL_1)
 6165              		.loc 1 2705 0
 6166 000a 3B68     		ldr	r3, [r7]
 6167 000c 002B     		cmp	r3, #0
 6168 000e 0FD1     		bne	.L375
2706:Drivers/STM32F3xx_HAL_Driver/Src/stm32f3xx_hal_tim.c ****   {
2707:Drivers/STM32F3xx_HAL_Driver/Src/stm32f3xx_hal_tim.c ****     TIM_CCxChannelCmd(htim->Instance, TIM_CHANNEL_1, TIM_CCx_DISABLE); 
 6169              		.loc 1 2707 0
 6170 0010 7B68     		ldr	r3, [r7, #4]
 6171 0012 1B68     		ldr	r3, [r3]
 6172 0014 1846     		mov	r0, r3
 6173 0016 0021     		movs	r1, #0
 6174 0018 0022     		movs	r2, #0
 6175 001a FFF7FEFF 		bl	TIM_CCxChannelCmd
2708:Drivers/STM32F3xx_HAL_Driver/Src/stm32f3xx_hal_tim.c ****     
2709:Drivers/STM32F3xx_HAL_Driver/Src/stm32f3xx_hal_tim.c ****     /* Disable the capture compare DMA Request 1 */
2710:Drivers/STM32F3xx_HAL_Driver/Src/stm32f3xx_hal_tim.c ****     __HAL_TIM_DISABLE_DMA(htim, TIM_DMA_CC1);
 6176              		.loc 1 2710 0
 6177 001e 7B68     		ldr	r3, [r7, #4]
 6178 0020 1B68     		ldr	r3, [r3]
 6179 0022 7A68     		ldr	r2, [r7, #4]
 6180 0024 1268     		ldr	r2, [r2]
 6181 0026 D268     		ldr	r2, [r2, #12]
 6182 0028 22F40072 		bic	r2, r2, #512
 6183 002c DA60     		str	r2, [r3, #12]
 6184 002e 30E0     		b	.L376
 6185              	.L375:
2711:Drivers/STM32F3xx_HAL_Driver/Src/stm32f3xx_hal_tim.c ****   }  
2712:Drivers/STM32F3xx_HAL_Driver/Src/stm32f3xx_hal_tim.c ****   else if(Channel == TIM_CHANNEL_2)
 6186              		.loc 1 2712 0
 6187 0030 3B68     		ldr	r3, [r7]
 6188 0032 042B     		cmp	r3, #4
 6189 0034 0FD1     		bne	.L377
2713:Drivers/STM32F3xx_HAL_Driver/Src/stm32f3xx_hal_tim.c ****   {  
2714:Drivers/STM32F3xx_HAL_Driver/Src/stm32f3xx_hal_tim.c ****     TIM_CCxChannelCmd(htim->Instance, TIM_CHANNEL_2, TIM_CCx_DISABLE); 
 6190              		.loc 1 2714 0
 6191 0036 7B68     		ldr	r3, [r7, #4]
 6192 0038 1B68     		ldr	r3, [r3]
 6193 003a 1846     		mov	r0, r3
 6194 003c 0421     		movs	r1, #4
 6195 003e 0022     		movs	r2, #0
 6196 0040 FFF7FEFF 		bl	TIM_CCxChannelCmd
2715:Drivers/STM32F3xx_HAL_Driver/Src/stm32f3xx_hal_tim.c ****     
2716:Drivers/STM32F3xx_HAL_Driver/Src/stm32f3xx_hal_tim.c ****     /* Disable the capture compare DMA Request 2 */
2717:Drivers/STM32F3xx_HAL_Driver/Src/stm32f3xx_hal_tim.c ****     __HAL_TIM_DISABLE_DMA(htim, TIM_DMA_CC2);
 6197              		.loc 1 2717 0
 6198 0044 7B68     		ldr	r3, [r7, #4]
 6199 0046 1B68     		ldr	r3, [r3]
 6200 0048 7A68     		ldr	r2, [r7, #4]
 6201 004a 1268     		ldr	r2, [r2]
 6202 004c D268     		ldr	r2, [r2, #12]
 6203 004e 22F48062 		bic	r2, r2, #1024
 6204 0052 DA60     		str	r2, [r3, #12]
 6205 0054 1DE0     		b	.L376
 6206              	.L377:
2718:Drivers/STM32F3xx_HAL_Driver/Src/stm32f3xx_hal_tim.c ****   }  
ARM GAS  /tmp/ccZyKULX.s 			page 156


2719:Drivers/STM32F3xx_HAL_Driver/Src/stm32f3xx_hal_tim.c ****   else
2720:Drivers/STM32F3xx_HAL_Driver/Src/stm32f3xx_hal_tim.c ****   {
2721:Drivers/STM32F3xx_HAL_Driver/Src/stm32f3xx_hal_tim.c ****     TIM_CCxChannelCmd(htim->Instance, TIM_CHANNEL_1, TIM_CCx_DISABLE); 
 6207              		.loc 1 2721 0
 6208 0056 7B68     		ldr	r3, [r7, #4]
 6209 0058 1B68     		ldr	r3, [r3]
 6210 005a 1846     		mov	r0, r3
 6211 005c 0021     		movs	r1, #0
 6212 005e 0022     		movs	r2, #0
 6213 0060 FFF7FEFF 		bl	TIM_CCxChannelCmd
2722:Drivers/STM32F3xx_HAL_Driver/Src/stm32f3xx_hal_tim.c ****     TIM_CCxChannelCmd(htim->Instance, TIM_CHANNEL_2, TIM_CCx_DISABLE); 
 6214              		.loc 1 2722 0
 6215 0064 7B68     		ldr	r3, [r7, #4]
 6216 0066 1B68     		ldr	r3, [r3]
 6217 0068 1846     		mov	r0, r3
 6218 006a 0421     		movs	r1, #4
 6219 006c 0022     		movs	r2, #0
 6220 006e FFF7FEFF 		bl	TIM_CCxChannelCmd
2723:Drivers/STM32F3xx_HAL_Driver/Src/stm32f3xx_hal_tim.c ****     
2724:Drivers/STM32F3xx_HAL_Driver/Src/stm32f3xx_hal_tim.c ****     /* Disable the capture compare DMA Request 1 and 2 */
2725:Drivers/STM32F3xx_HAL_Driver/Src/stm32f3xx_hal_tim.c ****     __HAL_TIM_DISABLE_DMA(htim, TIM_DMA_CC1);
 6221              		.loc 1 2725 0
 6222 0072 7B68     		ldr	r3, [r7, #4]
 6223 0074 1B68     		ldr	r3, [r3]
 6224 0076 7A68     		ldr	r2, [r7, #4]
 6225 0078 1268     		ldr	r2, [r2]
 6226 007a D268     		ldr	r2, [r2, #12]
 6227 007c 22F40072 		bic	r2, r2, #512
 6228 0080 DA60     		str	r2, [r3, #12]
2726:Drivers/STM32F3xx_HAL_Driver/Src/stm32f3xx_hal_tim.c ****     __HAL_TIM_DISABLE_DMA(htim, TIM_DMA_CC2);
 6229              		.loc 1 2726 0
 6230 0082 7B68     		ldr	r3, [r7, #4]
 6231 0084 1B68     		ldr	r3, [r3]
 6232 0086 7A68     		ldr	r2, [r7, #4]
 6233 0088 1268     		ldr	r2, [r2]
 6234 008a D268     		ldr	r2, [r2, #12]
 6235 008c 22F48062 		bic	r2, r2, #1024
 6236 0090 DA60     		str	r2, [r3, #12]
 6237              	.L376:
2727:Drivers/STM32F3xx_HAL_Driver/Src/stm32f3xx_hal_tim.c ****   }
2728:Drivers/STM32F3xx_HAL_Driver/Src/stm32f3xx_hal_tim.c ****   
2729:Drivers/STM32F3xx_HAL_Driver/Src/stm32f3xx_hal_tim.c ****   /* Disable the Peripheral */
2730:Drivers/STM32F3xx_HAL_Driver/Src/stm32f3xx_hal_tim.c ****   __HAL_TIM_DISABLE(htim);
 6238              		.loc 1 2730 0
 6239 0092 7B68     		ldr	r3, [r7, #4]
 6240 0094 1B68     		ldr	r3, [r3]
 6241 0096 1A6A     		ldr	r2, [r3, #32]
 6242 0098 41F21113 		movw	r3, #4369
 6243 009c 1340     		ands	r3, r3, r2
 6244 009e 002B     		cmp	r3, #0
 6245 00a0 0FD1     		bne	.L378
 6246              		.loc 1 2730 0 is_stmt 0 discriminator 1
 6247 00a2 7B68     		ldr	r3, [r7, #4]
 6248 00a4 1B68     		ldr	r3, [r3]
 6249 00a6 1A6A     		ldr	r2, [r3, #32]
 6250 00a8 40F24443 		movw	r3, #1092
 6251 00ac 1340     		ands	r3, r3, r2
ARM GAS  /tmp/ccZyKULX.s 			page 157


 6252 00ae 002B     		cmp	r3, #0
 6253 00b0 07D1     		bne	.L378
 6254 00b2 7B68     		ldr	r3, [r7, #4]
 6255 00b4 1B68     		ldr	r3, [r3]
 6256 00b6 7A68     		ldr	r2, [r7, #4]
 6257 00b8 1268     		ldr	r2, [r2]
 6258 00ba 1268     		ldr	r2, [r2]
 6259 00bc 22F00102 		bic	r2, r2, #1
 6260 00c0 1A60     		str	r2, [r3]
 6261              	.L378:
2731:Drivers/STM32F3xx_HAL_Driver/Src/stm32f3xx_hal_tim.c ****   
2732:Drivers/STM32F3xx_HAL_Driver/Src/stm32f3xx_hal_tim.c ****   /* Change the htim state */
2733:Drivers/STM32F3xx_HAL_Driver/Src/stm32f3xx_hal_tim.c ****   htim->State = HAL_TIM_STATE_READY;
 6262              		.loc 1 2733 0 is_stmt 1
 6263 00c2 7B68     		ldr	r3, [r7, #4]
 6264 00c4 0122     		movs	r2, #1
 6265 00c6 83F83920 		strb	r2, [r3, #57]
2734:Drivers/STM32F3xx_HAL_Driver/Src/stm32f3xx_hal_tim.c ****   
2735:Drivers/STM32F3xx_HAL_Driver/Src/stm32f3xx_hal_tim.c ****   /* Return function status */
2736:Drivers/STM32F3xx_HAL_Driver/Src/stm32f3xx_hal_tim.c ****   return HAL_OK;
 6266              		.loc 1 2736 0
 6267 00ca 0023     		movs	r3, #0
2737:Drivers/STM32F3xx_HAL_Driver/Src/stm32f3xx_hal_tim.c **** }
 6268              		.loc 1 2737 0
 6269 00cc 1846     		mov	r0, r3
 6270 00ce 0837     		adds	r7, r7, #8
 6271 00d0 BD46     		mov	sp, r7
 6272              		@ sp needed
 6273 00d2 80BD     		pop	{r7, pc}
 6274              		.cfi_endproc
 6275              	.LFE182:
 6277              		.section	.text.HAL_TIM_IRQHandler,"ax",%progbits
 6278              		.align	2
 6279              		.global	HAL_TIM_IRQHandler
 6280              		.thumb
 6281              		.thumb_func
 6283              	HAL_TIM_IRQHandler:
 6284              	.LFB183:
2738:Drivers/STM32F3xx_HAL_Driver/Src/stm32f3xx_hal_tim.c **** 
2739:Drivers/STM32F3xx_HAL_Driver/Src/stm32f3xx_hal_tim.c **** /**
2740:Drivers/STM32F3xx_HAL_Driver/Src/stm32f3xx_hal_tim.c ****   * @}
2741:Drivers/STM32F3xx_HAL_Driver/Src/stm32f3xx_hal_tim.c ****   */
2742:Drivers/STM32F3xx_HAL_Driver/Src/stm32f3xx_hal_tim.c **** /** @defgroup TIM_Exported_Functions_Group7 TIM IRQ handler management 
2743:Drivers/STM32F3xx_HAL_Driver/Src/stm32f3xx_hal_tim.c ****  *  @brief    IRQ handler management 
2744:Drivers/STM32F3xx_HAL_Driver/Src/stm32f3xx_hal_tim.c ****  *
2745:Drivers/STM32F3xx_HAL_Driver/Src/stm32f3xx_hal_tim.c **** @verbatim   
2746:Drivers/STM32F3xx_HAL_Driver/Src/stm32f3xx_hal_tim.c ****   ==============================================================================
2747:Drivers/STM32F3xx_HAL_Driver/Src/stm32f3xx_hal_tim.c ****                         ##### IRQ handler management #####
2748:Drivers/STM32F3xx_HAL_Driver/Src/stm32f3xx_hal_tim.c ****   ==============================================================================  
2749:Drivers/STM32F3xx_HAL_Driver/Src/stm32f3xx_hal_tim.c ****   [..]  
2750:Drivers/STM32F3xx_HAL_Driver/Src/stm32f3xx_hal_tim.c ****     This section provides Timer IRQ handler function.
2751:Drivers/STM32F3xx_HAL_Driver/Src/stm32f3xx_hal_tim.c ****                
2752:Drivers/STM32F3xx_HAL_Driver/Src/stm32f3xx_hal_tim.c **** @endverbatim
2753:Drivers/STM32F3xx_HAL_Driver/Src/stm32f3xx_hal_tim.c ****   * @{
2754:Drivers/STM32F3xx_HAL_Driver/Src/stm32f3xx_hal_tim.c ****   */
2755:Drivers/STM32F3xx_HAL_Driver/Src/stm32f3xx_hal_tim.c **** /**
2756:Drivers/STM32F3xx_HAL_Driver/Src/stm32f3xx_hal_tim.c ****   * @brief  This function handles TIM interrupts requests.
ARM GAS  /tmp/ccZyKULX.s 			page 158


2757:Drivers/STM32F3xx_HAL_Driver/Src/stm32f3xx_hal_tim.c ****   * @param  htim: TIM  handle
2758:Drivers/STM32F3xx_HAL_Driver/Src/stm32f3xx_hal_tim.c ****   * @retval None
2759:Drivers/STM32F3xx_HAL_Driver/Src/stm32f3xx_hal_tim.c ****   */
2760:Drivers/STM32F3xx_HAL_Driver/Src/stm32f3xx_hal_tim.c **** void HAL_TIM_IRQHandler(TIM_HandleTypeDef *htim)
2761:Drivers/STM32F3xx_HAL_Driver/Src/stm32f3xx_hal_tim.c **** {
 6285              		.loc 1 2761 0
 6286              		.cfi_startproc
 6287              		@ args = 0, pretend = 0, frame = 8
 6288              		@ frame_needed = 1, uses_anonymous_args = 0
 6289 0000 80B5     		push	{r7, lr}
 6290              	.LCFI174:
 6291              		.cfi_def_cfa_offset 8
 6292              		.cfi_offset 7, -8
 6293              		.cfi_offset 14, -4
 6294 0002 82B0     		sub	sp, sp, #8
 6295              	.LCFI175:
 6296              		.cfi_def_cfa_offset 16
 6297 0004 00AF     		add	r7, sp, #0
 6298              	.LCFI176:
 6299              		.cfi_def_cfa_register 7
 6300 0006 7860     		str	r0, [r7, #4]
2762:Drivers/STM32F3xx_HAL_Driver/Src/stm32f3xx_hal_tim.c ****   /* Capture compare 1 event */
2763:Drivers/STM32F3xx_HAL_Driver/Src/stm32f3xx_hal_tim.c ****   if(__HAL_TIM_GET_FLAG(htim, TIM_FLAG_CC1) != RESET)
 6301              		.loc 1 2763 0
 6302 0008 7B68     		ldr	r3, [r7, #4]
 6303 000a 1B68     		ldr	r3, [r3]
 6304 000c 1B69     		ldr	r3, [r3, #16]
 6305 000e 03F00203 		and	r3, r3, #2
 6306 0012 002B     		cmp	r3, #0
 6307 0014 22D0     		beq	.L381
2764:Drivers/STM32F3xx_HAL_Driver/Src/stm32f3xx_hal_tim.c ****   {
2765:Drivers/STM32F3xx_HAL_Driver/Src/stm32f3xx_hal_tim.c ****     if(__HAL_TIM_GET_IT_SOURCE(htim, TIM_IT_CC1) !=RESET)
 6308              		.loc 1 2765 0
 6309 0016 7B68     		ldr	r3, [r7, #4]
 6310 0018 1B68     		ldr	r3, [r3]
 6311 001a DB68     		ldr	r3, [r3, #12]
 6312 001c 03F00203 		and	r3, r3, #2
 6313 0020 002B     		cmp	r3, #0
 6314 0022 1BD0     		beq	.L381
2766:Drivers/STM32F3xx_HAL_Driver/Src/stm32f3xx_hal_tim.c ****     {
2767:Drivers/STM32F3xx_HAL_Driver/Src/stm32f3xx_hal_tim.c ****       {
2768:Drivers/STM32F3xx_HAL_Driver/Src/stm32f3xx_hal_tim.c ****         __HAL_TIM_CLEAR_IT(htim, TIM_IT_CC1);
 6315              		.loc 1 2768 0
 6316 0024 7B68     		ldr	r3, [r7, #4]
 6317 0026 1B68     		ldr	r3, [r3]
 6318 0028 6FF00202 		mvn	r2, #2
 6319 002c 1A61     		str	r2, [r3, #16]
2769:Drivers/STM32F3xx_HAL_Driver/Src/stm32f3xx_hal_tim.c ****         htim->Channel = HAL_TIM_ACTIVE_CHANNEL_1;
 6320              		.loc 1 2769 0
 6321 002e 7B68     		ldr	r3, [r7, #4]
 6322 0030 0122     		movs	r2, #1
 6323 0032 1A76     		strb	r2, [r3, #24]
2770:Drivers/STM32F3xx_HAL_Driver/Src/stm32f3xx_hal_tim.c ****         
2771:Drivers/STM32F3xx_HAL_Driver/Src/stm32f3xx_hal_tim.c ****         /* Input capture event */
2772:Drivers/STM32F3xx_HAL_Driver/Src/stm32f3xx_hal_tim.c ****         if((htim->Instance->CCMR1 & TIM_CCMR1_CC1S) != 0x00)
 6324              		.loc 1 2772 0
 6325 0034 7B68     		ldr	r3, [r7, #4]
ARM GAS  /tmp/ccZyKULX.s 			page 159


 6326 0036 1B68     		ldr	r3, [r3]
 6327 0038 9B69     		ldr	r3, [r3, #24]
 6328 003a 03F00303 		and	r3, r3, #3
 6329 003e 002B     		cmp	r3, #0
 6330 0040 03D0     		beq	.L382
2773:Drivers/STM32F3xx_HAL_Driver/Src/stm32f3xx_hal_tim.c ****         {
2774:Drivers/STM32F3xx_HAL_Driver/Src/stm32f3xx_hal_tim.c ****           HAL_TIM_IC_CaptureCallback(htim);
 6331              		.loc 1 2774 0
 6332 0042 7868     		ldr	r0, [r7, #4]
 6333 0044 FFF7FEFF 		bl	HAL_TIM_IC_CaptureCallback
 6334 0048 05E0     		b	.L383
 6335              	.L382:
2775:Drivers/STM32F3xx_HAL_Driver/Src/stm32f3xx_hal_tim.c ****         }
2776:Drivers/STM32F3xx_HAL_Driver/Src/stm32f3xx_hal_tim.c ****         /* Output compare event */
2777:Drivers/STM32F3xx_HAL_Driver/Src/stm32f3xx_hal_tim.c ****         else
2778:Drivers/STM32F3xx_HAL_Driver/Src/stm32f3xx_hal_tim.c ****         {
2779:Drivers/STM32F3xx_HAL_Driver/Src/stm32f3xx_hal_tim.c ****           HAL_TIM_OC_DelayElapsedCallback(htim);
 6336              		.loc 1 2779 0
 6337 004a 7868     		ldr	r0, [r7, #4]
 6338 004c FFF7FEFF 		bl	HAL_TIM_OC_DelayElapsedCallback
2780:Drivers/STM32F3xx_HAL_Driver/Src/stm32f3xx_hal_tim.c ****           HAL_TIM_PWM_PulseFinishedCallback(htim);
 6339              		.loc 1 2780 0
 6340 0050 7868     		ldr	r0, [r7, #4]
 6341 0052 FFF7FEFF 		bl	HAL_TIM_PWM_PulseFinishedCallback
 6342              	.L383:
2781:Drivers/STM32F3xx_HAL_Driver/Src/stm32f3xx_hal_tim.c ****         }
2782:Drivers/STM32F3xx_HAL_Driver/Src/stm32f3xx_hal_tim.c ****         htim->Channel = HAL_TIM_ACTIVE_CHANNEL_CLEARED;
 6343              		.loc 1 2782 0
 6344 0056 7B68     		ldr	r3, [r7, #4]
 6345 0058 0022     		movs	r2, #0
 6346 005a 1A76     		strb	r2, [r3, #24]
 6347              	.L381:
2783:Drivers/STM32F3xx_HAL_Driver/Src/stm32f3xx_hal_tim.c ****       }
2784:Drivers/STM32F3xx_HAL_Driver/Src/stm32f3xx_hal_tim.c ****     }
2785:Drivers/STM32F3xx_HAL_Driver/Src/stm32f3xx_hal_tim.c ****   }
2786:Drivers/STM32F3xx_HAL_Driver/Src/stm32f3xx_hal_tim.c ****   /* Capture compare 2 event */
2787:Drivers/STM32F3xx_HAL_Driver/Src/stm32f3xx_hal_tim.c ****   if(__HAL_TIM_GET_FLAG(htim, TIM_FLAG_CC2) != RESET)
 6348              		.loc 1 2787 0
 6349 005c 7B68     		ldr	r3, [r7, #4]
 6350 005e 1B68     		ldr	r3, [r3]
 6351 0060 1B69     		ldr	r3, [r3, #16]
 6352 0062 03F00403 		and	r3, r3, #4
 6353 0066 002B     		cmp	r3, #0
 6354 0068 22D0     		beq	.L384
2788:Drivers/STM32F3xx_HAL_Driver/Src/stm32f3xx_hal_tim.c ****   {
2789:Drivers/STM32F3xx_HAL_Driver/Src/stm32f3xx_hal_tim.c ****     if(__HAL_TIM_GET_IT_SOURCE(htim, TIM_IT_CC2) !=RESET)
 6355              		.loc 1 2789 0
 6356 006a 7B68     		ldr	r3, [r7, #4]
 6357 006c 1B68     		ldr	r3, [r3]
 6358 006e DB68     		ldr	r3, [r3, #12]
 6359 0070 03F00403 		and	r3, r3, #4
 6360 0074 002B     		cmp	r3, #0
 6361 0076 1BD0     		beq	.L384
2790:Drivers/STM32F3xx_HAL_Driver/Src/stm32f3xx_hal_tim.c ****     {
2791:Drivers/STM32F3xx_HAL_Driver/Src/stm32f3xx_hal_tim.c ****       __HAL_TIM_CLEAR_IT(htim, TIM_IT_CC2);
 6362              		.loc 1 2791 0
 6363 0078 7B68     		ldr	r3, [r7, #4]
ARM GAS  /tmp/ccZyKULX.s 			page 160


 6364 007a 1B68     		ldr	r3, [r3]
 6365 007c 6FF00402 		mvn	r2, #4
 6366 0080 1A61     		str	r2, [r3, #16]
2792:Drivers/STM32F3xx_HAL_Driver/Src/stm32f3xx_hal_tim.c ****       htim->Channel = HAL_TIM_ACTIVE_CHANNEL_2;
 6367              		.loc 1 2792 0
 6368 0082 7B68     		ldr	r3, [r7, #4]
 6369 0084 0222     		movs	r2, #2
 6370 0086 1A76     		strb	r2, [r3, #24]
2793:Drivers/STM32F3xx_HAL_Driver/Src/stm32f3xx_hal_tim.c ****       /* Input capture event */
2794:Drivers/STM32F3xx_HAL_Driver/Src/stm32f3xx_hal_tim.c ****       if((htim->Instance->CCMR1 & TIM_CCMR1_CC2S) != 0x00)
 6371              		.loc 1 2794 0
 6372 0088 7B68     		ldr	r3, [r7, #4]
 6373 008a 1B68     		ldr	r3, [r3]
 6374 008c 9B69     		ldr	r3, [r3, #24]
 6375 008e 03F44073 		and	r3, r3, #768
 6376 0092 002B     		cmp	r3, #0
 6377 0094 03D0     		beq	.L385
2795:Drivers/STM32F3xx_HAL_Driver/Src/stm32f3xx_hal_tim.c ****       {          
2796:Drivers/STM32F3xx_HAL_Driver/Src/stm32f3xx_hal_tim.c ****         HAL_TIM_IC_CaptureCallback(htim);
 6378              		.loc 1 2796 0
 6379 0096 7868     		ldr	r0, [r7, #4]
 6380 0098 FFF7FEFF 		bl	HAL_TIM_IC_CaptureCallback
 6381 009c 05E0     		b	.L386
 6382              	.L385:
2797:Drivers/STM32F3xx_HAL_Driver/Src/stm32f3xx_hal_tim.c ****       }
2798:Drivers/STM32F3xx_HAL_Driver/Src/stm32f3xx_hal_tim.c ****       /* Output compare event */
2799:Drivers/STM32F3xx_HAL_Driver/Src/stm32f3xx_hal_tim.c ****       else
2800:Drivers/STM32F3xx_HAL_Driver/Src/stm32f3xx_hal_tim.c ****       {
2801:Drivers/STM32F3xx_HAL_Driver/Src/stm32f3xx_hal_tim.c ****         HAL_TIM_OC_DelayElapsedCallback(htim);
 6383              		.loc 1 2801 0
 6384 009e 7868     		ldr	r0, [r7, #4]
 6385 00a0 FFF7FEFF 		bl	HAL_TIM_OC_DelayElapsedCallback
2802:Drivers/STM32F3xx_HAL_Driver/Src/stm32f3xx_hal_tim.c ****         HAL_TIM_PWM_PulseFinishedCallback(htim);
 6386              		.loc 1 2802 0
 6387 00a4 7868     		ldr	r0, [r7, #4]
 6388 00a6 FFF7FEFF 		bl	HAL_TIM_PWM_PulseFinishedCallback
 6389              	.L386:
2803:Drivers/STM32F3xx_HAL_Driver/Src/stm32f3xx_hal_tim.c ****       }
2804:Drivers/STM32F3xx_HAL_Driver/Src/stm32f3xx_hal_tim.c ****       htim->Channel = HAL_TIM_ACTIVE_CHANNEL_CLEARED;
 6390              		.loc 1 2804 0
 6391 00aa 7B68     		ldr	r3, [r7, #4]
 6392 00ac 0022     		movs	r2, #0
 6393 00ae 1A76     		strb	r2, [r3, #24]
 6394              	.L384:
2805:Drivers/STM32F3xx_HAL_Driver/Src/stm32f3xx_hal_tim.c ****     } 
2806:Drivers/STM32F3xx_HAL_Driver/Src/stm32f3xx_hal_tim.c ****   }
2807:Drivers/STM32F3xx_HAL_Driver/Src/stm32f3xx_hal_tim.c ****   /* Capture compare 3 event */
2808:Drivers/STM32F3xx_HAL_Driver/Src/stm32f3xx_hal_tim.c ****   if(__HAL_TIM_GET_FLAG(htim, TIM_FLAG_CC3) != RESET)
 6395              		.loc 1 2808 0
 6396 00b0 7B68     		ldr	r3, [r7, #4]
 6397 00b2 1B68     		ldr	r3, [r3]
 6398 00b4 1B69     		ldr	r3, [r3, #16]
 6399 00b6 03F00803 		and	r3, r3, #8
 6400 00ba 002B     		cmp	r3, #0
 6401 00bc 22D0     		beq	.L387
2809:Drivers/STM32F3xx_HAL_Driver/Src/stm32f3xx_hal_tim.c ****   {
2810:Drivers/STM32F3xx_HAL_Driver/Src/stm32f3xx_hal_tim.c ****     if(__HAL_TIM_GET_IT_SOURCE(htim, TIM_IT_CC3) !=RESET)
ARM GAS  /tmp/ccZyKULX.s 			page 161


 6402              		.loc 1 2810 0
 6403 00be 7B68     		ldr	r3, [r7, #4]
 6404 00c0 1B68     		ldr	r3, [r3]
 6405 00c2 DB68     		ldr	r3, [r3, #12]
 6406 00c4 03F00803 		and	r3, r3, #8
 6407 00c8 002B     		cmp	r3, #0
 6408 00ca 1BD0     		beq	.L387
2811:Drivers/STM32F3xx_HAL_Driver/Src/stm32f3xx_hal_tim.c ****     {
2812:Drivers/STM32F3xx_HAL_Driver/Src/stm32f3xx_hal_tim.c ****       __HAL_TIM_CLEAR_IT(htim, TIM_IT_CC3);
 6409              		.loc 1 2812 0
 6410 00cc 7B68     		ldr	r3, [r7, #4]
 6411 00ce 1B68     		ldr	r3, [r3]
 6412 00d0 6FF00802 		mvn	r2, #8
 6413 00d4 1A61     		str	r2, [r3, #16]
2813:Drivers/STM32F3xx_HAL_Driver/Src/stm32f3xx_hal_tim.c ****       htim->Channel = HAL_TIM_ACTIVE_CHANNEL_3;
 6414              		.loc 1 2813 0
 6415 00d6 7B68     		ldr	r3, [r7, #4]
 6416 00d8 0422     		movs	r2, #4
 6417 00da 1A76     		strb	r2, [r3, #24]
2814:Drivers/STM32F3xx_HAL_Driver/Src/stm32f3xx_hal_tim.c ****       /* Input capture event */
2815:Drivers/STM32F3xx_HAL_Driver/Src/stm32f3xx_hal_tim.c ****       if((htim->Instance->CCMR2 & TIM_CCMR2_CC3S) != 0x00)
 6418              		.loc 1 2815 0
 6419 00dc 7B68     		ldr	r3, [r7, #4]
 6420 00de 1B68     		ldr	r3, [r3]
 6421 00e0 DB69     		ldr	r3, [r3, #28]
 6422 00e2 03F00303 		and	r3, r3, #3
 6423 00e6 002B     		cmp	r3, #0
 6424 00e8 03D0     		beq	.L388
2816:Drivers/STM32F3xx_HAL_Driver/Src/stm32f3xx_hal_tim.c ****       {          
2817:Drivers/STM32F3xx_HAL_Driver/Src/stm32f3xx_hal_tim.c ****         HAL_TIM_IC_CaptureCallback(htim);
 6425              		.loc 1 2817 0
 6426 00ea 7868     		ldr	r0, [r7, #4]
 6427 00ec FFF7FEFF 		bl	HAL_TIM_IC_CaptureCallback
 6428 00f0 05E0     		b	.L389
 6429              	.L388:
2818:Drivers/STM32F3xx_HAL_Driver/Src/stm32f3xx_hal_tim.c ****       }
2819:Drivers/STM32F3xx_HAL_Driver/Src/stm32f3xx_hal_tim.c ****       /* Output compare event */
2820:Drivers/STM32F3xx_HAL_Driver/Src/stm32f3xx_hal_tim.c ****       else
2821:Drivers/STM32F3xx_HAL_Driver/Src/stm32f3xx_hal_tim.c ****       {
2822:Drivers/STM32F3xx_HAL_Driver/Src/stm32f3xx_hal_tim.c ****         HAL_TIM_OC_DelayElapsedCallback(htim);
 6430              		.loc 1 2822 0
 6431 00f2 7868     		ldr	r0, [r7, #4]
 6432 00f4 FFF7FEFF 		bl	HAL_TIM_OC_DelayElapsedCallback
2823:Drivers/STM32F3xx_HAL_Driver/Src/stm32f3xx_hal_tim.c ****         HAL_TIM_PWM_PulseFinishedCallback(htim); 
 6433              		.loc 1 2823 0
 6434 00f8 7868     		ldr	r0, [r7, #4]
 6435 00fa FFF7FEFF 		bl	HAL_TIM_PWM_PulseFinishedCallback
 6436              	.L389:
2824:Drivers/STM32F3xx_HAL_Driver/Src/stm32f3xx_hal_tim.c ****       }
2825:Drivers/STM32F3xx_HAL_Driver/Src/stm32f3xx_hal_tim.c ****       htim->Channel = HAL_TIM_ACTIVE_CHANNEL_CLEARED;
 6437              		.loc 1 2825 0
 6438 00fe 7B68     		ldr	r3, [r7, #4]
 6439 0100 0022     		movs	r2, #0
 6440 0102 1A76     		strb	r2, [r3, #24]
 6441              	.L387:
2826:Drivers/STM32F3xx_HAL_Driver/Src/stm32f3xx_hal_tim.c ****     }
2827:Drivers/STM32F3xx_HAL_Driver/Src/stm32f3xx_hal_tim.c ****   }
ARM GAS  /tmp/ccZyKULX.s 			page 162


2828:Drivers/STM32F3xx_HAL_Driver/Src/stm32f3xx_hal_tim.c ****   /* Capture compare 4 event */
2829:Drivers/STM32F3xx_HAL_Driver/Src/stm32f3xx_hal_tim.c ****   if(__HAL_TIM_GET_FLAG(htim, TIM_FLAG_CC4) != RESET)
 6442              		.loc 1 2829 0
 6443 0104 7B68     		ldr	r3, [r7, #4]
 6444 0106 1B68     		ldr	r3, [r3]
 6445 0108 1B69     		ldr	r3, [r3, #16]
 6446 010a 03F01003 		and	r3, r3, #16
 6447 010e 002B     		cmp	r3, #0
 6448 0110 22D0     		beq	.L390
2830:Drivers/STM32F3xx_HAL_Driver/Src/stm32f3xx_hal_tim.c ****   {
2831:Drivers/STM32F3xx_HAL_Driver/Src/stm32f3xx_hal_tim.c ****     if(__HAL_TIM_GET_IT_SOURCE(htim, TIM_IT_CC4) !=RESET)
 6449              		.loc 1 2831 0
 6450 0112 7B68     		ldr	r3, [r7, #4]
 6451 0114 1B68     		ldr	r3, [r3]
 6452 0116 DB68     		ldr	r3, [r3, #12]
 6453 0118 03F01003 		and	r3, r3, #16
 6454 011c 002B     		cmp	r3, #0
 6455 011e 1BD0     		beq	.L390
2832:Drivers/STM32F3xx_HAL_Driver/Src/stm32f3xx_hal_tim.c ****     {
2833:Drivers/STM32F3xx_HAL_Driver/Src/stm32f3xx_hal_tim.c ****       __HAL_TIM_CLEAR_IT(htim, TIM_IT_CC4);
 6456              		.loc 1 2833 0
 6457 0120 7B68     		ldr	r3, [r7, #4]
 6458 0122 1B68     		ldr	r3, [r3]
 6459 0124 6FF01002 		mvn	r2, #16
 6460 0128 1A61     		str	r2, [r3, #16]
2834:Drivers/STM32F3xx_HAL_Driver/Src/stm32f3xx_hal_tim.c ****       htim->Channel = HAL_TIM_ACTIVE_CHANNEL_4;
 6461              		.loc 1 2834 0
 6462 012a 7B68     		ldr	r3, [r7, #4]
 6463 012c 0822     		movs	r2, #8
 6464 012e 1A76     		strb	r2, [r3, #24]
2835:Drivers/STM32F3xx_HAL_Driver/Src/stm32f3xx_hal_tim.c ****       /* Input capture event */
2836:Drivers/STM32F3xx_HAL_Driver/Src/stm32f3xx_hal_tim.c ****       if((htim->Instance->CCMR2 & TIM_CCMR2_CC4S) != 0x00)
 6465              		.loc 1 2836 0
 6466 0130 7B68     		ldr	r3, [r7, #4]
 6467 0132 1B68     		ldr	r3, [r3]
 6468 0134 DB69     		ldr	r3, [r3, #28]
 6469 0136 03F44073 		and	r3, r3, #768
 6470 013a 002B     		cmp	r3, #0
 6471 013c 03D0     		beq	.L391
2837:Drivers/STM32F3xx_HAL_Driver/Src/stm32f3xx_hal_tim.c ****       {          
2838:Drivers/STM32F3xx_HAL_Driver/Src/stm32f3xx_hal_tim.c ****         HAL_TIM_IC_CaptureCallback(htim);
 6472              		.loc 1 2838 0
 6473 013e 7868     		ldr	r0, [r7, #4]
 6474 0140 FFF7FEFF 		bl	HAL_TIM_IC_CaptureCallback
 6475 0144 05E0     		b	.L392
 6476              	.L391:
2839:Drivers/STM32F3xx_HAL_Driver/Src/stm32f3xx_hal_tim.c ****       }
2840:Drivers/STM32F3xx_HAL_Driver/Src/stm32f3xx_hal_tim.c ****       /* Output compare event */
2841:Drivers/STM32F3xx_HAL_Driver/Src/stm32f3xx_hal_tim.c ****       else
2842:Drivers/STM32F3xx_HAL_Driver/Src/stm32f3xx_hal_tim.c ****       {
2843:Drivers/STM32F3xx_HAL_Driver/Src/stm32f3xx_hal_tim.c ****         HAL_TIM_OC_DelayElapsedCallback(htim);
 6477              		.loc 1 2843 0
 6478 0146 7868     		ldr	r0, [r7, #4]
 6479 0148 FFF7FEFF 		bl	HAL_TIM_OC_DelayElapsedCallback
2844:Drivers/STM32F3xx_HAL_Driver/Src/stm32f3xx_hal_tim.c ****         HAL_TIM_PWM_PulseFinishedCallback(htim);
 6480              		.loc 1 2844 0
 6481 014c 7868     		ldr	r0, [r7, #4]
ARM GAS  /tmp/ccZyKULX.s 			page 163


 6482 014e FFF7FEFF 		bl	HAL_TIM_PWM_PulseFinishedCallback
 6483              	.L392:
2845:Drivers/STM32F3xx_HAL_Driver/Src/stm32f3xx_hal_tim.c ****       }
2846:Drivers/STM32F3xx_HAL_Driver/Src/stm32f3xx_hal_tim.c ****       htim->Channel = HAL_TIM_ACTIVE_CHANNEL_CLEARED;
 6484              		.loc 1 2846 0
 6485 0152 7B68     		ldr	r3, [r7, #4]
 6486 0154 0022     		movs	r2, #0
 6487 0156 1A76     		strb	r2, [r3, #24]
 6488              	.L390:
2847:Drivers/STM32F3xx_HAL_Driver/Src/stm32f3xx_hal_tim.c ****     } 
2848:Drivers/STM32F3xx_HAL_Driver/Src/stm32f3xx_hal_tim.c ****   }
2849:Drivers/STM32F3xx_HAL_Driver/Src/stm32f3xx_hal_tim.c ****   /* TIM Update event */
2850:Drivers/STM32F3xx_HAL_Driver/Src/stm32f3xx_hal_tim.c ****   if(__HAL_TIM_GET_FLAG(htim, TIM_FLAG_UPDATE) != RESET)
 6489              		.loc 1 2850 0
 6490 0158 7B68     		ldr	r3, [r7, #4]
 6491 015a 1B68     		ldr	r3, [r3]
 6492 015c 1B69     		ldr	r3, [r3, #16]
 6493 015e 03F00103 		and	r3, r3, #1
 6494 0162 002B     		cmp	r3, #0
 6495 0164 0ED0     		beq	.L393
2851:Drivers/STM32F3xx_HAL_Driver/Src/stm32f3xx_hal_tim.c ****   {
2852:Drivers/STM32F3xx_HAL_Driver/Src/stm32f3xx_hal_tim.c ****     if(__HAL_TIM_GET_IT_SOURCE(htim, TIM_IT_UPDATE) !=RESET)
 6496              		.loc 1 2852 0
 6497 0166 7B68     		ldr	r3, [r7, #4]
 6498 0168 1B68     		ldr	r3, [r3]
 6499 016a DB68     		ldr	r3, [r3, #12]
 6500 016c 03F00103 		and	r3, r3, #1
 6501 0170 002B     		cmp	r3, #0
 6502 0172 07D0     		beq	.L393
2853:Drivers/STM32F3xx_HAL_Driver/Src/stm32f3xx_hal_tim.c ****     { 
2854:Drivers/STM32F3xx_HAL_Driver/Src/stm32f3xx_hal_tim.c ****       __HAL_TIM_CLEAR_IT(htim, TIM_IT_UPDATE);
 6503              		.loc 1 2854 0
 6504 0174 7B68     		ldr	r3, [r7, #4]
 6505 0176 1B68     		ldr	r3, [r3]
 6506 0178 6FF00102 		mvn	r2, #1
 6507 017c 1A61     		str	r2, [r3, #16]
2855:Drivers/STM32F3xx_HAL_Driver/Src/stm32f3xx_hal_tim.c ****       HAL_TIM_PeriodElapsedCallback(htim);
 6508              		.loc 1 2855 0
 6509 017e 7868     		ldr	r0, [r7, #4]
 6510 0180 FFF7FEFF 		bl	HAL_TIM_PeriodElapsedCallback
 6511              	.L393:
2856:Drivers/STM32F3xx_HAL_Driver/Src/stm32f3xx_hal_tim.c ****     }
2857:Drivers/STM32F3xx_HAL_Driver/Src/stm32f3xx_hal_tim.c ****   }
2858:Drivers/STM32F3xx_HAL_Driver/Src/stm32f3xx_hal_tim.c ****   /* TIM Break input event */
2859:Drivers/STM32F3xx_HAL_Driver/Src/stm32f3xx_hal_tim.c ****   if(__HAL_TIM_GET_FLAG(htim, TIM_FLAG_BREAK) != RESET)
 6512              		.loc 1 2859 0
 6513 0184 7B68     		ldr	r3, [r7, #4]
 6514 0186 1B68     		ldr	r3, [r3]
 6515 0188 1B69     		ldr	r3, [r3, #16]
 6516 018a 03F08003 		and	r3, r3, #128
 6517 018e 002B     		cmp	r3, #0
 6518 0190 0ED0     		beq	.L394
2860:Drivers/STM32F3xx_HAL_Driver/Src/stm32f3xx_hal_tim.c ****   {
2861:Drivers/STM32F3xx_HAL_Driver/Src/stm32f3xx_hal_tim.c ****     if(__HAL_TIM_GET_IT_SOURCE(htim, TIM_IT_BREAK) !=RESET)
 6519              		.loc 1 2861 0
 6520 0192 7B68     		ldr	r3, [r7, #4]
 6521 0194 1B68     		ldr	r3, [r3]
ARM GAS  /tmp/ccZyKULX.s 			page 164


 6522 0196 DB68     		ldr	r3, [r3, #12]
 6523 0198 03F08003 		and	r3, r3, #128
 6524 019c 002B     		cmp	r3, #0
 6525 019e 07D0     		beq	.L394
2862:Drivers/STM32F3xx_HAL_Driver/Src/stm32f3xx_hal_tim.c ****     { 
2863:Drivers/STM32F3xx_HAL_Driver/Src/stm32f3xx_hal_tim.c ****       __HAL_TIM_CLEAR_IT(htim, TIM_IT_BREAK);
 6526              		.loc 1 2863 0
 6527 01a0 7B68     		ldr	r3, [r7, #4]
 6528 01a2 1B68     		ldr	r3, [r3]
 6529 01a4 6FF08002 		mvn	r2, #128
 6530 01a8 1A61     		str	r2, [r3, #16]
2864:Drivers/STM32F3xx_HAL_Driver/Src/stm32f3xx_hal_tim.c ****       HAL_TIMEx_BreakCallback(htim);
 6531              		.loc 1 2864 0
 6532 01aa 7868     		ldr	r0, [r7, #4]
 6533 01ac FFF7FEFF 		bl	HAL_TIMEx_BreakCallback
 6534              	.L394:
2865:Drivers/STM32F3xx_HAL_Driver/Src/stm32f3xx_hal_tim.c ****     }
2866:Drivers/STM32F3xx_HAL_Driver/Src/stm32f3xx_hal_tim.c ****   }
2867:Drivers/STM32F3xx_HAL_Driver/Src/stm32f3xx_hal_tim.c ****   /* TIM Trigger detection event */
2868:Drivers/STM32F3xx_HAL_Driver/Src/stm32f3xx_hal_tim.c ****   if(__HAL_TIM_GET_FLAG(htim, TIM_FLAG_TRIGGER) != RESET)
 6535              		.loc 1 2868 0
 6536 01b0 7B68     		ldr	r3, [r7, #4]
 6537 01b2 1B68     		ldr	r3, [r3]
 6538 01b4 1B69     		ldr	r3, [r3, #16]
 6539 01b6 03F04003 		and	r3, r3, #64
 6540 01ba 002B     		cmp	r3, #0
 6541 01bc 0ED0     		beq	.L395
2869:Drivers/STM32F3xx_HAL_Driver/Src/stm32f3xx_hal_tim.c ****   {
2870:Drivers/STM32F3xx_HAL_Driver/Src/stm32f3xx_hal_tim.c ****     if(__HAL_TIM_GET_IT_SOURCE(htim, TIM_IT_TRIGGER) !=RESET)
 6542              		.loc 1 2870 0
 6543 01be 7B68     		ldr	r3, [r7, #4]
 6544 01c0 1B68     		ldr	r3, [r3]
 6545 01c2 DB68     		ldr	r3, [r3, #12]
 6546 01c4 03F04003 		and	r3, r3, #64
 6547 01c8 002B     		cmp	r3, #0
 6548 01ca 07D0     		beq	.L395
2871:Drivers/STM32F3xx_HAL_Driver/Src/stm32f3xx_hal_tim.c ****     { 
2872:Drivers/STM32F3xx_HAL_Driver/Src/stm32f3xx_hal_tim.c ****       __HAL_TIM_CLEAR_IT(htim, TIM_IT_TRIGGER);
 6549              		.loc 1 2872 0
 6550 01cc 7B68     		ldr	r3, [r7, #4]
 6551 01ce 1B68     		ldr	r3, [r3]
 6552 01d0 6FF04002 		mvn	r2, #64
 6553 01d4 1A61     		str	r2, [r3, #16]
2873:Drivers/STM32F3xx_HAL_Driver/Src/stm32f3xx_hal_tim.c ****       HAL_TIM_TriggerCallback(htim);
 6554              		.loc 1 2873 0
 6555 01d6 7868     		ldr	r0, [r7, #4]
 6556 01d8 FFF7FEFF 		bl	HAL_TIM_TriggerCallback
 6557              	.L395:
2874:Drivers/STM32F3xx_HAL_Driver/Src/stm32f3xx_hal_tim.c ****     }
2875:Drivers/STM32F3xx_HAL_Driver/Src/stm32f3xx_hal_tim.c ****   }
2876:Drivers/STM32F3xx_HAL_Driver/Src/stm32f3xx_hal_tim.c ****   /* TIM commutation event */
2877:Drivers/STM32F3xx_HAL_Driver/Src/stm32f3xx_hal_tim.c ****   if(__HAL_TIM_GET_FLAG(htim, TIM_FLAG_COM) != RESET)
 6558              		.loc 1 2877 0
 6559 01dc 7B68     		ldr	r3, [r7, #4]
 6560 01de 1B68     		ldr	r3, [r3]
 6561 01e0 1B69     		ldr	r3, [r3, #16]
 6562 01e2 03F02003 		and	r3, r3, #32
ARM GAS  /tmp/ccZyKULX.s 			page 165


 6563 01e6 002B     		cmp	r3, #0
 6564 01e8 0ED0     		beq	.L380
2878:Drivers/STM32F3xx_HAL_Driver/Src/stm32f3xx_hal_tim.c ****   {
2879:Drivers/STM32F3xx_HAL_Driver/Src/stm32f3xx_hal_tim.c ****     if(__HAL_TIM_GET_IT_SOURCE(htim, TIM_IT_COM) !=RESET)
 6565              		.loc 1 2879 0
 6566 01ea 7B68     		ldr	r3, [r7, #4]
 6567 01ec 1B68     		ldr	r3, [r3]
 6568 01ee DB68     		ldr	r3, [r3, #12]
 6569 01f0 03F02003 		and	r3, r3, #32
 6570 01f4 002B     		cmp	r3, #0
 6571 01f6 07D0     		beq	.L380
2880:Drivers/STM32F3xx_HAL_Driver/Src/stm32f3xx_hal_tim.c ****     { 
2881:Drivers/STM32F3xx_HAL_Driver/Src/stm32f3xx_hal_tim.c ****       __HAL_TIM_CLEAR_IT(htim, TIM_FLAG_COM);
 6572              		.loc 1 2881 0
 6573 01f8 7B68     		ldr	r3, [r7, #4]
 6574 01fa 1B68     		ldr	r3, [r3]
 6575 01fc 6FF02002 		mvn	r2, #32
 6576 0200 1A61     		str	r2, [r3, #16]
2882:Drivers/STM32F3xx_HAL_Driver/Src/stm32f3xx_hal_tim.c ****       HAL_TIMEx_CommutationCallback(htim);
 6577              		.loc 1 2882 0
 6578 0202 7868     		ldr	r0, [r7, #4]
 6579 0204 FFF7FEFF 		bl	HAL_TIMEx_CommutationCallback
 6580              	.L380:
2883:Drivers/STM32F3xx_HAL_Driver/Src/stm32f3xx_hal_tim.c ****     }
2884:Drivers/STM32F3xx_HAL_Driver/Src/stm32f3xx_hal_tim.c ****   }
2885:Drivers/STM32F3xx_HAL_Driver/Src/stm32f3xx_hal_tim.c **** }
 6581              		.loc 1 2885 0
 6582 0208 0837     		adds	r7, r7, #8
 6583 020a BD46     		mov	sp, r7
 6584              		@ sp needed
 6585 020c 80BD     		pop	{r7, pc}
 6586              		.cfi_endproc
 6587              	.LFE183:
 6589 020e 00BF     		.section	.text.HAL_TIM_OC_ConfigChannel,"ax",%progbits
 6590              		.align	2
 6591              		.weak	HAL_TIM_OC_ConfigChannel
 6592              		.thumb
 6593              		.thumb_func
 6595              	HAL_TIM_OC_ConfigChannel:
 6596              	.LFB184:
2886:Drivers/STM32F3xx_HAL_Driver/Src/stm32f3xx_hal_tim.c **** 
2887:Drivers/STM32F3xx_HAL_Driver/Src/stm32f3xx_hal_tim.c **** /**
2888:Drivers/STM32F3xx_HAL_Driver/Src/stm32f3xx_hal_tim.c ****   * @}
2889:Drivers/STM32F3xx_HAL_Driver/Src/stm32f3xx_hal_tim.c ****   */
2890:Drivers/STM32F3xx_HAL_Driver/Src/stm32f3xx_hal_tim.c **** 
2891:Drivers/STM32F3xx_HAL_Driver/Src/stm32f3xx_hal_tim.c **** /** @defgroup TIM_Exported_Functions_Group8 Peripheral Control functions
2892:Drivers/STM32F3xx_HAL_Driver/Src/stm32f3xx_hal_tim.c ****  *  @brief   	Peripheral Control functions 
2893:Drivers/STM32F3xx_HAL_Driver/Src/stm32f3xx_hal_tim.c ****  *
2894:Drivers/STM32F3xx_HAL_Driver/Src/stm32f3xx_hal_tim.c **** @verbatim   
2895:Drivers/STM32F3xx_HAL_Driver/Src/stm32f3xx_hal_tim.c ****   ==============================================================================
2896:Drivers/STM32F3xx_HAL_Driver/Src/stm32f3xx_hal_tim.c ****                    ##### Peripheral Control functions #####
2897:Drivers/STM32F3xx_HAL_Driver/Src/stm32f3xx_hal_tim.c ****   ==============================================================================  
2898:Drivers/STM32F3xx_HAL_Driver/Src/stm32f3xx_hal_tim.c ****  [..] 
2899:Drivers/STM32F3xx_HAL_Driver/Src/stm32f3xx_hal_tim.c ****    This section provides functions allowing to:
2900:Drivers/STM32F3xx_HAL_Driver/Src/stm32f3xx_hal_tim.c ****       (+) Configure The Input Output channels for OC, PWM, IC or One Pulse mode. 
2901:Drivers/STM32F3xx_HAL_Driver/Src/stm32f3xx_hal_tim.c ****       (+) Configure External Clock source.
2902:Drivers/STM32F3xx_HAL_Driver/Src/stm32f3xx_hal_tim.c ****       (+) Configure Complementary channels, break features and dead time.
ARM GAS  /tmp/ccZyKULX.s 			page 166


2903:Drivers/STM32F3xx_HAL_Driver/Src/stm32f3xx_hal_tim.c ****       (+) Configure Master and the Slave synchronization.
2904:Drivers/STM32F3xx_HAL_Driver/Src/stm32f3xx_hal_tim.c ****       (+) Configure the DMA Burst Mode.
2905:Drivers/STM32F3xx_HAL_Driver/Src/stm32f3xx_hal_tim.c ****       
2906:Drivers/STM32F3xx_HAL_Driver/Src/stm32f3xx_hal_tim.c **** @endverbatim
2907:Drivers/STM32F3xx_HAL_Driver/Src/stm32f3xx_hal_tim.c ****   * @{
2908:Drivers/STM32F3xx_HAL_Driver/Src/stm32f3xx_hal_tim.c ****   */
2909:Drivers/STM32F3xx_HAL_Driver/Src/stm32f3xx_hal_tim.c ****   
2910:Drivers/STM32F3xx_HAL_Driver/Src/stm32f3xx_hal_tim.c **** /**
2911:Drivers/STM32F3xx_HAL_Driver/Src/stm32f3xx_hal_tim.c ****   * @brief  Initializes the TIM Output Compare Channels according to the specified
2912:Drivers/STM32F3xx_HAL_Driver/Src/stm32f3xx_hal_tim.c ****   *         parameters in the TIM_OC_InitTypeDef.
2913:Drivers/STM32F3xx_HAL_Driver/Src/stm32f3xx_hal_tim.c ****   * @param  htim: TIM Output Compare handle
2914:Drivers/STM32F3xx_HAL_Driver/Src/stm32f3xx_hal_tim.c ****   * @param  sConfig: TIM Output Compare configuration structure
2915:Drivers/STM32F3xx_HAL_Driver/Src/stm32f3xx_hal_tim.c ****   * @param  Channel: TIM Channels to be enabled
2916:Drivers/STM32F3xx_HAL_Driver/Src/stm32f3xx_hal_tim.c ****   *          This parameter can be one of the following values:
2917:Drivers/STM32F3xx_HAL_Driver/Src/stm32f3xx_hal_tim.c ****   *            @arg TIM_CHANNEL_1: TIM Channel 1 selected
2918:Drivers/STM32F3xx_HAL_Driver/Src/stm32f3xx_hal_tim.c ****   *            @arg TIM_CHANNEL_2: TIM Channel 2 selected
2919:Drivers/STM32F3xx_HAL_Driver/Src/stm32f3xx_hal_tim.c ****   *            @arg TIM_CHANNEL_3: TIM Channel 3 selected
2920:Drivers/STM32F3xx_HAL_Driver/Src/stm32f3xx_hal_tim.c ****   *            @arg TIM_CHANNEL_4: TIM Channel 4 selected 
2921:Drivers/STM32F3xx_HAL_Driver/Src/stm32f3xx_hal_tim.c ****   * @retval HAL status
2922:Drivers/STM32F3xx_HAL_Driver/Src/stm32f3xx_hal_tim.c ****   */
2923:Drivers/STM32F3xx_HAL_Driver/Src/stm32f3xx_hal_tim.c **** __weak HAL_StatusTypeDef HAL_TIM_OC_ConfigChannel(TIM_HandleTypeDef *htim, TIM_OC_InitTypeDef* sCon
2924:Drivers/STM32F3xx_HAL_Driver/Src/stm32f3xx_hal_tim.c **** {
 6597              		.loc 1 2924 0
 6598              		.cfi_startproc
 6599              		@ args = 0, pretend = 0, frame = 16
 6600              		@ frame_needed = 1, uses_anonymous_args = 0
 6601 0000 80B5     		push	{r7, lr}
 6602              	.LCFI177:
 6603              		.cfi_def_cfa_offset 8
 6604              		.cfi_offset 7, -8
 6605              		.cfi_offset 14, -4
 6606 0002 84B0     		sub	sp, sp, #16
 6607              	.LCFI178:
 6608              		.cfi_def_cfa_offset 24
 6609 0004 00AF     		add	r7, sp, #0
 6610              	.LCFI179:
 6611              		.cfi_def_cfa_register 7
 6612 0006 F860     		str	r0, [r7, #12]
 6613 0008 B960     		str	r1, [r7, #8]
 6614 000a 7A60     		str	r2, [r7, #4]
2925:Drivers/STM32F3xx_HAL_Driver/Src/stm32f3xx_hal_tim.c ****   /* Check the parameters */
2926:Drivers/STM32F3xx_HAL_Driver/Src/stm32f3xx_hal_tim.c ****   assert_param(IS_TIM_CHANNELS(Channel)); 
2927:Drivers/STM32F3xx_HAL_Driver/Src/stm32f3xx_hal_tim.c ****   assert_param(IS_TIM_OC_MODE(sConfig->OCMode));
2928:Drivers/STM32F3xx_HAL_Driver/Src/stm32f3xx_hal_tim.c ****   assert_param(IS_TIM_OC_POLARITY(sConfig->OCPolarity));
2929:Drivers/STM32F3xx_HAL_Driver/Src/stm32f3xx_hal_tim.c ****   
2930:Drivers/STM32F3xx_HAL_Driver/Src/stm32f3xx_hal_tim.c ****   /* Check input state */
2931:Drivers/STM32F3xx_HAL_Driver/Src/stm32f3xx_hal_tim.c ****   __HAL_LOCK(htim); 
 6615              		.loc 1 2931 0
 6616 000c FB68     		ldr	r3, [r7, #12]
 6617 000e 93F83830 		ldrb	r3, [r3, #56]	@ zero_extendqisi2
 6618 0012 012B     		cmp	r3, #1
 6619 0014 01D1     		bne	.L398
 6620              		.loc 1 2931 0 is_stmt 0 discriminator 1
 6621 0016 0223     		movs	r3, #2
 6622 0018 4EE0     		b	.L399
 6623              	.L398:
 6624              		.loc 1 2931 0 discriminator 2
ARM GAS  /tmp/ccZyKULX.s 			page 167


 6625 001a FB68     		ldr	r3, [r7, #12]
 6626 001c 0122     		movs	r2, #1
 6627 001e 83F83820 		strb	r2, [r3, #56]
2932:Drivers/STM32F3xx_HAL_Driver/Src/stm32f3xx_hal_tim.c ****   
2933:Drivers/STM32F3xx_HAL_Driver/Src/stm32f3xx_hal_tim.c ****   htim->State = HAL_TIM_STATE_BUSY;
 6628              		.loc 1 2933 0 is_stmt 1 discriminator 2
 6629 0022 FB68     		ldr	r3, [r7, #12]
 6630 0024 0222     		movs	r2, #2
 6631 0026 83F83920 		strb	r2, [r3, #57]
2934:Drivers/STM32F3xx_HAL_Driver/Src/stm32f3xx_hal_tim.c ****   
2935:Drivers/STM32F3xx_HAL_Driver/Src/stm32f3xx_hal_tim.c ****   switch (Channel)
 6632              		.loc 1 2935 0 discriminator 2
 6633 002a 7B68     		ldr	r3, [r7, #4]
 6634 002c 0C2B     		cmp	r3, #12
 6635 002e 39D8     		bhi	.L407
 6636 0030 01A2     		adr	r2, .L402
 6637 0032 52F823F0 		ldr	pc, [r2, r3, lsl #2]
 6638 0036 00BF     		.p2align 2
 6639              	.L402:
 6640 0038 6D000000 		.word	.L401+1
 6641 003c A5000000 		.word	.L407+1
 6642 0040 A5000000 		.word	.L407+1
 6643 0044 A5000000 		.word	.L407+1
 6644 0048 7B000000 		.word	.L403+1
 6645 004c A5000000 		.word	.L407+1
 6646 0050 A5000000 		.word	.L407+1
 6647 0054 A5000000 		.word	.L407+1
 6648 0058 89000000 		.word	.L404+1
 6649 005c A5000000 		.word	.L407+1
 6650 0060 A5000000 		.word	.L407+1
 6651 0064 A5000000 		.word	.L407+1
 6652 0068 97000000 		.word	.L405+1
 6653              		.p2align 1
 6654              	.L401:
2936:Drivers/STM32F3xx_HAL_Driver/Src/stm32f3xx_hal_tim.c ****   {
2937:Drivers/STM32F3xx_HAL_Driver/Src/stm32f3xx_hal_tim.c ****     case TIM_CHANNEL_1:
2938:Drivers/STM32F3xx_HAL_Driver/Src/stm32f3xx_hal_tim.c ****     {
2939:Drivers/STM32F3xx_HAL_Driver/Src/stm32f3xx_hal_tim.c ****       assert_param(IS_TIM_CC1_INSTANCE(htim->Instance));
2940:Drivers/STM32F3xx_HAL_Driver/Src/stm32f3xx_hal_tim.c ****       /* Configure the TIM Channel 1 in Output Compare */
2941:Drivers/STM32F3xx_HAL_Driver/Src/stm32f3xx_hal_tim.c ****       TIM_OC1_SetConfig(htim->Instance, sConfig);
 6655              		.loc 1 2941 0
 6656 006c FB68     		ldr	r3, [r7, #12]
 6657 006e 1B68     		ldr	r3, [r3]
 6658 0070 1846     		mov	r0, r3
 6659 0072 B968     		ldr	r1, [r7, #8]
 6660 0074 FFF7FEFF 		bl	TIM_OC1_SetConfig
2942:Drivers/STM32F3xx_HAL_Driver/Src/stm32f3xx_hal_tim.c ****     }
2943:Drivers/STM32F3xx_HAL_Driver/Src/stm32f3xx_hal_tim.c ****     break;
 6661              		.loc 1 2943 0
 6662 0078 15E0     		b	.L406
 6663              	.L403:
2944:Drivers/STM32F3xx_HAL_Driver/Src/stm32f3xx_hal_tim.c ****     
2945:Drivers/STM32F3xx_HAL_Driver/Src/stm32f3xx_hal_tim.c ****     case TIM_CHANNEL_2:
2946:Drivers/STM32F3xx_HAL_Driver/Src/stm32f3xx_hal_tim.c ****     {
2947:Drivers/STM32F3xx_HAL_Driver/Src/stm32f3xx_hal_tim.c ****       assert_param(IS_TIM_CC2_INSTANCE(htim->Instance));
2948:Drivers/STM32F3xx_HAL_Driver/Src/stm32f3xx_hal_tim.c ****       /* Configure the TIM Channel 2 in Output Compare */
2949:Drivers/STM32F3xx_HAL_Driver/Src/stm32f3xx_hal_tim.c ****       TIM_OC2_SetConfig(htim->Instance, sConfig);
ARM GAS  /tmp/ccZyKULX.s 			page 168


 6664              		.loc 1 2949 0
 6665 007a FB68     		ldr	r3, [r7, #12]
 6666 007c 1B68     		ldr	r3, [r3]
 6667 007e 1846     		mov	r0, r3
 6668 0080 B968     		ldr	r1, [r7, #8]
 6669 0082 FFF7FEFF 		bl	TIM_OC2_SetConfig
2950:Drivers/STM32F3xx_HAL_Driver/Src/stm32f3xx_hal_tim.c ****     }
2951:Drivers/STM32F3xx_HAL_Driver/Src/stm32f3xx_hal_tim.c ****     break;
 6670              		.loc 1 2951 0
 6671 0086 0EE0     		b	.L406
 6672              	.L404:
2952:Drivers/STM32F3xx_HAL_Driver/Src/stm32f3xx_hal_tim.c ****     
2953:Drivers/STM32F3xx_HAL_Driver/Src/stm32f3xx_hal_tim.c ****     case TIM_CHANNEL_3:
2954:Drivers/STM32F3xx_HAL_Driver/Src/stm32f3xx_hal_tim.c ****     {
2955:Drivers/STM32F3xx_HAL_Driver/Src/stm32f3xx_hal_tim.c ****        assert_param(IS_TIM_CC3_INSTANCE(htim->Instance));
2956:Drivers/STM32F3xx_HAL_Driver/Src/stm32f3xx_hal_tim.c ****       /* Configure the TIM Channel 3 in Output Compare */
2957:Drivers/STM32F3xx_HAL_Driver/Src/stm32f3xx_hal_tim.c ****       TIM_OC3_SetConfig(htim->Instance, sConfig);
 6673              		.loc 1 2957 0
 6674 0088 FB68     		ldr	r3, [r7, #12]
 6675 008a 1B68     		ldr	r3, [r3]
 6676 008c 1846     		mov	r0, r3
 6677 008e B968     		ldr	r1, [r7, #8]
 6678 0090 FFF7FEFF 		bl	TIM_OC3_SetConfig
2958:Drivers/STM32F3xx_HAL_Driver/Src/stm32f3xx_hal_tim.c ****     }
2959:Drivers/STM32F3xx_HAL_Driver/Src/stm32f3xx_hal_tim.c ****     break;
 6679              		.loc 1 2959 0
 6680 0094 07E0     		b	.L406
 6681              	.L405:
2960:Drivers/STM32F3xx_HAL_Driver/Src/stm32f3xx_hal_tim.c ****     
2961:Drivers/STM32F3xx_HAL_Driver/Src/stm32f3xx_hal_tim.c ****     case TIM_CHANNEL_4:
2962:Drivers/STM32F3xx_HAL_Driver/Src/stm32f3xx_hal_tim.c ****     {
2963:Drivers/STM32F3xx_HAL_Driver/Src/stm32f3xx_hal_tim.c ****       assert_param(IS_TIM_CC4_INSTANCE(htim->Instance));
2964:Drivers/STM32F3xx_HAL_Driver/Src/stm32f3xx_hal_tim.c ****        /* Configure the TIM Channel 4 in Output Compare */
2965:Drivers/STM32F3xx_HAL_Driver/Src/stm32f3xx_hal_tim.c ****        TIM_OC4_SetConfig(htim->Instance, sConfig);
 6682              		.loc 1 2965 0
 6683 0096 FB68     		ldr	r3, [r7, #12]
 6684 0098 1B68     		ldr	r3, [r3]
 6685 009a 1846     		mov	r0, r3
 6686 009c B968     		ldr	r1, [r7, #8]
 6687 009e FFF7FEFF 		bl	TIM_OC4_SetConfig
2966:Drivers/STM32F3xx_HAL_Driver/Src/stm32f3xx_hal_tim.c ****     }
2967:Drivers/STM32F3xx_HAL_Driver/Src/stm32f3xx_hal_tim.c ****     break;
 6688              		.loc 1 2967 0
 6689 00a2 00E0     		b	.L406
 6690              	.L407:
2968:Drivers/STM32F3xx_HAL_Driver/Src/stm32f3xx_hal_tim.c ****     
2969:Drivers/STM32F3xx_HAL_Driver/Src/stm32f3xx_hal_tim.c ****     default:
2970:Drivers/STM32F3xx_HAL_Driver/Src/stm32f3xx_hal_tim.c ****     break;    
 6691              		.loc 1 2970 0
 6692 00a4 00BF     		nop
 6693              	.L406:
2971:Drivers/STM32F3xx_HAL_Driver/Src/stm32f3xx_hal_tim.c ****   }
2972:Drivers/STM32F3xx_HAL_Driver/Src/stm32f3xx_hal_tim.c ****   htim->State = HAL_TIM_STATE_READY;
 6694              		.loc 1 2972 0
 6695 00a6 FB68     		ldr	r3, [r7, #12]
 6696 00a8 0122     		movs	r2, #1
 6697 00aa 83F83920 		strb	r2, [r3, #57]
ARM GAS  /tmp/ccZyKULX.s 			page 169


2973:Drivers/STM32F3xx_HAL_Driver/Src/stm32f3xx_hal_tim.c ****   
2974:Drivers/STM32F3xx_HAL_Driver/Src/stm32f3xx_hal_tim.c ****   __HAL_UNLOCK(htim); 
 6698              		.loc 1 2974 0
 6699 00ae FB68     		ldr	r3, [r7, #12]
 6700 00b0 0022     		movs	r2, #0
 6701 00b2 83F83820 		strb	r2, [r3, #56]
2975:Drivers/STM32F3xx_HAL_Driver/Src/stm32f3xx_hal_tim.c ****   
2976:Drivers/STM32F3xx_HAL_Driver/Src/stm32f3xx_hal_tim.c ****   return HAL_OK;
 6702              		.loc 1 2976 0
 6703 00b6 0023     		movs	r3, #0
 6704              	.L399:
2977:Drivers/STM32F3xx_HAL_Driver/Src/stm32f3xx_hal_tim.c **** }
 6705              		.loc 1 2977 0
 6706 00b8 1846     		mov	r0, r3
 6707 00ba 1037     		adds	r7, r7, #16
 6708 00bc BD46     		mov	sp, r7
 6709              		@ sp needed
 6710 00be 80BD     		pop	{r7, pc}
 6711              		.cfi_endproc
 6712              	.LFE184:
 6714              		.section	.text.HAL_TIM_IC_ConfigChannel,"ax",%progbits
 6715              		.align	2
 6716              		.global	HAL_TIM_IC_ConfigChannel
 6717              		.thumb
 6718              		.thumb_func
 6720              	HAL_TIM_IC_ConfigChannel:
 6721              	.LFB185:
2978:Drivers/STM32F3xx_HAL_Driver/Src/stm32f3xx_hal_tim.c **** 
2979:Drivers/STM32F3xx_HAL_Driver/Src/stm32f3xx_hal_tim.c **** /**
2980:Drivers/STM32F3xx_HAL_Driver/Src/stm32f3xx_hal_tim.c ****   * @brief  Initializes the TIM Input Capture Channels according to the specified
2981:Drivers/STM32F3xx_HAL_Driver/Src/stm32f3xx_hal_tim.c ****   *         parameters in the TIM_IC_InitTypeDef.
2982:Drivers/STM32F3xx_HAL_Driver/Src/stm32f3xx_hal_tim.c ****   * @param  htim: TIM IC handle
2983:Drivers/STM32F3xx_HAL_Driver/Src/stm32f3xx_hal_tim.c ****   * @param  sConfig: TIM Input Capture configuration structure
2984:Drivers/STM32F3xx_HAL_Driver/Src/stm32f3xx_hal_tim.c ****   * @param  Channel: TIM Channels to be enabled
2985:Drivers/STM32F3xx_HAL_Driver/Src/stm32f3xx_hal_tim.c ****   *          This parameter can be one of the following values:
2986:Drivers/STM32F3xx_HAL_Driver/Src/stm32f3xx_hal_tim.c ****   *            @arg TIM_CHANNEL_1: TIM Channel 1 selected
2987:Drivers/STM32F3xx_HAL_Driver/Src/stm32f3xx_hal_tim.c ****   *            @arg TIM_CHANNEL_2: TIM Channel 2 selected
2988:Drivers/STM32F3xx_HAL_Driver/Src/stm32f3xx_hal_tim.c ****   *            @arg TIM_CHANNEL_3: TIM Channel 3 selected
2989:Drivers/STM32F3xx_HAL_Driver/Src/stm32f3xx_hal_tim.c ****   *            @arg TIM_CHANNEL_4: TIM Channel 4 selected 
2990:Drivers/STM32F3xx_HAL_Driver/Src/stm32f3xx_hal_tim.c ****   * @retval HAL status
2991:Drivers/STM32F3xx_HAL_Driver/Src/stm32f3xx_hal_tim.c ****   */
2992:Drivers/STM32F3xx_HAL_Driver/Src/stm32f3xx_hal_tim.c **** HAL_StatusTypeDef HAL_TIM_IC_ConfigChannel(TIM_HandleTypeDef *htim, TIM_IC_InitTypeDef* sConfig, ui
2993:Drivers/STM32F3xx_HAL_Driver/Src/stm32f3xx_hal_tim.c **** {
 6722              		.loc 1 2993 0
 6723              		.cfi_startproc
 6724              		@ args = 0, pretend = 0, frame = 16
 6725              		@ frame_needed = 1, uses_anonymous_args = 0
 6726 0000 80B5     		push	{r7, lr}
 6727              	.LCFI180:
 6728              		.cfi_def_cfa_offset 8
 6729              		.cfi_offset 7, -8
 6730              		.cfi_offset 14, -4
 6731 0002 84B0     		sub	sp, sp, #16
 6732              	.LCFI181:
 6733              		.cfi_def_cfa_offset 24
 6734 0004 00AF     		add	r7, sp, #0
 6735              	.LCFI182:
ARM GAS  /tmp/ccZyKULX.s 			page 170


 6736              		.cfi_def_cfa_register 7
 6737 0006 F860     		str	r0, [r7, #12]
 6738 0008 B960     		str	r1, [r7, #8]
 6739 000a 7A60     		str	r2, [r7, #4]
2994:Drivers/STM32F3xx_HAL_Driver/Src/stm32f3xx_hal_tim.c ****   /* Check the parameters */
2995:Drivers/STM32F3xx_HAL_Driver/Src/stm32f3xx_hal_tim.c ****   assert_param(IS_TIM_CC1_INSTANCE(htim->Instance));
2996:Drivers/STM32F3xx_HAL_Driver/Src/stm32f3xx_hal_tim.c ****   assert_param(IS_TIM_IC_POLARITY(sConfig->ICPolarity));
2997:Drivers/STM32F3xx_HAL_Driver/Src/stm32f3xx_hal_tim.c ****   assert_param(IS_TIM_IC_SELECTION(sConfig->ICSelection));
2998:Drivers/STM32F3xx_HAL_Driver/Src/stm32f3xx_hal_tim.c ****   assert_param(IS_TIM_IC_PRESCALER(sConfig->ICPrescaler));
2999:Drivers/STM32F3xx_HAL_Driver/Src/stm32f3xx_hal_tim.c ****   assert_param(IS_TIM_IC_FILTER(sConfig->ICFilter));
3000:Drivers/STM32F3xx_HAL_Driver/Src/stm32f3xx_hal_tim.c ****   
3001:Drivers/STM32F3xx_HAL_Driver/Src/stm32f3xx_hal_tim.c ****   __HAL_LOCK(htim);
 6740              		.loc 1 3001 0
 6741 000c FB68     		ldr	r3, [r7, #12]
 6742 000e 93F83830 		ldrb	r3, [r3, #56]	@ zero_extendqisi2
 6743 0012 012B     		cmp	r3, #1
 6744 0014 01D1     		bne	.L409
 6745              		.loc 1 3001 0 is_stmt 0 discriminator 1
 6746 0016 0223     		movs	r3, #2
 6747 0018 8AE0     		b	.L410
 6748              	.L409:
 6749              		.loc 1 3001 0 discriminator 2
 6750 001a FB68     		ldr	r3, [r7, #12]
 6751 001c 0122     		movs	r2, #1
 6752 001e 83F83820 		strb	r2, [r3, #56]
3002:Drivers/STM32F3xx_HAL_Driver/Src/stm32f3xx_hal_tim.c ****   
3003:Drivers/STM32F3xx_HAL_Driver/Src/stm32f3xx_hal_tim.c ****   htim->State = HAL_TIM_STATE_BUSY;
 6753              		.loc 1 3003 0 is_stmt 1 discriminator 2
 6754 0022 FB68     		ldr	r3, [r7, #12]
 6755 0024 0222     		movs	r2, #2
 6756 0026 83F83920 		strb	r2, [r3, #57]
3004:Drivers/STM32F3xx_HAL_Driver/Src/stm32f3xx_hal_tim.c ****   
3005:Drivers/STM32F3xx_HAL_Driver/Src/stm32f3xx_hal_tim.c ****   if (Channel == TIM_CHANNEL_1)
 6757              		.loc 1 3005 0 discriminator 2
 6758 002a 7B68     		ldr	r3, [r7, #4]
 6759 002c 002B     		cmp	r3, #0
 6760 002e 1BD1     		bne	.L411
3006:Drivers/STM32F3xx_HAL_Driver/Src/stm32f3xx_hal_tim.c ****   {
3007:Drivers/STM32F3xx_HAL_Driver/Src/stm32f3xx_hal_tim.c ****     /* TI1 Configuration */
3008:Drivers/STM32F3xx_HAL_Driver/Src/stm32f3xx_hal_tim.c ****     TIM_TI1_SetConfig(htim->Instance,
 6761              		.loc 1 3008 0
 6762 0030 FB68     		ldr	r3, [r7, #12]
 6763 0032 1868     		ldr	r0, [r3]
 6764 0034 BB68     		ldr	r3, [r7, #8]
 6765 0036 1968     		ldr	r1, [r3]
 6766 0038 BB68     		ldr	r3, [r7, #8]
 6767 003a 5A68     		ldr	r2, [r3, #4]
 6768 003c BB68     		ldr	r3, [r7, #8]
 6769 003e DB68     		ldr	r3, [r3, #12]
 6770 0040 FFF7FEFF 		bl	TIM_TI1_SetConfig
3009:Drivers/STM32F3xx_HAL_Driver/Src/stm32f3xx_hal_tim.c ****                sConfig->ICPolarity,
3010:Drivers/STM32F3xx_HAL_Driver/Src/stm32f3xx_hal_tim.c ****                sConfig->ICSelection,
3011:Drivers/STM32F3xx_HAL_Driver/Src/stm32f3xx_hal_tim.c ****                sConfig->ICFilter);
3012:Drivers/STM32F3xx_HAL_Driver/Src/stm32f3xx_hal_tim.c ****                
3013:Drivers/STM32F3xx_HAL_Driver/Src/stm32f3xx_hal_tim.c ****     /* Reset the IC1PSC Bits */
3014:Drivers/STM32F3xx_HAL_Driver/Src/stm32f3xx_hal_tim.c ****     htim->Instance->CCMR1 &= ~TIM_CCMR1_IC1PSC;
 6771              		.loc 1 3014 0
ARM GAS  /tmp/ccZyKULX.s 			page 171


 6772 0044 FB68     		ldr	r3, [r7, #12]
 6773 0046 1B68     		ldr	r3, [r3]
 6774 0048 FA68     		ldr	r2, [r7, #12]
 6775 004a 1268     		ldr	r2, [r2]
 6776 004c 9269     		ldr	r2, [r2, #24]
 6777 004e 22F00C02 		bic	r2, r2, #12
 6778 0052 9A61     		str	r2, [r3, #24]
3015:Drivers/STM32F3xx_HAL_Driver/Src/stm32f3xx_hal_tim.c **** 
3016:Drivers/STM32F3xx_HAL_Driver/Src/stm32f3xx_hal_tim.c ****     /* Set the IC1PSC value */
3017:Drivers/STM32F3xx_HAL_Driver/Src/stm32f3xx_hal_tim.c ****     htim->Instance->CCMR1 |= sConfig->ICPrescaler;
 6779              		.loc 1 3017 0
 6780 0054 FB68     		ldr	r3, [r7, #12]
 6781 0056 1B68     		ldr	r3, [r3]
 6782 0058 FA68     		ldr	r2, [r7, #12]
 6783 005a 1268     		ldr	r2, [r2]
 6784 005c 9169     		ldr	r1, [r2, #24]
 6785 005e BA68     		ldr	r2, [r7, #8]
 6786 0060 9268     		ldr	r2, [r2, #8]
 6787 0062 0A43     		orrs	r2, r2, r1
 6788 0064 9A61     		str	r2, [r3, #24]
 6789 0066 5AE0     		b	.L412
 6790              	.L411:
3018:Drivers/STM32F3xx_HAL_Driver/Src/stm32f3xx_hal_tim.c ****   }
3019:Drivers/STM32F3xx_HAL_Driver/Src/stm32f3xx_hal_tim.c ****   else if (Channel == TIM_CHANNEL_2)
 6791              		.loc 1 3019 0
 6792 0068 7B68     		ldr	r3, [r7, #4]
 6793 006a 042B     		cmp	r3, #4
 6794 006c 1CD1     		bne	.L413
3020:Drivers/STM32F3xx_HAL_Driver/Src/stm32f3xx_hal_tim.c ****   {
3021:Drivers/STM32F3xx_HAL_Driver/Src/stm32f3xx_hal_tim.c ****     /* TI2 Configuration */
3022:Drivers/STM32F3xx_HAL_Driver/Src/stm32f3xx_hal_tim.c ****     assert_param(IS_TIM_CC2_INSTANCE(htim->Instance));
3023:Drivers/STM32F3xx_HAL_Driver/Src/stm32f3xx_hal_tim.c ****     
3024:Drivers/STM32F3xx_HAL_Driver/Src/stm32f3xx_hal_tim.c ****     TIM_TI2_SetConfig(htim->Instance, 
 6795              		.loc 1 3024 0
 6796 006e FB68     		ldr	r3, [r7, #12]
 6797 0070 1868     		ldr	r0, [r3]
 6798 0072 BB68     		ldr	r3, [r7, #8]
 6799 0074 1968     		ldr	r1, [r3]
 6800 0076 BB68     		ldr	r3, [r7, #8]
 6801 0078 5A68     		ldr	r2, [r3, #4]
 6802 007a BB68     		ldr	r3, [r7, #8]
 6803 007c DB68     		ldr	r3, [r3, #12]
 6804 007e FFF7FEFF 		bl	TIM_TI2_SetConfig
3025:Drivers/STM32F3xx_HAL_Driver/Src/stm32f3xx_hal_tim.c ****                       sConfig->ICPolarity,
3026:Drivers/STM32F3xx_HAL_Driver/Src/stm32f3xx_hal_tim.c ****                       sConfig->ICSelection,
3027:Drivers/STM32F3xx_HAL_Driver/Src/stm32f3xx_hal_tim.c ****                       sConfig->ICFilter);
3028:Drivers/STM32F3xx_HAL_Driver/Src/stm32f3xx_hal_tim.c ****                
3029:Drivers/STM32F3xx_HAL_Driver/Src/stm32f3xx_hal_tim.c ****     /* Reset the IC2PSC Bits */
3030:Drivers/STM32F3xx_HAL_Driver/Src/stm32f3xx_hal_tim.c ****     htim->Instance->CCMR1 &= ~TIM_CCMR1_IC2PSC;
 6805              		.loc 1 3030 0
 6806 0082 FB68     		ldr	r3, [r7, #12]
 6807 0084 1B68     		ldr	r3, [r3]
 6808 0086 FA68     		ldr	r2, [r7, #12]
 6809 0088 1268     		ldr	r2, [r2]
 6810 008a 9269     		ldr	r2, [r2, #24]
 6811 008c 22F44062 		bic	r2, r2, #3072
 6812 0090 9A61     		str	r2, [r3, #24]
ARM GAS  /tmp/ccZyKULX.s 			page 172


3031:Drivers/STM32F3xx_HAL_Driver/Src/stm32f3xx_hal_tim.c **** 
3032:Drivers/STM32F3xx_HAL_Driver/Src/stm32f3xx_hal_tim.c ****     /* Set the IC2PSC value */
3033:Drivers/STM32F3xx_HAL_Driver/Src/stm32f3xx_hal_tim.c ****     htim->Instance->CCMR1 |= (sConfig->ICPrescaler << 8);
 6813              		.loc 1 3033 0
 6814 0092 FB68     		ldr	r3, [r7, #12]
 6815 0094 1B68     		ldr	r3, [r3]
 6816 0096 FA68     		ldr	r2, [r7, #12]
 6817 0098 1268     		ldr	r2, [r2]
 6818 009a 9169     		ldr	r1, [r2, #24]
 6819 009c BA68     		ldr	r2, [r7, #8]
 6820 009e 9268     		ldr	r2, [r2, #8]
 6821 00a0 1202     		lsls	r2, r2, #8
 6822 00a2 0A43     		orrs	r2, r2, r1
 6823 00a4 9A61     		str	r2, [r3, #24]
 6824 00a6 3AE0     		b	.L412
 6825              	.L413:
3034:Drivers/STM32F3xx_HAL_Driver/Src/stm32f3xx_hal_tim.c ****   }
3035:Drivers/STM32F3xx_HAL_Driver/Src/stm32f3xx_hal_tim.c ****   else if (Channel == TIM_CHANNEL_3)
 6826              		.loc 1 3035 0
 6827 00a8 7B68     		ldr	r3, [r7, #4]
 6828 00aa 082B     		cmp	r3, #8
 6829 00ac 1BD1     		bne	.L414
3036:Drivers/STM32F3xx_HAL_Driver/Src/stm32f3xx_hal_tim.c ****   {
3037:Drivers/STM32F3xx_HAL_Driver/Src/stm32f3xx_hal_tim.c ****     /* TI3 Configuration */
3038:Drivers/STM32F3xx_HAL_Driver/Src/stm32f3xx_hal_tim.c ****     assert_param(IS_TIM_CC3_INSTANCE(htim->Instance));
3039:Drivers/STM32F3xx_HAL_Driver/Src/stm32f3xx_hal_tim.c ****     
3040:Drivers/STM32F3xx_HAL_Driver/Src/stm32f3xx_hal_tim.c ****     TIM_TI3_SetConfig(htim->Instance,  
 6830              		.loc 1 3040 0
 6831 00ae FB68     		ldr	r3, [r7, #12]
 6832 00b0 1868     		ldr	r0, [r3]
 6833 00b2 BB68     		ldr	r3, [r7, #8]
 6834 00b4 1968     		ldr	r1, [r3]
 6835 00b6 BB68     		ldr	r3, [r7, #8]
 6836 00b8 5A68     		ldr	r2, [r3, #4]
 6837 00ba BB68     		ldr	r3, [r7, #8]
 6838 00bc DB68     		ldr	r3, [r3, #12]
 6839 00be FFF7FEFF 		bl	TIM_TI3_SetConfig
3041:Drivers/STM32F3xx_HAL_Driver/Src/stm32f3xx_hal_tim.c ****                sConfig->ICPolarity,
3042:Drivers/STM32F3xx_HAL_Driver/Src/stm32f3xx_hal_tim.c ****                sConfig->ICSelection,
3043:Drivers/STM32F3xx_HAL_Driver/Src/stm32f3xx_hal_tim.c ****                sConfig->ICFilter);
3044:Drivers/STM32F3xx_HAL_Driver/Src/stm32f3xx_hal_tim.c ****                
3045:Drivers/STM32F3xx_HAL_Driver/Src/stm32f3xx_hal_tim.c ****     /* Reset the IC3PSC Bits */
3046:Drivers/STM32F3xx_HAL_Driver/Src/stm32f3xx_hal_tim.c ****     htim->Instance->CCMR2 &= ~TIM_CCMR2_IC3PSC;
 6840              		.loc 1 3046 0
 6841 00c2 FB68     		ldr	r3, [r7, #12]
 6842 00c4 1B68     		ldr	r3, [r3]
 6843 00c6 FA68     		ldr	r2, [r7, #12]
 6844 00c8 1268     		ldr	r2, [r2]
 6845 00ca D269     		ldr	r2, [r2, #28]
 6846 00cc 22F00C02 		bic	r2, r2, #12
 6847 00d0 DA61     		str	r2, [r3, #28]
3047:Drivers/STM32F3xx_HAL_Driver/Src/stm32f3xx_hal_tim.c **** 
3048:Drivers/STM32F3xx_HAL_Driver/Src/stm32f3xx_hal_tim.c ****     /* Set the IC3PSC value */
3049:Drivers/STM32F3xx_HAL_Driver/Src/stm32f3xx_hal_tim.c ****     htim->Instance->CCMR2 |= sConfig->ICPrescaler;
 6848              		.loc 1 3049 0
 6849 00d2 FB68     		ldr	r3, [r7, #12]
 6850 00d4 1B68     		ldr	r3, [r3]
ARM GAS  /tmp/ccZyKULX.s 			page 173


 6851 00d6 FA68     		ldr	r2, [r7, #12]
 6852 00d8 1268     		ldr	r2, [r2]
 6853 00da D169     		ldr	r1, [r2, #28]
 6854 00dc BA68     		ldr	r2, [r7, #8]
 6855 00de 9268     		ldr	r2, [r2, #8]
 6856 00e0 0A43     		orrs	r2, r2, r1
 6857 00e2 DA61     		str	r2, [r3, #28]
 6858 00e4 1BE0     		b	.L412
 6859              	.L414:
3050:Drivers/STM32F3xx_HAL_Driver/Src/stm32f3xx_hal_tim.c ****   }
3051:Drivers/STM32F3xx_HAL_Driver/Src/stm32f3xx_hal_tim.c ****   else
3052:Drivers/STM32F3xx_HAL_Driver/Src/stm32f3xx_hal_tim.c ****   {
3053:Drivers/STM32F3xx_HAL_Driver/Src/stm32f3xx_hal_tim.c ****     /* TI4 Configuration */
3054:Drivers/STM32F3xx_HAL_Driver/Src/stm32f3xx_hal_tim.c ****     assert_param(IS_TIM_CC4_INSTANCE(htim->Instance));
3055:Drivers/STM32F3xx_HAL_Driver/Src/stm32f3xx_hal_tim.c ****     
3056:Drivers/STM32F3xx_HAL_Driver/Src/stm32f3xx_hal_tim.c ****     TIM_TI4_SetConfig(htim->Instance, 
 6860              		.loc 1 3056 0
 6861 00e6 FB68     		ldr	r3, [r7, #12]
 6862 00e8 1868     		ldr	r0, [r3]
 6863 00ea BB68     		ldr	r3, [r7, #8]
 6864 00ec 1968     		ldr	r1, [r3]
 6865 00ee BB68     		ldr	r3, [r7, #8]
 6866 00f0 5A68     		ldr	r2, [r3, #4]
 6867 00f2 BB68     		ldr	r3, [r7, #8]
 6868 00f4 DB68     		ldr	r3, [r3, #12]
 6869 00f6 FFF7FEFF 		bl	TIM_TI4_SetConfig
3057:Drivers/STM32F3xx_HAL_Driver/Src/stm32f3xx_hal_tim.c ****                sConfig->ICPolarity,
3058:Drivers/STM32F3xx_HAL_Driver/Src/stm32f3xx_hal_tim.c ****                sConfig->ICSelection,
3059:Drivers/STM32F3xx_HAL_Driver/Src/stm32f3xx_hal_tim.c ****                sConfig->ICFilter);
3060:Drivers/STM32F3xx_HAL_Driver/Src/stm32f3xx_hal_tim.c ****                
3061:Drivers/STM32F3xx_HAL_Driver/Src/stm32f3xx_hal_tim.c ****     /* Reset the IC4PSC Bits */
3062:Drivers/STM32F3xx_HAL_Driver/Src/stm32f3xx_hal_tim.c ****     htim->Instance->CCMR2 &= ~TIM_CCMR2_IC4PSC;
 6870              		.loc 1 3062 0
 6871 00fa FB68     		ldr	r3, [r7, #12]
 6872 00fc 1B68     		ldr	r3, [r3]
 6873 00fe FA68     		ldr	r2, [r7, #12]
 6874 0100 1268     		ldr	r2, [r2]
 6875 0102 D269     		ldr	r2, [r2, #28]
 6876 0104 22F44062 		bic	r2, r2, #3072
 6877 0108 DA61     		str	r2, [r3, #28]
3063:Drivers/STM32F3xx_HAL_Driver/Src/stm32f3xx_hal_tim.c **** 
3064:Drivers/STM32F3xx_HAL_Driver/Src/stm32f3xx_hal_tim.c ****     /* Set the IC4PSC value */
3065:Drivers/STM32F3xx_HAL_Driver/Src/stm32f3xx_hal_tim.c ****     htim->Instance->CCMR2 |= (sConfig->ICPrescaler << 8);
 6878              		.loc 1 3065 0
 6879 010a FB68     		ldr	r3, [r7, #12]
 6880 010c 1B68     		ldr	r3, [r3]
 6881 010e FA68     		ldr	r2, [r7, #12]
 6882 0110 1268     		ldr	r2, [r2]
 6883 0112 D169     		ldr	r1, [r2, #28]
 6884 0114 BA68     		ldr	r2, [r7, #8]
 6885 0116 9268     		ldr	r2, [r2, #8]
 6886 0118 1202     		lsls	r2, r2, #8
 6887 011a 0A43     		orrs	r2, r2, r1
 6888 011c DA61     		str	r2, [r3, #28]
 6889              	.L412:
3066:Drivers/STM32F3xx_HAL_Driver/Src/stm32f3xx_hal_tim.c ****   }
3067:Drivers/STM32F3xx_HAL_Driver/Src/stm32f3xx_hal_tim.c ****   
ARM GAS  /tmp/ccZyKULX.s 			page 174


3068:Drivers/STM32F3xx_HAL_Driver/Src/stm32f3xx_hal_tim.c ****   htim->State = HAL_TIM_STATE_READY;
 6890              		.loc 1 3068 0
 6891 011e FB68     		ldr	r3, [r7, #12]
 6892 0120 0122     		movs	r2, #1
 6893 0122 83F83920 		strb	r2, [r3, #57]
3069:Drivers/STM32F3xx_HAL_Driver/Src/stm32f3xx_hal_tim.c ****     
3070:Drivers/STM32F3xx_HAL_Driver/Src/stm32f3xx_hal_tim.c ****   __HAL_UNLOCK(htim);
 6894              		.loc 1 3070 0
 6895 0126 FB68     		ldr	r3, [r7, #12]
 6896 0128 0022     		movs	r2, #0
 6897 012a 83F83820 		strb	r2, [r3, #56]
3071:Drivers/STM32F3xx_HAL_Driver/Src/stm32f3xx_hal_tim.c ****   
3072:Drivers/STM32F3xx_HAL_Driver/Src/stm32f3xx_hal_tim.c ****   return HAL_OK; 
 6898              		.loc 1 3072 0
 6899 012e 0023     		movs	r3, #0
 6900              	.L410:
3073:Drivers/STM32F3xx_HAL_Driver/Src/stm32f3xx_hal_tim.c **** }
 6901              		.loc 1 3073 0
 6902 0130 1846     		mov	r0, r3
 6903 0132 1037     		adds	r7, r7, #16
 6904 0134 BD46     		mov	sp, r7
 6905              		@ sp needed
 6906 0136 80BD     		pop	{r7, pc}
 6907              		.cfi_endproc
 6908              	.LFE185:
 6910              		.section	.text.HAL_TIM_PWM_ConfigChannel,"ax",%progbits
 6911              		.align	2
 6912              		.weak	HAL_TIM_PWM_ConfigChannel
 6913              		.thumb
 6914              		.thumb_func
 6916              	HAL_TIM_PWM_ConfigChannel:
 6917              	.LFB186:
3074:Drivers/STM32F3xx_HAL_Driver/Src/stm32f3xx_hal_tim.c **** 
3075:Drivers/STM32F3xx_HAL_Driver/Src/stm32f3xx_hal_tim.c **** /**
3076:Drivers/STM32F3xx_HAL_Driver/Src/stm32f3xx_hal_tim.c ****   * @brief  Initializes the TIM PWM  channels according to the specified
3077:Drivers/STM32F3xx_HAL_Driver/Src/stm32f3xx_hal_tim.c ****   *         parameters in the TIM_OC_InitTypeDef.
3078:Drivers/STM32F3xx_HAL_Driver/Src/stm32f3xx_hal_tim.c ****   * @param  htim: TIM handle
3079:Drivers/STM32F3xx_HAL_Driver/Src/stm32f3xx_hal_tim.c ****   * @param  sConfig: TIM PWM configuration structure
3080:Drivers/STM32F3xx_HAL_Driver/Src/stm32f3xx_hal_tim.c ****   * @param  Channel: TIM Channels to be enabled
3081:Drivers/STM32F3xx_HAL_Driver/Src/stm32f3xx_hal_tim.c ****   *          This parameter can be one of the following values:
3082:Drivers/STM32F3xx_HAL_Driver/Src/stm32f3xx_hal_tim.c ****   *            @arg TIM_CHANNEL_1: TIM Channel 1 selected
3083:Drivers/STM32F3xx_HAL_Driver/Src/stm32f3xx_hal_tim.c ****   *            @arg TIM_CHANNEL_2: TIM Channel 2 selected
3084:Drivers/STM32F3xx_HAL_Driver/Src/stm32f3xx_hal_tim.c ****   *            @arg TIM_CHANNEL_3: TIM Channel 3 selected
3085:Drivers/STM32F3xx_HAL_Driver/Src/stm32f3xx_hal_tim.c ****   *            @arg TIM_CHANNEL_4: TIM Channel 4 selected
3086:Drivers/STM32F3xx_HAL_Driver/Src/stm32f3xx_hal_tim.c ****   * @retval HAL status
3087:Drivers/STM32F3xx_HAL_Driver/Src/stm32f3xx_hal_tim.c ****   */
3088:Drivers/STM32F3xx_HAL_Driver/Src/stm32f3xx_hal_tim.c **** __weak HAL_StatusTypeDef HAL_TIM_PWM_ConfigChannel(TIM_HandleTypeDef *htim, TIM_OC_InitTypeDef* sCo
3089:Drivers/STM32F3xx_HAL_Driver/Src/stm32f3xx_hal_tim.c **** {
 6918              		.loc 1 3089 0
 6919              		.cfi_startproc
 6920              		@ args = 0, pretend = 0, frame = 16
 6921              		@ frame_needed = 1, uses_anonymous_args = 0
 6922 0000 80B5     		push	{r7, lr}
 6923              	.LCFI183:
 6924              		.cfi_def_cfa_offset 8
 6925              		.cfi_offset 7, -8
 6926              		.cfi_offset 14, -4
ARM GAS  /tmp/ccZyKULX.s 			page 175


 6927 0002 84B0     		sub	sp, sp, #16
 6928              	.LCFI184:
 6929              		.cfi_def_cfa_offset 24
 6930 0004 00AF     		add	r7, sp, #0
 6931              	.LCFI185:
 6932              		.cfi_def_cfa_register 7
 6933 0006 F860     		str	r0, [r7, #12]
 6934 0008 B960     		str	r1, [r7, #8]
 6935 000a 7A60     		str	r2, [r7, #4]
3090:Drivers/STM32F3xx_HAL_Driver/Src/stm32f3xx_hal_tim.c ****   __HAL_LOCK(htim);
 6936              		.loc 1 3090 0
 6937 000c FB68     		ldr	r3, [r7, #12]
 6938 000e 93F83830 		ldrb	r3, [r3, #56]	@ zero_extendqisi2
 6939 0012 012B     		cmp	r3, #1
 6940 0014 01D1     		bne	.L416
 6941              		.loc 1 3090 0 is_stmt 0 discriminator 1
 6942 0016 0223     		movs	r3, #2
 6943 0018 B4E0     		b	.L417
 6944              	.L416:
 6945              		.loc 1 3090 0 discriminator 2
 6946 001a FB68     		ldr	r3, [r7, #12]
 6947 001c 0122     		movs	r2, #1
 6948 001e 83F83820 		strb	r2, [r3, #56]
3091:Drivers/STM32F3xx_HAL_Driver/Src/stm32f3xx_hal_tim.c ****   
3092:Drivers/STM32F3xx_HAL_Driver/Src/stm32f3xx_hal_tim.c ****   /* Check the parameters */ 
3093:Drivers/STM32F3xx_HAL_Driver/Src/stm32f3xx_hal_tim.c ****   assert_param(IS_TIM_CHANNELS(Channel)); 
3094:Drivers/STM32F3xx_HAL_Driver/Src/stm32f3xx_hal_tim.c ****   assert_param(IS_TIM_PWM_MODE(sConfig->OCMode));
3095:Drivers/STM32F3xx_HAL_Driver/Src/stm32f3xx_hal_tim.c ****   assert_param(IS_TIM_OC_POLARITY(sConfig->OCPolarity));
3096:Drivers/STM32F3xx_HAL_Driver/Src/stm32f3xx_hal_tim.c ****   assert_param(IS_TIM_FAST_STATE(sConfig->OCFastMode));
3097:Drivers/STM32F3xx_HAL_Driver/Src/stm32f3xx_hal_tim.c ****   
3098:Drivers/STM32F3xx_HAL_Driver/Src/stm32f3xx_hal_tim.c ****   htim->State = HAL_TIM_STATE_BUSY;
 6949              		.loc 1 3098 0 is_stmt 1 discriminator 2
 6950 0022 FB68     		ldr	r3, [r7, #12]
 6951 0024 0222     		movs	r2, #2
 6952 0026 83F83920 		strb	r2, [r3, #57]
3099:Drivers/STM32F3xx_HAL_Driver/Src/stm32f3xx_hal_tim.c ****     
3100:Drivers/STM32F3xx_HAL_Driver/Src/stm32f3xx_hal_tim.c ****   switch (Channel)
 6953              		.loc 1 3100 0 discriminator 2
 6954 002a 7B68     		ldr	r3, [r7, #4]
 6955 002c 0C2B     		cmp	r3, #12
 6956 002e 00F29F80 		bhi	.L425
 6957 0032 01A2     		adr	r2, .L420
 6958 0034 52F823F0 		ldr	pc, [r2, r3, lsl #2]
 6959              		.p2align 2
 6960              	.L420:
 6961 0038 6D000000 		.word	.L419+1
 6962 003c 71010000 		.word	.L425+1
 6963 0040 71010000 		.word	.L425+1
 6964 0044 71010000 		.word	.L425+1
 6965 0048 AD000000 		.word	.L421+1
 6966 004c 71010000 		.word	.L425+1
 6967 0050 71010000 		.word	.L425+1
 6968 0054 71010000 		.word	.L425+1
 6969 0058 EF000000 		.word	.L422+1
 6970 005c 71010000 		.word	.L425+1
 6971 0060 71010000 		.word	.L425+1
 6972 0064 71010000 		.word	.L425+1
ARM GAS  /tmp/ccZyKULX.s 			page 176


 6973 0068 2F010000 		.word	.L423+1
 6974              		.p2align 1
 6975              	.L419:
3101:Drivers/STM32F3xx_HAL_Driver/Src/stm32f3xx_hal_tim.c ****   {
3102:Drivers/STM32F3xx_HAL_Driver/Src/stm32f3xx_hal_tim.c ****     case TIM_CHANNEL_1:
3103:Drivers/STM32F3xx_HAL_Driver/Src/stm32f3xx_hal_tim.c ****     {
3104:Drivers/STM32F3xx_HAL_Driver/Src/stm32f3xx_hal_tim.c ****       assert_param(IS_TIM_CC1_INSTANCE(htim->Instance));
3105:Drivers/STM32F3xx_HAL_Driver/Src/stm32f3xx_hal_tim.c ****       /* Configure the Channel 1 in PWM mode */
3106:Drivers/STM32F3xx_HAL_Driver/Src/stm32f3xx_hal_tim.c ****       TIM_OC1_SetConfig(htim->Instance, sConfig);
 6976              		.loc 1 3106 0
 6977 006c FB68     		ldr	r3, [r7, #12]
 6978 006e 1B68     		ldr	r3, [r3]
 6979 0070 1846     		mov	r0, r3
 6980 0072 B968     		ldr	r1, [r7, #8]
 6981 0074 FFF7FEFF 		bl	TIM_OC1_SetConfig
3107:Drivers/STM32F3xx_HAL_Driver/Src/stm32f3xx_hal_tim.c ****       
3108:Drivers/STM32F3xx_HAL_Driver/Src/stm32f3xx_hal_tim.c ****       /* Set the Preload enable bit for channel1 */
3109:Drivers/STM32F3xx_HAL_Driver/Src/stm32f3xx_hal_tim.c ****       htim->Instance->CCMR1 |= TIM_CCMR1_OC1PE;
 6982              		.loc 1 3109 0
 6983 0078 FB68     		ldr	r3, [r7, #12]
 6984 007a 1B68     		ldr	r3, [r3]
 6985 007c FA68     		ldr	r2, [r7, #12]
 6986 007e 1268     		ldr	r2, [r2]
 6987 0080 9269     		ldr	r2, [r2, #24]
 6988 0082 42F00802 		orr	r2, r2, #8
 6989 0086 9A61     		str	r2, [r3, #24]
3110:Drivers/STM32F3xx_HAL_Driver/Src/stm32f3xx_hal_tim.c ****       
3111:Drivers/STM32F3xx_HAL_Driver/Src/stm32f3xx_hal_tim.c ****       /* Configure the Output Fast mode */
3112:Drivers/STM32F3xx_HAL_Driver/Src/stm32f3xx_hal_tim.c ****       htim->Instance->CCMR1 &= ~TIM_CCMR1_OC1FE;
 6990              		.loc 1 3112 0
 6991 0088 FB68     		ldr	r3, [r7, #12]
 6992 008a 1B68     		ldr	r3, [r3]
 6993 008c FA68     		ldr	r2, [r7, #12]
 6994 008e 1268     		ldr	r2, [r2]
 6995 0090 9269     		ldr	r2, [r2, #24]
 6996 0092 22F00402 		bic	r2, r2, #4
 6997 0096 9A61     		str	r2, [r3, #24]
3113:Drivers/STM32F3xx_HAL_Driver/Src/stm32f3xx_hal_tim.c ****       htim->Instance->CCMR1 |= sConfig->OCFastMode;
 6998              		.loc 1 3113 0
 6999 0098 FB68     		ldr	r3, [r7, #12]
 7000 009a 1B68     		ldr	r3, [r3]
 7001 009c FA68     		ldr	r2, [r7, #12]
 7002 009e 1268     		ldr	r2, [r2]
 7003 00a0 9169     		ldr	r1, [r2, #24]
 7004 00a2 BA68     		ldr	r2, [r7, #8]
 7005 00a4 1269     		ldr	r2, [r2, #16]
 7006 00a6 0A43     		orrs	r2, r2, r1
 7007 00a8 9A61     		str	r2, [r3, #24]
3114:Drivers/STM32F3xx_HAL_Driver/Src/stm32f3xx_hal_tim.c ****     }
3115:Drivers/STM32F3xx_HAL_Driver/Src/stm32f3xx_hal_tim.c ****     break;
 7008              		.loc 1 3115 0
 7009 00aa 62E0     		b	.L424
 7010              	.L421:
3116:Drivers/STM32F3xx_HAL_Driver/Src/stm32f3xx_hal_tim.c ****     
3117:Drivers/STM32F3xx_HAL_Driver/Src/stm32f3xx_hal_tim.c ****     case TIM_CHANNEL_2:
3118:Drivers/STM32F3xx_HAL_Driver/Src/stm32f3xx_hal_tim.c ****     {
3119:Drivers/STM32F3xx_HAL_Driver/Src/stm32f3xx_hal_tim.c ****       assert_param(IS_TIM_CC2_INSTANCE(htim->Instance));
ARM GAS  /tmp/ccZyKULX.s 			page 177


3120:Drivers/STM32F3xx_HAL_Driver/Src/stm32f3xx_hal_tim.c ****       /* Configure the Channel 2 in PWM mode */
3121:Drivers/STM32F3xx_HAL_Driver/Src/stm32f3xx_hal_tim.c ****       TIM_OC2_SetConfig(htim->Instance, sConfig);
 7011              		.loc 1 3121 0
 7012 00ac FB68     		ldr	r3, [r7, #12]
 7013 00ae 1B68     		ldr	r3, [r3]
 7014 00b0 1846     		mov	r0, r3
 7015 00b2 B968     		ldr	r1, [r7, #8]
 7016 00b4 FFF7FEFF 		bl	TIM_OC2_SetConfig
3122:Drivers/STM32F3xx_HAL_Driver/Src/stm32f3xx_hal_tim.c ****       
3123:Drivers/STM32F3xx_HAL_Driver/Src/stm32f3xx_hal_tim.c ****       /* Set the Preload enable bit for channel2 */
3124:Drivers/STM32F3xx_HAL_Driver/Src/stm32f3xx_hal_tim.c ****       htim->Instance->CCMR1 |= TIM_CCMR1_OC2PE;
 7017              		.loc 1 3124 0
 7018 00b8 FB68     		ldr	r3, [r7, #12]
 7019 00ba 1B68     		ldr	r3, [r3]
 7020 00bc FA68     		ldr	r2, [r7, #12]
 7021 00be 1268     		ldr	r2, [r2]
 7022 00c0 9269     		ldr	r2, [r2, #24]
 7023 00c2 42F40062 		orr	r2, r2, #2048
 7024 00c6 9A61     		str	r2, [r3, #24]
3125:Drivers/STM32F3xx_HAL_Driver/Src/stm32f3xx_hal_tim.c ****       
3126:Drivers/STM32F3xx_HAL_Driver/Src/stm32f3xx_hal_tim.c ****       /* Configure the Output Fast mode */
3127:Drivers/STM32F3xx_HAL_Driver/Src/stm32f3xx_hal_tim.c ****       htim->Instance->CCMR1 &= ~TIM_CCMR1_OC2FE;
 7025              		.loc 1 3127 0
 7026 00c8 FB68     		ldr	r3, [r7, #12]
 7027 00ca 1B68     		ldr	r3, [r3]
 7028 00cc FA68     		ldr	r2, [r7, #12]
 7029 00ce 1268     		ldr	r2, [r2]
 7030 00d0 9269     		ldr	r2, [r2, #24]
 7031 00d2 22F48062 		bic	r2, r2, #1024
 7032 00d6 9A61     		str	r2, [r3, #24]
3128:Drivers/STM32F3xx_HAL_Driver/Src/stm32f3xx_hal_tim.c ****       htim->Instance->CCMR1 |= sConfig->OCFastMode << 8;
 7033              		.loc 1 3128 0
 7034 00d8 FB68     		ldr	r3, [r7, #12]
 7035 00da 1B68     		ldr	r3, [r3]
 7036 00dc FA68     		ldr	r2, [r7, #12]
 7037 00de 1268     		ldr	r2, [r2]
 7038 00e0 9169     		ldr	r1, [r2, #24]
 7039 00e2 BA68     		ldr	r2, [r7, #8]
 7040 00e4 1269     		ldr	r2, [r2, #16]
 7041 00e6 1202     		lsls	r2, r2, #8
 7042 00e8 0A43     		orrs	r2, r2, r1
 7043 00ea 9A61     		str	r2, [r3, #24]
3129:Drivers/STM32F3xx_HAL_Driver/Src/stm32f3xx_hal_tim.c ****     }
3130:Drivers/STM32F3xx_HAL_Driver/Src/stm32f3xx_hal_tim.c ****     break;
 7044              		.loc 1 3130 0
 7045 00ec 41E0     		b	.L424
 7046              	.L422:
3131:Drivers/STM32F3xx_HAL_Driver/Src/stm32f3xx_hal_tim.c ****     
3132:Drivers/STM32F3xx_HAL_Driver/Src/stm32f3xx_hal_tim.c ****     case TIM_CHANNEL_3:
3133:Drivers/STM32F3xx_HAL_Driver/Src/stm32f3xx_hal_tim.c ****     {
3134:Drivers/STM32F3xx_HAL_Driver/Src/stm32f3xx_hal_tim.c ****       assert_param(IS_TIM_CC3_INSTANCE(htim->Instance));
3135:Drivers/STM32F3xx_HAL_Driver/Src/stm32f3xx_hal_tim.c ****       /* Configure the Channel 3 in PWM mode */
3136:Drivers/STM32F3xx_HAL_Driver/Src/stm32f3xx_hal_tim.c ****       TIM_OC3_SetConfig(htim->Instance, sConfig);
 7047              		.loc 1 3136 0
 7048 00ee FB68     		ldr	r3, [r7, #12]
 7049 00f0 1B68     		ldr	r3, [r3]
 7050 00f2 1846     		mov	r0, r3
ARM GAS  /tmp/ccZyKULX.s 			page 178


 7051 00f4 B968     		ldr	r1, [r7, #8]
 7052 00f6 FFF7FEFF 		bl	TIM_OC3_SetConfig
3137:Drivers/STM32F3xx_HAL_Driver/Src/stm32f3xx_hal_tim.c ****       
3138:Drivers/STM32F3xx_HAL_Driver/Src/stm32f3xx_hal_tim.c ****       /* Set the Preload enable bit for channel3 */
3139:Drivers/STM32F3xx_HAL_Driver/Src/stm32f3xx_hal_tim.c ****       htim->Instance->CCMR2 |= TIM_CCMR2_OC3PE;
 7053              		.loc 1 3139 0
 7054 00fa FB68     		ldr	r3, [r7, #12]
 7055 00fc 1B68     		ldr	r3, [r3]
 7056 00fe FA68     		ldr	r2, [r7, #12]
 7057 0100 1268     		ldr	r2, [r2]
 7058 0102 D269     		ldr	r2, [r2, #28]
 7059 0104 42F00802 		orr	r2, r2, #8
 7060 0108 DA61     		str	r2, [r3, #28]
3140:Drivers/STM32F3xx_HAL_Driver/Src/stm32f3xx_hal_tim.c ****       
3141:Drivers/STM32F3xx_HAL_Driver/Src/stm32f3xx_hal_tim.c ****      /* Configure the Output Fast mode */
3142:Drivers/STM32F3xx_HAL_Driver/Src/stm32f3xx_hal_tim.c ****       htim->Instance->CCMR2 &= ~TIM_CCMR2_OC3FE;
 7061              		.loc 1 3142 0
 7062 010a FB68     		ldr	r3, [r7, #12]
 7063 010c 1B68     		ldr	r3, [r3]
 7064 010e FA68     		ldr	r2, [r7, #12]
 7065 0110 1268     		ldr	r2, [r2]
 7066 0112 D269     		ldr	r2, [r2, #28]
 7067 0114 22F00402 		bic	r2, r2, #4
 7068 0118 DA61     		str	r2, [r3, #28]
3143:Drivers/STM32F3xx_HAL_Driver/Src/stm32f3xx_hal_tim.c ****       htim->Instance->CCMR2 |= sConfig->OCFastMode;  
 7069              		.loc 1 3143 0
 7070 011a FB68     		ldr	r3, [r7, #12]
 7071 011c 1B68     		ldr	r3, [r3]
 7072 011e FA68     		ldr	r2, [r7, #12]
 7073 0120 1268     		ldr	r2, [r2]
 7074 0122 D169     		ldr	r1, [r2, #28]
 7075 0124 BA68     		ldr	r2, [r7, #8]
 7076 0126 1269     		ldr	r2, [r2, #16]
 7077 0128 0A43     		orrs	r2, r2, r1
 7078 012a DA61     		str	r2, [r3, #28]
3144:Drivers/STM32F3xx_HAL_Driver/Src/stm32f3xx_hal_tim.c ****     }
3145:Drivers/STM32F3xx_HAL_Driver/Src/stm32f3xx_hal_tim.c ****     break;
 7079              		.loc 1 3145 0
 7080 012c 21E0     		b	.L424
 7081              	.L423:
3146:Drivers/STM32F3xx_HAL_Driver/Src/stm32f3xx_hal_tim.c ****     
3147:Drivers/STM32F3xx_HAL_Driver/Src/stm32f3xx_hal_tim.c ****     case TIM_CHANNEL_4:
3148:Drivers/STM32F3xx_HAL_Driver/Src/stm32f3xx_hal_tim.c ****     {
3149:Drivers/STM32F3xx_HAL_Driver/Src/stm32f3xx_hal_tim.c ****       assert_param(IS_TIM_CC4_INSTANCE(htim->Instance));
3150:Drivers/STM32F3xx_HAL_Driver/Src/stm32f3xx_hal_tim.c ****       /* Configure the Channel 4 in PWM mode */
3151:Drivers/STM32F3xx_HAL_Driver/Src/stm32f3xx_hal_tim.c ****       TIM_OC4_SetConfig(htim->Instance, sConfig);
 7082              		.loc 1 3151 0
 7083 012e FB68     		ldr	r3, [r7, #12]
 7084 0130 1B68     		ldr	r3, [r3]
 7085 0132 1846     		mov	r0, r3
 7086 0134 B968     		ldr	r1, [r7, #8]
 7087 0136 FFF7FEFF 		bl	TIM_OC4_SetConfig
3152:Drivers/STM32F3xx_HAL_Driver/Src/stm32f3xx_hal_tim.c ****       
3153:Drivers/STM32F3xx_HAL_Driver/Src/stm32f3xx_hal_tim.c ****       /* Set the Preload enable bit for channel4 */
3154:Drivers/STM32F3xx_HAL_Driver/Src/stm32f3xx_hal_tim.c ****       htim->Instance->CCMR2 |= TIM_CCMR2_OC4PE;
 7088              		.loc 1 3154 0
 7089 013a FB68     		ldr	r3, [r7, #12]
ARM GAS  /tmp/ccZyKULX.s 			page 179


 7090 013c 1B68     		ldr	r3, [r3]
 7091 013e FA68     		ldr	r2, [r7, #12]
 7092 0140 1268     		ldr	r2, [r2]
 7093 0142 D269     		ldr	r2, [r2, #28]
 7094 0144 42F40062 		orr	r2, r2, #2048
 7095 0148 DA61     		str	r2, [r3, #28]
3155:Drivers/STM32F3xx_HAL_Driver/Src/stm32f3xx_hal_tim.c ****       
3156:Drivers/STM32F3xx_HAL_Driver/Src/stm32f3xx_hal_tim.c ****      /* Configure the Output Fast mode */
3157:Drivers/STM32F3xx_HAL_Driver/Src/stm32f3xx_hal_tim.c ****       htim->Instance->CCMR2 &= ~TIM_CCMR2_OC4FE;
 7096              		.loc 1 3157 0
 7097 014a FB68     		ldr	r3, [r7, #12]
 7098 014c 1B68     		ldr	r3, [r3]
 7099 014e FA68     		ldr	r2, [r7, #12]
 7100 0150 1268     		ldr	r2, [r2]
 7101 0152 D269     		ldr	r2, [r2, #28]
 7102 0154 22F48062 		bic	r2, r2, #1024
 7103 0158 DA61     		str	r2, [r3, #28]
3158:Drivers/STM32F3xx_HAL_Driver/Src/stm32f3xx_hal_tim.c ****       htim->Instance->CCMR2 |= sConfig->OCFastMode << 8;  
 7104              		.loc 1 3158 0
 7105 015a FB68     		ldr	r3, [r7, #12]
 7106 015c 1B68     		ldr	r3, [r3]
 7107 015e FA68     		ldr	r2, [r7, #12]
 7108 0160 1268     		ldr	r2, [r2]
 7109 0162 D169     		ldr	r1, [r2, #28]
 7110 0164 BA68     		ldr	r2, [r7, #8]
 7111 0166 1269     		ldr	r2, [r2, #16]
 7112 0168 1202     		lsls	r2, r2, #8
 7113 016a 0A43     		orrs	r2, r2, r1
 7114 016c DA61     		str	r2, [r3, #28]
3159:Drivers/STM32F3xx_HAL_Driver/Src/stm32f3xx_hal_tim.c ****     }
3160:Drivers/STM32F3xx_HAL_Driver/Src/stm32f3xx_hal_tim.c ****     break;
 7115              		.loc 1 3160 0
 7116 016e 00E0     		b	.L424
 7117              	.L425:
3161:Drivers/STM32F3xx_HAL_Driver/Src/stm32f3xx_hal_tim.c ****     
3162:Drivers/STM32F3xx_HAL_Driver/Src/stm32f3xx_hal_tim.c ****     default:
3163:Drivers/STM32F3xx_HAL_Driver/Src/stm32f3xx_hal_tim.c ****     break;    
 7118              		.loc 1 3163 0
 7119 0170 00BF     		nop
 7120              	.L424:
3164:Drivers/STM32F3xx_HAL_Driver/Src/stm32f3xx_hal_tim.c ****   }
3165:Drivers/STM32F3xx_HAL_Driver/Src/stm32f3xx_hal_tim.c ****   
3166:Drivers/STM32F3xx_HAL_Driver/Src/stm32f3xx_hal_tim.c ****   htim->State = HAL_TIM_STATE_READY;
 7121              		.loc 1 3166 0
 7122 0172 FB68     		ldr	r3, [r7, #12]
 7123 0174 0122     		movs	r2, #1
 7124 0176 83F83920 		strb	r2, [r3, #57]
3167:Drivers/STM32F3xx_HAL_Driver/Src/stm32f3xx_hal_tim.c ****     
3168:Drivers/STM32F3xx_HAL_Driver/Src/stm32f3xx_hal_tim.c ****   __HAL_UNLOCK(htim);
 7125              		.loc 1 3168 0
 7126 017a FB68     		ldr	r3, [r7, #12]
 7127 017c 0022     		movs	r2, #0
 7128 017e 83F83820 		strb	r2, [r3, #56]
3169:Drivers/STM32F3xx_HAL_Driver/Src/stm32f3xx_hal_tim.c ****   
3170:Drivers/STM32F3xx_HAL_Driver/Src/stm32f3xx_hal_tim.c ****   return HAL_OK;
 7129              		.loc 1 3170 0
 7130 0182 0023     		movs	r3, #0
ARM GAS  /tmp/ccZyKULX.s 			page 180


 7131              	.L417:
3171:Drivers/STM32F3xx_HAL_Driver/Src/stm32f3xx_hal_tim.c **** }
 7132              		.loc 1 3171 0
 7133 0184 1846     		mov	r0, r3
 7134 0186 1037     		adds	r7, r7, #16
 7135 0188 BD46     		mov	sp, r7
 7136              		@ sp needed
 7137 018a 80BD     		pop	{r7, pc}
 7138              		.cfi_endproc
 7139              	.LFE186:
 7141              		.section	.text.HAL_TIM_OnePulse_ConfigChannel,"ax",%progbits
 7142              		.align	2
 7143              		.global	HAL_TIM_OnePulse_ConfigChannel
 7144              		.thumb
 7145              		.thumb_func
 7147              	HAL_TIM_OnePulse_ConfigChannel:
 7148              	.LFB187:
3172:Drivers/STM32F3xx_HAL_Driver/Src/stm32f3xx_hal_tim.c **** 
3173:Drivers/STM32F3xx_HAL_Driver/Src/stm32f3xx_hal_tim.c **** /**
3174:Drivers/STM32F3xx_HAL_Driver/Src/stm32f3xx_hal_tim.c ****   * @brief  Initializes the TIM One Pulse Channels according to the specified
3175:Drivers/STM32F3xx_HAL_Driver/Src/stm32f3xx_hal_tim.c ****   *         parameters in the TIM_OnePulse_InitTypeDef.
3176:Drivers/STM32F3xx_HAL_Driver/Src/stm32f3xx_hal_tim.c ****   * @param  htim: TIM One Pulse handle
3177:Drivers/STM32F3xx_HAL_Driver/Src/stm32f3xx_hal_tim.c ****   * @param  sConfig: TIM One Pulse configuration structure
3178:Drivers/STM32F3xx_HAL_Driver/Src/stm32f3xx_hal_tim.c ****   * @param  OutputChannel: TIM Channels to be enabled
3179:Drivers/STM32F3xx_HAL_Driver/Src/stm32f3xx_hal_tim.c ****   *          This parameter can be one of the following values:
3180:Drivers/STM32F3xx_HAL_Driver/Src/stm32f3xx_hal_tim.c ****   *            @arg TIM_CHANNEL_1: TIM Channel 1 selected
3181:Drivers/STM32F3xx_HAL_Driver/Src/stm32f3xx_hal_tim.c ****   *            @arg TIM_CHANNEL_2: TIM Channel 2 selected
3182:Drivers/STM32F3xx_HAL_Driver/Src/stm32f3xx_hal_tim.c ****   * @param  InputChannel: TIM Channels to be enabled
3183:Drivers/STM32F3xx_HAL_Driver/Src/stm32f3xx_hal_tim.c ****   *          This parameter can be one of the following values:
3184:Drivers/STM32F3xx_HAL_Driver/Src/stm32f3xx_hal_tim.c ****   *            @arg TIM_CHANNEL_1: TIM Channel 1 selected
3185:Drivers/STM32F3xx_HAL_Driver/Src/stm32f3xx_hal_tim.c ****   *            @arg TIM_CHANNEL_2: TIM Channel 2 selected
3186:Drivers/STM32F3xx_HAL_Driver/Src/stm32f3xx_hal_tim.c ****   * @retval HAL status
3187:Drivers/STM32F3xx_HAL_Driver/Src/stm32f3xx_hal_tim.c ****   */
3188:Drivers/STM32F3xx_HAL_Driver/Src/stm32f3xx_hal_tim.c **** HAL_StatusTypeDef HAL_TIM_OnePulse_ConfigChannel(TIM_HandleTypeDef *htim,  TIM_OnePulse_InitTypeDef
3189:Drivers/STM32F3xx_HAL_Driver/Src/stm32f3xx_hal_tim.c **** {
 7149              		.loc 1 3189 0
 7150              		.cfi_startproc
 7151              		@ args = 0, pretend = 0, frame = 48
 7152              		@ frame_needed = 1, uses_anonymous_args = 0
 7153 0000 80B5     		push	{r7, lr}
 7154              	.LCFI186:
 7155              		.cfi_def_cfa_offset 8
 7156              		.cfi_offset 7, -8
 7157              		.cfi_offset 14, -4
 7158 0002 8CB0     		sub	sp, sp, #48
 7159              	.LCFI187:
 7160              		.cfi_def_cfa_offset 56
 7161 0004 00AF     		add	r7, sp, #0
 7162              	.LCFI188:
 7163              		.cfi_def_cfa_register 7
 7164 0006 F860     		str	r0, [r7, #12]
 7165 0008 B960     		str	r1, [r7, #8]
 7166 000a 7A60     		str	r2, [r7, #4]
 7167 000c 3B60     		str	r3, [r7]
3190:Drivers/STM32F3xx_HAL_Driver/Src/stm32f3xx_hal_tim.c ****   TIM_OC_InitTypeDef temp1;
3191:Drivers/STM32F3xx_HAL_Driver/Src/stm32f3xx_hal_tim.c ****   
3192:Drivers/STM32F3xx_HAL_Driver/Src/stm32f3xx_hal_tim.c ****   /* Check the parameters */
ARM GAS  /tmp/ccZyKULX.s 			page 181


3193:Drivers/STM32F3xx_HAL_Driver/Src/stm32f3xx_hal_tim.c ****   assert_param(IS_TIM_OPM_CHANNELS(OutputChannel));
3194:Drivers/STM32F3xx_HAL_Driver/Src/stm32f3xx_hal_tim.c ****   assert_param(IS_TIM_OPM_CHANNELS(InputChannel));
3195:Drivers/STM32F3xx_HAL_Driver/Src/stm32f3xx_hal_tim.c **** 
3196:Drivers/STM32F3xx_HAL_Driver/Src/stm32f3xx_hal_tim.c ****   if(OutputChannel != InputChannel)  
 7168              		.loc 1 3196 0
 7169 000e 7A68     		ldr	r2, [r7, #4]
 7170 0010 3B68     		ldr	r3, [r7]
 7171 0012 9A42     		cmp	r2, r3
 7172 0014 00F0B380 		beq	.L427
3197:Drivers/STM32F3xx_HAL_Driver/Src/stm32f3xx_hal_tim.c ****   {
3198:Drivers/STM32F3xx_HAL_Driver/Src/stm32f3xx_hal_tim.c ****   __HAL_LOCK(htim);
 7173              		.loc 1 3198 0
 7174 0018 FB68     		ldr	r3, [r7, #12]
 7175 001a 93F83830 		ldrb	r3, [r3, #56]	@ zero_extendqisi2
 7176 001e 012B     		cmp	r3, #1
 7177 0020 01D1     		bne	.L428
 7178              		.loc 1 3198 0 is_stmt 0 discriminator 1
 7179 0022 0223     		movs	r3, #2
 7180 0024 ACE0     		b	.L438
 7181              	.L428:
 7182              		.loc 1 3198 0 discriminator 2
 7183 0026 FB68     		ldr	r3, [r7, #12]
 7184 0028 0122     		movs	r2, #1
 7185 002a 83F83820 		strb	r2, [r3, #56]
3199:Drivers/STM32F3xx_HAL_Driver/Src/stm32f3xx_hal_tim.c ****   
3200:Drivers/STM32F3xx_HAL_Driver/Src/stm32f3xx_hal_tim.c ****   htim->State = HAL_TIM_STATE_BUSY;
 7186              		.loc 1 3200 0 is_stmt 1 discriminator 2
 7187 002e FB68     		ldr	r3, [r7, #12]
 7188 0030 0222     		movs	r2, #2
 7189 0032 83F83920 		strb	r2, [r3, #57]
3201:Drivers/STM32F3xx_HAL_Driver/Src/stm32f3xx_hal_tim.c **** 
3202:Drivers/STM32F3xx_HAL_Driver/Src/stm32f3xx_hal_tim.c ****   /* Extract the Ouput compare configuration from sConfig structure */  
3203:Drivers/STM32F3xx_HAL_Driver/Src/stm32f3xx_hal_tim.c ****   temp1.OCMode = sConfig->OCMode;
 7190              		.loc 1 3203 0 discriminator 2
 7191 0036 BB68     		ldr	r3, [r7, #8]
 7192 0038 1B68     		ldr	r3, [r3]
 7193 003a 7B61     		str	r3, [r7, #20]
3204:Drivers/STM32F3xx_HAL_Driver/Src/stm32f3xx_hal_tim.c ****   temp1.Pulse = sConfig->Pulse;
 7194              		.loc 1 3204 0 discriminator 2
 7195 003c BB68     		ldr	r3, [r7, #8]
 7196 003e 5B68     		ldr	r3, [r3, #4]
 7197 0040 BB61     		str	r3, [r7, #24]
3205:Drivers/STM32F3xx_HAL_Driver/Src/stm32f3xx_hal_tim.c ****   temp1.OCPolarity = sConfig->OCPolarity;
 7198              		.loc 1 3205 0 discriminator 2
 7199 0042 BB68     		ldr	r3, [r7, #8]
 7200 0044 9B68     		ldr	r3, [r3, #8]
 7201 0046 FB61     		str	r3, [r7, #28]
3206:Drivers/STM32F3xx_HAL_Driver/Src/stm32f3xx_hal_tim.c ****   temp1.OCNPolarity = sConfig->OCNPolarity;
 7202              		.loc 1 3206 0 discriminator 2
 7203 0048 BB68     		ldr	r3, [r7, #8]
 7204 004a DB68     		ldr	r3, [r3, #12]
 7205 004c 3B62     		str	r3, [r7, #32]
3207:Drivers/STM32F3xx_HAL_Driver/Src/stm32f3xx_hal_tim.c ****   temp1.OCIdleState = sConfig->OCIdleState;
 7206              		.loc 1 3207 0 discriminator 2
 7207 004e BB68     		ldr	r3, [r7, #8]
 7208 0050 1B69     		ldr	r3, [r3, #16]
 7209 0052 BB62     		str	r3, [r7, #40]
ARM GAS  /tmp/ccZyKULX.s 			page 182


3208:Drivers/STM32F3xx_HAL_Driver/Src/stm32f3xx_hal_tim.c ****   temp1.OCNIdleState = sConfig->OCNIdleState; 
 7210              		.loc 1 3208 0 discriminator 2
 7211 0054 BB68     		ldr	r3, [r7, #8]
 7212 0056 5B69     		ldr	r3, [r3, #20]
 7213 0058 FB62     		str	r3, [r7, #44]
3209:Drivers/STM32F3xx_HAL_Driver/Src/stm32f3xx_hal_tim.c ****     
3210:Drivers/STM32F3xx_HAL_Driver/Src/stm32f3xx_hal_tim.c ****     switch (OutputChannel)
 7214              		.loc 1 3210 0 discriminator 2
 7215 005a 7B68     		ldr	r3, [r7, #4]
 7216 005c 002B     		cmp	r3, #0
 7217 005e 02D0     		beq	.L431
 7218 0060 042B     		cmp	r3, #4
 7219 0062 09D0     		beq	.L432
3211:Drivers/STM32F3xx_HAL_Driver/Src/stm32f3xx_hal_tim.c ****   {
3212:Drivers/STM32F3xx_HAL_Driver/Src/stm32f3xx_hal_tim.c ****     case TIM_CHANNEL_1:
3213:Drivers/STM32F3xx_HAL_Driver/Src/stm32f3xx_hal_tim.c ****     {
3214:Drivers/STM32F3xx_HAL_Driver/Src/stm32f3xx_hal_tim.c ****         assert_param(IS_TIM_CC1_INSTANCE(htim->Instance));
3215:Drivers/STM32F3xx_HAL_Driver/Src/stm32f3xx_hal_tim.c ****       
3216:Drivers/STM32F3xx_HAL_Driver/Src/stm32f3xx_hal_tim.c ****       TIM_OC1_SetConfig(htim->Instance, &temp1); 
3217:Drivers/STM32F3xx_HAL_Driver/Src/stm32f3xx_hal_tim.c ****     }
3218:Drivers/STM32F3xx_HAL_Driver/Src/stm32f3xx_hal_tim.c ****     break;
3219:Drivers/STM32F3xx_HAL_Driver/Src/stm32f3xx_hal_tim.c ****     case TIM_CHANNEL_2:
3220:Drivers/STM32F3xx_HAL_Driver/Src/stm32f3xx_hal_tim.c ****     {
3221:Drivers/STM32F3xx_HAL_Driver/Src/stm32f3xx_hal_tim.c ****         assert_param(IS_TIM_CC2_INSTANCE(htim->Instance));
3222:Drivers/STM32F3xx_HAL_Driver/Src/stm32f3xx_hal_tim.c ****       
3223:Drivers/STM32F3xx_HAL_Driver/Src/stm32f3xx_hal_tim.c ****       TIM_OC2_SetConfig(htim->Instance, &temp1);
3224:Drivers/STM32F3xx_HAL_Driver/Src/stm32f3xx_hal_tim.c ****     }
3225:Drivers/STM32F3xx_HAL_Driver/Src/stm32f3xx_hal_tim.c ****     break;
3226:Drivers/STM32F3xx_HAL_Driver/Src/stm32f3xx_hal_tim.c ****     default:
3227:Drivers/STM32F3xx_HAL_Driver/Src/stm32f3xx_hal_tim.c ****     break;  
 7220              		.loc 1 3227 0 discriminator 2
 7221 0064 11E0     		b	.L433
 7222              	.L431:
3216:Drivers/STM32F3xx_HAL_Driver/Src/stm32f3xx_hal_tim.c ****     }
 7223              		.loc 1 3216 0
 7224 0066 FB68     		ldr	r3, [r7, #12]
 7225 0068 1A68     		ldr	r2, [r3]
 7226 006a 07F11403 		add	r3, r7, #20
 7227 006e 1046     		mov	r0, r2
 7228 0070 1946     		mov	r1, r3
 7229 0072 FFF7FEFF 		bl	TIM_OC1_SetConfig
3218:Drivers/STM32F3xx_HAL_Driver/Src/stm32f3xx_hal_tim.c ****     case TIM_CHANNEL_2:
 7230              		.loc 1 3218 0
 7231 0076 08E0     		b	.L433
 7232              	.L432:
3223:Drivers/STM32F3xx_HAL_Driver/Src/stm32f3xx_hal_tim.c ****     }
 7233              		.loc 1 3223 0
 7234 0078 FB68     		ldr	r3, [r7, #12]
 7235 007a 1A68     		ldr	r2, [r3]
 7236 007c 07F11403 		add	r3, r7, #20
 7237 0080 1046     		mov	r0, r2
 7238 0082 1946     		mov	r1, r3
 7239 0084 FFF7FEFF 		bl	TIM_OC2_SetConfig
3225:Drivers/STM32F3xx_HAL_Driver/Src/stm32f3xx_hal_tim.c ****     default:
 7240              		.loc 1 3225 0
 7241 0088 00BF     		nop
 7242              	.L433:
ARM GAS  /tmp/ccZyKULX.s 			page 183


3228:Drivers/STM32F3xx_HAL_Driver/Src/stm32f3xx_hal_tim.c ****   } 
3229:Drivers/STM32F3xx_HAL_Driver/Src/stm32f3xx_hal_tim.c ****     switch (InputChannel)
 7243              		.loc 1 3229 0
 7244 008a 3B68     		ldr	r3, [r7]
 7245 008c 002B     		cmp	r3, #0
 7246 008e 02D0     		beq	.L435
 7247 0090 042B     		cmp	r3, #4
 7248 0092 35D0     		beq	.L436
3230:Drivers/STM32F3xx_HAL_Driver/Src/stm32f3xx_hal_tim.c ****   {
3231:Drivers/STM32F3xx_HAL_Driver/Src/stm32f3xx_hal_tim.c ****     case TIM_CHANNEL_1:
3232:Drivers/STM32F3xx_HAL_Driver/Src/stm32f3xx_hal_tim.c ****     {
3233:Drivers/STM32F3xx_HAL_Driver/Src/stm32f3xx_hal_tim.c ****         assert_param(IS_TIM_CC1_INSTANCE(htim->Instance));
3234:Drivers/STM32F3xx_HAL_Driver/Src/stm32f3xx_hal_tim.c ****       
3235:Drivers/STM32F3xx_HAL_Driver/Src/stm32f3xx_hal_tim.c ****       TIM_TI1_SetConfig(htim->Instance, sConfig->ICPolarity,
3236:Drivers/STM32F3xx_HAL_Driver/Src/stm32f3xx_hal_tim.c ****                         sConfig->ICSelection, sConfig->ICFilter);
3237:Drivers/STM32F3xx_HAL_Driver/Src/stm32f3xx_hal_tim.c ****                
3238:Drivers/STM32F3xx_HAL_Driver/Src/stm32f3xx_hal_tim.c ****     /* Reset the IC1PSC Bits */
3239:Drivers/STM32F3xx_HAL_Driver/Src/stm32f3xx_hal_tim.c ****     htim->Instance->CCMR1 &= ~TIM_CCMR1_IC1PSC;
3240:Drivers/STM32F3xx_HAL_Driver/Src/stm32f3xx_hal_tim.c **** 
3241:Drivers/STM32F3xx_HAL_Driver/Src/stm32f3xx_hal_tim.c ****     /* Select the Trigger source */
3242:Drivers/STM32F3xx_HAL_Driver/Src/stm32f3xx_hal_tim.c ****         htim->Instance->SMCR &= ~TIM_SMCR_TS;
3243:Drivers/STM32F3xx_HAL_Driver/Src/stm32f3xx_hal_tim.c ****     htim->Instance->SMCR |= TIM_TS_TI1FP1;
3244:Drivers/STM32F3xx_HAL_Driver/Src/stm32f3xx_hal_tim.c ****       
3245:Drivers/STM32F3xx_HAL_Driver/Src/stm32f3xx_hal_tim.c ****     /* Select the Slave Mode */      
3246:Drivers/STM32F3xx_HAL_Driver/Src/stm32f3xx_hal_tim.c ****         htim->Instance->SMCR &= ~TIM_SMCR_SMS;
3247:Drivers/STM32F3xx_HAL_Driver/Src/stm32f3xx_hal_tim.c ****     htim->Instance->SMCR |= TIM_SLAVEMODE_TRIGGER;
3248:Drivers/STM32F3xx_HAL_Driver/Src/stm32f3xx_hal_tim.c ****     }
3249:Drivers/STM32F3xx_HAL_Driver/Src/stm32f3xx_hal_tim.c ****     break;
3250:Drivers/STM32F3xx_HAL_Driver/Src/stm32f3xx_hal_tim.c ****     case TIM_CHANNEL_2:
3251:Drivers/STM32F3xx_HAL_Driver/Src/stm32f3xx_hal_tim.c ****     {
3252:Drivers/STM32F3xx_HAL_Driver/Src/stm32f3xx_hal_tim.c ****         assert_param(IS_TIM_CC2_INSTANCE(htim->Instance));
3253:Drivers/STM32F3xx_HAL_Driver/Src/stm32f3xx_hal_tim.c ****       
3254:Drivers/STM32F3xx_HAL_Driver/Src/stm32f3xx_hal_tim.c ****       TIM_TI2_SetConfig(htim->Instance, sConfig->ICPolarity,
3255:Drivers/STM32F3xx_HAL_Driver/Src/stm32f3xx_hal_tim.c ****                  sConfig->ICSelection, sConfig->ICFilter);
3256:Drivers/STM32F3xx_HAL_Driver/Src/stm32f3xx_hal_tim.c ****                
3257:Drivers/STM32F3xx_HAL_Driver/Src/stm32f3xx_hal_tim.c ****       /* Reset the IC2PSC Bits */
3258:Drivers/STM32F3xx_HAL_Driver/Src/stm32f3xx_hal_tim.c ****         htim->Instance->CCMR1 &= ~TIM_CCMR1_IC2PSC;
3259:Drivers/STM32F3xx_HAL_Driver/Src/stm32f3xx_hal_tim.c ****  
3260:Drivers/STM32F3xx_HAL_Driver/Src/stm32f3xx_hal_tim.c ****       /* Select the Trigger source */
3261:Drivers/STM32F3xx_HAL_Driver/Src/stm32f3xx_hal_tim.c ****         htim->Instance->SMCR &= ~TIM_SMCR_TS;
3262:Drivers/STM32F3xx_HAL_Driver/Src/stm32f3xx_hal_tim.c ****       htim->Instance->SMCR |= TIM_TS_TI2FP2;
3263:Drivers/STM32F3xx_HAL_Driver/Src/stm32f3xx_hal_tim.c ****       
3264:Drivers/STM32F3xx_HAL_Driver/Src/stm32f3xx_hal_tim.c ****       /* Select the Slave Mode */      
3265:Drivers/STM32F3xx_HAL_Driver/Src/stm32f3xx_hal_tim.c ****         htim->Instance->SMCR &= ~TIM_SMCR_SMS;
3266:Drivers/STM32F3xx_HAL_Driver/Src/stm32f3xx_hal_tim.c ****       htim->Instance->SMCR |= TIM_SLAVEMODE_TRIGGER;
3267:Drivers/STM32F3xx_HAL_Driver/Src/stm32f3xx_hal_tim.c ****     }
3268:Drivers/STM32F3xx_HAL_Driver/Src/stm32f3xx_hal_tim.c ****     break;
3269:Drivers/STM32F3xx_HAL_Driver/Src/stm32f3xx_hal_tim.c ****     
3270:Drivers/STM32F3xx_HAL_Driver/Src/stm32f3xx_hal_tim.c ****     default:
3271:Drivers/STM32F3xx_HAL_Driver/Src/stm32f3xx_hal_tim.c ****     break;  
 7249              		.loc 1 3271 0
 7250 0094 69E0     		b	.L437
 7251              	.L435:
3235:Drivers/STM32F3xx_HAL_Driver/Src/stm32f3xx_hal_tim.c ****                         sConfig->ICSelection, sConfig->ICFilter);
 7252              		.loc 1 3235 0
 7253 0096 FB68     		ldr	r3, [r7, #12]
 7254 0098 1868     		ldr	r0, [r3]
ARM GAS  /tmp/ccZyKULX.s 			page 184


 7255 009a BB68     		ldr	r3, [r7, #8]
 7256 009c 9969     		ldr	r1, [r3, #24]
 7257 009e BB68     		ldr	r3, [r7, #8]
 7258 00a0 DA69     		ldr	r2, [r3, #28]
 7259 00a2 BB68     		ldr	r3, [r7, #8]
 7260 00a4 1B6A     		ldr	r3, [r3, #32]
 7261 00a6 FFF7FEFF 		bl	TIM_TI1_SetConfig
3239:Drivers/STM32F3xx_HAL_Driver/Src/stm32f3xx_hal_tim.c **** 
 7262              		.loc 1 3239 0
 7263 00aa FB68     		ldr	r3, [r7, #12]
 7264 00ac 1B68     		ldr	r3, [r3]
 7265 00ae FA68     		ldr	r2, [r7, #12]
 7266 00b0 1268     		ldr	r2, [r2]
 7267 00b2 9269     		ldr	r2, [r2, #24]
 7268 00b4 22F00C02 		bic	r2, r2, #12
 7269 00b8 9A61     		str	r2, [r3, #24]
3242:Drivers/STM32F3xx_HAL_Driver/Src/stm32f3xx_hal_tim.c ****     htim->Instance->SMCR |= TIM_TS_TI1FP1;
 7270              		.loc 1 3242 0
 7271 00ba FB68     		ldr	r3, [r7, #12]
 7272 00bc 1B68     		ldr	r3, [r3]
 7273 00be FA68     		ldr	r2, [r7, #12]
 7274 00c0 1268     		ldr	r2, [r2]
 7275 00c2 9268     		ldr	r2, [r2, #8]
 7276 00c4 22F07002 		bic	r2, r2, #112
 7277 00c8 9A60     		str	r2, [r3, #8]
3243:Drivers/STM32F3xx_HAL_Driver/Src/stm32f3xx_hal_tim.c ****       
 7278              		.loc 1 3243 0
 7279 00ca FB68     		ldr	r3, [r7, #12]
 7280 00cc 1B68     		ldr	r3, [r3]
 7281 00ce FA68     		ldr	r2, [r7, #12]
 7282 00d0 1268     		ldr	r2, [r2]
 7283 00d2 9268     		ldr	r2, [r2, #8]
 7284 00d4 42F05002 		orr	r2, r2, #80
 7285 00d8 9A60     		str	r2, [r3, #8]
3246:Drivers/STM32F3xx_HAL_Driver/Src/stm32f3xx_hal_tim.c ****     htim->Instance->SMCR |= TIM_SLAVEMODE_TRIGGER;
 7286              		.loc 1 3246 0
 7287 00da FB68     		ldr	r3, [r7, #12]
 7288 00dc 1A68     		ldr	r2, [r3]
 7289 00de FB68     		ldr	r3, [r7, #12]
 7290 00e0 1B68     		ldr	r3, [r3]
 7291 00e2 9B68     		ldr	r3, [r3, #8]
 7292 00e4 23F48033 		bic	r3, r3, #65536
 7293 00e8 23F00703 		bic	r3, r3, #7
 7294 00ec 9360     		str	r3, [r2, #8]
3247:Drivers/STM32F3xx_HAL_Driver/Src/stm32f3xx_hal_tim.c ****     }
 7295              		.loc 1 3247 0
 7296 00ee FB68     		ldr	r3, [r7, #12]
 7297 00f0 1B68     		ldr	r3, [r3]
 7298 00f2 FA68     		ldr	r2, [r7, #12]
 7299 00f4 1268     		ldr	r2, [r2]
 7300 00f6 9268     		ldr	r2, [r2, #8]
 7301 00f8 42F00602 		orr	r2, r2, #6
 7302 00fc 9A60     		str	r2, [r3, #8]
3249:Drivers/STM32F3xx_HAL_Driver/Src/stm32f3xx_hal_tim.c ****     case TIM_CHANNEL_2:
 7303              		.loc 1 3249 0
 7304 00fe 34E0     		b	.L437
 7305              	.L436:
ARM GAS  /tmp/ccZyKULX.s 			page 185


3254:Drivers/STM32F3xx_HAL_Driver/Src/stm32f3xx_hal_tim.c ****                  sConfig->ICSelection, sConfig->ICFilter);
 7306              		.loc 1 3254 0
 7307 0100 FB68     		ldr	r3, [r7, #12]
 7308 0102 1868     		ldr	r0, [r3]
 7309 0104 BB68     		ldr	r3, [r7, #8]
 7310 0106 9969     		ldr	r1, [r3, #24]
 7311 0108 BB68     		ldr	r3, [r7, #8]
 7312 010a DA69     		ldr	r2, [r3, #28]
 7313 010c BB68     		ldr	r3, [r7, #8]
 7314 010e 1B6A     		ldr	r3, [r3, #32]
 7315 0110 FFF7FEFF 		bl	TIM_TI2_SetConfig
3258:Drivers/STM32F3xx_HAL_Driver/Src/stm32f3xx_hal_tim.c ****  
 7316              		.loc 1 3258 0
 7317 0114 FB68     		ldr	r3, [r7, #12]
 7318 0116 1B68     		ldr	r3, [r3]
 7319 0118 FA68     		ldr	r2, [r7, #12]
 7320 011a 1268     		ldr	r2, [r2]
 7321 011c 9269     		ldr	r2, [r2, #24]
 7322 011e 22F44062 		bic	r2, r2, #3072
 7323 0122 9A61     		str	r2, [r3, #24]
3261:Drivers/STM32F3xx_HAL_Driver/Src/stm32f3xx_hal_tim.c ****       htim->Instance->SMCR |= TIM_TS_TI2FP2;
 7324              		.loc 1 3261 0
 7325 0124 FB68     		ldr	r3, [r7, #12]
 7326 0126 1B68     		ldr	r3, [r3]
 7327 0128 FA68     		ldr	r2, [r7, #12]
 7328 012a 1268     		ldr	r2, [r2]
 7329 012c 9268     		ldr	r2, [r2, #8]
 7330 012e 22F07002 		bic	r2, r2, #112
 7331 0132 9A60     		str	r2, [r3, #8]
3262:Drivers/STM32F3xx_HAL_Driver/Src/stm32f3xx_hal_tim.c ****       
 7332              		.loc 1 3262 0
 7333 0134 FB68     		ldr	r3, [r7, #12]
 7334 0136 1B68     		ldr	r3, [r3]
 7335 0138 FA68     		ldr	r2, [r7, #12]
 7336 013a 1268     		ldr	r2, [r2]
 7337 013c 9268     		ldr	r2, [r2, #8]
 7338 013e 42F06002 		orr	r2, r2, #96
 7339 0142 9A60     		str	r2, [r3, #8]
3265:Drivers/STM32F3xx_HAL_Driver/Src/stm32f3xx_hal_tim.c ****       htim->Instance->SMCR |= TIM_SLAVEMODE_TRIGGER;
 7340              		.loc 1 3265 0
 7341 0144 FB68     		ldr	r3, [r7, #12]
 7342 0146 1A68     		ldr	r2, [r3]
 7343 0148 FB68     		ldr	r3, [r7, #12]
 7344 014a 1B68     		ldr	r3, [r3]
 7345 014c 9B68     		ldr	r3, [r3, #8]
 7346 014e 23F48033 		bic	r3, r3, #65536
 7347 0152 23F00703 		bic	r3, r3, #7
 7348 0156 9360     		str	r3, [r2, #8]
3266:Drivers/STM32F3xx_HAL_Driver/Src/stm32f3xx_hal_tim.c ****     }
 7349              		.loc 1 3266 0
 7350 0158 FB68     		ldr	r3, [r7, #12]
 7351 015a 1B68     		ldr	r3, [r3]
 7352 015c FA68     		ldr	r2, [r7, #12]
 7353 015e 1268     		ldr	r2, [r2]
 7354 0160 9268     		ldr	r2, [r2, #8]
 7355 0162 42F00602 		orr	r2, r2, #6
 7356 0166 9A60     		str	r2, [r3, #8]
ARM GAS  /tmp/ccZyKULX.s 			page 186


3268:Drivers/STM32F3xx_HAL_Driver/Src/stm32f3xx_hal_tim.c ****     
 7357              		.loc 1 3268 0
 7358 0168 00BF     		nop
 7359              	.L437:
3272:Drivers/STM32F3xx_HAL_Driver/Src/stm32f3xx_hal_tim.c ****   }
3273:Drivers/STM32F3xx_HAL_Driver/Src/stm32f3xx_hal_tim.c ****   
3274:Drivers/STM32F3xx_HAL_Driver/Src/stm32f3xx_hal_tim.c ****   htim->State = HAL_TIM_STATE_READY;
 7360              		.loc 1 3274 0
 7361 016a FB68     		ldr	r3, [r7, #12]
 7362 016c 0122     		movs	r2, #1
 7363 016e 83F83920 		strb	r2, [r3, #57]
3275:Drivers/STM32F3xx_HAL_Driver/Src/stm32f3xx_hal_tim.c ****     
3276:Drivers/STM32F3xx_HAL_Driver/Src/stm32f3xx_hal_tim.c ****   __HAL_UNLOCK(htim);
 7364              		.loc 1 3276 0
 7365 0172 FB68     		ldr	r3, [r7, #12]
 7366 0174 0022     		movs	r2, #0
 7367 0176 83F83820 		strb	r2, [r3, #56]
3277:Drivers/STM32F3xx_HAL_Driver/Src/stm32f3xx_hal_tim.c ****   
3278:Drivers/STM32F3xx_HAL_Driver/Src/stm32f3xx_hal_tim.c ****   return HAL_OK;
 7368              		.loc 1 3278 0
 7369 017a 0023     		movs	r3, #0
 7370 017c 00E0     		b	.L438
 7371              	.L427:
3279:Drivers/STM32F3xx_HAL_Driver/Src/stm32f3xx_hal_tim.c **** } 
3280:Drivers/STM32F3xx_HAL_Driver/Src/stm32f3xx_hal_tim.c ****   else
3281:Drivers/STM32F3xx_HAL_Driver/Src/stm32f3xx_hal_tim.c ****   {
3282:Drivers/STM32F3xx_HAL_Driver/Src/stm32f3xx_hal_tim.c ****     return HAL_ERROR;
 7372              		.loc 1 3282 0
 7373 017e 0123     		movs	r3, #1
 7374              	.L438:
3283:Drivers/STM32F3xx_HAL_Driver/Src/stm32f3xx_hal_tim.c ****   }
3284:Drivers/STM32F3xx_HAL_Driver/Src/stm32f3xx_hal_tim.c **** } 
 7375              		.loc 1 3284 0
 7376 0180 1846     		mov	r0, r3
 7377 0182 3037     		adds	r7, r7, #48
 7378 0184 BD46     		mov	sp, r7
 7379              		@ sp needed
 7380 0186 80BD     		pop	{r7, pc}
 7381              		.cfi_endproc
 7382              	.LFE187:
 7384              		.section	.text.HAL_TIM_DMABurst_WriteStart,"ax",%progbits
 7385              		.align	2
 7386              		.global	HAL_TIM_DMABurst_WriteStart
 7387              		.thumb
 7388              		.thumb_func
 7390              	HAL_TIM_DMABurst_WriteStart:
 7391              	.LFB188:
3285:Drivers/STM32F3xx_HAL_Driver/Src/stm32f3xx_hal_tim.c **** 
3286:Drivers/STM32F3xx_HAL_Driver/Src/stm32f3xx_hal_tim.c **** /**
3287:Drivers/STM32F3xx_HAL_Driver/Src/stm32f3xx_hal_tim.c ****   * @brief  Configure the DMA Burst to transfer Data from the memory to the TIM peripheral  
3288:Drivers/STM32F3xx_HAL_Driver/Src/stm32f3xx_hal_tim.c ****   * @param  htim: TIM handle
3289:Drivers/STM32F3xx_HAL_Driver/Src/stm32f3xx_hal_tim.c ****   * @param  BurstBaseAddress: TIM Base address from where the DMA will start the Data write
3290:Drivers/STM32F3xx_HAL_Driver/Src/stm32f3xx_hal_tim.c ****   *         This parameter can be one of the following values:
3291:Drivers/STM32F3xx_HAL_Driver/Src/stm32f3xx_hal_tim.c ****   *            @arg TIM_DMABASE_CR1  
3292:Drivers/STM32F3xx_HAL_Driver/Src/stm32f3xx_hal_tim.c ****   *            @arg TIM_DMABASE_CR2
3293:Drivers/STM32F3xx_HAL_Driver/Src/stm32f3xx_hal_tim.c ****   *            @arg TIM_DMABASE_SMCR
3294:Drivers/STM32F3xx_HAL_Driver/Src/stm32f3xx_hal_tim.c ****   *            @arg TIM_DMABASE_DIER
ARM GAS  /tmp/ccZyKULX.s 			page 187


3295:Drivers/STM32F3xx_HAL_Driver/Src/stm32f3xx_hal_tim.c ****   *            @arg TIM_DMABASE_SR
3296:Drivers/STM32F3xx_HAL_Driver/Src/stm32f3xx_hal_tim.c ****   *            @arg TIM_DMABASE_EGR
3297:Drivers/STM32F3xx_HAL_Driver/Src/stm32f3xx_hal_tim.c ****   *            @arg TIM_DMABASE_CCMR1
3298:Drivers/STM32F3xx_HAL_Driver/Src/stm32f3xx_hal_tim.c ****   *            @arg TIM_DMABASE_CCMR2
3299:Drivers/STM32F3xx_HAL_Driver/Src/stm32f3xx_hal_tim.c ****   *            @arg TIM_DMABASE_CCER
3300:Drivers/STM32F3xx_HAL_Driver/Src/stm32f3xx_hal_tim.c ****   *            @arg TIM_DMABASE_CNT   
3301:Drivers/STM32F3xx_HAL_Driver/Src/stm32f3xx_hal_tim.c ****   *            @arg TIM_DMABASE_PSC   
3302:Drivers/STM32F3xx_HAL_Driver/Src/stm32f3xx_hal_tim.c ****   *            @arg TIM_DMABASE_ARR
3303:Drivers/STM32F3xx_HAL_Driver/Src/stm32f3xx_hal_tim.c ****   *            @arg TIM_DMABASE_RCR
3304:Drivers/STM32F3xx_HAL_Driver/Src/stm32f3xx_hal_tim.c ****   *            @arg TIM_DMABASE_CCR1
3305:Drivers/STM32F3xx_HAL_Driver/Src/stm32f3xx_hal_tim.c ****   *            @arg TIM_DMABASE_CCR2
3306:Drivers/STM32F3xx_HAL_Driver/Src/stm32f3xx_hal_tim.c ****   *            @arg TIM_DMABASE_CCR3  
3307:Drivers/STM32F3xx_HAL_Driver/Src/stm32f3xx_hal_tim.c ****   *            @arg TIM_DMABASE_CCR4
3308:Drivers/STM32F3xx_HAL_Driver/Src/stm32f3xx_hal_tim.c ****   *            @arg TIM_DMABASE_BDTR
3309:Drivers/STM32F3xx_HAL_Driver/Src/stm32f3xx_hal_tim.c ****   *            @arg TIM_DMABASE_DCR
3310:Drivers/STM32F3xx_HAL_Driver/Src/stm32f3xx_hal_tim.c ****   * @param  BurstRequestSrc: TIM DMA Request sources
3311:Drivers/STM32F3xx_HAL_Driver/Src/stm32f3xx_hal_tim.c ****   *         This parameter can be one of the following values:
3312:Drivers/STM32F3xx_HAL_Driver/Src/stm32f3xx_hal_tim.c ****   *            @arg TIM_DMA_UPDATE: TIM update Interrupt source
3313:Drivers/STM32F3xx_HAL_Driver/Src/stm32f3xx_hal_tim.c ****   *            @arg TIM_DMA_CC1: TIM Capture Compare 1 DMA source
3314:Drivers/STM32F3xx_HAL_Driver/Src/stm32f3xx_hal_tim.c ****   *            @arg TIM_DMA_CC2: TIM Capture Compare 2 DMA source
3315:Drivers/STM32F3xx_HAL_Driver/Src/stm32f3xx_hal_tim.c ****   *            @arg TIM_DMA_CC3: TIM Capture Compare 3 DMA source
3316:Drivers/STM32F3xx_HAL_Driver/Src/stm32f3xx_hal_tim.c ****   *            @arg TIM_DMA_CC4: TIM Capture Compare 4 DMA source
3317:Drivers/STM32F3xx_HAL_Driver/Src/stm32f3xx_hal_tim.c ****   *            @arg TIM_DMA_COM: TIM Commutation DMA source
3318:Drivers/STM32F3xx_HAL_Driver/Src/stm32f3xx_hal_tim.c ****   *            @arg TIM_DMA_TRIGGER: TIM Trigger DMA source
3319:Drivers/STM32F3xx_HAL_Driver/Src/stm32f3xx_hal_tim.c ****   * @param  BurstBuffer: The Buffer address.
3320:Drivers/STM32F3xx_HAL_Driver/Src/stm32f3xx_hal_tim.c ****   * @param  BurstLength: DMA Burst length. This parameter can be one value
3321:Drivers/STM32F3xx_HAL_Driver/Src/stm32f3xx_hal_tim.c ****   *         between: TIM_DMABURSTLENGTH_1TRANSFER and TIM_DMABURSTLENGTH_18TRANSFERS.
3322:Drivers/STM32F3xx_HAL_Driver/Src/stm32f3xx_hal_tim.c ****   * @retval HAL status
3323:Drivers/STM32F3xx_HAL_Driver/Src/stm32f3xx_hal_tim.c ****   */
3324:Drivers/STM32F3xx_HAL_Driver/Src/stm32f3xx_hal_tim.c **** HAL_StatusTypeDef HAL_TIM_DMABurst_WriteStart(TIM_HandleTypeDef *htim, uint32_t BurstBaseAddress, u
3325:Drivers/STM32F3xx_HAL_Driver/Src/stm32f3xx_hal_tim.c ****                                               uint32_t* BurstBuffer, uint32_t  BurstLength)
3326:Drivers/STM32F3xx_HAL_Driver/Src/stm32f3xx_hal_tim.c **** {
 7392              		.loc 1 3326 0
 7393              		.cfi_startproc
 7394              		@ args = 4, pretend = 0, frame = 16
 7395              		@ frame_needed = 1, uses_anonymous_args = 0
 7396 0000 80B5     		push	{r7, lr}
 7397              	.LCFI189:
 7398              		.cfi_def_cfa_offset 8
 7399              		.cfi_offset 7, -8
 7400              		.cfi_offset 14, -4
 7401 0002 84B0     		sub	sp, sp, #16
 7402              	.LCFI190:
 7403              		.cfi_def_cfa_offset 24
 7404 0004 00AF     		add	r7, sp, #0
 7405              	.LCFI191:
 7406              		.cfi_def_cfa_register 7
 7407 0006 F860     		str	r0, [r7, #12]
 7408 0008 B960     		str	r1, [r7, #8]
 7409 000a 7A60     		str	r2, [r7, #4]
 7410 000c 3B60     		str	r3, [r7]
3327:Drivers/STM32F3xx_HAL_Driver/Src/stm32f3xx_hal_tim.c ****   /* Check the parameters */
3328:Drivers/STM32F3xx_HAL_Driver/Src/stm32f3xx_hal_tim.c ****   assert_param(IS_TIM_DMABURST_INSTANCE(htim->Instance));
3329:Drivers/STM32F3xx_HAL_Driver/Src/stm32f3xx_hal_tim.c ****   assert_param(IS_TIM_DMA_BASE(BurstBaseAddress));
3330:Drivers/STM32F3xx_HAL_Driver/Src/stm32f3xx_hal_tim.c ****   assert_param(IS_TIM_DMA_SOURCE(BurstRequestSrc));
3331:Drivers/STM32F3xx_HAL_Driver/Src/stm32f3xx_hal_tim.c ****   assert_param(IS_TIM_DMA_LENGTH(BurstLength));
3332:Drivers/STM32F3xx_HAL_Driver/Src/stm32f3xx_hal_tim.c ****   
ARM GAS  /tmp/ccZyKULX.s 			page 188


3333:Drivers/STM32F3xx_HAL_Driver/Src/stm32f3xx_hal_tim.c ****   if((htim->State == HAL_TIM_STATE_BUSY))
 7411              		.loc 1 3333 0
 7412 000e FB68     		ldr	r3, [r7, #12]
 7413 0010 93F83930 		ldrb	r3, [r3, #57]
 7414 0014 DBB2     		uxtb	r3, r3
 7415 0016 022B     		cmp	r3, #2
 7416 0018 01D1     		bne	.L440
3334:Drivers/STM32F3xx_HAL_Driver/Src/stm32f3xx_hal_tim.c ****   {
3335:Drivers/STM32F3xx_HAL_Driver/Src/stm32f3xx_hal_tim.c ****      return HAL_BUSY;
 7417              		.loc 1 3335 0
 7418 001a 0223     		movs	r3, #2
 7419 001c D3E0     		b	.L441
 7420              	.L440:
3336:Drivers/STM32F3xx_HAL_Driver/Src/stm32f3xx_hal_tim.c ****   }
3337:Drivers/STM32F3xx_HAL_Driver/Src/stm32f3xx_hal_tim.c ****   else if((htim->State == HAL_TIM_STATE_READY))
 7421              		.loc 1 3337 0
 7422 001e FB68     		ldr	r3, [r7, #12]
 7423 0020 93F83930 		ldrb	r3, [r3, #57]
 7424 0024 DBB2     		uxtb	r3, r3
 7425 0026 012B     		cmp	r3, #1
 7426 0028 0BD1     		bne	.L442
3338:Drivers/STM32F3xx_HAL_Driver/Src/stm32f3xx_hal_tim.c ****   {
3339:Drivers/STM32F3xx_HAL_Driver/Src/stm32f3xx_hal_tim.c ****     if((BurstBuffer == 0 ) && (BurstLength > 0)) 
 7427              		.loc 1 3339 0
 7428 002a 3B68     		ldr	r3, [r7]
 7429 002c 002B     		cmp	r3, #0
 7430 002e 04D1     		bne	.L443
 7431              		.loc 1 3339 0 is_stmt 0 discriminator 1
 7432 0030 BB69     		ldr	r3, [r7, #24]
 7433 0032 002B     		cmp	r3, #0
 7434 0034 01D0     		beq	.L443
3340:Drivers/STM32F3xx_HAL_Driver/Src/stm32f3xx_hal_tim.c ****     {
3341:Drivers/STM32F3xx_HAL_Driver/Src/stm32f3xx_hal_tim.c ****       return HAL_ERROR;                                    
 7435              		.loc 1 3341 0 is_stmt 1
 7436 0036 0123     		movs	r3, #1
 7437 0038 C5E0     		b	.L441
 7438              	.L443:
3342:Drivers/STM32F3xx_HAL_Driver/Src/stm32f3xx_hal_tim.c ****     }
3343:Drivers/STM32F3xx_HAL_Driver/Src/stm32f3xx_hal_tim.c ****     else
3344:Drivers/STM32F3xx_HAL_Driver/Src/stm32f3xx_hal_tim.c ****     {
3345:Drivers/STM32F3xx_HAL_Driver/Src/stm32f3xx_hal_tim.c ****       htim->State = HAL_TIM_STATE_BUSY;
 7439              		.loc 1 3345 0
 7440 003a FB68     		ldr	r3, [r7, #12]
 7441 003c 0222     		movs	r2, #2
 7442 003e 83F83920 		strb	r2, [r3, #57]
 7443              	.L442:
3346:Drivers/STM32F3xx_HAL_Driver/Src/stm32f3xx_hal_tim.c ****     }
3347:Drivers/STM32F3xx_HAL_Driver/Src/stm32f3xx_hal_tim.c ****   }
3348:Drivers/STM32F3xx_HAL_Driver/Src/stm32f3xx_hal_tim.c ****   switch(BurstRequestSrc)
 7444              		.loc 1 3348 0
 7445 0042 7B68     		ldr	r3, [r7, #4]
 7446 0044 B3F5006F 		cmp	r3, #2048
 7447 0048 56D0     		beq	.L445
 7448 004a B3F5006F 		cmp	r3, #2048
 7449 004e 09D8     		bhi	.L446
 7450 0050 B3F5007F 		cmp	r3, #512
 7451 0054 26D0     		beq	.L447
ARM GAS  /tmp/ccZyKULX.s 			page 189


 7452 0056 B3F5806F 		cmp	r3, #1024
 7453 005a 38D0     		beq	.L448
 7454 005c B3F5807F 		cmp	r3, #256
 7455 0060 0BD0     		beq	.L449
3349:Drivers/STM32F3xx_HAL_Driver/Src/stm32f3xx_hal_tim.c ****   {
3350:Drivers/STM32F3xx_HAL_Driver/Src/stm32f3xx_hal_tim.c ****     case TIM_DMA_UPDATE:
3351:Drivers/STM32F3xx_HAL_Driver/Src/stm32f3xx_hal_tim.c ****     {  
3352:Drivers/STM32F3xx_HAL_Driver/Src/stm32f3xx_hal_tim.c ****       /* Set the DMA Period elapsed callback */
3353:Drivers/STM32F3xx_HAL_Driver/Src/stm32f3xx_hal_tim.c ****       htim->hdma[TIM_DMA_ID_UPDATE]->XferCpltCallback = TIM_DMAPeriodElapsedCplt;
3354:Drivers/STM32F3xx_HAL_Driver/Src/stm32f3xx_hal_tim.c ****      
3355:Drivers/STM32F3xx_HAL_Driver/Src/stm32f3xx_hal_tim.c ****       /* Set the DMA error callback */
3356:Drivers/STM32F3xx_HAL_Driver/Src/stm32f3xx_hal_tim.c ****       htim->hdma[TIM_DMA_ID_UPDATE]->XferErrorCallback = TIM_DMAError ;
3357:Drivers/STM32F3xx_HAL_Driver/Src/stm32f3xx_hal_tim.c ****   
3358:Drivers/STM32F3xx_HAL_Driver/Src/stm32f3xx_hal_tim.c ****       /* Enable the DMA channel */
3359:Drivers/STM32F3xx_HAL_Driver/Src/stm32f3xx_hal_tim.c ****       HAL_DMA_Start_IT(htim->hdma[TIM_DMA_ID_UPDATE], (uint32_t)BurstBuffer, (uint32_t)&htim->Insta
3360:Drivers/STM32F3xx_HAL_Driver/Src/stm32f3xx_hal_tim.c ****     }
3361:Drivers/STM32F3xx_HAL_Driver/Src/stm32f3xx_hal_tim.c ****     break;
3362:Drivers/STM32F3xx_HAL_Driver/Src/stm32f3xx_hal_tim.c ****     case TIM_DMA_CC1:
3363:Drivers/STM32F3xx_HAL_Driver/Src/stm32f3xx_hal_tim.c ****     {  
3364:Drivers/STM32F3xx_HAL_Driver/Src/stm32f3xx_hal_tim.c ****       /* Set the DMA Period elapsed callback */
3365:Drivers/STM32F3xx_HAL_Driver/Src/stm32f3xx_hal_tim.c ****       htim->hdma[TIM_DMA_ID_CC1]->XferCpltCallback =  TIM_DMADelayPulseCplt;
3366:Drivers/STM32F3xx_HAL_Driver/Src/stm32f3xx_hal_tim.c ****      
3367:Drivers/STM32F3xx_HAL_Driver/Src/stm32f3xx_hal_tim.c ****       /* Set the DMA error callback */
3368:Drivers/STM32F3xx_HAL_Driver/Src/stm32f3xx_hal_tim.c ****       htim->hdma[TIM_DMA_ID_CC1]->XferErrorCallback = TIM_DMAError ;
3369:Drivers/STM32F3xx_HAL_Driver/Src/stm32f3xx_hal_tim.c ****   
3370:Drivers/STM32F3xx_HAL_Driver/Src/stm32f3xx_hal_tim.c ****       /* Enable the DMA channel */
3371:Drivers/STM32F3xx_HAL_Driver/Src/stm32f3xx_hal_tim.c ****       HAL_DMA_Start_IT(htim->hdma[TIM_DMA_ID_CC1], (uint32_t)BurstBuffer, (uint32_t)&htim->Instance
3372:Drivers/STM32F3xx_HAL_Driver/Src/stm32f3xx_hal_tim.c ****     }
3373:Drivers/STM32F3xx_HAL_Driver/Src/stm32f3xx_hal_tim.c ****     break;
3374:Drivers/STM32F3xx_HAL_Driver/Src/stm32f3xx_hal_tim.c ****     case TIM_DMA_CC2:
3375:Drivers/STM32F3xx_HAL_Driver/Src/stm32f3xx_hal_tim.c ****     {  
3376:Drivers/STM32F3xx_HAL_Driver/Src/stm32f3xx_hal_tim.c ****       /* Set the DMA Period elapsed callback */
3377:Drivers/STM32F3xx_HAL_Driver/Src/stm32f3xx_hal_tim.c ****       htim->hdma[TIM_DMA_ID_CC2]->XferCpltCallback =  TIM_DMADelayPulseCplt;
3378:Drivers/STM32F3xx_HAL_Driver/Src/stm32f3xx_hal_tim.c ****      
3379:Drivers/STM32F3xx_HAL_Driver/Src/stm32f3xx_hal_tim.c ****       /* Set the DMA error callback */
3380:Drivers/STM32F3xx_HAL_Driver/Src/stm32f3xx_hal_tim.c ****       htim->hdma[TIM_DMA_ID_CC2]->XferErrorCallback = TIM_DMAError ;
3381:Drivers/STM32F3xx_HAL_Driver/Src/stm32f3xx_hal_tim.c ****   
3382:Drivers/STM32F3xx_HAL_Driver/Src/stm32f3xx_hal_tim.c ****       /* Enable the DMA channel */
3383:Drivers/STM32F3xx_HAL_Driver/Src/stm32f3xx_hal_tim.c ****       HAL_DMA_Start_IT(htim->hdma[TIM_DMA_ID_CC2], (uint32_t)BurstBuffer, (uint32_t)&htim->Instance
3384:Drivers/STM32F3xx_HAL_Driver/Src/stm32f3xx_hal_tim.c ****     }
3385:Drivers/STM32F3xx_HAL_Driver/Src/stm32f3xx_hal_tim.c ****     break;
3386:Drivers/STM32F3xx_HAL_Driver/Src/stm32f3xx_hal_tim.c ****     case TIM_DMA_CC3:
3387:Drivers/STM32F3xx_HAL_Driver/Src/stm32f3xx_hal_tim.c ****     {  
3388:Drivers/STM32F3xx_HAL_Driver/Src/stm32f3xx_hal_tim.c ****       /* Set the DMA Period elapsed callback */
3389:Drivers/STM32F3xx_HAL_Driver/Src/stm32f3xx_hal_tim.c ****       htim->hdma[TIM_DMA_ID_CC3]->XferCpltCallback =  TIM_DMADelayPulseCplt;
3390:Drivers/STM32F3xx_HAL_Driver/Src/stm32f3xx_hal_tim.c ****      
3391:Drivers/STM32F3xx_HAL_Driver/Src/stm32f3xx_hal_tim.c ****       /* Set the DMA error callback */
3392:Drivers/STM32F3xx_HAL_Driver/Src/stm32f3xx_hal_tim.c ****       htim->hdma[TIM_DMA_ID_CC3]->XferErrorCallback = TIM_DMAError ;
3393:Drivers/STM32F3xx_HAL_Driver/Src/stm32f3xx_hal_tim.c ****   
3394:Drivers/STM32F3xx_HAL_Driver/Src/stm32f3xx_hal_tim.c ****       /* Enable the DMA channel */
3395:Drivers/STM32F3xx_HAL_Driver/Src/stm32f3xx_hal_tim.c ****       HAL_DMA_Start_IT(htim->hdma[TIM_DMA_ID_CC3], (uint32_t)BurstBuffer, (uint32_t)&htim->Instance
3396:Drivers/STM32F3xx_HAL_Driver/Src/stm32f3xx_hal_tim.c ****     }
3397:Drivers/STM32F3xx_HAL_Driver/Src/stm32f3xx_hal_tim.c ****     break;
3398:Drivers/STM32F3xx_HAL_Driver/Src/stm32f3xx_hal_tim.c ****     case TIM_DMA_CC4:
3399:Drivers/STM32F3xx_HAL_Driver/Src/stm32f3xx_hal_tim.c ****     {  
3400:Drivers/STM32F3xx_HAL_Driver/Src/stm32f3xx_hal_tim.c ****       /* Set the DMA Period elapsed callback */
3401:Drivers/STM32F3xx_HAL_Driver/Src/stm32f3xx_hal_tim.c ****       htim->hdma[TIM_DMA_ID_CC4]->XferCpltCallback =  TIM_DMADelayPulseCplt;
ARM GAS  /tmp/ccZyKULX.s 			page 190


3402:Drivers/STM32F3xx_HAL_Driver/Src/stm32f3xx_hal_tim.c ****      
3403:Drivers/STM32F3xx_HAL_Driver/Src/stm32f3xx_hal_tim.c ****       /* Set the DMA error callback */
3404:Drivers/STM32F3xx_HAL_Driver/Src/stm32f3xx_hal_tim.c ****       htim->hdma[TIM_DMA_ID_CC4]->XferErrorCallback = TIM_DMAError ;
3405:Drivers/STM32F3xx_HAL_Driver/Src/stm32f3xx_hal_tim.c ****   
3406:Drivers/STM32F3xx_HAL_Driver/Src/stm32f3xx_hal_tim.c ****       /* Enable the DMA channel */
3407:Drivers/STM32F3xx_HAL_Driver/Src/stm32f3xx_hal_tim.c ****       HAL_DMA_Start_IT(htim->hdma[TIM_DMA_ID_CC4], (uint32_t)BurstBuffer, (uint32_t)&htim->Instance
3408:Drivers/STM32F3xx_HAL_Driver/Src/stm32f3xx_hal_tim.c ****     }
3409:Drivers/STM32F3xx_HAL_Driver/Src/stm32f3xx_hal_tim.c ****     break;
3410:Drivers/STM32F3xx_HAL_Driver/Src/stm32f3xx_hal_tim.c ****     case TIM_DMA_COM:
3411:Drivers/STM32F3xx_HAL_Driver/Src/stm32f3xx_hal_tim.c ****     {  
3412:Drivers/STM32F3xx_HAL_Driver/Src/stm32f3xx_hal_tim.c ****       /* Set the DMA Period elapsed callback */
3413:Drivers/STM32F3xx_HAL_Driver/Src/stm32f3xx_hal_tim.c ****       htim->hdma[TIM_DMA_ID_COMMUTATION]->XferCpltCallback =  TIMEx_DMACommutationCplt;
3414:Drivers/STM32F3xx_HAL_Driver/Src/stm32f3xx_hal_tim.c ****      
3415:Drivers/STM32F3xx_HAL_Driver/Src/stm32f3xx_hal_tim.c ****       /* Set the DMA error callback */
3416:Drivers/STM32F3xx_HAL_Driver/Src/stm32f3xx_hal_tim.c ****       htim->hdma[TIM_DMA_ID_COMMUTATION]->XferErrorCallback = TIM_DMAError ;
3417:Drivers/STM32F3xx_HAL_Driver/Src/stm32f3xx_hal_tim.c ****   
3418:Drivers/STM32F3xx_HAL_Driver/Src/stm32f3xx_hal_tim.c ****       /* Enable the DMA channel */
3419:Drivers/STM32F3xx_HAL_Driver/Src/stm32f3xx_hal_tim.c ****       HAL_DMA_Start_IT(htim->hdma[TIM_DMA_ID_COMMUTATION], (uint32_t)BurstBuffer, (uint32_t)&htim->
3420:Drivers/STM32F3xx_HAL_Driver/Src/stm32f3xx_hal_tim.c ****     }
3421:Drivers/STM32F3xx_HAL_Driver/Src/stm32f3xx_hal_tim.c ****     break;
3422:Drivers/STM32F3xx_HAL_Driver/Src/stm32f3xx_hal_tim.c ****     case TIM_DMA_TRIGGER:
3423:Drivers/STM32F3xx_HAL_Driver/Src/stm32f3xx_hal_tim.c ****     {  
3424:Drivers/STM32F3xx_HAL_Driver/Src/stm32f3xx_hal_tim.c ****       /* Set the DMA Period elapsed callback */
3425:Drivers/STM32F3xx_HAL_Driver/Src/stm32f3xx_hal_tim.c ****       htim->hdma[TIM_DMA_ID_TRIGGER]->XferCpltCallback = TIM_DMATriggerCplt;
3426:Drivers/STM32F3xx_HAL_Driver/Src/stm32f3xx_hal_tim.c ****      
3427:Drivers/STM32F3xx_HAL_Driver/Src/stm32f3xx_hal_tim.c ****       /* Set the DMA error callback */
3428:Drivers/STM32F3xx_HAL_Driver/Src/stm32f3xx_hal_tim.c ****       htim->hdma[TIM_DMA_ID_TRIGGER]->XferErrorCallback = TIM_DMAError ;
3429:Drivers/STM32F3xx_HAL_Driver/Src/stm32f3xx_hal_tim.c ****   
3430:Drivers/STM32F3xx_HAL_Driver/Src/stm32f3xx_hal_tim.c ****       /* Enable the DMA channel */
3431:Drivers/STM32F3xx_HAL_Driver/Src/stm32f3xx_hal_tim.c ****       HAL_DMA_Start_IT(htim->hdma[TIM_DMA_ID_TRIGGER], (uint32_t)BurstBuffer, (uint32_t)&htim->Inst
3432:Drivers/STM32F3xx_HAL_Driver/Src/stm32f3xx_hal_tim.c ****     }
3433:Drivers/STM32F3xx_HAL_Driver/Src/stm32f3xx_hal_tim.c ****     break;
3434:Drivers/STM32F3xx_HAL_Driver/Src/stm32f3xx_hal_tim.c ****     default:
3435:Drivers/STM32F3xx_HAL_Driver/Src/stm32f3xx_hal_tim.c ****     break;  
 7456              		.loc 1 3435 0
 7457 0062 9DE0     		b	.L453
 7458              	.L446:
3348:Drivers/STM32F3xx_HAL_Driver/Src/stm32f3xx_hal_tim.c ****   {
 7459              		.loc 1 3348 0
 7460 0064 B3F5005F 		cmp	r3, #8192
 7461 0068 70D0     		beq	.L450
 7462 006a B3F5804F 		cmp	r3, #16384
 7463 006e 00F08280 		beq	.L451
 7464 0072 B3F5805F 		cmp	r3, #4096
 7465 0076 54D0     		beq	.L452
 7466              		.loc 1 3435 0
 7467 0078 92E0     		b	.L453
 7468              	.L449:
3353:Drivers/STM32F3xx_HAL_Driver/Src/stm32f3xx_hal_tim.c ****      
 7469              		.loc 1 3353 0
 7470 007a FB68     		ldr	r3, [r7, #12]
 7471 007c DB69     		ldr	r3, [r3, #28]
 7472 007e 544A     		ldr	r2, .L454
 7473 0080 9A62     		str	r2, [r3, #40]
3356:Drivers/STM32F3xx_HAL_Driver/Src/stm32f3xx_hal_tim.c ****   
 7474              		.loc 1 3356 0
 7475 0082 FB68     		ldr	r3, [r7, #12]
ARM GAS  /tmp/ccZyKULX.s 			page 191


 7476 0084 DB69     		ldr	r3, [r3, #28]
 7477 0086 534A     		ldr	r2, .L454+4
 7478 0088 1A63     		str	r2, [r3, #48]
3359:Drivers/STM32F3xx_HAL_Driver/Src/stm32f3xx_hal_tim.c ****     }
 7479              		.loc 1 3359 0
 7480 008a FB68     		ldr	r3, [r7, #12]
 7481 008c D869     		ldr	r0, [r3, #28]
 7482 008e 3968     		ldr	r1, [r7]
 7483 0090 FB68     		ldr	r3, [r7, #12]
 7484 0092 1B68     		ldr	r3, [r3]
 7485 0094 4C33     		adds	r3, r3, #76
 7486 0096 1A46     		mov	r2, r3
 7487 0098 BB69     		ldr	r3, [r7, #24]
 7488 009a 1B0A     		lsrs	r3, r3, #8
 7489 009c 0133     		adds	r3, r3, #1
 7490 009e FFF7FEFF 		bl	HAL_DMA_Start_IT
3361:Drivers/STM32F3xx_HAL_Driver/Src/stm32f3xx_hal_tim.c ****     case TIM_DMA_CC1:
 7491              		.loc 1 3361 0
 7492 00a2 7DE0     		b	.L453
 7493              	.L447:
3365:Drivers/STM32F3xx_HAL_Driver/Src/stm32f3xx_hal_tim.c ****      
 7494              		.loc 1 3365 0
 7495 00a4 FB68     		ldr	r3, [r7, #12]
 7496 00a6 1B6A     		ldr	r3, [r3, #32]
 7497 00a8 4B4A     		ldr	r2, .L454+8
 7498 00aa 9A62     		str	r2, [r3, #40]
3368:Drivers/STM32F3xx_HAL_Driver/Src/stm32f3xx_hal_tim.c ****   
 7499              		.loc 1 3368 0
 7500 00ac FB68     		ldr	r3, [r7, #12]
 7501 00ae 1B6A     		ldr	r3, [r3, #32]
 7502 00b0 484A     		ldr	r2, .L454+4
 7503 00b2 1A63     		str	r2, [r3, #48]
3371:Drivers/STM32F3xx_HAL_Driver/Src/stm32f3xx_hal_tim.c ****     }
 7504              		.loc 1 3371 0
 7505 00b4 FB68     		ldr	r3, [r7, #12]
 7506 00b6 186A     		ldr	r0, [r3, #32]
 7507 00b8 3968     		ldr	r1, [r7]
 7508 00ba FB68     		ldr	r3, [r7, #12]
 7509 00bc 1B68     		ldr	r3, [r3]
 7510 00be 4C33     		adds	r3, r3, #76
 7511 00c0 1A46     		mov	r2, r3
 7512 00c2 BB69     		ldr	r3, [r7, #24]
 7513 00c4 1B0A     		lsrs	r3, r3, #8
 7514 00c6 0133     		adds	r3, r3, #1
 7515 00c8 FFF7FEFF 		bl	HAL_DMA_Start_IT
3373:Drivers/STM32F3xx_HAL_Driver/Src/stm32f3xx_hal_tim.c ****     case TIM_DMA_CC2:
 7516              		.loc 1 3373 0
 7517 00cc 68E0     		b	.L453
 7518              	.L448:
3377:Drivers/STM32F3xx_HAL_Driver/Src/stm32f3xx_hal_tim.c ****      
 7519              		.loc 1 3377 0
 7520 00ce FB68     		ldr	r3, [r7, #12]
 7521 00d0 5B6A     		ldr	r3, [r3, #36]
 7522 00d2 414A     		ldr	r2, .L454+8
 7523 00d4 9A62     		str	r2, [r3, #40]
3380:Drivers/STM32F3xx_HAL_Driver/Src/stm32f3xx_hal_tim.c ****   
 7524              		.loc 1 3380 0
ARM GAS  /tmp/ccZyKULX.s 			page 192


 7525 00d6 FB68     		ldr	r3, [r7, #12]
 7526 00d8 5B6A     		ldr	r3, [r3, #36]
 7527 00da 3E4A     		ldr	r2, .L454+4
 7528 00dc 1A63     		str	r2, [r3, #48]
3383:Drivers/STM32F3xx_HAL_Driver/Src/stm32f3xx_hal_tim.c ****     }
 7529              		.loc 1 3383 0
 7530 00de FB68     		ldr	r3, [r7, #12]
 7531 00e0 586A     		ldr	r0, [r3, #36]
 7532 00e2 3968     		ldr	r1, [r7]
 7533 00e4 FB68     		ldr	r3, [r7, #12]
 7534 00e6 1B68     		ldr	r3, [r3]
 7535 00e8 4C33     		adds	r3, r3, #76
 7536 00ea 1A46     		mov	r2, r3
 7537 00ec BB69     		ldr	r3, [r7, #24]
 7538 00ee 1B0A     		lsrs	r3, r3, #8
 7539 00f0 0133     		adds	r3, r3, #1
 7540 00f2 FFF7FEFF 		bl	HAL_DMA_Start_IT
3385:Drivers/STM32F3xx_HAL_Driver/Src/stm32f3xx_hal_tim.c ****     case TIM_DMA_CC3:
 7541              		.loc 1 3385 0
 7542 00f6 53E0     		b	.L453
 7543              	.L445:
3389:Drivers/STM32F3xx_HAL_Driver/Src/stm32f3xx_hal_tim.c ****      
 7544              		.loc 1 3389 0
 7545 00f8 FB68     		ldr	r3, [r7, #12]
 7546 00fa 9B6A     		ldr	r3, [r3, #40]
 7547 00fc 364A     		ldr	r2, .L454+8
 7548 00fe 9A62     		str	r2, [r3, #40]
3392:Drivers/STM32F3xx_HAL_Driver/Src/stm32f3xx_hal_tim.c ****   
 7549              		.loc 1 3392 0
 7550 0100 FB68     		ldr	r3, [r7, #12]
 7551 0102 9B6A     		ldr	r3, [r3, #40]
 7552 0104 334A     		ldr	r2, .L454+4
 7553 0106 1A63     		str	r2, [r3, #48]
3395:Drivers/STM32F3xx_HAL_Driver/Src/stm32f3xx_hal_tim.c ****     }
 7554              		.loc 1 3395 0
 7555 0108 FB68     		ldr	r3, [r7, #12]
 7556 010a 986A     		ldr	r0, [r3, #40]
 7557 010c 3968     		ldr	r1, [r7]
 7558 010e FB68     		ldr	r3, [r7, #12]
 7559 0110 1B68     		ldr	r3, [r3]
 7560 0112 4C33     		adds	r3, r3, #76
 7561 0114 1A46     		mov	r2, r3
 7562 0116 BB69     		ldr	r3, [r7, #24]
 7563 0118 1B0A     		lsrs	r3, r3, #8
 7564 011a 0133     		adds	r3, r3, #1
 7565 011c FFF7FEFF 		bl	HAL_DMA_Start_IT
3397:Drivers/STM32F3xx_HAL_Driver/Src/stm32f3xx_hal_tim.c ****     case TIM_DMA_CC4:
 7566              		.loc 1 3397 0
 7567 0120 3EE0     		b	.L453
 7568              	.L452:
3401:Drivers/STM32F3xx_HAL_Driver/Src/stm32f3xx_hal_tim.c ****      
 7569              		.loc 1 3401 0
 7570 0122 FB68     		ldr	r3, [r7, #12]
 7571 0124 DB6A     		ldr	r3, [r3, #44]
 7572 0126 2C4A     		ldr	r2, .L454+8
 7573 0128 9A62     		str	r2, [r3, #40]
3404:Drivers/STM32F3xx_HAL_Driver/Src/stm32f3xx_hal_tim.c ****   
ARM GAS  /tmp/ccZyKULX.s 			page 193


 7574              		.loc 1 3404 0
 7575 012a FB68     		ldr	r3, [r7, #12]
 7576 012c DB6A     		ldr	r3, [r3, #44]
 7577 012e 294A     		ldr	r2, .L454+4
 7578 0130 1A63     		str	r2, [r3, #48]
3407:Drivers/STM32F3xx_HAL_Driver/Src/stm32f3xx_hal_tim.c ****     }
 7579              		.loc 1 3407 0
 7580 0132 FB68     		ldr	r3, [r7, #12]
 7581 0134 D86A     		ldr	r0, [r3, #44]
 7582 0136 3968     		ldr	r1, [r7]
 7583 0138 FB68     		ldr	r3, [r7, #12]
 7584 013a 1B68     		ldr	r3, [r3]
 7585 013c 4C33     		adds	r3, r3, #76
 7586 013e 1A46     		mov	r2, r3
 7587 0140 BB69     		ldr	r3, [r7, #24]
 7588 0142 1B0A     		lsrs	r3, r3, #8
 7589 0144 0133     		adds	r3, r3, #1
 7590 0146 FFF7FEFF 		bl	HAL_DMA_Start_IT
3409:Drivers/STM32F3xx_HAL_Driver/Src/stm32f3xx_hal_tim.c ****     case TIM_DMA_COM:
 7591              		.loc 1 3409 0
 7592 014a 29E0     		b	.L453
 7593              	.L450:
3413:Drivers/STM32F3xx_HAL_Driver/Src/stm32f3xx_hal_tim.c ****      
 7594              		.loc 1 3413 0
 7595 014c FB68     		ldr	r3, [r7, #12]
 7596 014e 1B6B     		ldr	r3, [r3, #48]
 7597 0150 224A     		ldr	r2, .L454+12
 7598 0152 9A62     		str	r2, [r3, #40]
3416:Drivers/STM32F3xx_HAL_Driver/Src/stm32f3xx_hal_tim.c ****   
 7599              		.loc 1 3416 0
 7600 0154 FB68     		ldr	r3, [r7, #12]
 7601 0156 1B6B     		ldr	r3, [r3, #48]
 7602 0158 1E4A     		ldr	r2, .L454+4
 7603 015a 1A63     		str	r2, [r3, #48]
3419:Drivers/STM32F3xx_HAL_Driver/Src/stm32f3xx_hal_tim.c ****     }
 7604              		.loc 1 3419 0
 7605 015c FB68     		ldr	r3, [r7, #12]
 7606 015e 186B     		ldr	r0, [r3, #48]
 7607 0160 3968     		ldr	r1, [r7]
 7608 0162 FB68     		ldr	r3, [r7, #12]
 7609 0164 1B68     		ldr	r3, [r3]
 7610 0166 4C33     		adds	r3, r3, #76
 7611 0168 1A46     		mov	r2, r3
 7612 016a BB69     		ldr	r3, [r7, #24]
 7613 016c 1B0A     		lsrs	r3, r3, #8
 7614 016e 0133     		adds	r3, r3, #1
 7615 0170 FFF7FEFF 		bl	HAL_DMA_Start_IT
3421:Drivers/STM32F3xx_HAL_Driver/Src/stm32f3xx_hal_tim.c ****     case TIM_DMA_TRIGGER:
 7616              		.loc 1 3421 0
 7617 0174 14E0     		b	.L453
 7618              	.L451:
3425:Drivers/STM32F3xx_HAL_Driver/Src/stm32f3xx_hal_tim.c ****      
 7619              		.loc 1 3425 0
 7620 0176 FB68     		ldr	r3, [r7, #12]
 7621 0178 5B6B     		ldr	r3, [r3, #52]
 7622 017a 194A     		ldr	r2, .L454+16
 7623 017c 9A62     		str	r2, [r3, #40]
ARM GAS  /tmp/ccZyKULX.s 			page 194


3428:Drivers/STM32F3xx_HAL_Driver/Src/stm32f3xx_hal_tim.c ****   
 7624              		.loc 1 3428 0
 7625 017e FB68     		ldr	r3, [r7, #12]
 7626 0180 5B6B     		ldr	r3, [r3, #52]
 7627 0182 144A     		ldr	r2, .L454+4
 7628 0184 1A63     		str	r2, [r3, #48]
3431:Drivers/STM32F3xx_HAL_Driver/Src/stm32f3xx_hal_tim.c ****     }
 7629              		.loc 1 3431 0
 7630 0186 FB68     		ldr	r3, [r7, #12]
 7631 0188 586B     		ldr	r0, [r3, #52]
 7632 018a 3968     		ldr	r1, [r7]
 7633 018c FB68     		ldr	r3, [r7, #12]
 7634 018e 1B68     		ldr	r3, [r3]
 7635 0190 4C33     		adds	r3, r3, #76
 7636 0192 1A46     		mov	r2, r3
 7637 0194 BB69     		ldr	r3, [r7, #24]
 7638 0196 1B0A     		lsrs	r3, r3, #8
 7639 0198 0133     		adds	r3, r3, #1
 7640 019a FFF7FEFF 		bl	HAL_DMA_Start_IT
3433:Drivers/STM32F3xx_HAL_Driver/Src/stm32f3xx_hal_tim.c ****     default:
 7641              		.loc 1 3433 0
 7642 019e 00BF     		nop
 7643              	.L453:
3436:Drivers/STM32F3xx_HAL_Driver/Src/stm32f3xx_hal_tim.c ****   }
3437:Drivers/STM32F3xx_HAL_Driver/Src/stm32f3xx_hal_tim.c ****    /* configure the DMA Burst Mode */
3438:Drivers/STM32F3xx_HAL_Driver/Src/stm32f3xx_hal_tim.c ****    htim->Instance->DCR = BurstBaseAddress | BurstLength;  
 7644              		.loc 1 3438 0
 7645 01a0 FB68     		ldr	r3, [r7, #12]
 7646 01a2 1B68     		ldr	r3, [r3]
 7647 01a4 B968     		ldr	r1, [r7, #8]
 7648 01a6 BA69     		ldr	r2, [r7, #24]
 7649 01a8 0A43     		orrs	r2, r2, r1
 7650 01aa 9A64     		str	r2, [r3, #72]
3439:Drivers/STM32F3xx_HAL_Driver/Src/stm32f3xx_hal_tim.c ****    
3440:Drivers/STM32F3xx_HAL_Driver/Src/stm32f3xx_hal_tim.c ****    /* Enable the TIM DMA Request */
3441:Drivers/STM32F3xx_HAL_Driver/Src/stm32f3xx_hal_tim.c ****    __HAL_TIM_ENABLE_DMA(htim, BurstRequestSrc);  
 7651              		.loc 1 3441 0
 7652 01ac FB68     		ldr	r3, [r7, #12]
 7653 01ae 1B68     		ldr	r3, [r3]
 7654 01b0 FA68     		ldr	r2, [r7, #12]
 7655 01b2 1268     		ldr	r2, [r2]
 7656 01b4 D168     		ldr	r1, [r2, #12]
 7657 01b6 7A68     		ldr	r2, [r7, #4]
 7658 01b8 0A43     		orrs	r2, r2, r1
 7659 01ba DA60     		str	r2, [r3, #12]
3442:Drivers/STM32F3xx_HAL_Driver/Src/stm32f3xx_hal_tim.c ****   
3443:Drivers/STM32F3xx_HAL_Driver/Src/stm32f3xx_hal_tim.c ****    htim->State = HAL_TIM_STATE_READY;
 7660              		.loc 1 3443 0
 7661 01bc FB68     		ldr	r3, [r7, #12]
 7662 01be 0122     		movs	r2, #1
 7663 01c0 83F83920 		strb	r2, [r3, #57]
3444:Drivers/STM32F3xx_HAL_Driver/Src/stm32f3xx_hal_tim.c ****   
3445:Drivers/STM32F3xx_HAL_Driver/Src/stm32f3xx_hal_tim.c ****   /* Return function status */
3446:Drivers/STM32F3xx_HAL_Driver/Src/stm32f3xx_hal_tim.c ****   return HAL_OK;
 7664              		.loc 1 3446 0
 7665 01c4 0023     		movs	r3, #0
 7666              	.L441:
ARM GAS  /tmp/ccZyKULX.s 			page 195


3447:Drivers/STM32F3xx_HAL_Driver/Src/stm32f3xx_hal_tim.c **** }
 7667              		.loc 1 3447 0
 7668 01c6 1846     		mov	r0, r3
 7669 01c8 1037     		adds	r7, r7, #16
 7670 01ca BD46     		mov	sp, r7
 7671              		@ sp needed
 7672 01cc 80BD     		pop	{r7, pc}
 7673              	.L455:
 7674 01ce 00BF     		.align	2
 7675              	.L454:
 7676 01d0 00000000 		.word	TIM_DMAPeriodElapsedCplt
 7677 01d4 00000000 		.word	TIM_DMAError
 7678 01d8 00000000 		.word	TIM_DMADelayPulseCplt
 7679 01dc 00000000 		.word	TIMEx_DMACommutationCplt
 7680 01e0 00000000 		.word	TIM_DMATriggerCplt
 7681              		.cfi_endproc
 7682              	.LFE188:
 7684              		.section	.text.HAL_TIM_DMABurst_WriteStop,"ax",%progbits
 7685              		.align	2
 7686              		.global	HAL_TIM_DMABurst_WriteStop
 7687              		.thumb
 7688              		.thumb_func
 7690              	HAL_TIM_DMABurst_WriteStop:
 7691              	.LFB189:
3448:Drivers/STM32F3xx_HAL_Driver/Src/stm32f3xx_hal_tim.c **** 
3449:Drivers/STM32F3xx_HAL_Driver/Src/stm32f3xx_hal_tim.c **** /**
3450:Drivers/STM32F3xx_HAL_Driver/Src/stm32f3xx_hal_tim.c ****   * @brief  Stops the TIM DMA Burst mode 
3451:Drivers/STM32F3xx_HAL_Driver/Src/stm32f3xx_hal_tim.c ****   * @param  htim: TIM handle
3452:Drivers/STM32F3xx_HAL_Driver/Src/stm32f3xx_hal_tim.c ****   * @param  BurstRequestSrc: TIM DMA Request sources to disable
3453:Drivers/STM32F3xx_HAL_Driver/Src/stm32f3xx_hal_tim.c ****   * @retval HAL status
3454:Drivers/STM32F3xx_HAL_Driver/Src/stm32f3xx_hal_tim.c ****   */
3455:Drivers/STM32F3xx_HAL_Driver/Src/stm32f3xx_hal_tim.c **** HAL_StatusTypeDef HAL_TIM_DMABurst_WriteStop(TIM_HandleTypeDef *htim, uint32_t BurstRequestSrc)
3456:Drivers/STM32F3xx_HAL_Driver/Src/stm32f3xx_hal_tim.c **** {
 7692              		.loc 1 3456 0
 7693              		.cfi_startproc
 7694              		@ args = 0, pretend = 0, frame = 8
 7695              		@ frame_needed = 1, uses_anonymous_args = 0
 7696 0000 80B5     		push	{r7, lr}
 7697              	.LCFI192:
 7698              		.cfi_def_cfa_offset 8
 7699              		.cfi_offset 7, -8
 7700              		.cfi_offset 14, -4
 7701 0002 82B0     		sub	sp, sp, #8
 7702              	.LCFI193:
 7703              		.cfi_def_cfa_offset 16
 7704 0004 00AF     		add	r7, sp, #0
 7705              	.LCFI194:
 7706              		.cfi_def_cfa_register 7
 7707 0006 7860     		str	r0, [r7, #4]
 7708 0008 3960     		str	r1, [r7]
3457:Drivers/STM32F3xx_HAL_Driver/Src/stm32f3xx_hal_tim.c ****   /* Check the parameters */
3458:Drivers/STM32F3xx_HAL_Driver/Src/stm32f3xx_hal_tim.c ****   assert_param(IS_TIM_DMA_SOURCE(BurstRequestSrc));
3459:Drivers/STM32F3xx_HAL_Driver/Src/stm32f3xx_hal_tim.c ****   
3460:Drivers/STM32F3xx_HAL_Driver/Src/stm32f3xx_hal_tim.c ****   /* Abort the DMA transfer (at least disable the DMA channel) */
3461:Drivers/STM32F3xx_HAL_Driver/Src/stm32f3xx_hal_tim.c ****   switch(BurstRequestSrc)
 7709              		.loc 1 3461 0
 7710 000a 3B68     		ldr	r3, [r7]
ARM GAS  /tmp/ccZyKULX.s 			page 196


 7711 000c B3F5006F 		cmp	r3, #2048
 7712 0010 28D0     		beq	.L458
 7713 0012 B3F5006F 		cmp	r3, #2048
 7714 0016 09D8     		bhi	.L459
 7715 0018 B3F5007F 		cmp	r3, #512
 7716 001c 16D0     		beq	.L460
 7717 001e B3F5806F 		cmp	r3, #1024
 7718 0022 19D0     		beq	.L461
 7719 0024 B3F5807F 		cmp	r3, #256
 7720 0028 0AD0     		beq	.L462
3462:Drivers/STM32F3xx_HAL_Driver/Src/stm32f3xx_hal_tim.c ****   {
3463:Drivers/STM32F3xx_HAL_Driver/Src/stm32f3xx_hal_tim.c ****     case TIM_DMA_UPDATE:
3464:Drivers/STM32F3xx_HAL_Driver/Src/stm32f3xx_hal_tim.c ****     {  
3465:Drivers/STM32F3xx_HAL_Driver/Src/stm32f3xx_hal_tim.c ****       HAL_DMA_Abort(htim->hdma[TIM_DMA_ID_UPDATE]); 
3466:Drivers/STM32F3xx_HAL_Driver/Src/stm32f3xx_hal_tim.c ****     }
3467:Drivers/STM32F3xx_HAL_Driver/Src/stm32f3xx_hal_tim.c ****     break;
3468:Drivers/STM32F3xx_HAL_Driver/Src/stm32f3xx_hal_tim.c ****     case TIM_DMA_CC1:
3469:Drivers/STM32F3xx_HAL_Driver/Src/stm32f3xx_hal_tim.c ****     {  
3470:Drivers/STM32F3xx_HAL_Driver/Src/stm32f3xx_hal_tim.c ****       HAL_DMA_Abort(htim->hdma[TIM_DMA_ID_CC1]);     
3471:Drivers/STM32F3xx_HAL_Driver/Src/stm32f3xx_hal_tim.c ****     }
3472:Drivers/STM32F3xx_HAL_Driver/Src/stm32f3xx_hal_tim.c ****     break;
3473:Drivers/STM32F3xx_HAL_Driver/Src/stm32f3xx_hal_tim.c ****     case TIM_DMA_CC2:
3474:Drivers/STM32F3xx_HAL_Driver/Src/stm32f3xx_hal_tim.c ****     {  
3475:Drivers/STM32F3xx_HAL_Driver/Src/stm32f3xx_hal_tim.c ****       HAL_DMA_Abort(htim->hdma[TIM_DMA_ID_CC2]);     
3476:Drivers/STM32F3xx_HAL_Driver/Src/stm32f3xx_hal_tim.c ****     }
3477:Drivers/STM32F3xx_HAL_Driver/Src/stm32f3xx_hal_tim.c ****     break;
3478:Drivers/STM32F3xx_HAL_Driver/Src/stm32f3xx_hal_tim.c ****     case TIM_DMA_CC3:
3479:Drivers/STM32F3xx_HAL_Driver/Src/stm32f3xx_hal_tim.c ****     {  
3480:Drivers/STM32F3xx_HAL_Driver/Src/stm32f3xx_hal_tim.c ****       HAL_DMA_Abort(htim->hdma[TIM_DMA_ID_CC3]);     
3481:Drivers/STM32F3xx_HAL_Driver/Src/stm32f3xx_hal_tim.c ****     }
3482:Drivers/STM32F3xx_HAL_Driver/Src/stm32f3xx_hal_tim.c ****     break;
3483:Drivers/STM32F3xx_HAL_Driver/Src/stm32f3xx_hal_tim.c ****     case TIM_DMA_CC4:
3484:Drivers/STM32F3xx_HAL_Driver/Src/stm32f3xx_hal_tim.c ****     {  
3485:Drivers/STM32F3xx_HAL_Driver/Src/stm32f3xx_hal_tim.c ****       HAL_DMA_Abort(htim->hdma[TIM_DMA_ID_CC4]);     
3486:Drivers/STM32F3xx_HAL_Driver/Src/stm32f3xx_hal_tim.c ****     }
3487:Drivers/STM32F3xx_HAL_Driver/Src/stm32f3xx_hal_tim.c ****     break;
3488:Drivers/STM32F3xx_HAL_Driver/Src/stm32f3xx_hal_tim.c ****     case TIM_DMA_COM:
3489:Drivers/STM32F3xx_HAL_Driver/Src/stm32f3xx_hal_tim.c ****     {  
3490:Drivers/STM32F3xx_HAL_Driver/Src/stm32f3xx_hal_tim.c ****       HAL_DMA_Abort(htim->hdma[TIM_DMA_ID_COMMUTATION]);     
3491:Drivers/STM32F3xx_HAL_Driver/Src/stm32f3xx_hal_tim.c ****     }
3492:Drivers/STM32F3xx_HAL_Driver/Src/stm32f3xx_hal_tim.c ****     break;
3493:Drivers/STM32F3xx_HAL_Driver/Src/stm32f3xx_hal_tim.c ****     case TIM_DMA_TRIGGER:
3494:Drivers/STM32F3xx_HAL_Driver/Src/stm32f3xx_hal_tim.c ****     {  
3495:Drivers/STM32F3xx_HAL_Driver/Src/stm32f3xx_hal_tim.c ****       HAL_DMA_Abort(htim->hdma[TIM_DMA_ID_TRIGGER]);     
3496:Drivers/STM32F3xx_HAL_Driver/Src/stm32f3xx_hal_tim.c ****     }
3497:Drivers/STM32F3xx_HAL_Driver/Src/stm32f3xx_hal_tim.c ****     break;
3498:Drivers/STM32F3xx_HAL_Driver/Src/stm32f3xx_hal_tim.c ****     default:
3499:Drivers/STM32F3xx_HAL_Driver/Src/stm32f3xx_hal_tim.c ****     break;  
 7721              		.loc 1 3499 0
 7722 002a 33E0     		b	.L466
 7723              	.L459:
3461:Drivers/STM32F3xx_HAL_Driver/Src/stm32f3xx_hal_tim.c ****   {
 7724              		.loc 1 3461 0
 7725 002c B3F5005F 		cmp	r3, #8192
 7726 0030 24D0     		beq	.L463
 7727 0032 B3F5804F 		cmp	r3, #16384
 7728 0036 27D0     		beq	.L464
ARM GAS  /tmp/ccZyKULX.s 			page 197


 7729 0038 B3F5805F 		cmp	r3, #4096
 7730 003c 18D0     		beq	.L465
 7731              		.loc 1 3499 0
 7732 003e 29E0     		b	.L466
 7733              	.L462:
3465:Drivers/STM32F3xx_HAL_Driver/Src/stm32f3xx_hal_tim.c ****     }
 7734              		.loc 1 3465 0
 7735 0040 7B68     		ldr	r3, [r7, #4]
 7736 0042 DB69     		ldr	r3, [r3, #28]
 7737 0044 1846     		mov	r0, r3
 7738 0046 FFF7FEFF 		bl	HAL_DMA_Abort
3467:Drivers/STM32F3xx_HAL_Driver/Src/stm32f3xx_hal_tim.c ****     case TIM_DMA_CC1:
 7739              		.loc 1 3467 0
 7740 004a 23E0     		b	.L466
 7741              	.L460:
3470:Drivers/STM32F3xx_HAL_Driver/Src/stm32f3xx_hal_tim.c ****     }
 7742              		.loc 1 3470 0
 7743 004c 7B68     		ldr	r3, [r7, #4]
 7744 004e 1B6A     		ldr	r3, [r3, #32]
 7745 0050 1846     		mov	r0, r3
 7746 0052 FFF7FEFF 		bl	HAL_DMA_Abort
3472:Drivers/STM32F3xx_HAL_Driver/Src/stm32f3xx_hal_tim.c ****     case TIM_DMA_CC2:
 7747              		.loc 1 3472 0
 7748 0056 1DE0     		b	.L466
 7749              	.L461:
3475:Drivers/STM32F3xx_HAL_Driver/Src/stm32f3xx_hal_tim.c ****     }
 7750              		.loc 1 3475 0
 7751 0058 7B68     		ldr	r3, [r7, #4]
 7752 005a 5B6A     		ldr	r3, [r3, #36]
 7753 005c 1846     		mov	r0, r3
 7754 005e FFF7FEFF 		bl	HAL_DMA_Abort
3477:Drivers/STM32F3xx_HAL_Driver/Src/stm32f3xx_hal_tim.c ****     case TIM_DMA_CC3:
 7755              		.loc 1 3477 0
 7756 0062 17E0     		b	.L466
 7757              	.L458:
3480:Drivers/STM32F3xx_HAL_Driver/Src/stm32f3xx_hal_tim.c ****     }
 7758              		.loc 1 3480 0
 7759 0064 7B68     		ldr	r3, [r7, #4]
 7760 0066 9B6A     		ldr	r3, [r3, #40]
 7761 0068 1846     		mov	r0, r3
 7762 006a FFF7FEFF 		bl	HAL_DMA_Abort
3482:Drivers/STM32F3xx_HAL_Driver/Src/stm32f3xx_hal_tim.c ****     case TIM_DMA_CC4:
 7763              		.loc 1 3482 0
 7764 006e 11E0     		b	.L466
 7765              	.L465:
3485:Drivers/STM32F3xx_HAL_Driver/Src/stm32f3xx_hal_tim.c ****     }
 7766              		.loc 1 3485 0
 7767 0070 7B68     		ldr	r3, [r7, #4]
 7768 0072 DB6A     		ldr	r3, [r3, #44]
 7769 0074 1846     		mov	r0, r3
 7770 0076 FFF7FEFF 		bl	HAL_DMA_Abort
3487:Drivers/STM32F3xx_HAL_Driver/Src/stm32f3xx_hal_tim.c ****     case TIM_DMA_COM:
 7771              		.loc 1 3487 0
 7772 007a 0BE0     		b	.L466
 7773              	.L463:
3490:Drivers/STM32F3xx_HAL_Driver/Src/stm32f3xx_hal_tim.c ****     }
 7774              		.loc 1 3490 0
ARM GAS  /tmp/ccZyKULX.s 			page 198


 7775 007c 7B68     		ldr	r3, [r7, #4]
 7776 007e 1B6B     		ldr	r3, [r3, #48]
 7777 0080 1846     		mov	r0, r3
 7778 0082 FFF7FEFF 		bl	HAL_DMA_Abort
3492:Drivers/STM32F3xx_HAL_Driver/Src/stm32f3xx_hal_tim.c ****     case TIM_DMA_TRIGGER:
 7779              		.loc 1 3492 0
 7780 0086 05E0     		b	.L466
 7781              	.L464:
3495:Drivers/STM32F3xx_HAL_Driver/Src/stm32f3xx_hal_tim.c ****     }
 7782              		.loc 1 3495 0
 7783 0088 7B68     		ldr	r3, [r7, #4]
 7784 008a 5B6B     		ldr	r3, [r3, #52]
 7785 008c 1846     		mov	r0, r3
 7786 008e FFF7FEFF 		bl	HAL_DMA_Abort
3497:Drivers/STM32F3xx_HAL_Driver/Src/stm32f3xx_hal_tim.c ****     default:
 7787              		.loc 1 3497 0
 7788 0092 00BF     		nop
 7789              	.L466:
3500:Drivers/STM32F3xx_HAL_Driver/Src/stm32f3xx_hal_tim.c ****   }
3501:Drivers/STM32F3xx_HAL_Driver/Src/stm32f3xx_hal_tim.c ****   
3502:Drivers/STM32F3xx_HAL_Driver/Src/stm32f3xx_hal_tim.c ****   /* Disable the TIM Update DMA request */
3503:Drivers/STM32F3xx_HAL_Driver/Src/stm32f3xx_hal_tim.c ****   __HAL_TIM_DISABLE_DMA(htim, BurstRequestSrc);
 7790              		.loc 1 3503 0
 7791 0094 7B68     		ldr	r3, [r7, #4]
 7792 0096 1B68     		ldr	r3, [r3]
 7793 0098 7A68     		ldr	r2, [r7, #4]
 7794 009a 1268     		ldr	r2, [r2]
 7795 009c D168     		ldr	r1, [r2, #12]
 7796 009e 3A68     		ldr	r2, [r7]
 7797 00a0 D243     		mvns	r2, r2
 7798 00a2 0A40     		ands	r2, r2, r1
 7799 00a4 DA60     		str	r2, [r3, #12]
3504:Drivers/STM32F3xx_HAL_Driver/Src/stm32f3xx_hal_tim.c ****       
3505:Drivers/STM32F3xx_HAL_Driver/Src/stm32f3xx_hal_tim.c ****   /* Return function status */
3506:Drivers/STM32F3xx_HAL_Driver/Src/stm32f3xx_hal_tim.c ****   return HAL_OK;  
 7800              		.loc 1 3506 0
 7801 00a6 0023     		movs	r3, #0
3507:Drivers/STM32F3xx_HAL_Driver/Src/stm32f3xx_hal_tim.c **** }
 7802              		.loc 1 3507 0
 7803 00a8 1846     		mov	r0, r3
 7804 00aa 0837     		adds	r7, r7, #8
 7805 00ac BD46     		mov	sp, r7
 7806              		@ sp needed
 7807 00ae 80BD     		pop	{r7, pc}
 7808              		.cfi_endproc
 7809              	.LFE189:
 7811              		.section	.text.HAL_TIM_DMABurst_ReadStart,"ax",%progbits
 7812              		.align	2
 7813              		.global	HAL_TIM_DMABurst_ReadStart
 7814              		.thumb
 7815              		.thumb_func
 7817              	HAL_TIM_DMABurst_ReadStart:
 7818              	.LFB190:
3508:Drivers/STM32F3xx_HAL_Driver/Src/stm32f3xx_hal_tim.c **** 
3509:Drivers/STM32F3xx_HAL_Driver/Src/stm32f3xx_hal_tim.c **** /**
3510:Drivers/STM32F3xx_HAL_Driver/Src/stm32f3xx_hal_tim.c ****   * @brief  Configure the DMA Burst to transfer Data from the TIM peripheral to the memory 
3511:Drivers/STM32F3xx_HAL_Driver/Src/stm32f3xx_hal_tim.c ****   * @param  htim: TIM handle
ARM GAS  /tmp/ccZyKULX.s 			page 199


3512:Drivers/STM32F3xx_HAL_Driver/Src/stm32f3xx_hal_tim.c ****   * @param  BurstBaseAddress: TIM Base address from where the DMA will starts the Data read
3513:Drivers/STM32F3xx_HAL_Driver/Src/stm32f3xx_hal_tim.c ****   *         This parameter can be one of the following values:
3514:Drivers/STM32F3xx_HAL_Driver/Src/stm32f3xx_hal_tim.c ****   *            @arg TIM_DMABASE_CR1  
3515:Drivers/STM32F3xx_HAL_Driver/Src/stm32f3xx_hal_tim.c ****   *            @arg TIM_DMABASE_CR2
3516:Drivers/STM32F3xx_HAL_Driver/Src/stm32f3xx_hal_tim.c ****   *            @arg TIM_DMABASE_SMCR
3517:Drivers/STM32F3xx_HAL_Driver/Src/stm32f3xx_hal_tim.c ****   *            @arg TIM_DMABASE_DIER
3518:Drivers/STM32F3xx_HAL_Driver/Src/stm32f3xx_hal_tim.c ****   *            @arg TIM_DMABASE_SR
3519:Drivers/STM32F3xx_HAL_Driver/Src/stm32f3xx_hal_tim.c ****   *            @arg TIM_DMABASE_EGR
3520:Drivers/STM32F3xx_HAL_Driver/Src/stm32f3xx_hal_tim.c ****   *            @arg TIM_DMABASE_CCMR1
3521:Drivers/STM32F3xx_HAL_Driver/Src/stm32f3xx_hal_tim.c ****   *            @arg TIM_DMABASE_CCMR2
3522:Drivers/STM32F3xx_HAL_Driver/Src/stm32f3xx_hal_tim.c ****   *            @arg TIM_DMABASE_CCER
3523:Drivers/STM32F3xx_HAL_Driver/Src/stm32f3xx_hal_tim.c ****   *            @arg TIM_DMABASE_CNT   
3524:Drivers/STM32F3xx_HAL_Driver/Src/stm32f3xx_hal_tim.c ****   *            @arg TIM_DMABASE_PSC   
3525:Drivers/STM32F3xx_HAL_Driver/Src/stm32f3xx_hal_tim.c ****   *            @arg TIM_DMABASE_ARR
3526:Drivers/STM32F3xx_HAL_Driver/Src/stm32f3xx_hal_tim.c ****   *            @arg TIM_DMABASE_RCR
3527:Drivers/STM32F3xx_HAL_Driver/Src/stm32f3xx_hal_tim.c ****   *            @arg TIM_DMABASE_CCR1
3528:Drivers/STM32F3xx_HAL_Driver/Src/stm32f3xx_hal_tim.c ****   *            @arg TIM_DMABASE_CCR2
3529:Drivers/STM32F3xx_HAL_Driver/Src/stm32f3xx_hal_tim.c ****   *            @arg TIM_DMABASE_CCR3  
3530:Drivers/STM32F3xx_HAL_Driver/Src/stm32f3xx_hal_tim.c ****   *            @arg TIM_DMABASE_CCR4
3531:Drivers/STM32F3xx_HAL_Driver/Src/stm32f3xx_hal_tim.c ****   *            @arg TIM_DMABASE_BDTR
3532:Drivers/STM32F3xx_HAL_Driver/Src/stm32f3xx_hal_tim.c ****   *            @arg TIM_DMABASE_DCR
3533:Drivers/STM32F3xx_HAL_Driver/Src/stm32f3xx_hal_tim.c ****   * @param  BurstRequestSrc: TIM DMA Request sources
3534:Drivers/STM32F3xx_HAL_Driver/Src/stm32f3xx_hal_tim.c ****   *         This parameter can be one of the following values:
3535:Drivers/STM32F3xx_HAL_Driver/Src/stm32f3xx_hal_tim.c ****   *            @arg TIM_DMA_UPDATE: TIM update Interrupt source
3536:Drivers/STM32F3xx_HAL_Driver/Src/stm32f3xx_hal_tim.c ****   *            @arg TIM_DMA_CC1: TIM Capture Compare 1 DMA source
3537:Drivers/STM32F3xx_HAL_Driver/Src/stm32f3xx_hal_tim.c ****   *            @arg TIM_DMA_CC2: TIM Capture Compare 2 DMA source
3538:Drivers/STM32F3xx_HAL_Driver/Src/stm32f3xx_hal_tim.c ****   *            @arg TIM_DMA_CC3: TIM Capture Compare 3 DMA source
3539:Drivers/STM32F3xx_HAL_Driver/Src/stm32f3xx_hal_tim.c ****   *            @arg TIM_DMA_CC4: TIM Capture Compare 4 DMA source
3540:Drivers/STM32F3xx_HAL_Driver/Src/stm32f3xx_hal_tim.c ****   *            @arg TIM_DMA_COM: TIM Commutation DMA source
3541:Drivers/STM32F3xx_HAL_Driver/Src/stm32f3xx_hal_tim.c ****   *            @arg TIM_DMA_TRIGGER: TIM Trigger DMA source
3542:Drivers/STM32F3xx_HAL_Driver/Src/stm32f3xx_hal_tim.c ****   * @param  BurstBuffer: The Buffer address.
3543:Drivers/STM32F3xx_HAL_Driver/Src/stm32f3xx_hal_tim.c ****   * @param  BurstLength: DMA Burst length. This parameter can be one value
3544:Drivers/STM32F3xx_HAL_Driver/Src/stm32f3xx_hal_tim.c ****   *         between: TIM_DMABURSTLENGTH_1TRANSFER and TIM_DMABURSTLENGTH_18TRANSFERS.
3545:Drivers/STM32F3xx_HAL_Driver/Src/stm32f3xx_hal_tim.c ****   * @retval HAL status
3546:Drivers/STM32F3xx_HAL_Driver/Src/stm32f3xx_hal_tim.c ****   */
3547:Drivers/STM32F3xx_HAL_Driver/Src/stm32f3xx_hal_tim.c **** HAL_StatusTypeDef HAL_TIM_DMABurst_ReadStart(TIM_HandleTypeDef *htim, uint32_t BurstBaseAddress, ui
3548:Drivers/STM32F3xx_HAL_Driver/Src/stm32f3xx_hal_tim.c ****                                              uint32_t  *BurstBuffer, uint32_t  BurstLength)
3549:Drivers/STM32F3xx_HAL_Driver/Src/stm32f3xx_hal_tim.c **** {
 7819              		.loc 1 3549 0
 7820              		.cfi_startproc
 7821              		@ args = 4, pretend = 0, frame = 16
 7822              		@ frame_needed = 1, uses_anonymous_args = 0
 7823 0000 80B5     		push	{r7, lr}
 7824              	.LCFI195:
 7825              		.cfi_def_cfa_offset 8
 7826              		.cfi_offset 7, -8
 7827              		.cfi_offset 14, -4
 7828 0002 84B0     		sub	sp, sp, #16
 7829              	.LCFI196:
 7830              		.cfi_def_cfa_offset 24
 7831 0004 00AF     		add	r7, sp, #0
 7832              	.LCFI197:
 7833              		.cfi_def_cfa_register 7
 7834 0006 F860     		str	r0, [r7, #12]
 7835 0008 B960     		str	r1, [r7, #8]
 7836 000a 7A60     		str	r2, [r7, #4]
 7837 000c 3B60     		str	r3, [r7]
ARM GAS  /tmp/ccZyKULX.s 			page 200


3550:Drivers/STM32F3xx_HAL_Driver/Src/stm32f3xx_hal_tim.c ****   /* Check the parameters */
3551:Drivers/STM32F3xx_HAL_Driver/Src/stm32f3xx_hal_tim.c ****   assert_param(IS_TIM_DMABURST_INSTANCE(htim->Instance));
3552:Drivers/STM32F3xx_HAL_Driver/Src/stm32f3xx_hal_tim.c ****   assert_param(IS_TIM_DMA_BASE(BurstBaseAddress));
3553:Drivers/STM32F3xx_HAL_Driver/Src/stm32f3xx_hal_tim.c ****   assert_param(IS_TIM_DMA_SOURCE(BurstRequestSrc));
3554:Drivers/STM32F3xx_HAL_Driver/Src/stm32f3xx_hal_tim.c ****   assert_param(IS_TIM_DMA_LENGTH(BurstLength));
3555:Drivers/STM32F3xx_HAL_Driver/Src/stm32f3xx_hal_tim.c ****   
3556:Drivers/STM32F3xx_HAL_Driver/Src/stm32f3xx_hal_tim.c ****   if((htim->State == HAL_TIM_STATE_BUSY))
 7838              		.loc 1 3556 0
 7839 000e FB68     		ldr	r3, [r7, #12]
 7840 0010 93F83930 		ldrb	r3, [r3, #57]
 7841 0014 DBB2     		uxtb	r3, r3
 7842 0016 022B     		cmp	r3, #2
 7843 0018 01D1     		bne	.L469
3557:Drivers/STM32F3xx_HAL_Driver/Src/stm32f3xx_hal_tim.c ****   {
3558:Drivers/STM32F3xx_HAL_Driver/Src/stm32f3xx_hal_tim.c ****      return HAL_BUSY;
 7844              		.loc 1 3558 0
 7845 001a 0223     		movs	r3, #2
 7846 001c D3E0     		b	.L470
 7847              	.L469:
3559:Drivers/STM32F3xx_HAL_Driver/Src/stm32f3xx_hal_tim.c ****   }
3560:Drivers/STM32F3xx_HAL_Driver/Src/stm32f3xx_hal_tim.c ****   else if((htim->State == HAL_TIM_STATE_READY))
 7848              		.loc 1 3560 0
 7849 001e FB68     		ldr	r3, [r7, #12]
 7850 0020 93F83930 		ldrb	r3, [r3, #57]
 7851 0024 DBB2     		uxtb	r3, r3
 7852 0026 012B     		cmp	r3, #1
 7853 0028 0BD1     		bne	.L471
3561:Drivers/STM32F3xx_HAL_Driver/Src/stm32f3xx_hal_tim.c ****   {
3562:Drivers/STM32F3xx_HAL_Driver/Src/stm32f3xx_hal_tim.c ****     if((BurstBuffer == 0 ) && (BurstLength > 0)) 
 7854              		.loc 1 3562 0
 7855 002a 3B68     		ldr	r3, [r7]
 7856 002c 002B     		cmp	r3, #0
 7857 002e 04D1     		bne	.L472
 7858              		.loc 1 3562 0 is_stmt 0 discriminator 1
 7859 0030 BB69     		ldr	r3, [r7, #24]
 7860 0032 002B     		cmp	r3, #0
 7861 0034 01D0     		beq	.L472
3563:Drivers/STM32F3xx_HAL_Driver/Src/stm32f3xx_hal_tim.c ****     {
3564:Drivers/STM32F3xx_HAL_Driver/Src/stm32f3xx_hal_tim.c ****       return HAL_ERROR;                                    
 7862              		.loc 1 3564 0 is_stmt 1
 7863 0036 0123     		movs	r3, #1
 7864 0038 C5E0     		b	.L470
 7865              	.L472:
3565:Drivers/STM32F3xx_HAL_Driver/Src/stm32f3xx_hal_tim.c ****     }
3566:Drivers/STM32F3xx_HAL_Driver/Src/stm32f3xx_hal_tim.c ****     else
3567:Drivers/STM32F3xx_HAL_Driver/Src/stm32f3xx_hal_tim.c ****     {
3568:Drivers/STM32F3xx_HAL_Driver/Src/stm32f3xx_hal_tim.c ****       htim->State = HAL_TIM_STATE_BUSY;
 7866              		.loc 1 3568 0
 7867 003a FB68     		ldr	r3, [r7, #12]
 7868 003c 0222     		movs	r2, #2
 7869 003e 83F83920 		strb	r2, [r3, #57]
 7870              	.L471:
3569:Drivers/STM32F3xx_HAL_Driver/Src/stm32f3xx_hal_tim.c ****     }
3570:Drivers/STM32F3xx_HAL_Driver/Src/stm32f3xx_hal_tim.c ****   }  
3571:Drivers/STM32F3xx_HAL_Driver/Src/stm32f3xx_hal_tim.c ****   switch(BurstRequestSrc)
 7871              		.loc 1 3571 0
 7872 0042 7B68     		ldr	r3, [r7, #4]
ARM GAS  /tmp/ccZyKULX.s 			page 201


 7873 0044 B3F5006F 		cmp	r3, #2048
 7874 0048 56D0     		beq	.L474
 7875 004a B3F5006F 		cmp	r3, #2048
 7876 004e 09D8     		bhi	.L475
 7877 0050 B3F5007F 		cmp	r3, #512
 7878 0054 26D0     		beq	.L476
 7879 0056 B3F5806F 		cmp	r3, #1024
 7880 005a 38D0     		beq	.L477
 7881 005c B3F5807F 		cmp	r3, #256
 7882 0060 0BD0     		beq	.L478
3572:Drivers/STM32F3xx_HAL_Driver/Src/stm32f3xx_hal_tim.c ****   {
3573:Drivers/STM32F3xx_HAL_Driver/Src/stm32f3xx_hal_tim.c ****     case TIM_DMA_UPDATE:
3574:Drivers/STM32F3xx_HAL_Driver/Src/stm32f3xx_hal_tim.c ****     {  
3575:Drivers/STM32F3xx_HAL_Driver/Src/stm32f3xx_hal_tim.c ****       /* Set the DMA Period elapsed callback */
3576:Drivers/STM32F3xx_HAL_Driver/Src/stm32f3xx_hal_tim.c ****       htim->hdma[TIM_DMA_ID_UPDATE]->XferCpltCallback = TIM_DMAPeriodElapsedCplt;
3577:Drivers/STM32F3xx_HAL_Driver/Src/stm32f3xx_hal_tim.c ****      
3578:Drivers/STM32F3xx_HAL_Driver/Src/stm32f3xx_hal_tim.c ****       /* Set the DMA error callback */
3579:Drivers/STM32F3xx_HAL_Driver/Src/stm32f3xx_hal_tim.c ****       htim->hdma[TIM_DMA_ID_UPDATE]->XferErrorCallback = TIM_DMAError ;
3580:Drivers/STM32F3xx_HAL_Driver/Src/stm32f3xx_hal_tim.c ****   
3581:Drivers/STM32F3xx_HAL_Driver/Src/stm32f3xx_hal_tim.c ****       /* Enable the DMA channel */
3582:Drivers/STM32F3xx_HAL_Driver/Src/stm32f3xx_hal_tim.c ****        HAL_DMA_Start_IT(htim->hdma[TIM_DMA_ID_UPDATE], (uint32_t)&htim->Instance->DMAR, (uint32_t)B
3583:Drivers/STM32F3xx_HAL_Driver/Src/stm32f3xx_hal_tim.c ****     }
3584:Drivers/STM32F3xx_HAL_Driver/Src/stm32f3xx_hal_tim.c ****     break;
3585:Drivers/STM32F3xx_HAL_Driver/Src/stm32f3xx_hal_tim.c ****     case TIM_DMA_CC1:
3586:Drivers/STM32F3xx_HAL_Driver/Src/stm32f3xx_hal_tim.c ****     {  
3587:Drivers/STM32F3xx_HAL_Driver/Src/stm32f3xx_hal_tim.c ****       /* Set the DMA Period elapsed callback */
3588:Drivers/STM32F3xx_HAL_Driver/Src/stm32f3xx_hal_tim.c ****       htim->hdma[TIM_DMA_ID_CC1]->XferCpltCallback =  TIM_DMACaptureCplt;
3589:Drivers/STM32F3xx_HAL_Driver/Src/stm32f3xx_hal_tim.c ****      
3590:Drivers/STM32F3xx_HAL_Driver/Src/stm32f3xx_hal_tim.c ****       /* Set the DMA error callback */
3591:Drivers/STM32F3xx_HAL_Driver/Src/stm32f3xx_hal_tim.c ****       htim->hdma[TIM_DMA_ID_CC1]->XferErrorCallback = TIM_DMAError ;
3592:Drivers/STM32F3xx_HAL_Driver/Src/stm32f3xx_hal_tim.c ****   
3593:Drivers/STM32F3xx_HAL_Driver/Src/stm32f3xx_hal_tim.c ****       /* Enable the DMA channel */
3594:Drivers/STM32F3xx_HAL_Driver/Src/stm32f3xx_hal_tim.c ****       HAL_DMA_Start_IT(htim->hdma[TIM_DMA_ID_CC1], (uint32_t)&htim->Instance->DMAR, (uint32_t)Burst
3595:Drivers/STM32F3xx_HAL_Driver/Src/stm32f3xx_hal_tim.c ****     }
3596:Drivers/STM32F3xx_HAL_Driver/Src/stm32f3xx_hal_tim.c ****     break;
3597:Drivers/STM32F3xx_HAL_Driver/Src/stm32f3xx_hal_tim.c ****     case TIM_DMA_CC2:
3598:Drivers/STM32F3xx_HAL_Driver/Src/stm32f3xx_hal_tim.c ****     {  
3599:Drivers/STM32F3xx_HAL_Driver/Src/stm32f3xx_hal_tim.c ****       /* Set the DMA Period elapsed callback */
3600:Drivers/STM32F3xx_HAL_Driver/Src/stm32f3xx_hal_tim.c ****       htim->hdma[TIM_DMA_ID_CC2]->XferCpltCallback =  TIM_DMACaptureCplt;
3601:Drivers/STM32F3xx_HAL_Driver/Src/stm32f3xx_hal_tim.c ****      
3602:Drivers/STM32F3xx_HAL_Driver/Src/stm32f3xx_hal_tim.c ****       /* Set the DMA error callback */
3603:Drivers/STM32F3xx_HAL_Driver/Src/stm32f3xx_hal_tim.c ****       htim->hdma[TIM_DMA_ID_CC2]->XferErrorCallback = TIM_DMAError ;
3604:Drivers/STM32F3xx_HAL_Driver/Src/stm32f3xx_hal_tim.c ****   
3605:Drivers/STM32F3xx_HAL_Driver/Src/stm32f3xx_hal_tim.c ****       /* Enable the DMA channel */
3606:Drivers/STM32F3xx_HAL_Driver/Src/stm32f3xx_hal_tim.c ****       HAL_DMA_Start_IT(htim->hdma[TIM_DMA_ID_CC2], (uint32_t)&htim->Instance->DMAR, (uint32_t)Burst
3607:Drivers/STM32F3xx_HAL_Driver/Src/stm32f3xx_hal_tim.c ****     }
3608:Drivers/STM32F3xx_HAL_Driver/Src/stm32f3xx_hal_tim.c ****     break;
3609:Drivers/STM32F3xx_HAL_Driver/Src/stm32f3xx_hal_tim.c ****     case TIM_DMA_CC3:
3610:Drivers/STM32F3xx_HAL_Driver/Src/stm32f3xx_hal_tim.c ****     {  
3611:Drivers/STM32F3xx_HAL_Driver/Src/stm32f3xx_hal_tim.c ****       /* Set the DMA Period elapsed callback */
3612:Drivers/STM32F3xx_HAL_Driver/Src/stm32f3xx_hal_tim.c ****       htim->hdma[TIM_DMA_ID_CC3]->XferCpltCallback =  TIM_DMACaptureCplt;
3613:Drivers/STM32F3xx_HAL_Driver/Src/stm32f3xx_hal_tim.c ****      
3614:Drivers/STM32F3xx_HAL_Driver/Src/stm32f3xx_hal_tim.c ****       /* Set the DMA error callback */
3615:Drivers/STM32F3xx_HAL_Driver/Src/stm32f3xx_hal_tim.c ****       htim->hdma[TIM_DMA_ID_CC3]->XferErrorCallback = TIM_DMAError ;
3616:Drivers/STM32F3xx_HAL_Driver/Src/stm32f3xx_hal_tim.c ****   
3617:Drivers/STM32F3xx_HAL_Driver/Src/stm32f3xx_hal_tim.c ****       /* Enable the DMA channel */
3618:Drivers/STM32F3xx_HAL_Driver/Src/stm32f3xx_hal_tim.c ****       HAL_DMA_Start_IT(htim->hdma[TIM_DMA_ID_CC3], (uint32_t)&htim->Instance->DMAR, (uint32_t)Burst
ARM GAS  /tmp/ccZyKULX.s 			page 202


3619:Drivers/STM32F3xx_HAL_Driver/Src/stm32f3xx_hal_tim.c ****     }
3620:Drivers/STM32F3xx_HAL_Driver/Src/stm32f3xx_hal_tim.c ****     break;
3621:Drivers/STM32F3xx_HAL_Driver/Src/stm32f3xx_hal_tim.c ****     case TIM_DMA_CC4:
3622:Drivers/STM32F3xx_HAL_Driver/Src/stm32f3xx_hal_tim.c ****     {  
3623:Drivers/STM32F3xx_HAL_Driver/Src/stm32f3xx_hal_tim.c ****       /* Set the DMA Period elapsed callback */
3624:Drivers/STM32F3xx_HAL_Driver/Src/stm32f3xx_hal_tim.c ****       htim->hdma[TIM_DMA_ID_CC4]->XferCpltCallback =  TIM_DMACaptureCplt;
3625:Drivers/STM32F3xx_HAL_Driver/Src/stm32f3xx_hal_tim.c ****      
3626:Drivers/STM32F3xx_HAL_Driver/Src/stm32f3xx_hal_tim.c ****       /* Set the DMA error callback */
3627:Drivers/STM32F3xx_HAL_Driver/Src/stm32f3xx_hal_tim.c ****       htim->hdma[TIM_DMA_ID_CC4]->XferErrorCallback = TIM_DMAError ;
3628:Drivers/STM32F3xx_HAL_Driver/Src/stm32f3xx_hal_tim.c ****   
3629:Drivers/STM32F3xx_HAL_Driver/Src/stm32f3xx_hal_tim.c ****       /* Enable the DMA channel */
3630:Drivers/STM32F3xx_HAL_Driver/Src/stm32f3xx_hal_tim.c ****       HAL_DMA_Start_IT(htim->hdma[TIM_DMA_ID_CC4], (uint32_t)&htim->Instance->DMAR, (uint32_t)Burst
3631:Drivers/STM32F3xx_HAL_Driver/Src/stm32f3xx_hal_tim.c ****     }
3632:Drivers/STM32F3xx_HAL_Driver/Src/stm32f3xx_hal_tim.c ****     break;
3633:Drivers/STM32F3xx_HAL_Driver/Src/stm32f3xx_hal_tim.c ****     case TIM_DMA_COM:
3634:Drivers/STM32F3xx_HAL_Driver/Src/stm32f3xx_hal_tim.c ****     {  
3635:Drivers/STM32F3xx_HAL_Driver/Src/stm32f3xx_hal_tim.c ****       /* Set the DMA Period elapsed callback */
3636:Drivers/STM32F3xx_HAL_Driver/Src/stm32f3xx_hal_tim.c ****       htim->hdma[TIM_DMA_ID_COMMUTATION]->XferCpltCallback =  TIMEx_DMACommutationCplt;
3637:Drivers/STM32F3xx_HAL_Driver/Src/stm32f3xx_hal_tim.c ****      
3638:Drivers/STM32F3xx_HAL_Driver/Src/stm32f3xx_hal_tim.c ****       /* Set the DMA error callback */
3639:Drivers/STM32F3xx_HAL_Driver/Src/stm32f3xx_hal_tim.c ****       htim->hdma[TIM_DMA_ID_COMMUTATION]->XferErrorCallback = TIM_DMAError ;
3640:Drivers/STM32F3xx_HAL_Driver/Src/stm32f3xx_hal_tim.c ****   
3641:Drivers/STM32F3xx_HAL_Driver/Src/stm32f3xx_hal_tim.c ****       /* Enable the DMA channel */
3642:Drivers/STM32F3xx_HAL_Driver/Src/stm32f3xx_hal_tim.c ****       HAL_DMA_Start_IT(htim->hdma[TIM_DMA_ID_COMMUTATION], (uint32_t)&htim->Instance->DMAR, (uint32
3643:Drivers/STM32F3xx_HAL_Driver/Src/stm32f3xx_hal_tim.c ****     }
3644:Drivers/STM32F3xx_HAL_Driver/Src/stm32f3xx_hal_tim.c ****     break;
3645:Drivers/STM32F3xx_HAL_Driver/Src/stm32f3xx_hal_tim.c ****     case TIM_DMA_TRIGGER:
3646:Drivers/STM32F3xx_HAL_Driver/Src/stm32f3xx_hal_tim.c ****     {  
3647:Drivers/STM32F3xx_HAL_Driver/Src/stm32f3xx_hal_tim.c ****       /* Set the DMA Period elapsed callback */
3648:Drivers/STM32F3xx_HAL_Driver/Src/stm32f3xx_hal_tim.c ****       htim->hdma[TIM_DMA_ID_TRIGGER]->XferCpltCallback = TIM_DMATriggerCplt;
3649:Drivers/STM32F3xx_HAL_Driver/Src/stm32f3xx_hal_tim.c ****      
3650:Drivers/STM32F3xx_HAL_Driver/Src/stm32f3xx_hal_tim.c ****       /* Set the DMA error callback */
3651:Drivers/STM32F3xx_HAL_Driver/Src/stm32f3xx_hal_tim.c ****       htim->hdma[TIM_DMA_ID_TRIGGER]->XferErrorCallback = TIM_DMAError ;
3652:Drivers/STM32F3xx_HAL_Driver/Src/stm32f3xx_hal_tim.c ****   
3653:Drivers/STM32F3xx_HAL_Driver/Src/stm32f3xx_hal_tim.c ****       /* Enable the DMA channel */
3654:Drivers/STM32F3xx_HAL_Driver/Src/stm32f3xx_hal_tim.c ****       HAL_DMA_Start_IT(htim->hdma[TIM_DMA_ID_TRIGGER], (uint32_t)&htim->Instance->DMAR, (uint32_t)B
3655:Drivers/STM32F3xx_HAL_Driver/Src/stm32f3xx_hal_tim.c ****     }
3656:Drivers/STM32F3xx_HAL_Driver/Src/stm32f3xx_hal_tim.c ****     break;
3657:Drivers/STM32F3xx_HAL_Driver/Src/stm32f3xx_hal_tim.c ****     default:
3658:Drivers/STM32F3xx_HAL_Driver/Src/stm32f3xx_hal_tim.c ****     break;  
 7883              		.loc 1 3658 0
 7884 0062 9DE0     		b	.L482
 7885              	.L475:
3571:Drivers/STM32F3xx_HAL_Driver/Src/stm32f3xx_hal_tim.c ****   {
 7886              		.loc 1 3571 0
 7887 0064 B3F5005F 		cmp	r3, #8192
 7888 0068 70D0     		beq	.L479
 7889 006a B3F5804F 		cmp	r3, #16384
 7890 006e 00F08280 		beq	.L480
 7891 0072 B3F5805F 		cmp	r3, #4096
 7892 0076 54D0     		beq	.L481
 7893              		.loc 1 3658 0
 7894 0078 92E0     		b	.L482
 7895              	.L478:
3576:Drivers/STM32F3xx_HAL_Driver/Src/stm32f3xx_hal_tim.c ****      
 7896              		.loc 1 3576 0
 7897 007a FB68     		ldr	r3, [r7, #12]
ARM GAS  /tmp/ccZyKULX.s 			page 203


 7898 007c DB69     		ldr	r3, [r3, #28]
 7899 007e 544A     		ldr	r2, .L483
 7900 0080 9A62     		str	r2, [r3, #40]
3579:Drivers/STM32F3xx_HAL_Driver/Src/stm32f3xx_hal_tim.c ****   
 7901              		.loc 1 3579 0
 7902 0082 FB68     		ldr	r3, [r7, #12]
 7903 0084 DB69     		ldr	r3, [r3, #28]
 7904 0086 534A     		ldr	r2, .L483+4
 7905 0088 1A63     		str	r2, [r3, #48]
3582:Drivers/STM32F3xx_HAL_Driver/Src/stm32f3xx_hal_tim.c ****     }
 7906              		.loc 1 3582 0
 7907 008a FB68     		ldr	r3, [r7, #12]
 7908 008c D869     		ldr	r0, [r3, #28]
 7909 008e FB68     		ldr	r3, [r7, #12]
 7910 0090 1B68     		ldr	r3, [r3]
 7911 0092 4C33     		adds	r3, r3, #76
 7912 0094 1946     		mov	r1, r3
 7913 0096 3A68     		ldr	r2, [r7]
 7914 0098 BB69     		ldr	r3, [r7, #24]
 7915 009a 1B0A     		lsrs	r3, r3, #8
 7916 009c 0133     		adds	r3, r3, #1
 7917 009e FFF7FEFF 		bl	HAL_DMA_Start_IT
3584:Drivers/STM32F3xx_HAL_Driver/Src/stm32f3xx_hal_tim.c ****     case TIM_DMA_CC1:
 7918              		.loc 1 3584 0
 7919 00a2 7DE0     		b	.L482
 7920              	.L476:
3588:Drivers/STM32F3xx_HAL_Driver/Src/stm32f3xx_hal_tim.c ****      
 7921              		.loc 1 3588 0
 7922 00a4 FB68     		ldr	r3, [r7, #12]
 7923 00a6 1B6A     		ldr	r3, [r3, #32]
 7924 00a8 4B4A     		ldr	r2, .L483+8
 7925 00aa 9A62     		str	r2, [r3, #40]
3591:Drivers/STM32F3xx_HAL_Driver/Src/stm32f3xx_hal_tim.c ****   
 7926              		.loc 1 3591 0
 7927 00ac FB68     		ldr	r3, [r7, #12]
 7928 00ae 1B6A     		ldr	r3, [r3, #32]
 7929 00b0 484A     		ldr	r2, .L483+4
 7930 00b2 1A63     		str	r2, [r3, #48]
3594:Drivers/STM32F3xx_HAL_Driver/Src/stm32f3xx_hal_tim.c ****     }
 7931              		.loc 1 3594 0
 7932 00b4 FB68     		ldr	r3, [r7, #12]
 7933 00b6 186A     		ldr	r0, [r3, #32]
 7934 00b8 FB68     		ldr	r3, [r7, #12]
 7935 00ba 1B68     		ldr	r3, [r3]
 7936 00bc 4C33     		adds	r3, r3, #76
 7937 00be 1946     		mov	r1, r3
 7938 00c0 3A68     		ldr	r2, [r7]
 7939 00c2 BB69     		ldr	r3, [r7, #24]
 7940 00c4 1B0A     		lsrs	r3, r3, #8
 7941 00c6 0133     		adds	r3, r3, #1
 7942 00c8 FFF7FEFF 		bl	HAL_DMA_Start_IT
3596:Drivers/STM32F3xx_HAL_Driver/Src/stm32f3xx_hal_tim.c ****     case TIM_DMA_CC2:
 7943              		.loc 1 3596 0
 7944 00cc 68E0     		b	.L482
 7945              	.L477:
3600:Drivers/STM32F3xx_HAL_Driver/Src/stm32f3xx_hal_tim.c ****      
 7946              		.loc 1 3600 0
ARM GAS  /tmp/ccZyKULX.s 			page 204


 7947 00ce FB68     		ldr	r3, [r7, #12]
 7948 00d0 5B6A     		ldr	r3, [r3, #36]
 7949 00d2 414A     		ldr	r2, .L483+8
 7950 00d4 9A62     		str	r2, [r3, #40]
3603:Drivers/STM32F3xx_HAL_Driver/Src/stm32f3xx_hal_tim.c ****   
 7951              		.loc 1 3603 0
 7952 00d6 FB68     		ldr	r3, [r7, #12]
 7953 00d8 5B6A     		ldr	r3, [r3, #36]
 7954 00da 3E4A     		ldr	r2, .L483+4
 7955 00dc 1A63     		str	r2, [r3, #48]
3606:Drivers/STM32F3xx_HAL_Driver/Src/stm32f3xx_hal_tim.c ****     }
 7956              		.loc 1 3606 0
 7957 00de FB68     		ldr	r3, [r7, #12]
 7958 00e0 586A     		ldr	r0, [r3, #36]
 7959 00e2 FB68     		ldr	r3, [r7, #12]
 7960 00e4 1B68     		ldr	r3, [r3]
 7961 00e6 4C33     		adds	r3, r3, #76
 7962 00e8 1946     		mov	r1, r3
 7963 00ea 3A68     		ldr	r2, [r7]
 7964 00ec BB69     		ldr	r3, [r7, #24]
 7965 00ee 1B0A     		lsrs	r3, r3, #8
 7966 00f0 0133     		adds	r3, r3, #1
 7967 00f2 FFF7FEFF 		bl	HAL_DMA_Start_IT
3608:Drivers/STM32F3xx_HAL_Driver/Src/stm32f3xx_hal_tim.c ****     case TIM_DMA_CC3:
 7968              		.loc 1 3608 0
 7969 00f6 53E0     		b	.L482
 7970              	.L474:
3612:Drivers/STM32F3xx_HAL_Driver/Src/stm32f3xx_hal_tim.c ****      
 7971              		.loc 1 3612 0
 7972 00f8 FB68     		ldr	r3, [r7, #12]
 7973 00fa 9B6A     		ldr	r3, [r3, #40]
 7974 00fc 364A     		ldr	r2, .L483+8
 7975 00fe 9A62     		str	r2, [r3, #40]
3615:Drivers/STM32F3xx_HAL_Driver/Src/stm32f3xx_hal_tim.c ****   
 7976              		.loc 1 3615 0
 7977 0100 FB68     		ldr	r3, [r7, #12]
 7978 0102 9B6A     		ldr	r3, [r3, #40]
 7979 0104 334A     		ldr	r2, .L483+4
 7980 0106 1A63     		str	r2, [r3, #48]
3618:Drivers/STM32F3xx_HAL_Driver/Src/stm32f3xx_hal_tim.c ****     }
 7981              		.loc 1 3618 0
 7982 0108 FB68     		ldr	r3, [r7, #12]
 7983 010a 986A     		ldr	r0, [r3, #40]
 7984 010c FB68     		ldr	r3, [r7, #12]
 7985 010e 1B68     		ldr	r3, [r3]
 7986 0110 4C33     		adds	r3, r3, #76
 7987 0112 1946     		mov	r1, r3
 7988 0114 3A68     		ldr	r2, [r7]
 7989 0116 BB69     		ldr	r3, [r7, #24]
 7990 0118 1B0A     		lsrs	r3, r3, #8
 7991 011a 0133     		adds	r3, r3, #1
 7992 011c FFF7FEFF 		bl	HAL_DMA_Start_IT
3620:Drivers/STM32F3xx_HAL_Driver/Src/stm32f3xx_hal_tim.c ****     case TIM_DMA_CC4:
 7993              		.loc 1 3620 0
 7994 0120 3EE0     		b	.L482
 7995              	.L481:
3624:Drivers/STM32F3xx_HAL_Driver/Src/stm32f3xx_hal_tim.c ****      
ARM GAS  /tmp/ccZyKULX.s 			page 205


 7996              		.loc 1 3624 0
 7997 0122 FB68     		ldr	r3, [r7, #12]
 7998 0124 DB6A     		ldr	r3, [r3, #44]
 7999 0126 2C4A     		ldr	r2, .L483+8
 8000 0128 9A62     		str	r2, [r3, #40]
3627:Drivers/STM32F3xx_HAL_Driver/Src/stm32f3xx_hal_tim.c ****   
 8001              		.loc 1 3627 0
 8002 012a FB68     		ldr	r3, [r7, #12]
 8003 012c DB6A     		ldr	r3, [r3, #44]
 8004 012e 294A     		ldr	r2, .L483+4
 8005 0130 1A63     		str	r2, [r3, #48]
3630:Drivers/STM32F3xx_HAL_Driver/Src/stm32f3xx_hal_tim.c ****     }
 8006              		.loc 1 3630 0
 8007 0132 FB68     		ldr	r3, [r7, #12]
 8008 0134 D86A     		ldr	r0, [r3, #44]
 8009 0136 FB68     		ldr	r3, [r7, #12]
 8010 0138 1B68     		ldr	r3, [r3]
 8011 013a 4C33     		adds	r3, r3, #76
 8012 013c 1946     		mov	r1, r3
 8013 013e 3A68     		ldr	r2, [r7]
 8014 0140 BB69     		ldr	r3, [r7, #24]
 8015 0142 1B0A     		lsrs	r3, r3, #8
 8016 0144 0133     		adds	r3, r3, #1
 8017 0146 FFF7FEFF 		bl	HAL_DMA_Start_IT
3632:Drivers/STM32F3xx_HAL_Driver/Src/stm32f3xx_hal_tim.c ****     case TIM_DMA_COM:
 8018              		.loc 1 3632 0
 8019 014a 29E0     		b	.L482
 8020              	.L479:
3636:Drivers/STM32F3xx_HAL_Driver/Src/stm32f3xx_hal_tim.c ****      
 8021              		.loc 1 3636 0
 8022 014c FB68     		ldr	r3, [r7, #12]
 8023 014e 1B6B     		ldr	r3, [r3, #48]
 8024 0150 224A     		ldr	r2, .L483+12
 8025 0152 9A62     		str	r2, [r3, #40]
3639:Drivers/STM32F3xx_HAL_Driver/Src/stm32f3xx_hal_tim.c ****   
 8026              		.loc 1 3639 0
 8027 0154 FB68     		ldr	r3, [r7, #12]
 8028 0156 1B6B     		ldr	r3, [r3, #48]
 8029 0158 1E4A     		ldr	r2, .L483+4
 8030 015a 1A63     		str	r2, [r3, #48]
3642:Drivers/STM32F3xx_HAL_Driver/Src/stm32f3xx_hal_tim.c ****     }
 8031              		.loc 1 3642 0
 8032 015c FB68     		ldr	r3, [r7, #12]
 8033 015e 186B     		ldr	r0, [r3, #48]
 8034 0160 FB68     		ldr	r3, [r7, #12]
 8035 0162 1B68     		ldr	r3, [r3]
 8036 0164 4C33     		adds	r3, r3, #76
 8037 0166 1946     		mov	r1, r3
 8038 0168 3A68     		ldr	r2, [r7]
 8039 016a BB69     		ldr	r3, [r7, #24]
 8040 016c 1B0A     		lsrs	r3, r3, #8
 8041 016e 0133     		adds	r3, r3, #1
 8042 0170 FFF7FEFF 		bl	HAL_DMA_Start_IT
3644:Drivers/STM32F3xx_HAL_Driver/Src/stm32f3xx_hal_tim.c ****     case TIM_DMA_TRIGGER:
 8043              		.loc 1 3644 0
 8044 0174 14E0     		b	.L482
 8045              	.L480:
ARM GAS  /tmp/ccZyKULX.s 			page 206


3648:Drivers/STM32F3xx_HAL_Driver/Src/stm32f3xx_hal_tim.c ****      
 8046              		.loc 1 3648 0
 8047 0176 FB68     		ldr	r3, [r7, #12]
 8048 0178 5B6B     		ldr	r3, [r3, #52]
 8049 017a 194A     		ldr	r2, .L483+16
 8050 017c 9A62     		str	r2, [r3, #40]
3651:Drivers/STM32F3xx_HAL_Driver/Src/stm32f3xx_hal_tim.c ****   
 8051              		.loc 1 3651 0
 8052 017e FB68     		ldr	r3, [r7, #12]
 8053 0180 5B6B     		ldr	r3, [r3, #52]
 8054 0182 144A     		ldr	r2, .L483+4
 8055 0184 1A63     		str	r2, [r3, #48]
3654:Drivers/STM32F3xx_HAL_Driver/Src/stm32f3xx_hal_tim.c ****     }
 8056              		.loc 1 3654 0
 8057 0186 FB68     		ldr	r3, [r7, #12]
 8058 0188 586B     		ldr	r0, [r3, #52]
 8059 018a FB68     		ldr	r3, [r7, #12]
 8060 018c 1B68     		ldr	r3, [r3]
 8061 018e 4C33     		adds	r3, r3, #76
 8062 0190 1946     		mov	r1, r3
 8063 0192 3A68     		ldr	r2, [r7]
 8064 0194 BB69     		ldr	r3, [r7, #24]
 8065 0196 1B0A     		lsrs	r3, r3, #8
 8066 0198 0133     		adds	r3, r3, #1
 8067 019a FFF7FEFF 		bl	HAL_DMA_Start_IT
3656:Drivers/STM32F3xx_HAL_Driver/Src/stm32f3xx_hal_tim.c ****     default:
 8068              		.loc 1 3656 0
 8069 019e 00BF     		nop
 8070              	.L482:
3659:Drivers/STM32F3xx_HAL_Driver/Src/stm32f3xx_hal_tim.c ****   }
3660:Drivers/STM32F3xx_HAL_Driver/Src/stm32f3xx_hal_tim.c **** 
3661:Drivers/STM32F3xx_HAL_Driver/Src/stm32f3xx_hal_tim.c ****   /* configure the DMA Burst Mode */
3662:Drivers/STM32F3xx_HAL_Driver/Src/stm32f3xx_hal_tim.c ****   htim->Instance->DCR = BurstBaseAddress | BurstLength;  
 8071              		.loc 1 3662 0
 8072 01a0 FB68     		ldr	r3, [r7, #12]
 8073 01a2 1B68     		ldr	r3, [r3]
 8074 01a4 B968     		ldr	r1, [r7, #8]
 8075 01a6 BA69     		ldr	r2, [r7, #24]
 8076 01a8 0A43     		orrs	r2, r2, r1
 8077 01aa 9A64     		str	r2, [r3, #72]
3663:Drivers/STM32F3xx_HAL_Driver/Src/stm32f3xx_hal_tim.c ****   
3664:Drivers/STM32F3xx_HAL_Driver/Src/stm32f3xx_hal_tim.c ****   /* Enable the TIM DMA Request */
3665:Drivers/STM32F3xx_HAL_Driver/Src/stm32f3xx_hal_tim.c ****   __HAL_TIM_ENABLE_DMA(htim, BurstRequestSrc);
 8078              		.loc 1 3665 0
 8079 01ac FB68     		ldr	r3, [r7, #12]
 8080 01ae 1B68     		ldr	r3, [r3]
 8081 01b0 FA68     		ldr	r2, [r7, #12]
 8082 01b2 1268     		ldr	r2, [r2]
 8083 01b4 D168     		ldr	r1, [r2, #12]
 8084 01b6 7A68     		ldr	r2, [r7, #4]
 8085 01b8 0A43     		orrs	r2, r2, r1
 8086 01ba DA60     		str	r2, [r3, #12]
3666:Drivers/STM32F3xx_HAL_Driver/Src/stm32f3xx_hal_tim.c ****   
3667:Drivers/STM32F3xx_HAL_Driver/Src/stm32f3xx_hal_tim.c ****   htim->State = HAL_TIM_STATE_READY;
 8087              		.loc 1 3667 0
 8088 01bc FB68     		ldr	r3, [r7, #12]
 8089 01be 0122     		movs	r2, #1
ARM GAS  /tmp/ccZyKULX.s 			page 207


 8090 01c0 83F83920 		strb	r2, [r3, #57]
3668:Drivers/STM32F3xx_HAL_Driver/Src/stm32f3xx_hal_tim.c ****   
3669:Drivers/STM32F3xx_HAL_Driver/Src/stm32f3xx_hal_tim.c ****   /* Return function status */
3670:Drivers/STM32F3xx_HAL_Driver/Src/stm32f3xx_hal_tim.c ****   return HAL_OK;
 8091              		.loc 1 3670 0
 8092 01c4 0023     		movs	r3, #0
 8093              	.L470:
3671:Drivers/STM32F3xx_HAL_Driver/Src/stm32f3xx_hal_tim.c **** }
 8094              		.loc 1 3671 0
 8095 01c6 1846     		mov	r0, r3
 8096 01c8 1037     		adds	r7, r7, #16
 8097 01ca BD46     		mov	sp, r7
 8098              		@ sp needed
 8099 01cc 80BD     		pop	{r7, pc}
 8100              	.L484:
 8101 01ce 00BF     		.align	2
 8102              	.L483:
 8103 01d0 00000000 		.word	TIM_DMAPeriodElapsedCplt
 8104 01d4 00000000 		.word	TIM_DMAError
 8105 01d8 00000000 		.word	TIM_DMACaptureCplt
 8106 01dc 00000000 		.word	TIMEx_DMACommutationCplt
 8107 01e0 00000000 		.word	TIM_DMATriggerCplt
 8108              		.cfi_endproc
 8109              	.LFE190:
 8111              		.section	.text.HAL_TIM_DMABurst_ReadStop,"ax",%progbits
 8112              		.align	2
 8113              		.global	HAL_TIM_DMABurst_ReadStop
 8114              		.thumb
 8115              		.thumb_func
 8117              	HAL_TIM_DMABurst_ReadStop:
 8118              	.LFB191:
3672:Drivers/STM32F3xx_HAL_Driver/Src/stm32f3xx_hal_tim.c **** 
3673:Drivers/STM32F3xx_HAL_Driver/Src/stm32f3xx_hal_tim.c **** /**
3674:Drivers/STM32F3xx_HAL_Driver/Src/stm32f3xx_hal_tim.c ****   * @brief  Stop the DMA burst reading 
3675:Drivers/STM32F3xx_HAL_Driver/Src/stm32f3xx_hal_tim.c ****   * @param  htim: TIM handle
3676:Drivers/STM32F3xx_HAL_Driver/Src/stm32f3xx_hal_tim.c ****   * @param  BurstRequestSrc: TIM DMA Request sources to disable.
3677:Drivers/STM32F3xx_HAL_Driver/Src/stm32f3xx_hal_tim.c ****   * @retval HAL status
3678:Drivers/STM32F3xx_HAL_Driver/Src/stm32f3xx_hal_tim.c ****   */
3679:Drivers/STM32F3xx_HAL_Driver/Src/stm32f3xx_hal_tim.c **** HAL_StatusTypeDef HAL_TIM_DMABurst_ReadStop(TIM_HandleTypeDef *htim, uint32_t BurstRequestSrc)
3680:Drivers/STM32F3xx_HAL_Driver/Src/stm32f3xx_hal_tim.c **** {
 8119              		.loc 1 3680 0
 8120              		.cfi_startproc
 8121              		@ args = 0, pretend = 0, frame = 8
 8122              		@ frame_needed = 1, uses_anonymous_args = 0
 8123 0000 80B5     		push	{r7, lr}
 8124              	.LCFI198:
 8125              		.cfi_def_cfa_offset 8
 8126              		.cfi_offset 7, -8
 8127              		.cfi_offset 14, -4
 8128 0002 82B0     		sub	sp, sp, #8
 8129              	.LCFI199:
 8130              		.cfi_def_cfa_offset 16
 8131 0004 00AF     		add	r7, sp, #0
 8132              	.LCFI200:
 8133              		.cfi_def_cfa_register 7
 8134 0006 7860     		str	r0, [r7, #4]
 8135 0008 3960     		str	r1, [r7]
ARM GAS  /tmp/ccZyKULX.s 			page 208


3681:Drivers/STM32F3xx_HAL_Driver/Src/stm32f3xx_hal_tim.c ****   /* Check the parameters */
3682:Drivers/STM32F3xx_HAL_Driver/Src/stm32f3xx_hal_tim.c ****   assert_param(IS_TIM_DMA_SOURCE(BurstRequestSrc));
3683:Drivers/STM32F3xx_HAL_Driver/Src/stm32f3xx_hal_tim.c ****   
3684:Drivers/STM32F3xx_HAL_Driver/Src/stm32f3xx_hal_tim.c ****   /* Abort the DMA transfer (at least disable the DMA channel) */
3685:Drivers/STM32F3xx_HAL_Driver/Src/stm32f3xx_hal_tim.c ****   switch(BurstRequestSrc)
 8136              		.loc 1 3685 0
 8137 000a 3B68     		ldr	r3, [r7]
 8138 000c B3F5006F 		cmp	r3, #2048
 8139 0010 28D0     		beq	.L487
 8140 0012 B3F5006F 		cmp	r3, #2048
 8141 0016 09D8     		bhi	.L488
 8142 0018 B3F5007F 		cmp	r3, #512
 8143 001c 16D0     		beq	.L489
 8144 001e B3F5806F 		cmp	r3, #1024
 8145 0022 19D0     		beq	.L490
 8146 0024 B3F5807F 		cmp	r3, #256
 8147 0028 0AD0     		beq	.L491
3686:Drivers/STM32F3xx_HAL_Driver/Src/stm32f3xx_hal_tim.c ****   {
3687:Drivers/STM32F3xx_HAL_Driver/Src/stm32f3xx_hal_tim.c ****     case TIM_DMA_UPDATE:
3688:Drivers/STM32F3xx_HAL_Driver/Src/stm32f3xx_hal_tim.c ****     {  
3689:Drivers/STM32F3xx_HAL_Driver/Src/stm32f3xx_hal_tim.c ****       HAL_DMA_Abort(htim->hdma[TIM_DMA_ID_UPDATE]); 
3690:Drivers/STM32F3xx_HAL_Driver/Src/stm32f3xx_hal_tim.c ****     }
3691:Drivers/STM32F3xx_HAL_Driver/Src/stm32f3xx_hal_tim.c ****     break;
3692:Drivers/STM32F3xx_HAL_Driver/Src/stm32f3xx_hal_tim.c ****     case TIM_DMA_CC1:
3693:Drivers/STM32F3xx_HAL_Driver/Src/stm32f3xx_hal_tim.c ****     {  
3694:Drivers/STM32F3xx_HAL_Driver/Src/stm32f3xx_hal_tim.c ****       HAL_DMA_Abort(htim->hdma[TIM_DMA_ID_CC1]);     
3695:Drivers/STM32F3xx_HAL_Driver/Src/stm32f3xx_hal_tim.c ****     }
3696:Drivers/STM32F3xx_HAL_Driver/Src/stm32f3xx_hal_tim.c ****     break;
3697:Drivers/STM32F3xx_HAL_Driver/Src/stm32f3xx_hal_tim.c ****     case TIM_DMA_CC2:
3698:Drivers/STM32F3xx_HAL_Driver/Src/stm32f3xx_hal_tim.c ****     {  
3699:Drivers/STM32F3xx_HAL_Driver/Src/stm32f3xx_hal_tim.c ****       HAL_DMA_Abort(htim->hdma[TIM_DMA_ID_CC2]);     
3700:Drivers/STM32F3xx_HAL_Driver/Src/stm32f3xx_hal_tim.c ****     }
3701:Drivers/STM32F3xx_HAL_Driver/Src/stm32f3xx_hal_tim.c ****     break;
3702:Drivers/STM32F3xx_HAL_Driver/Src/stm32f3xx_hal_tim.c ****     case TIM_DMA_CC3:
3703:Drivers/STM32F3xx_HAL_Driver/Src/stm32f3xx_hal_tim.c ****     {  
3704:Drivers/STM32F3xx_HAL_Driver/Src/stm32f3xx_hal_tim.c ****       HAL_DMA_Abort(htim->hdma[TIM_DMA_ID_CC3]);     
3705:Drivers/STM32F3xx_HAL_Driver/Src/stm32f3xx_hal_tim.c ****     }
3706:Drivers/STM32F3xx_HAL_Driver/Src/stm32f3xx_hal_tim.c ****     break;
3707:Drivers/STM32F3xx_HAL_Driver/Src/stm32f3xx_hal_tim.c ****     case TIM_DMA_CC4:
3708:Drivers/STM32F3xx_HAL_Driver/Src/stm32f3xx_hal_tim.c ****     {  
3709:Drivers/STM32F3xx_HAL_Driver/Src/stm32f3xx_hal_tim.c ****       HAL_DMA_Abort(htim->hdma[TIM_DMA_ID_CC4]);     
3710:Drivers/STM32F3xx_HAL_Driver/Src/stm32f3xx_hal_tim.c ****     }
3711:Drivers/STM32F3xx_HAL_Driver/Src/stm32f3xx_hal_tim.c ****     break;
3712:Drivers/STM32F3xx_HAL_Driver/Src/stm32f3xx_hal_tim.c ****     case TIM_DMA_COM:
3713:Drivers/STM32F3xx_HAL_Driver/Src/stm32f3xx_hal_tim.c ****     {  
3714:Drivers/STM32F3xx_HAL_Driver/Src/stm32f3xx_hal_tim.c ****       HAL_DMA_Abort(htim->hdma[TIM_DMA_ID_COMMUTATION]);     
3715:Drivers/STM32F3xx_HAL_Driver/Src/stm32f3xx_hal_tim.c ****     }
3716:Drivers/STM32F3xx_HAL_Driver/Src/stm32f3xx_hal_tim.c ****     break;
3717:Drivers/STM32F3xx_HAL_Driver/Src/stm32f3xx_hal_tim.c ****     case TIM_DMA_TRIGGER:
3718:Drivers/STM32F3xx_HAL_Driver/Src/stm32f3xx_hal_tim.c ****     {  
3719:Drivers/STM32F3xx_HAL_Driver/Src/stm32f3xx_hal_tim.c ****       HAL_DMA_Abort(htim->hdma[TIM_DMA_ID_TRIGGER]);     
3720:Drivers/STM32F3xx_HAL_Driver/Src/stm32f3xx_hal_tim.c ****     }
3721:Drivers/STM32F3xx_HAL_Driver/Src/stm32f3xx_hal_tim.c ****     break;
3722:Drivers/STM32F3xx_HAL_Driver/Src/stm32f3xx_hal_tim.c ****     default:
3723:Drivers/STM32F3xx_HAL_Driver/Src/stm32f3xx_hal_tim.c ****     break;  
 8148              		.loc 1 3723 0
 8149 002a 33E0     		b	.L495
ARM GAS  /tmp/ccZyKULX.s 			page 209


 8150              	.L488:
3685:Drivers/STM32F3xx_HAL_Driver/Src/stm32f3xx_hal_tim.c ****   {
 8151              		.loc 1 3685 0
 8152 002c B3F5005F 		cmp	r3, #8192
 8153 0030 24D0     		beq	.L492
 8154 0032 B3F5804F 		cmp	r3, #16384
 8155 0036 27D0     		beq	.L493
 8156 0038 B3F5805F 		cmp	r3, #4096
 8157 003c 18D0     		beq	.L494
 8158              		.loc 1 3723 0
 8159 003e 29E0     		b	.L495
 8160              	.L491:
3689:Drivers/STM32F3xx_HAL_Driver/Src/stm32f3xx_hal_tim.c ****     }
 8161              		.loc 1 3689 0
 8162 0040 7B68     		ldr	r3, [r7, #4]
 8163 0042 DB69     		ldr	r3, [r3, #28]
 8164 0044 1846     		mov	r0, r3
 8165 0046 FFF7FEFF 		bl	HAL_DMA_Abort
3691:Drivers/STM32F3xx_HAL_Driver/Src/stm32f3xx_hal_tim.c ****     case TIM_DMA_CC1:
 8166              		.loc 1 3691 0
 8167 004a 23E0     		b	.L495
 8168              	.L489:
3694:Drivers/STM32F3xx_HAL_Driver/Src/stm32f3xx_hal_tim.c ****     }
 8169              		.loc 1 3694 0
 8170 004c 7B68     		ldr	r3, [r7, #4]
 8171 004e 1B6A     		ldr	r3, [r3, #32]
 8172 0050 1846     		mov	r0, r3
 8173 0052 FFF7FEFF 		bl	HAL_DMA_Abort
3696:Drivers/STM32F3xx_HAL_Driver/Src/stm32f3xx_hal_tim.c ****     case TIM_DMA_CC2:
 8174              		.loc 1 3696 0
 8175 0056 1DE0     		b	.L495
 8176              	.L490:
3699:Drivers/STM32F3xx_HAL_Driver/Src/stm32f3xx_hal_tim.c ****     }
 8177              		.loc 1 3699 0
 8178 0058 7B68     		ldr	r3, [r7, #4]
 8179 005a 5B6A     		ldr	r3, [r3, #36]
 8180 005c 1846     		mov	r0, r3
 8181 005e FFF7FEFF 		bl	HAL_DMA_Abort
3701:Drivers/STM32F3xx_HAL_Driver/Src/stm32f3xx_hal_tim.c ****     case TIM_DMA_CC3:
 8182              		.loc 1 3701 0
 8183 0062 17E0     		b	.L495
 8184              	.L487:
3704:Drivers/STM32F3xx_HAL_Driver/Src/stm32f3xx_hal_tim.c ****     }
 8185              		.loc 1 3704 0
 8186 0064 7B68     		ldr	r3, [r7, #4]
 8187 0066 9B6A     		ldr	r3, [r3, #40]
 8188 0068 1846     		mov	r0, r3
 8189 006a FFF7FEFF 		bl	HAL_DMA_Abort
3706:Drivers/STM32F3xx_HAL_Driver/Src/stm32f3xx_hal_tim.c ****     case TIM_DMA_CC4:
 8190              		.loc 1 3706 0
 8191 006e 11E0     		b	.L495
 8192              	.L494:
3709:Drivers/STM32F3xx_HAL_Driver/Src/stm32f3xx_hal_tim.c ****     }
 8193              		.loc 1 3709 0
 8194 0070 7B68     		ldr	r3, [r7, #4]
 8195 0072 DB6A     		ldr	r3, [r3, #44]
 8196 0074 1846     		mov	r0, r3
ARM GAS  /tmp/ccZyKULX.s 			page 210


 8197 0076 FFF7FEFF 		bl	HAL_DMA_Abort
3711:Drivers/STM32F3xx_HAL_Driver/Src/stm32f3xx_hal_tim.c ****     case TIM_DMA_COM:
 8198              		.loc 1 3711 0
 8199 007a 0BE0     		b	.L495
 8200              	.L492:
3714:Drivers/STM32F3xx_HAL_Driver/Src/stm32f3xx_hal_tim.c ****     }
 8201              		.loc 1 3714 0
 8202 007c 7B68     		ldr	r3, [r7, #4]
 8203 007e 1B6B     		ldr	r3, [r3, #48]
 8204 0080 1846     		mov	r0, r3
 8205 0082 FFF7FEFF 		bl	HAL_DMA_Abort
3716:Drivers/STM32F3xx_HAL_Driver/Src/stm32f3xx_hal_tim.c ****     case TIM_DMA_TRIGGER:
 8206              		.loc 1 3716 0
 8207 0086 05E0     		b	.L495
 8208              	.L493:
3719:Drivers/STM32F3xx_HAL_Driver/Src/stm32f3xx_hal_tim.c ****     }
 8209              		.loc 1 3719 0
 8210 0088 7B68     		ldr	r3, [r7, #4]
 8211 008a 5B6B     		ldr	r3, [r3, #52]
 8212 008c 1846     		mov	r0, r3
 8213 008e FFF7FEFF 		bl	HAL_DMA_Abort
3721:Drivers/STM32F3xx_HAL_Driver/Src/stm32f3xx_hal_tim.c ****     default:
 8214              		.loc 1 3721 0
 8215 0092 00BF     		nop
 8216              	.L495:
3724:Drivers/STM32F3xx_HAL_Driver/Src/stm32f3xx_hal_tim.c ****   }
3725:Drivers/STM32F3xx_HAL_Driver/Src/stm32f3xx_hal_tim.c **** 
3726:Drivers/STM32F3xx_HAL_Driver/Src/stm32f3xx_hal_tim.c ****   /* Disable the TIM Update DMA request */
3727:Drivers/STM32F3xx_HAL_Driver/Src/stm32f3xx_hal_tim.c ****   __HAL_TIM_DISABLE_DMA(htim, BurstRequestSrc);
 8217              		.loc 1 3727 0
 8218 0094 7B68     		ldr	r3, [r7, #4]
 8219 0096 1B68     		ldr	r3, [r3]
 8220 0098 7A68     		ldr	r2, [r7, #4]
 8221 009a 1268     		ldr	r2, [r2]
 8222 009c D168     		ldr	r1, [r2, #12]
 8223 009e 3A68     		ldr	r2, [r7]
 8224 00a0 D243     		mvns	r2, r2
 8225 00a2 0A40     		ands	r2, r2, r1
 8226 00a4 DA60     		str	r2, [r3, #12]
3728:Drivers/STM32F3xx_HAL_Driver/Src/stm32f3xx_hal_tim.c ****       
3729:Drivers/STM32F3xx_HAL_Driver/Src/stm32f3xx_hal_tim.c ****   /* Return function status */
3730:Drivers/STM32F3xx_HAL_Driver/Src/stm32f3xx_hal_tim.c ****   return HAL_OK;  
 8227              		.loc 1 3730 0
 8228 00a6 0023     		movs	r3, #0
3731:Drivers/STM32F3xx_HAL_Driver/Src/stm32f3xx_hal_tim.c **** }
 8229              		.loc 1 3731 0
 8230 00a8 1846     		mov	r0, r3
 8231 00aa 0837     		adds	r7, r7, #8
 8232 00ac BD46     		mov	sp, r7
 8233              		@ sp needed
 8234 00ae 80BD     		pop	{r7, pc}
 8235              		.cfi_endproc
 8236              	.LFE191:
 8238              		.section	.text.HAL_TIM_GenerateEvent,"ax",%progbits
 8239              		.align	2
 8240              		.global	HAL_TIM_GenerateEvent
 8241              		.thumb
ARM GAS  /tmp/ccZyKULX.s 			page 211


 8242              		.thumb_func
 8244              	HAL_TIM_GenerateEvent:
 8245              	.LFB192:
3732:Drivers/STM32F3xx_HAL_Driver/Src/stm32f3xx_hal_tim.c **** 
3733:Drivers/STM32F3xx_HAL_Driver/Src/stm32f3xx_hal_tim.c **** /**
3734:Drivers/STM32F3xx_HAL_Driver/Src/stm32f3xx_hal_tim.c ****   * @brief  Generate a software event
3735:Drivers/STM32F3xx_HAL_Driver/Src/stm32f3xx_hal_tim.c ****   * @param  htim: TIM handle
3736:Drivers/STM32F3xx_HAL_Driver/Src/stm32f3xx_hal_tim.c ****   * @param  EventSource: specifies the event source.
3737:Drivers/STM32F3xx_HAL_Driver/Src/stm32f3xx_hal_tim.c ****   *          This parameter can be one of the following values:
3738:Drivers/STM32F3xx_HAL_Driver/Src/stm32f3xx_hal_tim.c ****   *            @arg TIM_EVENTSOURCE_UPDATE: Timer update Event source
3739:Drivers/STM32F3xx_HAL_Driver/Src/stm32f3xx_hal_tim.c ****   *            @arg TIM_EVENTSOURCE_CC1: Timer Capture Compare 1 Event source
3740:Drivers/STM32F3xx_HAL_Driver/Src/stm32f3xx_hal_tim.c ****   *            @arg TIM_EVENTSOURCE_CC2: Timer Capture Compare 2 Event source
3741:Drivers/STM32F3xx_HAL_Driver/Src/stm32f3xx_hal_tim.c ****   *            @arg TIM_EVENTSOURCE_CC3: Timer Capture Compare 3 Event source
3742:Drivers/STM32F3xx_HAL_Driver/Src/stm32f3xx_hal_tim.c ****   *            @arg TIM_EVENTSOURCE_CC4: Timer Capture Compare 4 Event source
3743:Drivers/STM32F3xx_HAL_Driver/Src/stm32f3xx_hal_tim.c ****   *            @arg TIM_EVENTSOURCE_COM: Timer COM event source  
3744:Drivers/STM32F3xx_HAL_Driver/Src/stm32f3xx_hal_tim.c ****   *            @arg TIM_EVENTSOURCE_TRIGGER: Timer Trigger Event source
3745:Drivers/STM32F3xx_HAL_Driver/Src/stm32f3xx_hal_tim.c ****   *            @arg TIM_EVENTSOURCE_BREAK: Timer Break event source
3746:Drivers/STM32F3xx_HAL_Driver/Src/stm32f3xx_hal_tim.c ****   *            @arg TIM_EVENTSOURCE_BREAK2: Timer Break2 event source
3747:Drivers/STM32F3xx_HAL_Driver/Src/stm32f3xx_hal_tim.c ****   * @retval HAL status
3748:Drivers/STM32F3xx_HAL_Driver/Src/stm32f3xx_hal_tim.c ****   * @note TIM_EVENTSOURCE_BREAK2 isn't relevant for STM32F37xx and STM32F38xx 
3749:Drivers/STM32F3xx_HAL_Driver/Src/stm32f3xx_hal_tim.c ****   *       devices
3750:Drivers/STM32F3xx_HAL_Driver/Src/stm32f3xx_hal_tim.c ****   */ 
3751:Drivers/STM32F3xx_HAL_Driver/Src/stm32f3xx_hal_tim.c **** 
3752:Drivers/STM32F3xx_HAL_Driver/Src/stm32f3xx_hal_tim.c **** HAL_StatusTypeDef HAL_TIM_GenerateEvent(TIM_HandleTypeDef *htim, uint32_t EventSource)
3753:Drivers/STM32F3xx_HAL_Driver/Src/stm32f3xx_hal_tim.c **** {
 8246              		.loc 1 3753 0
 8247              		.cfi_startproc
 8248              		@ args = 0, pretend = 0, frame = 8
 8249              		@ frame_needed = 1, uses_anonymous_args = 0
 8250              		@ link register save eliminated.
 8251 0000 80B4     		push	{r7}
 8252              	.LCFI201:
 8253              		.cfi_def_cfa_offset 4
 8254              		.cfi_offset 7, -4
 8255 0002 83B0     		sub	sp, sp, #12
 8256              	.LCFI202:
 8257              		.cfi_def_cfa_offset 16
 8258 0004 00AF     		add	r7, sp, #0
 8259              	.LCFI203:
 8260              		.cfi_def_cfa_register 7
 8261 0006 7860     		str	r0, [r7, #4]
 8262 0008 3960     		str	r1, [r7]
3754:Drivers/STM32F3xx_HAL_Driver/Src/stm32f3xx_hal_tim.c ****   /* Check the parameters */
3755:Drivers/STM32F3xx_HAL_Driver/Src/stm32f3xx_hal_tim.c ****   assert_param(IS_TIM_INSTANCE(htim->Instance));
3756:Drivers/STM32F3xx_HAL_Driver/Src/stm32f3xx_hal_tim.c ****   assert_param(IS_TIM_EVENT_SOURCE(EventSource));
3757:Drivers/STM32F3xx_HAL_Driver/Src/stm32f3xx_hal_tim.c ****   
3758:Drivers/STM32F3xx_HAL_Driver/Src/stm32f3xx_hal_tim.c ****   /* Process Locked */
3759:Drivers/STM32F3xx_HAL_Driver/Src/stm32f3xx_hal_tim.c ****   __HAL_LOCK(htim);
 8263              		.loc 1 3759 0
 8264 000a 7B68     		ldr	r3, [r7, #4]
 8265 000c 93F83830 		ldrb	r3, [r3, #56]	@ zero_extendqisi2
 8266 0010 012B     		cmp	r3, #1
 8267 0012 01D1     		bne	.L498
 8268              		.loc 1 3759 0 is_stmt 0 discriminator 1
 8269 0014 0223     		movs	r3, #2
 8270 0016 14E0     		b	.L499
 8271              	.L498:
ARM GAS  /tmp/ccZyKULX.s 			page 212


 8272              		.loc 1 3759 0 discriminator 2
 8273 0018 7B68     		ldr	r3, [r7, #4]
 8274 001a 0122     		movs	r2, #1
 8275 001c 83F83820 		strb	r2, [r3, #56]
3760:Drivers/STM32F3xx_HAL_Driver/Src/stm32f3xx_hal_tim.c ****   
3761:Drivers/STM32F3xx_HAL_Driver/Src/stm32f3xx_hal_tim.c ****   /* Change the TIM state */
3762:Drivers/STM32F3xx_HAL_Driver/Src/stm32f3xx_hal_tim.c ****   htim->State = HAL_TIM_STATE_BUSY;
 8276              		.loc 1 3762 0 is_stmt 1 discriminator 2
 8277 0020 7B68     		ldr	r3, [r7, #4]
 8278 0022 0222     		movs	r2, #2
 8279 0024 83F83920 		strb	r2, [r3, #57]
3763:Drivers/STM32F3xx_HAL_Driver/Src/stm32f3xx_hal_tim.c ****   
3764:Drivers/STM32F3xx_HAL_Driver/Src/stm32f3xx_hal_tim.c ****   /* Set the event sources */
3765:Drivers/STM32F3xx_HAL_Driver/Src/stm32f3xx_hal_tim.c ****   htim->Instance->EGR = EventSource;
 8280              		.loc 1 3765 0 discriminator 2
 8281 0028 7B68     		ldr	r3, [r7, #4]
 8282 002a 1B68     		ldr	r3, [r3]
 8283 002c 3A68     		ldr	r2, [r7]
 8284 002e 5A61     		str	r2, [r3, #20]
3766:Drivers/STM32F3xx_HAL_Driver/Src/stm32f3xx_hal_tim.c ****   
3767:Drivers/STM32F3xx_HAL_Driver/Src/stm32f3xx_hal_tim.c ****   /* Change the TIM state */
3768:Drivers/STM32F3xx_HAL_Driver/Src/stm32f3xx_hal_tim.c ****   htim->State = HAL_TIM_STATE_READY;
 8285              		.loc 1 3768 0 discriminator 2
 8286 0030 7B68     		ldr	r3, [r7, #4]
 8287 0032 0122     		movs	r2, #1
 8288 0034 83F83920 		strb	r2, [r3, #57]
3769:Drivers/STM32F3xx_HAL_Driver/Src/stm32f3xx_hal_tim.c ****   
3770:Drivers/STM32F3xx_HAL_Driver/Src/stm32f3xx_hal_tim.c ****   __HAL_UNLOCK(htim);
 8289              		.loc 1 3770 0 discriminator 2
 8290 0038 7B68     		ldr	r3, [r7, #4]
 8291 003a 0022     		movs	r2, #0
 8292 003c 83F83820 		strb	r2, [r3, #56]
3771:Drivers/STM32F3xx_HAL_Driver/Src/stm32f3xx_hal_tim.c ****       
3772:Drivers/STM32F3xx_HAL_Driver/Src/stm32f3xx_hal_tim.c ****   /* Return function status */
3773:Drivers/STM32F3xx_HAL_Driver/Src/stm32f3xx_hal_tim.c ****   return HAL_OK;  
 8293              		.loc 1 3773 0 discriminator 2
 8294 0040 0023     		movs	r3, #0
 8295              	.L499:
3774:Drivers/STM32F3xx_HAL_Driver/Src/stm32f3xx_hal_tim.c **** }
 8296              		.loc 1 3774 0
 8297 0042 1846     		mov	r0, r3
 8298 0044 0C37     		adds	r7, r7, #12
 8299 0046 BD46     		mov	sp, r7
 8300              		@ sp needed
 8301 0048 5DF8047B 		ldr	r7, [sp], #4
 8302 004c 7047     		bx	lr
 8303              		.cfi_endproc
 8304              	.LFE192:
 8306              		.section	.text.HAL_TIM_ConfigOCrefClear,"ax",%progbits
 8307              		.align	2
 8308              		.weak	HAL_TIM_ConfigOCrefClear
 8309              		.thumb
 8310              		.thumb_func
 8312              	HAL_TIM_ConfigOCrefClear:
 8313              	.LFB193:
3775:Drivers/STM32F3xx_HAL_Driver/Src/stm32f3xx_hal_tim.c **** 
3776:Drivers/STM32F3xx_HAL_Driver/Src/stm32f3xx_hal_tim.c **** /**
ARM GAS  /tmp/ccZyKULX.s 			page 213


3777:Drivers/STM32F3xx_HAL_Driver/Src/stm32f3xx_hal_tim.c ****   * @brief  Configures the OCRef clear feature
3778:Drivers/STM32F3xx_HAL_Driver/Src/stm32f3xx_hal_tim.c ****   * @param  htim: TIM handle
3779:Drivers/STM32F3xx_HAL_Driver/Src/stm32f3xx_hal_tim.c ****   * @param  sClearInputConfig: pointer to a TIM_ClearInputConfigTypeDef structure that
3780:Drivers/STM32F3xx_HAL_Driver/Src/stm32f3xx_hal_tim.c ****   *         contains the OCREF clear feature and parameters for the TIM peripheral. 
3781:Drivers/STM32F3xx_HAL_Driver/Src/stm32f3xx_hal_tim.c ****   * @param  Channel: specifies the TIM Channel
3782:Drivers/STM32F3xx_HAL_Driver/Src/stm32f3xx_hal_tim.c ****   *          This parameter can be one of the following values:
3783:Drivers/STM32F3xx_HAL_Driver/Src/stm32f3xx_hal_tim.c ****   *            @arg TIM_CHANNEL_1: TIM Channel 1
3784:Drivers/STM32F3xx_HAL_Driver/Src/stm32f3xx_hal_tim.c ****   *            @arg TIM_CHANNEL_2: TIM Channel 2
3785:Drivers/STM32F3xx_HAL_Driver/Src/stm32f3xx_hal_tim.c ****   *            @arg TIM_CHANNEL_3: TIM Channel 3
3786:Drivers/STM32F3xx_HAL_Driver/Src/stm32f3xx_hal_tim.c ****   *            @arg TIM_CHANNEL_4: TIM Channel 4
3787:Drivers/STM32F3xx_HAL_Driver/Src/stm32f3xx_hal_tim.c ****   * @retval HAL status
3788:Drivers/STM32F3xx_HAL_Driver/Src/stm32f3xx_hal_tim.c ****   */ 
3789:Drivers/STM32F3xx_HAL_Driver/Src/stm32f3xx_hal_tim.c **** __weak HAL_StatusTypeDef HAL_TIM_ConfigOCrefClear(TIM_HandleTypeDef *htim, TIM_ClearInputConfigType
3790:Drivers/STM32F3xx_HAL_Driver/Src/stm32f3xx_hal_tim.c **** {  
 8314              		.loc 1 3790 0
 8315              		.cfi_startproc
 8316              		@ args = 0, pretend = 0, frame = 16
 8317              		@ frame_needed = 1, uses_anonymous_args = 0
 8318 0000 80B5     		push	{r7, lr}
 8319              	.LCFI204:
 8320              		.cfi_def_cfa_offset 8
 8321              		.cfi_offset 7, -8
 8322              		.cfi_offset 14, -4
 8323 0002 84B0     		sub	sp, sp, #16
 8324              	.LCFI205:
 8325              		.cfi_def_cfa_offset 24
 8326 0004 00AF     		add	r7, sp, #0
 8327              	.LCFI206:
 8328              		.cfi_def_cfa_register 7
 8329 0006 F860     		str	r0, [r7, #12]
 8330 0008 B960     		str	r1, [r7, #8]
 8331 000a 7A60     		str	r2, [r7, #4]
3791:Drivers/STM32F3xx_HAL_Driver/Src/stm32f3xx_hal_tim.c ****   /* Check the parameters */
3792:Drivers/STM32F3xx_HAL_Driver/Src/stm32f3xx_hal_tim.c ****   assert_param(IS_TIM_CC1_INSTANCE(htim->Instance));
3793:Drivers/STM32F3xx_HAL_Driver/Src/stm32f3xx_hal_tim.c ****   assert_param(IS_TIM_CHANNELS(Channel));
3794:Drivers/STM32F3xx_HAL_Driver/Src/stm32f3xx_hal_tim.c ****   assert_param(IS_TIM_CLEARINPUT_SOURCE(sClearInputConfig->ClearInputSource));
3795:Drivers/STM32F3xx_HAL_Driver/Src/stm32f3xx_hal_tim.c ****    
3796:Drivers/STM32F3xx_HAL_Driver/Src/stm32f3xx_hal_tim.c ****   /* Process Locked */
3797:Drivers/STM32F3xx_HAL_Driver/Src/stm32f3xx_hal_tim.c ****   __HAL_LOCK(htim);
 8332              		.loc 1 3797 0
 8333 000c FB68     		ldr	r3, [r7, #12]
 8334 000e 93F83830 		ldrb	r3, [r3, #56]	@ zero_extendqisi2
 8335 0012 012B     		cmp	r3, #1
 8336 0014 01D1     		bne	.L501
 8337              		.loc 1 3797 0 is_stmt 0 discriminator 1
 8338 0016 0223     		movs	r3, #2
 8339 0018 98E0     		b	.L502
 8340              	.L501:
 8341              		.loc 1 3797 0 discriminator 2
 8342 001a FB68     		ldr	r3, [r7, #12]
 8343 001c 0122     		movs	r2, #1
 8344 001e 83F83820 		strb	r2, [r3, #56]
3798:Drivers/STM32F3xx_HAL_Driver/Src/stm32f3xx_hal_tim.c ****   
3799:Drivers/STM32F3xx_HAL_Driver/Src/stm32f3xx_hal_tim.c ****   htim->State = HAL_TIM_STATE_BUSY;
 8345              		.loc 1 3799 0 is_stmt 1 discriminator 2
 8346 0022 FB68     		ldr	r3, [r7, #12]
 8347 0024 0222     		movs	r2, #2
ARM GAS  /tmp/ccZyKULX.s 			page 214


 8348 0026 83F83920 		strb	r2, [r3, #57]
3800:Drivers/STM32F3xx_HAL_Driver/Src/stm32f3xx_hal_tim.c ****   
3801:Drivers/STM32F3xx_HAL_Driver/Src/stm32f3xx_hal_tim.c ****   if(sClearInputConfig->ClearInputSource == TIM_CLEARINPUTSOURCE_ETR)
 8349              		.loc 1 3801 0 discriminator 2
 8350 002a BB68     		ldr	r3, [r7, #8]
 8351 002c 5B68     		ldr	r3, [r3, #4]
 8352 002e 012B     		cmp	r3, #1
 8353 0030 09D1     		bne	.L503
3802:Drivers/STM32F3xx_HAL_Driver/Src/stm32f3xx_hal_tim.c ****   {
3803:Drivers/STM32F3xx_HAL_Driver/Src/stm32f3xx_hal_tim.c ****     /* Check the parameters */
3804:Drivers/STM32F3xx_HAL_Driver/Src/stm32f3xx_hal_tim.c ****     assert_param(IS_TIM_CLEARINPUT_POLARITY(sClearInputConfig->ClearInputPolarity));
3805:Drivers/STM32F3xx_HAL_Driver/Src/stm32f3xx_hal_tim.c ****     assert_param(IS_TIM_CLEARINPUT_PRESCALER(sClearInputConfig->ClearInputPrescaler));
3806:Drivers/STM32F3xx_HAL_Driver/Src/stm32f3xx_hal_tim.c ****     assert_param(IS_TIM_CLEARINPUT_FILTER(sClearInputConfig->ClearInputFilter));
3807:Drivers/STM32F3xx_HAL_Driver/Src/stm32f3xx_hal_tim.c ****     
3808:Drivers/STM32F3xx_HAL_Driver/Src/stm32f3xx_hal_tim.c ****     TIM_ETR_SetConfig(htim->Instance, 
 8354              		.loc 1 3808 0
 8355 0032 FB68     		ldr	r3, [r7, #12]
 8356 0034 1868     		ldr	r0, [r3]
 8357 0036 BB68     		ldr	r3, [r7, #8]
 8358 0038 D968     		ldr	r1, [r3, #12]
 8359 003a BB68     		ldr	r3, [r7, #8]
 8360 003c 9A68     		ldr	r2, [r3, #8]
 8361 003e BB68     		ldr	r3, [r7, #8]
 8362 0040 1B69     		ldr	r3, [r3, #16]
 8363 0042 FFF7FEFF 		bl	TIM_ETR_SetConfig
 8364              	.L503:
3809:Drivers/STM32F3xx_HAL_Driver/Src/stm32f3xx_hal_tim.c ****                       sClearInputConfig->ClearInputPrescaler,
3810:Drivers/STM32F3xx_HAL_Driver/Src/stm32f3xx_hal_tim.c ****                       sClearInputConfig->ClearInputPolarity,
3811:Drivers/STM32F3xx_HAL_Driver/Src/stm32f3xx_hal_tim.c ****                       sClearInputConfig->ClearInputFilter);
3812:Drivers/STM32F3xx_HAL_Driver/Src/stm32f3xx_hal_tim.c ****   }
3813:Drivers/STM32F3xx_HAL_Driver/Src/stm32f3xx_hal_tim.c ****   
3814:Drivers/STM32F3xx_HAL_Driver/Src/stm32f3xx_hal_tim.c ****   switch (Channel)
 8365              		.loc 1 3814 0
 8366 0046 7B68     		ldr	r3, [r7, #4]
 8367 0048 0C2B     		cmp	r3, #12
 8368 004a 75D8     		bhi	.L519
 8369 004c 01A2     		adr	r2, .L506
 8370 004e 52F823F0 		ldr	pc, [r2, r3, lsl #2]
 8371 0052 00BF     		.p2align 2
 8372              	.L506:
 8373 0054 89000000 		.word	.L505+1
 8374 0058 39010000 		.word	.L519+1
 8375 005c 39010000 		.word	.L519+1
 8376 0060 39010000 		.word	.L519+1
 8377 0064 B5000000 		.word	.L507+1
 8378 0068 39010000 		.word	.L519+1
 8379 006c 39010000 		.word	.L519+1
 8380 0070 39010000 		.word	.L519+1
 8381 0074 E1000000 		.word	.L508+1
 8382 0078 39010000 		.word	.L519+1
 8383 007c 39010000 		.word	.L519+1
 8384 0080 39010000 		.word	.L519+1
 8385 0084 0D010000 		.word	.L509+1
 8386              		.p2align 1
 8387              	.L505:
3815:Drivers/STM32F3xx_HAL_Driver/Src/stm32f3xx_hal_tim.c ****   {
3816:Drivers/STM32F3xx_HAL_Driver/Src/stm32f3xx_hal_tim.c ****     case TIM_CHANNEL_1:    
ARM GAS  /tmp/ccZyKULX.s 			page 215


3817:Drivers/STM32F3xx_HAL_Driver/Src/stm32f3xx_hal_tim.c ****     {        
3818:Drivers/STM32F3xx_HAL_Driver/Src/stm32f3xx_hal_tim.c ****       if(sClearInputConfig->ClearInputState != RESET)  
 8388              		.loc 1 3818 0
 8389 0088 BB68     		ldr	r3, [r7, #8]
 8390 008a 1B68     		ldr	r3, [r3]
 8391 008c 002B     		cmp	r3, #0
 8392 008e 08D0     		beq	.L510
3819:Drivers/STM32F3xx_HAL_Driver/Src/stm32f3xx_hal_tim.c ****       {
3820:Drivers/STM32F3xx_HAL_Driver/Src/stm32f3xx_hal_tim.c ****       /* Enable the Ocref clear feature for Channel 1 */
3821:Drivers/STM32F3xx_HAL_Driver/Src/stm32f3xx_hal_tim.c ****       htim->Instance->CCMR1 |= TIM_CCMR1_OC1CE;
 8393              		.loc 1 3821 0
 8394 0090 FB68     		ldr	r3, [r7, #12]
 8395 0092 1B68     		ldr	r3, [r3]
 8396 0094 FA68     		ldr	r2, [r7, #12]
 8397 0096 1268     		ldr	r2, [r2]
 8398 0098 9269     		ldr	r2, [r2, #24]
 8399 009a 42F08002 		orr	r2, r2, #128
 8400 009e 9A61     		str	r2, [r3, #24]
3822:Drivers/STM32F3xx_HAL_Driver/Src/stm32f3xx_hal_tim.c ****       }
3823:Drivers/STM32F3xx_HAL_Driver/Src/stm32f3xx_hal_tim.c ****       else
3824:Drivers/STM32F3xx_HAL_Driver/Src/stm32f3xx_hal_tim.c ****       {
3825:Drivers/STM32F3xx_HAL_Driver/Src/stm32f3xx_hal_tim.c ****         /* Disable the Ocref clear feature for Channel 1 */
3826:Drivers/STM32F3xx_HAL_Driver/Src/stm32f3xx_hal_tim.c ****         htim->Instance->CCMR1 &= ~TIM_CCMR1_OC1CE;      
3827:Drivers/STM32F3xx_HAL_Driver/Src/stm32f3xx_hal_tim.c ****       }
3828:Drivers/STM32F3xx_HAL_Driver/Src/stm32f3xx_hal_tim.c ****     }    
3829:Drivers/STM32F3xx_HAL_Driver/Src/stm32f3xx_hal_tim.c ****     break;
 8401              		.loc 1 3829 0
 8402 00a0 4BE0     		b	.L512
 8403              	.L510:
3826:Drivers/STM32F3xx_HAL_Driver/Src/stm32f3xx_hal_tim.c ****       }
 8404              		.loc 1 3826 0
 8405 00a2 FB68     		ldr	r3, [r7, #12]
 8406 00a4 1B68     		ldr	r3, [r3]
 8407 00a6 FA68     		ldr	r2, [r7, #12]
 8408 00a8 1268     		ldr	r2, [r2]
 8409 00aa 9269     		ldr	r2, [r2, #24]
 8410 00ac 22F08002 		bic	r2, r2, #128
 8411 00b0 9A61     		str	r2, [r3, #24]
 8412              		.loc 1 3829 0
 8413 00b2 42E0     		b	.L512
 8414              	.L507:
3830:Drivers/STM32F3xx_HAL_Driver/Src/stm32f3xx_hal_tim.c ****     case TIM_CHANNEL_2:    
3831:Drivers/STM32F3xx_HAL_Driver/Src/stm32f3xx_hal_tim.c ****     { 
3832:Drivers/STM32F3xx_HAL_Driver/Src/stm32f3xx_hal_tim.c ****       assert_param(IS_TIM_CC2_INSTANCE(htim->Instance)); 
3833:Drivers/STM32F3xx_HAL_Driver/Src/stm32f3xx_hal_tim.c ****       if(sClearInputConfig->ClearInputState != RESET)  
 8415              		.loc 1 3833 0
 8416 00b4 BB68     		ldr	r3, [r7, #8]
 8417 00b6 1B68     		ldr	r3, [r3]
 8418 00b8 002B     		cmp	r3, #0
 8419 00ba 08D0     		beq	.L513
3834:Drivers/STM32F3xx_HAL_Driver/Src/stm32f3xx_hal_tim.c ****       {
3835:Drivers/STM32F3xx_HAL_Driver/Src/stm32f3xx_hal_tim.c ****       /* Enable the Ocref clear feature for Channel 2 */
3836:Drivers/STM32F3xx_HAL_Driver/Src/stm32f3xx_hal_tim.c ****       htim->Instance->CCMR1 |= TIM_CCMR1_OC2CE;
 8420              		.loc 1 3836 0
 8421 00bc FB68     		ldr	r3, [r7, #12]
 8422 00be 1B68     		ldr	r3, [r3]
 8423 00c0 FA68     		ldr	r2, [r7, #12]
ARM GAS  /tmp/ccZyKULX.s 			page 216


 8424 00c2 1268     		ldr	r2, [r2]
 8425 00c4 9269     		ldr	r2, [r2, #24]
 8426 00c6 42F40042 		orr	r2, r2, #32768
 8427 00ca 9A61     		str	r2, [r3, #24]
3837:Drivers/STM32F3xx_HAL_Driver/Src/stm32f3xx_hal_tim.c ****       }
3838:Drivers/STM32F3xx_HAL_Driver/Src/stm32f3xx_hal_tim.c ****       else
3839:Drivers/STM32F3xx_HAL_Driver/Src/stm32f3xx_hal_tim.c ****       {
3840:Drivers/STM32F3xx_HAL_Driver/Src/stm32f3xx_hal_tim.c ****         /* Disable the Ocref clear feature for Channel 2 */
3841:Drivers/STM32F3xx_HAL_Driver/Src/stm32f3xx_hal_tim.c ****         htim->Instance->CCMR1 &= ~TIM_CCMR1_OC2CE;      
3842:Drivers/STM32F3xx_HAL_Driver/Src/stm32f3xx_hal_tim.c ****       }
3843:Drivers/STM32F3xx_HAL_Driver/Src/stm32f3xx_hal_tim.c ****     } 
3844:Drivers/STM32F3xx_HAL_Driver/Src/stm32f3xx_hal_tim.c ****     break;
 8428              		.loc 1 3844 0
 8429 00cc 35E0     		b	.L512
 8430              	.L513:
3841:Drivers/STM32F3xx_HAL_Driver/Src/stm32f3xx_hal_tim.c ****       }
 8431              		.loc 1 3841 0
 8432 00ce FB68     		ldr	r3, [r7, #12]
 8433 00d0 1B68     		ldr	r3, [r3]
 8434 00d2 FA68     		ldr	r2, [r7, #12]
 8435 00d4 1268     		ldr	r2, [r2]
 8436 00d6 9269     		ldr	r2, [r2, #24]
 8437 00d8 22F40042 		bic	r2, r2, #32768
 8438 00dc 9A61     		str	r2, [r3, #24]
 8439              		.loc 1 3844 0
 8440 00de 2CE0     		b	.L512
 8441              	.L508:
3845:Drivers/STM32F3xx_HAL_Driver/Src/stm32f3xx_hal_tim.c ****     case TIM_CHANNEL_3:    
3846:Drivers/STM32F3xx_HAL_Driver/Src/stm32f3xx_hal_tim.c ****     {  
3847:Drivers/STM32F3xx_HAL_Driver/Src/stm32f3xx_hal_tim.c ****       assert_param(IS_TIM_CC3_INSTANCE(htim->Instance));
3848:Drivers/STM32F3xx_HAL_Driver/Src/stm32f3xx_hal_tim.c ****       if(sClearInputConfig->ClearInputState != RESET)  
 8442              		.loc 1 3848 0
 8443 00e0 BB68     		ldr	r3, [r7, #8]
 8444 00e2 1B68     		ldr	r3, [r3]
 8445 00e4 002B     		cmp	r3, #0
 8446 00e6 08D0     		beq	.L515
3849:Drivers/STM32F3xx_HAL_Driver/Src/stm32f3xx_hal_tim.c ****       {
3850:Drivers/STM32F3xx_HAL_Driver/Src/stm32f3xx_hal_tim.c ****       /* Enable the Ocref clear feature for Channel 3 */
3851:Drivers/STM32F3xx_HAL_Driver/Src/stm32f3xx_hal_tim.c ****       htim->Instance->CCMR2 |= TIM_CCMR2_OC3CE;
 8447              		.loc 1 3851 0
 8448 00e8 FB68     		ldr	r3, [r7, #12]
 8449 00ea 1B68     		ldr	r3, [r3]
 8450 00ec FA68     		ldr	r2, [r7, #12]
 8451 00ee 1268     		ldr	r2, [r2]
 8452 00f0 D269     		ldr	r2, [r2, #28]
 8453 00f2 42F08002 		orr	r2, r2, #128
 8454 00f6 DA61     		str	r2, [r3, #28]
3852:Drivers/STM32F3xx_HAL_Driver/Src/stm32f3xx_hal_tim.c ****       }
3853:Drivers/STM32F3xx_HAL_Driver/Src/stm32f3xx_hal_tim.c ****       else
3854:Drivers/STM32F3xx_HAL_Driver/Src/stm32f3xx_hal_tim.c ****       {
3855:Drivers/STM32F3xx_HAL_Driver/Src/stm32f3xx_hal_tim.c ****         /* Disable the Ocref clear feature for Channel 3 */
3856:Drivers/STM32F3xx_HAL_Driver/Src/stm32f3xx_hal_tim.c ****         htim->Instance->CCMR2 &= ~TIM_CCMR2_OC3CE;      
3857:Drivers/STM32F3xx_HAL_Driver/Src/stm32f3xx_hal_tim.c ****       }
3858:Drivers/STM32F3xx_HAL_Driver/Src/stm32f3xx_hal_tim.c ****     } 
3859:Drivers/STM32F3xx_HAL_Driver/Src/stm32f3xx_hal_tim.c ****     break;
 8455              		.loc 1 3859 0
 8456 00f8 1FE0     		b	.L512
ARM GAS  /tmp/ccZyKULX.s 			page 217


 8457              	.L515:
3856:Drivers/STM32F3xx_HAL_Driver/Src/stm32f3xx_hal_tim.c ****       }
 8458              		.loc 1 3856 0
 8459 00fa FB68     		ldr	r3, [r7, #12]
 8460 00fc 1B68     		ldr	r3, [r3]
 8461 00fe FA68     		ldr	r2, [r7, #12]
 8462 0100 1268     		ldr	r2, [r2]
 8463 0102 D269     		ldr	r2, [r2, #28]
 8464 0104 22F08002 		bic	r2, r2, #128
 8465 0108 DA61     		str	r2, [r3, #28]
 8466              		.loc 1 3859 0
 8467 010a 16E0     		b	.L512
 8468              	.L509:
3860:Drivers/STM32F3xx_HAL_Driver/Src/stm32f3xx_hal_tim.c ****     case TIM_CHANNEL_4:    
3861:Drivers/STM32F3xx_HAL_Driver/Src/stm32f3xx_hal_tim.c ****     {  
3862:Drivers/STM32F3xx_HAL_Driver/Src/stm32f3xx_hal_tim.c ****       assert_param(IS_TIM_CC4_INSTANCE(htim->Instance));
3863:Drivers/STM32F3xx_HAL_Driver/Src/stm32f3xx_hal_tim.c ****       if(sClearInputConfig->ClearInputState != RESET)  
 8469              		.loc 1 3863 0
 8470 010c BB68     		ldr	r3, [r7, #8]
 8471 010e 1B68     		ldr	r3, [r3]
 8472 0110 002B     		cmp	r3, #0
 8473 0112 08D0     		beq	.L517
3864:Drivers/STM32F3xx_HAL_Driver/Src/stm32f3xx_hal_tim.c ****       {
3865:Drivers/STM32F3xx_HAL_Driver/Src/stm32f3xx_hal_tim.c ****       /* Enable the Ocref clear feature for Channel 4 */
3866:Drivers/STM32F3xx_HAL_Driver/Src/stm32f3xx_hal_tim.c ****       htim->Instance->CCMR2 |= TIM_CCMR2_OC4CE;
 8474              		.loc 1 3866 0
 8475 0114 FB68     		ldr	r3, [r7, #12]
 8476 0116 1B68     		ldr	r3, [r3]
 8477 0118 FA68     		ldr	r2, [r7, #12]
 8478 011a 1268     		ldr	r2, [r2]
 8479 011c D269     		ldr	r2, [r2, #28]
 8480 011e 42F40042 		orr	r2, r2, #32768
 8481 0122 DA61     		str	r2, [r3, #28]
3867:Drivers/STM32F3xx_HAL_Driver/Src/stm32f3xx_hal_tim.c ****       }
3868:Drivers/STM32F3xx_HAL_Driver/Src/stm32f3xx_hal_tim.c ****       else
3869:Drivers/STM32F3xx_HAL_Driver/Src/stm32f3xx_hal_tim.c ****       {
3870:Drivers/STM32F3xx_HAL_Driver/Src/stm32f3xx_hal_tim.c ****         /* Disable the Ocref clear feature for Channel 4 */
3871:Drivers/STM32F3xx_HAL_Driver/Src/stm32f3xx_hal_tim.c ****         htim->Instance->CCMR2 &= ~TIM_CCMR2_OC4CE;      
3872:Drivers/STM32F3xx_HAL_Driver/Src/stm32f3xx_hal_tim.c ****       }
3873:Drivers/STM32F3xx_HAL_Driver/Src/stm32f3xx_hal_tim.c ****     } 
3874:Drivers/STM32F3xx_HAL_Driver/Src/stm32f3xx_hal_tim.c ****     break;
 8482              		.loc 1 3874 0
 8483 0124 09E0     		b	.L512
 8484              	.L517:
3871:Drivers/STM32F3xx_HAL_Driver/Src/stm32f3xx_hal_tim.c ****       }
 8485              		.loc 1 3871 0
 8486 0126 FB68     		ldr	r3, [r7, #12]
 8487 0128 1B68     		ldr	r3, [r3]
 8488 012a FA68     		ldr	r2, [r7, #12]
 8489 012c 1268     		ldr	r2, [r2]
 8490 012e D269     		ldr	r2, [r2, #28]
 8491 0130 22F40042 		bic	r2, r2, #32768
 8492 0134 DA61     		str	r2, [r3, #28]
 8493              		.loc 1 3874 0
 8494 0136 00E0     		b	.L512
 8495              	.L519:
3875:Drivers/STM32F3xx_HAL_Driver/Src/stm32f3xx_hal_tim.c ****     default:  
ARM GAS  /tmp/ccZyKULX.s 			page 218


3876:Drivers/STM32F3xx_HAL_Driver/Src/stm32f3xx_hal_tim.c ****     break;
 8496              		.loc 1 3876 0
 8497 0138 00BF     		nop
 8498              	.L512:
3877:Drivers/STM32F3xx_HAL_Driver/Src/stm32f3xx_hal_tim.c ****   } 
3878:Drivers/STM32F3xx_HAL_Driver/Src/stm32f3xx_hal_tim.c ****   
3879:Drivers/STM32F3xx_HAL_Driver/Src/stm32f3xx_hal_tim.c ****   htim->State = HAL_TIM_STATE_READY;
 8499              		.loc 1 3879 0
 8500 013a FB68     		ldr	r3, [r7, #12]
 8501 013c 0122     		movs	r2, #1
 8502 013e 83F83920 		strb	r2, [r3, #57]
3880:Drivers/STM32F3xx_HAL_Driver/Src/stm32f3xx_hal_tim.c ****   
3881:Drivers/STM32F3xx_HAL_Driver/Src/stm32f3xx_hal_tim.c ****   __HAL_UNLOCK(htim);
 8503              		.loc 1 3881 0
 8504 0142 FB68     		ldr	r3, [r7, #12]
 8505 0144 0022     		movs	r2, #0
 8506 0146 83F83820 		strb	r2, [r3, #56]
3882:Drivers/STM32F3xx_HAL_Driver/Src/stm32f3xx_hal_tim.c ****   
3883:Drivers/STM32F3xx_HAL_Driver/Src/stm32f3xx_hal_tim.c ****   return HAL_OK;  
 8507              		.loc 1 3883 0
 8508 014a 0023     		movs	r3, #0
 8509              	.L502:
3884:Drivers/STM32F3xx_HAL_Driver/Src/stm32f3xx_hal_tim.c **** }  
 8510              		.loc 1 3884 0
 8511 014c 1846     		mov	r0, r3
 8512 014e 1037     		adds	r7, r7, #16
 8513 0150 BD46     		mov	sp, r7
 8514              		@ sp needed
 8515 0152 80BD     		pop	{r7, pc}
 8516              		.cfi_endproc
 8517              	.LFE193:
 8519              		.section	.text.HAL_TIM_ConfigClockSource,"ax",%progbits
 8520              		.align	2
 8521              		.global	HAL_TIM_ConfigClockSource
 8522              		.thumb
 8523              		.thumb_func
 8525              	HAL_TIM_ConfigClockSource:
 8526              	.LFB194:
3885:Drivers/STM32F3xx_HAL_Driver/Src/stm32f3xx_hal_tim.c **** 
3886:Drivers/STM32F3xx_HAL_Driver/Src/stm32f3xx_hal_tim.c **** /**
3887:Drivers/STM32F3xx_HAL_Driver/Src/stm32f3xx_hal_tim.c ****   * @brief   Configures the clock source to be used
3888:Drivers/STM32F3xx_HAL_Driver/Src/stm32f3xx_hal_tim.c ****   * @param  htim: TIM handle
3889:Drivers/STM32F3xx_HAL_Driver/Src/stm32f3xx_hal_tim.c ****   * @param  sClockSourceConfig: pointer to a TIM_ClockConfigTypeDef structure that
3890:Drivers/STM32F3xx_HAL_Driver/Src/stm32f3xx_hal_tim.c ****   *         contains the clock source information for the TIM peripheral. 
3891:Drivers/STM32F3xx_HAL_Driver/Src/stm32f3xx_hal_tim.c ****   * @retval HAL status
3892:Drivers/STM32F3xx_HAL_Driver/Src/stm32f3xx_hal_tim.c ****   */ 
3893:Drivers/STM32F3xx_HAL_Driver/Src/stm32f3xx_hal_tim.c **** HAL_StatusTypeDef HAL_TIM_ConfigClockSource(TIM_HandleTypeDef *htim, TIM_ClockConfigTypeDef * sCloc
3894:Drivers/STM32F3xx_HAL_Driver/Src/stm32f3xx_hal_tim.c **** {
 8527              		.loc 1 3894 0
 8528              		.cfi_startproc
 8529              		@ args = 0, pretend = 0, frame = 16
 8530              		@ frame_needed = 1, uses_anonymous_args = 0
 8531 0000 80B5     		push	{r7, lr}
 8532              	.LCFI207:
 8533              		.cfi_def_cfa_offset 8
 8534              		.cfi_offset 7, -8
 8535              		.cfi_offset 14, -4
ARM GAS  /tmp/ccZyKULX.s 			page 219


 8536 0002 84B0     		sub	sp, sp, #16
 8537              	.LCFI208:
 8538              		.cfi_def_cfa_offset 24
 8539 0004 00AF     		add	r7, sp, #0
 8540              	.LCFI209:
 8541              		.cfi_def_cfa_register 7
 8542 0006 7860     		str	r0, [r7, #4]
 8543 0008 3960     		str	r1, [r7]
3895:Drivers/STM32F3xx_HAL_Driver/Src/stm32f3xx_hal_tim.c ****   uint32_t tmpsmcr = 0;
 8544              		.loc 1 3895 0
 8545 000a 0023     		movs	r3, #0
 8546 000c FB60     		str	r3, [r7, #12]
3896:Drivers/STM32F3xx_HAL_Driver/Src/stm32f3xx_hal_tim.c ****   
3897:Drivers/STM32F3xx_HAL_Driver/Src/stm32f3xx_hal_tim.c ****   /* Process Locked */
3898:Drivers/STM32F3xx_HAL_Driver/Src/stm32f3xx_hal_tim.c ****   __HAL_LOCK(htim);
 8547              		.loc 1 3898 0
 8548 000e 7B68     		ldr	r3, [r7, #4]
 8549 0010 93F83830 		ldrb	r3, [r3, #56]	@ zero_extendqisi2
 8550 0014 012B     		cmp	r3, #1
 8551 0016 01D1     		bne	.L521
 8552              		.loc 1 3898 0 is_stmt 0 discriminator 1
 8553 0018 0223     		movs	r3, #2
 8554 001a D6E0     		b	.L522
 8555              	.L521:
 8556              		.loc 1 3898 0 discriminator 2
 8557 001c 7B68     		ldr	r3, [r7, #4]
 8558 001e 0122     		movs	r2, #1
 8559 0020 83F83820 		strb	r2, [r3, #56]
3899:Drivers/STM32F3xx_HAL_Driver/Src/stm32f3xx_hal_tim.c ****   
3900:Drivers/STM32F3xx_HAL_Driver/Src/stm32f3xx_hal_tim.c ****   htim->State = HAL_TIM_STATE_BUSY;
 8560              		.loc 1 3900 0 is_stmt 1 discriminator 2
 8561 0024 7B68     		ldr	r3, [r7, #4]
 8562 0026 0222     		movs	r2, #2
 8563 0028 83F83920 		strb	r2, [r3, #57]
3901:Drivers/STM32F3xx_HAL_Driver/Src/stm32f3xx_hal_tim.c ****   
3902:Drivers/STM32F3xx_HAL_Driver/Src/stm32f3xx_hal_tim.c ****   /* Check the parameters */
3903:Drivers/STM32F3xx_HAL_Driver/Src/stm32f3xx_hal_tim.c ****   assert_param(IS_TIM_CLOCKSOURCE(sClockSourceConfig->ClockSource));
3904:Drivers/STM32F3xx_HAL_Driver/Src/stm32f3xx_hal_tim.c ****   
3905:Drivers/STM32F3xx_HAL_Driver/Src/stm32f3xx_hal_tim.c ****   /* Reset the SMS, TS, ECE, ETPS and ETRF bits */
3906:Drivers/STM32F3xx_HAL_Driver/Src/stm32f3xx_hal_tim.c ****   tmpsmcr = htim->Instance->SMCR;
 8564              		.loc 1 3906 0 discriminator 2
 8565 002c 7B68     		ldr	r3, [r7, #4]
 8566 002e 1B68     		ldr	r3, [r3]
 8567 0030 9B68     		ldr	r3, [r3, #8]
 8568 0032 FB60     		str	r3, [r7, #12]
3907:Drivers/STM32F3xx_HAL_Driver/Src/stm32f3xx_hal_tim.c ****   tmpsmcr &= ~(TIM_SMCR_SMS | TIM_SMCR_TS);
 8569              		.loc 1 3907 0 discriminator 2
 8570 0034 FB68     		ldr	r3, [r7, #12]
 8571 0036 23F48033 		bic	r3, r3, #65536
 8572 003a 23F07703 		bic	r3, r3, #119
 8573 003e FB60     		str	r3, [r7, #12]
3908:Drivers/STM32F3xx_HAL_Driver/Src/stm32f3xx_hal_tim.c ****   tmpsmcr &= ~(TIM_SMCR_ETF | TIM_SMCR_ETPS | TIM_SMCR_ECE | TIM_SMCR_ETP);
 8574              		.loc 1 3908 0 discriminator 2
 8575 0040 FB68     		ldr	r3, [r7, #12]
 8576 0042 23F47F43 		bic	r3, r3, #65280
 8577 0046 FB60     		str	r3, [r7, #12]
3909:Drivers/STM32F3xx_HAL_Driver/Src/stm32f3xx_hal_tim.c ****   htim->Instance->SMCR = tmpsmcr;
ARM GAS  /tmp/ccZyKULX.s 			page 220


 8578              		.loc 1 3909 0 discriminator 2
 8579 0048 7B68     		ldr	r3, [r7, #4]
 8580 004a 1B68     		ldr	r3, [r3]
 8581 004c FA68     		ldr	r2, [r7, #12]
 8582 004e 9A60     		str	r2, [r3, #8]
3910:Drivers/STM32F3xx_HAL_Driver/Src/stm32f3xx_hal_tim.c ****   
3911:Drivers/STM32F3xx_HAL_Driver/Src/stm32f3xx_hal_tim.c ****   switch (sClockSourceConfig->ClockSource)
 8583              		.loc 1 3911 0 discriminator 2
 8584 0050 3B68     		ldr	r3, [r7]
 8585 0052 1B68     		ldr	r3, [r3]
 8586 0054 402B     		cmp	r3, #64
 8587 0056 00F08180 		beq	.L524
 8588 005a 402B     		cmp	r3, #64
 8589 005c 0FD8     		bhi	.L525
 8590 005e 102B     		cmp	r3, #16
 8591 0060 00F09580 		beq	.L526
 8592 0064 102B     		cmp	r3, #16
 8593 0066 03D8     		bhi	.L527
 8594 0068 002B     		cmp	r3, #0
 8595 006a 00F08980 		beq	.L528
3912:Drivers/STM32F3xx_HAL_Driver/Src/stm32f3xx_hal_tim.c ****   {
3913:Drivers/STM32F3xx_HAL_Driver/Src/stm32f3xx_hal_tim.c ****   case TIM_CLOCKSOURCE_INTERNAL:
3914:Drivers/STM32F3xx_HAL_Driver/Src/stm32f3xx_hal_tim.c ****     {
3915:Drivers/STM32F3xx_HAL_Driver/Src/stm32f3xx_hal_tim.c ****       assert_param(IS_TIM_INSTANCE(htim->Instance));      
3916:Drivers/STM32F3xx_HAL_Driver/Src/stm32f3xx_hal_tim.c ****       /* Disable slave mode to clock the prescaler directly with the internal clock */
3917:Drivers/STM32F3xx_HAL_Driver/Src/stm32f3xx_hal_tim.c ****       htim->Instance->SMCR &= ~TIM_SMCR_SMS;
3918:Drivers/STM32F3xx_HAL_Driver/Src/stm32f3xx_hal_tim.c ****     }
3919:Drivers/STM32F3xx_HAL_Driver/Src/stm32f3xx_hal_tim.c ****     break;
3920:Drivers/STM32F3xx_HAL_Driver/Src/stm32f3xx_hal_tim.c ****     
3921:Drivers/STM32F3xx_HAL_Driver/Src/stm32f3xx_hal_tim.c ****   case TIM_CLOCKSOURCE_ETRMODE1:
3922:Drivers/STM32F3xx_HAL_Driver/Src/stm32f3xx_hal_tim.c ****     {
3923:Drivers/STM32F3xx_HAL_Driver/Src/stm32f3xx_hal_tim.c ****       /* Check whether or not the timer instance supports external trigger input mode 1 (ETRF)*/
3924:Drivers/STM32F3xx_HAL_Driver/Src/stm32f3xx_hal_tim.c ****       assert_param(IS_TIM_CLOCKSOURCE_ETRMODE1_INSTANCE(htim->Instance));
3925:Drivers/STM32F3xx_HAL_Driver/Src/stm32f3xx_hal_tim.c ****       
3926:Drivers/STM32F3xx_HAL_Driver/Src/stm32f3xx_hal_tim.c ****       /* Check ETR input conditioning related parameters */
3927:Drivers/STM32F3xx_HAL_Driver/Src/stm32f3xx_hal_tim.c ****       assert_param(IS_TIM_CLOCKPRESCALER(sClockSourceConfig->ClockPrescaler));
3928:Drivers/STM32F3xx_HAL_Driver/Src/stm32f3xx_hal_tim.c ****       assert_param(IS_TIM_CLOCKPOLARITY(sClockSourceConfig->ClockPolarity));
3929:Drivers/STM32F3xx_HAL_Driver/Src/stm32f3xx_hal_tim.c ****       assert_param(IS_TIM_CLOCKFILTER(sClockSourceConfig->ClockFilter));
3930:Drivers/STM32F3xx_HAL_Driver/Src/stm32f3xx_hal_tim.c ****       
3931:Drivers/STM32F3xx_HAL_Driver/Src/stm32f3xx_hal_tim.c ****       /* Configure the ETR Clock source */
3932:Drivers/STM32F3xx_HAL_Driver/Src/stm32f3xx_hal_tim.c ****       TIM_ETR_SetConfig(htim->Instance, 
3933:Drivers/STM32F3xx_HAL_Driver/Src/stm32f3xx_hal_tim.c ****                         sClockSourceConfig->ClockPrescaler, 
3934:Drivers/STM32F3xx_HAL_Driver/Src/stm32f3xx_hal_tim.c ****                         sClockSourceConfig->ClockPolarity, 
3935:Drivers/STM32F3xx_HAL_Driver/Src/stm32f3xx_hal_tim.c ****                         sClockSourceConfig->ClockFilter);
3936:Drivers/STM32F3xx_HAL_Driver/Src/stm32f3xx_hal_tim.c ****       /* Get the TIMx SMCR register value */
3937:Drivers/STM32F3xx_HAL_Driver/Src/stm32f3xx_hal_tim.c ****       tmpsmcr = htim->Instance->SMCR;
3938:Drivers/STM32F3xx_HAL_Driver/Src/stm32f3xx_hal_tim.c ****       /* Reset the SMS and TS Bits */
3939:Drivers/STM32F3xx_HAL_Driver/Src/stm32f3xx_hal_tim.c ****       tmpsmcr &= ~(TIM_SMCR_SMS | TIM_SMCR_TS);
3940:Drivers/STM32F3xx_HAL_Driver/Src/stm32f3xx_hal_tim.c ****       /* Select the External clock mode1 and the ETRF trigger */
3941:Drivers/STM32F3xx_HAL_Driver/Src/stm32f3xx_hal_tim.c ****       tmpsmcr |= (TIM_SLAVEMODE_EXTERNAL1 | TIM_CLOCKSOURCE_ETRMODE1);
3942:Drivers/STM32F3xx_HAL_Driver/Src/stm32f3xx_hal_tim.c ****       /* Write to TIMx SMCR */
3943:Drivers/STM32F3xx_HAL_Driver/Src/stm32f3xx_hal_tim.c ****       htim->Instance->SMCR = tmpsmcr;
3944:Drivers/STM32F3xx_HAL_Driver/Src/stm32f3xx_hal_tim.c ****     }
3945:Drivers/STM32F3xx_HAL_Driver/Src/stm32f3xx_hal_tim.c ****     break;
3946:Drivers/STM32F3xx_HAL_Driver/Src/stm32f3xx_hal_tim.c ****     
3947:Drivers/STM32F3xx_HAL_Driver/Src/stm32f3xx_hal_tim.c ****   case TIM_CLOCKSOURCE_ETRMODE2:
3948:Drivers/STM32F3xx_HAL_Driver/Src/stm32f3xx_hal_tim.c ****     {
ARM GAS  /tmp/ccZyKULX.s 			page 221


3949:Drivers/STM32F3xx_HAL_Driver/Src/stm32f3xx_hal_tim.c ****       /* Check whether or not the timer instance supports external trigger input mode 2 (ETRF)*/
3950:Drivers/STM32F3xx_HAL_Driver/Src/stm32f3xx_hal_tim.c ****       assert_param(IS_TIM_CLOCKSOURCE_ETRMODE2_INSTANCE(htim->Instance));
3951:Drivers/STM32F3xx_HAL_Driver/Src/stm32f3xx_hal_tim.c ****       
3952:Drivers/STM32F3xx_HAL_Driver/Src/stm32f3xx_hal_tim.c ****       /* Check ETR input conditioning related parameters */
3953:Drivers/STM32F3xx_HAL_Driver/Src/stm32f3xx_hal_tim.c ****       assert_param(IS_TIM_CLOCKPRESCALER(sClockSourceConfig->ClockPrescaler));
3954:Drivers/STM32F3xx_HAL_Driver/Src/stm32f3xx_hal_tim.c ****       assert_param(IS_TIM_CLOCKPOLARITY(sClockSourceConfig->ClockPolarity));
3955:Drivers/STM32F3xx_HAL_Driver/Src/stm32f3xx_hal_tim.c ****       assert_param(IS_TIM_CLOCKFILTER(sClockSourceConfig->ClockFilter));
3956:Drivers/STM32F3xx_HAL_Driver/Src/stm32f3xx_hal_tim.c ****       
3957:Drivers/STM32F3xx_HAL_Driver/Src/stm32f3xx_hal_tim.c ****       /* Configure the ETR Clock source */
3958:Drivers/STM32F3xx_HAL_Driver/Src/stm32f3xx_hal_tim.c ****       TIM_ETR_SetConfig(htim->Instance, 
3959:Drivers/STM32F3xx_HAL_Driver/Src/stm32f3xx_hal_tim.c ****                         sClockSourceConfig->ClockPrescaler, 
3960:Drivers/STM32F3xx_HAL_Driver/Src/stm32f3xx_hal_tim.c ****                         sClockSourceConfig->ClockPolarity,
3961:Drivers/STM32F3xx_HAL_Driver/Src/stm32f3xx_hal_tim.c ****                         sClockSourceConfig->ClockFilter);
3962:Drivers/STM32F3xx_HAL_Driver/Src/stm32f3xx_hal_tim.c ****       /* Enable the External clock mode2 */
3963:Drivers/STM32F3xx_HAL_Driver/Src/stm32f3xx_hal_tim.c ****       htim->Instance->SMCR |= TIM_SMCR_ECE;
3964:Drivers/STM32F3xx_HAL_Driver/Src/stm32f3xx_hal_tim.c ****     }
3965:Drivers/STM32F3xx_HAL_Driver/Src/stm32f3xx_hal_tim.c ****     break;
3966:Drivers/STM32F3xx_HAL_Driver/Src/stm32f3xx_hal_tim.c ****     
3967:Drivers/STM32F3xx_HAL_Driver/Src/stm32f3xx_hal_tim.c ****   case TIM_CLOCKSOURCE_TI1:
3968:Drivers/STM32F3xx_HAL_Driver/Src/stm32f3xx_hal_tim.c ****     {
3969:Drivers/STM32F3xx_HAL_Driver/Src/stm32f3xx_hal_tim.c ****       /* Check whether or not the timer instance supports external clock mode 1 */
3970:Drivers/STM32F3xx_HAL_Driver/Src/stm32f3xx_hal_tim.c ****       assert_param(IS_TIM_CLOCKSOURCE_TIX_INSTANCE(htim->Instance));
3971:Drivers/STM32F3xx_HAL_Driver/Src/stm32f3xx_hal_tim.c ****       
3972:Drivers/STM32F3xx_HAL_Driver/Src/stm32f3xx_hal_tim.c ****       /* Check TI1 input conditioning related parameters */
3973:Drivers/STM32F3xx_HAL_Driver/Src/stm32f3xx_hal_tim.c ****       assert_param(IS_TIM_CLOCKPOLARITY(sClockSourceConfig->ClockPolarity));
3974:Drivers/STM32F3xx_HAL_Driver/Src/stm32f3xx_hal_tim.c ****       assert_param(IS_TIM_CLOCKFILTER(sClockSourceConfig->ClockFilter));
3975:Drivers/STM32F3xx_HAL_Driver/Src/stm32f3xx_hal_tim.c ****       
3976:Drivers/STM32F3xx_HAL_Driver/Src/stm32f3xx_hal_tim.c ****       TIM_TI1_ConfigInputStage(htim->Instance, 
3977:Drivers/STM32F3xx_HAL_Driver/Src/stm32f3xx_hal_tim.c ****                                sClockSourceConfig->ClockPolarity, 
3978:Drivers/STM32F3xx_HAL_Driver/Src/stm32f3xx_hal_tim.c ****                                sClockSourceConfig->ClockFilter);
3979:Drivers/STM32F3xx_HAL_Driver/Src/stm32f3xx_hal_tim.c ****       TIM_ITRx_SetConfig(htim->Instance, TIM_CLOCKSOURCE_TI1);
3980:Drivers/STM32F3xx_HAL_Driver/Src/stm32f3xx_hal_tim.c ****     }
3981:Drivers/STM32F3xx_HAL_Driver/Src/stm32f3xx_hal_tim.c ****     break;
3982:Drivers/STM32F3xx_HAL_Driver/Src/stm32f3xx_hal_tim.c ****   case TIM_CLOCKSOURCE_TI2:
3983:Drivers/STM32F3xx_HAL_Driver/Src/stm32f3xx_hal_tim.c ****     {
3984:Drivers/STM32F3xx_HAL_Driver/Src/stm32f3xx_hal_tim.c ****       /* Check whether or not the timer instance supports external clock mode 1 (ETRF)*/
3985:Drivers/STM32F3xx_HAL_Driver/Src/stm32f3xx_hal_tim.c ****       assert_param(IS_TIM_CLOCKSOURCE_TIX_INSTANCE(htim->Instance));
3986:Drivers/STM32F3xx_HAL_Driver/Src/stm32f3xx_hal_tim.c ****       
3987:Drivers/STM32F3xx_HAL_Driver/Src/stm32f3xx_hal_tim.c ****        /* Check TI2 input conditioning related parameters */
3988:Drivers/STM32F3xx_HAL_Driver/Src/stm32f3xx_hal_tim.c ****       assert_param(IS_TIM_CLOCKPOLARITY(sClockSourceConfig->ClockPolarity));
3989:Drivers/STM32F3xx_HAL_Driver/Src/stm32f3xx_hal_tim.c ****       assert_param(IS_TIM_CLOCKFILTER(sClockSourceConfig->ClockFilter));
3990:Drivers/STM32F3xx_HAL_Driver/Src/stm32f3xx_hal_tim.c **** 
3991:Drivers/STM32F3xx_HAL_Driver/Src/stm32f3xx_hal_tim.c ****       TIM_TI2_ConfigInputStage(htim->Instance, 
3992:Drivers/STM32F3xx_HAL_Driver/Src/stm32f3xx_hal_tim.c ****                                sClockSourceConfig->ClockPolarity, 
3993:Drivers/STM32F3xx_HAL_Driver/Src/stm32f3xx_hal_tim.c ****                                sClockSourceConfig->ClockFilter);
3994:Drivers/STM32F3xx_HAL_Driver/Src/stm32f3xx_hal_tim.c ****       TIM_ITRx_SetConfig(htim->Instance, TIM_CLOCKSOURCE_TI2);
3995:Drivers/STM32F3xx_HAL_Driver/Src/stm32f3xx_hal_tim.c ****     }
3996:Drivers/STM32F3xx_HAL_Driver/Src/stm32f3xx_hal_tim.c ****     break;
3997:Drivers/STM32F3xx_HAL_Driver/Src/stm32f3xx_hal_tim.c ****   case TIM_CLOCKSOURCE_TI1ED:
3998:Drivers/STM32F3xx_HAL_Driver/Src/stm32f3xx_hal_tim.c ****     {
3999:Drivers/STM32F3xx_HAL_Driver/Src/stm32f3xx_hal_tim.c ****       /* Check whether or not the timer instance supports external clock mode 1 */
4000:Drivers/STM32F3xx_HAL_Driver/Src/stm32f3xx_hal_tim.c ****       assert_param(IS_TIM_CLOCKSOURCE_TIX_INSTANCE(htim->Instance));
4001:Drivers/STM32F3xx_HAL_Driver/Src/stm32f3xx_hal_tim.c ****       
4002:Drivers/STM32F3xx_HAL_Driver/Src/stm32f3xx_hal_tim.c ****       /* Check TI1 input conditioning related parameters */
4003:Drivers/STM32F3xx_HAL_Driver/Src/stm32f3xx_hal_tim.c ****       assert_param(IS_TIM_CLOCKPOLARITY(sClockSourceConfig->ClockPolarity));
4004:Drivers/STM32F3xx_HAL_Driver/Src/stm32f3xx_hal_tim.c ****       assert_param(IS_TIM_CLOCKFILTER(sClockSourceConfig->ClockFilter));
4005:Drivers/STM32F3xx_HAL_Driver/Src/stm32f3xx_hal_tim.c **** 
ARM GAS  /tmp/ccZyKULX.s 			page 222


4006:Drivers/STM32F3xx_HAL_Driver/Src/stm32f3xx_hal_tim.c ****       TIM_TI1_ConfigInputStage(htim->Instance, 
4007:Drivers/STM32F3xx_HAL_Driver/Src/stm32f3xx_hal_tim.c ****                                sClockSourceConfig->ClockPolarity,
4008:Drivers/STM32F3xx_HAL_Driver/Src/stm32f3xx_hal_tim.c ****                                sClockSourceConfig->ClockFilter);
4009:Drivers/STM32F3xx_HAL_Driver/Src/stm32f3xx_hal_tim.c ****       TIM_ITRx_SetConfig(htim->Instance, TIM_CLOCKSOURCE_TI1ED);
4010:Drivers/STM32F3xx_HAL_Driver/Src/stm32f3xx_hal_tim.c ****     }
4011:Drivers/STM32F3xx_HAL_Driver/Src/stm32f3xx_hal_tim.c ****     break;
4012:Drivers/STM32F3xx_HAL_Driver/Src/stm32f3xx_hal_tim.c ****   case TIM_CLOCKSOURCE_ITR0:
4013:Drivers/STM32F3xx_HAL_Driver/Src/stm32f3xx_hal_tim.c ****     {
4014:Drivers/STM32F3xx_HAL_Driver/Src/stm32f3xx_hal_tim.c ****       /* Check whether or not the timer instance supports external clock mode 1 */
4015:Drivers/STM32F3xx_HAL_Driver/Src/stm32f3xx_hal_tim.c ****       assert_param(IS_TIM_CLOCKSOURCE_ITRX_INSTANCE(htim->Instance));
4016:Drivers/STM32F3xx_HAL_Driver/Src/stm32f3xx_hal_tim.c ****       
4017:Drivers/STM32F3xx_HAL_Driver/Src/stm32f3xx_hal_tim.c ****       TIM_ITRx_SetConfig(htim->Instance, TIM_CLOCKSOURCE_ITR0);
4018:Drivers/STM32F3xx_HAL_Driver/Src/stm32f3xx_hal_tim.c ****     }
4019:Drivers/STM32F3xx_HAL_Driver/Src/stm32f3xx_hal_tim.c ****     break;
4020:Drivers/STM32F3xx_HAL_Driver/Src/stm32f3xx_hal_tim.c ****   case TIM_CLOCKSOURCE_ITR1:
4021:Drivers/STM32F3xx_HAL_Driver/Src/stm32f3xx_hal_tim.c ****     {
4022:Drivers/STM32F3xx_HAL_Driver/Src/stm32f3xx_hal_tim.c ****       /* Check whether or not the timer instance supports external clock mode 1 */
4023:Drivers/STM32F3xx_HAL_Driver/Src/stm32f3xx_hal_tim.c ****       assert_param(IS_TIM_CLOCKSOURCE_ITRX_INSTANCE(htim->Instance));
4024:Drivers/STM32F3xx_HAL_Driver/Src/stm32f3xx_hal_tim.c ****       
4025:Drivers/STM32F3xx_HAL_Driver/Src/stm32f3xx_hal_tim.c ****       TIM_ITRx_SetConfig(htim->Instance, TIM_CLOCKSOURCE_ITR1);
4026:Drivers/STM32F3xx_HAL_Driver/Src/stm32f3xx_hal_tim.c ****     }
4027:Drivers/STM32F3xx_HAL_Driver/Src/stm32f3xx_hal_tim.c ****     break;
4028:Drivers/STM32F3xx_HAL_Driver/Src/stm32f3xx_hal_tim.c ****   case TIM_CLOCKSOURCE_ITR2:
4029:Drivers/STM32F3xx_HAL_Driver/Src/stm32f3xx_hal_tim.c ****     {
4030:Drivers/STM32F3xx_HAL_Driver/Src/stm32f3xx_hal_tim.c ****       /* Check whether or not the timer instance supports external clock mode 1 */
4031:Drivers/STM32F3xx_HAL_Driver/Src/stm32f3xx_hal_tim.c ****       assert_param(IS_TIM_CLOCKSOURCE_ITRX_INSTANCE(htim->Instance));
4032:Drivers/STM32F3xx_HAL_Driver/Src/stm32f3xx_hal_tim.c ****       
4033:Drivers/STM32F3xx_HAL_Driver/Src/stm32f3xx_hal_tim.c ****       TIM_ITRx_SetConfig(htim->Instance, TIM_CLOCKSOURCE_ITR2);
4034:Drivers/STM32F3xx_HAL_Driver/Src/stm32f3xx_hal_tim.c ****     }
4035:Drivers/STM32F3xx_HAL_Driver/Src/stm32f3xx_hal_tim.c ****     break;
4036:Drivers/STM32F3xx_HAL_Driver/Src/stm32f3xx_hal_tim.c ****   case TIM_CLOCKSOURCE_ITR3:
4037:Drivers/STM32F3xx_HAL_Driver/Src/stm32f3xx_hal_tim.c ****     {
4038:Drivers/STM32F3xx_HAL_Driver/Src/stm32f3xx_hal_tim.c ****       /* Check whether or not the timer instance supports external clock mode 1 */
4039:Drivers/STM32F3xx_HAL_Driver/Src/stm32f3xx_hal_tim.c ****       assert_param(IS_TIM_CLOCKSOURCE_ITRX_INSTANCE(htim->Instance));
4040:Drivers/STM32F3xx_HAL_Driver/Src/stm32f3xx_hal_tim.c ****       
4041:Drivers/STM32F3xx_HAL_Driver/Src/stm32f3xx_hal_tim.c ****       TIM_ITRx_SetConfig(htim->Instance, TIM_CLOCKSOURCE_ITR3);
4042:Drivers/STM32F3xx_HAL_Driver/Src/stm32f3xx_hal_tim.c ****     }
4043:Drivers/STM32F3xx_HAL_Driver/Src/stm32f3xx_hal_tim.c ****     break;
4044:Drivers/STM32F3xx_HAL_Driver/Src/stm32f3xx_hal_tim.c ****     
4045:Drivers/STM32F3xx_HAL_Driver/Src/stm32f3xx_hal_tim.c ****   default:
4046:Drivers/STM32F3xx_HAL_Driver/Src/stm32f3xx_hal_tim.c ****     break;    
 8596              		.loc 1 4046 0 discriminator 2
 8597 006e A3E0     		b	.L537
 8598              	.L527:
3911:Drivers/STM32F3xx_HAL_Driver/Src/stm32f3xx_hal_tim.c ****   {
 8599              		.loc 1 3911 0 discriminator 2
 8600 0070 202B     		cmp	r3, #32
 8601 0072 00F09380 		beq	.L529
 8602 0076 302B     		cmp	r3, #48
 8603 0078 00F09780 		beq	.L530
 8604              		.loc 1 4046 0 discriminator 2
 8605 007c 9CE0     		b	.L537
 8606              	.L525:
3911:Drivers/STM32F3xx_HAL_Driver/Src/stm32f3xx_hal_tim.c ****   {
 8607              		.loc 1 3911 0 discriminator 2
 8608 007e 702B     		cmp	r3, #112
 8609 0080 18D0     		beq	.L531
ARM GAS  /tmp/ccZyKULX.s 			page 223


 8610 0082 702B     		cmp	r3, #112
 8611 0084 04D8     		bhi	.L532
 8612 0086 502B     		cmp	r3, #80
 8613 0088 44D0     		beq	.L533
 8614 008a 602B     		cmp	r3, #96
 8615 008c 54D0     		beq	.L534
 8616              		.loc 1 4046 0 discriminator 2
 8617 008e 93E0     		b	.L537
 8618              	.L532:
3911:Drivers/STM32F3xx_HAL_Driver/Src/stm32f3xx_hal_tim.c ****   {
 8619              		.loc 1 3911 0 discriminator 2
 8620 0090 B3F5805F 		cmp	r3, #4096
 8621 0094 03D0     		beq	.L535
 8622 0096 B3F5005F 		cmp	r3, #8192
 8623 009a 28D0     		beq	.L536
 8624              		.loc 1 4046 0 discriminator 2
 8625 009c 8CE0     		b	.L537
 8626              	.L535:
3917:Drivers/STM32F3xx_HAL_Driver/Src/stm32f3xx_hal_tim.c ****     }
 8627              		.loc 1 3917 0
 8628 009e 7B68     		ldr	r3, [r7, #4]
 8629 00a0 1A68     		ldr	r2, [r3]
 8630 00a2 7B68     		ldr	r3, [r7, #4]
 8631 00a4 1B68     		ldr	r3, [r3]
 8632 00a6 9B68     		ldr	r3, [r3, #8]
 8633 00a8 23F48033 		bic	r3, r3, #65536
 8634 00ac 23F00703 		bic	r3, r3, #7
 8635 00b0 9360     		str	r3, [r2, #8]
3919:Drivers/STM32F3xx_HAL_Driver/Src/stm32f3xx_hal_tim.c ****     
 8636              		.loc 1 3919 0
 8637 00b2 81E0     		b	.L537
 8638              	.L531:
3932:Drivers/STM32F3xx_HAL_Driver/Src/stm32f3xx_hal_tim.c ****                         sClockSourceConfig->ClockPrescaler, 
 8639              		.loc 1 3932 0
 8640 00b4 7B68     		ldr	r3, [r7, #4]
 8641 00b6 1868     		ldr	r0, [r3]
 8642 00b8 3B68     		ldr	r3, [r7]
 8643 00ba 9968     		ldr	r1, [r3, #8]
 8644 00bc 3B68     		ldr	r3, [r7]
 8645 00be 5A68     		ldr	r2, [r3, #4]
 8646 00c0 3B68     		ldr	r3, [r7]
 8647 00c2 DB68     		ldr	r3, [r3, #12]
 8648 00c4 FFF7FEFF 		bl	TIM_ETR_SetConfig
3937:Drivers/STM32F3xx_HAL_Driver/Src/stm32f3xx_hal_tim.c ****       /* Reset the SMS and TS Bits */
 8649              		.loc 1 3937 0
 8650 00c8 7B68     		ldr	r3, [r7, #4]
 8651 00ca 1B68     		ldr	r3, [r3]
 8652 00cc 9B68     		ldr	r3, [r3, #8]
 8653 00ce FB60     		str	r3, [r7, #12]
3939:Drivers/STM32F3xx_HAL_Driver/Src/stm32f3xx_hal_tim.c ****       /* Select the External clock mode1 and the ETRF trigger */
 8654              		.loc 1 3939 0
 8655 00d0 FB68     		ldr	r3, [r7, #12]
 8656 00d2 23F48033 		bic	r3, r3, #65536
 8657 00d6 23F07703 		bic	r3, r3, #119
 8658 00da FB60     		str	r3, [r7, #12]
3941:Drivers/STM32F3xx_HAL_Driver/Src/stm32f3xx_hal_tim.c ****       /* Write to TIMx SMCR */
 8659              		.loc 1 3941 0
ARM GAS  /tmp/ccZyKULX.s 			page 224


 8660 00dc FB68     		ldr	r3, [r7, #12]
 8661 00de 43F07703 		orr	r3, r3, #119
 8662 00e2 FB60     		str	r3, [r7, #12]
3943:Drivers/STM32F3xx_HAL_Driver/Src/stm32f3xx_hal_tim.c ****     }
 8663              		.loc 1 3943 0
 8664 00e4 7B68     		ldr	r3, [r7, #4]
 8665 00e6 1B68     		ldr	r3, [r3]
 8666 00e8 FA68     		ldr	r2, [r7, #12]
 8667 00ea 9A60     		str	r2, [r3, #8]
3945:Drivers/STM32F3xx_HAL_Driver/Src/stm32f3xx_hal_tim.c ****     
 8668              		.loc 1 3945 0
 8669 00ec 64E0     		b	.L537
 8670              	.L536:
3958:Drivers/STM32F3xx_HAL_Driver/Src/stm32f3xx_hal_tim.c ****                         sClockSourceConfig->ClockPrescaler, 
 8671              		.loc 1 3958 0
 8672 00ee 7B68     		ldr	r3, [r7, #4]
 8673 00f0 1868     		ldr	r0, [r3]
 8674 00f2 3B68     		ldr	r3, [r7]
 8675 00f4 9968     		ldr	r1, [r3, #8]
 8676 00f6 3B68     		ldr	r3, [r7]
 8677 00f8 5A68     		ldr	r2, [r3, #4]
 8678 00fa 3B68     		ldr	r3, [r7]
 8679 00fc DB68     		ldr	r3, [r3, #12]
 8680 00fe FFF7FEFF 		bl	TIM_ETR_SetConfig
3963:Drivers/STM32F3xx_HAL_Driver/Src/stm32f3xx_hal_tim.c ****     }
 8681              		.loc 1 3963 0
 8682 0102 7B68     		ldr	r3, [r7, #4]
 8683 0104 1B68     		ldr	r3, [r3]
 8684 0106 7A68     		ldr	r2, [r7, #4]
 8685 0108 1268     		ldr	r2, [r2]
 8686 010a 9268     		ldr	r2, [r2, #8]
 8687 010c 42F48042 		orr	r2, r2, #16384
 8688 0110 9A60     		str	r2, [r3, #8]
3965:Drivers/STM32F3xx_HAL_Driver/Src/stm32f3xx_hal_tim.c ****     
 8689              		.loc 1 3965 0
 8690 0112 51E0     		b	.L537
 8691              	.L533:
3976:Drivers/STM32F3xx_HAL_Driver/Src/stm32f3xx_hal_tim.c ****                                sClockSourceConfig->ClockPolarity, 
 8692              		.loc 1 3976 0
 8693 0114 7B68     		ldr	r3, [r7, #4]
 8694 0116 1968     		ldr	r1, [r3]
 8695 0118 3B68     		ldr	r3, [r7]
 8696 011a 5A68     		ldr	r2, [r3, #4]
 8697 011c 3B68     		ldr	r3, [r7]
 8698 011e DB68     		ldr	r3, [r3, #12]
 8699 0120 0846     		mov	r0, r1
 8700 0122 1146     		mov	r1, r2
 8701 0124 1A46     		mov	r2, r3
 8702 0126 FFF7FEFF 		bl	TIM_TI1_ConfigInputStage
3979:Drivers/STM32F3xx_HAL_Driver/Src/stm32f3xx_hal_tim.c ****     }
 8703              		.loc 1 3979 0
 8704 012a 7B68     		ldr	r3, [r7, #4]
 8705 012c 1B68     		ldr	r3, [r3]
 8706 012e 1846     		mov	r0, r3
 8707 0130 5021     		movs	r1, #80
 8708 0132 FFF7FEFF 		bl	TIM_ITRx_SetConfig
3981:Drivers/STM32F3xx_HAL_Driver/Src/stm32f3xx_hal_tim.c ****   case TIM_CLOCKSOURCE_TI2:
ARM GAS  /tmp/ccZyKULX.s 			page 225


 8709              		.loc 1 3981 0
 8710 0136 3FE0     		b	.L537
 8711              	.L534:
3991:Drivers/STM32F3xx_HAL_Driver/Src/stm32f3xx_hal_tim.c ****                                sClockSourceConfig->ClockPolarity, 
 8712              		.loc 1 3991 0
 8713 0138 7B68     		ldr	r3, [r7, #4]
 8714 013a 1968     		ldr	r1, [r3]
 8715 013c 3B68     		ldr	r3, [r7]
 8716 013e 5A68     		ldr	r2, [r3, #4]
 8717 0140 3B68     		ldr	r3, [r7]
 8718 0142 DB68     		ldr	r3, [r3, #12]
 8719 0144 0846     		mov	r0, r1
 8720 0146 1146     		mov	r1, r2
 8721 0148 1A46     		mov	r2, r3
 8722 014a FFF7FEFF 		bl	TIM_TI2_ConfigInputStage
3994:Drivers/STM32F3xx_HAL_Driver/Src/stm32f3xx_hal_tim.c ****     }
 8723              		.loc 1 3994 0
 8724 014e 7B68     		ldr	r3, [r7, #4]
 8725 0150 1B68     		ldr	r3, [r3]
 8726 0152 1846     		mov	r0, r3
 8727 0154 6021     		movs	r1, #96
 8728 0156 FFF7FEFF 		bl	TIM_ITRx_SetConfig
3996:Drivers/STM32F3xx_HAL_Driver/Src/stm32f3xx_hal_tim.c ****   case TIM_CLOCKSOURCE_TI1ED:
 8729              		.loc 1 3996 0
 8730 015a 2DE0     		b	.L537
 8731              	.L524:
4006:Drivers/STM32F3xx_HAL_Driver/Src/stm32f3xx_hal_tim.c ****                                sClockSourceConfig->ClockPolarity,
 8732              		.loc 1 4006 0
 8733 015c 7B68     		ldr	r3, [r7, #4]
 8734 015e 1968     		ldr	r1, [r3]
 8735 0160 3B68     		ldr	r3, [r7]
 8736 0162 5A68     		ldr	r2, [r3, #4]
 8737 0164 3B68     		ldr	r3, [r7]
 8738 0166 DB68     		ldr	r3, [r3, #12]
 8739 0168 0846     		mov	r0, r1
 8740 016a 1146     		mov	r1, r2
 8741 016c 1A46     		mov	r2, r3
 8742 016e FFF7FEFF 		bl	TIM_TI1_ConfigInputStage
4009:Drivers/STM32F3xx_HAL_Driver/Src/stm32f3xx_hal_tim.c ****     }
 8743              		.loc 1 4009 0
 8744 0172 7B68     		ldr	r3, [r7, #4]
 8745 0174 1B68     		ldr	r3, [r3]
 8746 0176 1846     		mov	r0, r3
 8747 0178 4021     		movs	r1, #64
 8748 017a FFF7FEFF 		bl	TIM_ITRx_SetConfig
4011:Drivers/STM32F3xx_HAL_Driver/Src/stm32f3xx_hal_tim.c ****   case TIM_CLOCKSOURCE_ITR0:
 8749              		.loc 1 4011 0
 8750 017e 1BE0     		b	.L537
 8751              	.L528:
4017:Drivers/STM32F3xx_HAL_Driver/Src/stm32f3xx_hal_tim.c ****     }
 8752              		.loc 1 4017 0
 8753 0180 7B68     		ldr	r3, [r7, #4]
 8754 0182 1B68     		ldr	r3, [r3]
 8755 0184 1846     		mov	r0, r3
 8756 0186 0021     		movs	r1, #0
 8757 0188 FFF7FEFF 		bl	TIM_ITRx_SetConfig
4019:Drivers/STM32F3xx_HAL_Driver/Src/stm32f3xx_hal_tim.c ****   case TIM_CLOCKSOURCE_ITR1:
ARM GAS  /tmp/ccZyKULX.s 			page 226


 8758              		.loc 1 4019 0
 8759 018c 14E0     		b	.L537
 8760              	.L526:
4025:Drivers/STM32F3xx_HAL_Driver/Src/stm32f3xx_hal_tim.c ****     }
 8761              		.loc 1 4025 0
 8762 018e 7B68     		ldr	r3, [r7, #4]
 8763 0190 1B68     		ldr	r3, [r3]
 8764 0192 1846     		mov	r0, r3
 8765 0194 1021     		movs	r1, #16
 8766 0196 FFF7FEFF 		bl	TIM_ITRx_SetConfig
4027:Drivers/STM32F3xx_HAL_Driver/Src/stm32f3xx_hal_tim.c ****   case TIM_CLOCKSOURCE_ITR2:
 8767              		.loc 1 4027 0
 8768 019a 0DE0     		b	.L537
 8769              	.L529:
4033:Drivers/STM32F3xx_HAL_Driver/Src/stm32f3xx_hal_tim.c ****     }
 8770              		.loc 1 4033 0
 8771 019c 7B68     		ldr	r3, [r7, #4]
 8772 019e 1B68     		ldr	r3, [r3]
 8773 01a0 1846     		mov	r0, r3
 8774 01a2 2021     		movs	r1, #32
 8775 01a4 FFF7FEFF 		bl	TIM_ITRx_SetConfig
4035:Drivers/STM32F3xx_HAL_Driver/Src/stm32f3xx_hal_tim.c ****   case TIM_CLOCKSOURCE_ITR3:
 8776              		.loc 1 4035 0
 8777 01a8 06E0     		b	.L537
 8778              	.L530:
4041:Drivers/STM32F3xx_HAL_Driver/Src/stm32f3xx_hal_tim.c ****     }
 8779              		.loc 1 4041 0
 8780 01aa 7B68     		ldr	r3, [r7, #4]
 8781 01ac 1B68     		ldr	r3, [r3]
 8782 01ae 1846     		mov	r0, r3
 8783 01b0 3021     		movs	r1, #48
 8784 01b2 FFF7FEFF 		bl	TIM_ITRx_SetConfig
4043:Drivers/STM32F3xx_HAL_Driver/Src/stm32f3xx_hal_tim.c ****     
 8785              		.loc 1 4043 0
 8786 01b6 00BF     		nop
 8787              	.L537:
4047:Drivers/STM32F3xx_HAL_Driver/Src/stm32f3xx_hal_tim.c ****   }
4048:Drivers/STM32F3xx_HAL_Driver/Src/stm32f3xx_hal_tim.c ****   htim->State = HAL_TIM_STATE_READY;
 8788              		.loc 1 4048 0
 8789 01b8 7B68     		ldr	r3, [r7, #4]
 8790 01ba 0122     		movs	r2, #1
 8791 01bc 83F83920 		strb	r2, [r3, #57]
4049:Drivers/STM32F3xx_HAL_Driver/Src/stm32f3xx_hal_tim.c ****   
4050:Drivers/STM32F3xx_HAL_Driver/Src/stm32f3xx_hal_tim.c ****   __HAL_UNLOCK(htim);
 8792              		.loc 1 4050 0
 8793 01c0 7B68     		ldr	r3, [r7, #4]
 8794 01c2 0022     		movs	r2, #0
 8795 01c4 83F83820 		strb	r2, [r3, #56]
4051:Drivers/STM32F3xx_HAL_Driver/Src/stm32f3xx_hal_tim.c ****   
4052:Drivers/STM32F3xx_HAL_Driver/Src/stm32f3xx_hal_tim.c ****   return HAL_OK;
 8796              		.loc 1 4052 0
 8797 01c8 0023     		movs	r3, #0
 8798              	.L522:
4053:Drivers/STM32F3xx_HAL_Driver/Src/stm32f3xx_hal_tim.c **** }
 8799              		.loc 1 4053 0
 8800 01ca 1846     		mov	r0, r3
 8801 01cc 1037     		adds	r7, r7, #16
ARM GAS  /tmp/ccZyKULX.s 			page 227


 8802 01ce BD46     		mov	sp, r7
 8803              		@ sp needed
 8804 01d0 80BD     		pop	{r7, pc}
 8805              		.cfi_endproc
 8806              	.LFE194:
 8808 01d2 00BF     		.section	.text.HAL_TIM_ConfigTI1Input,"ax",%progbits
 8809              		.align	2
 8810              		.global	HAL_TIM_ConfigTI1Input
 8811              		.thumb
 8812              		.thumb_func
 8814              	HAL_TIM_ConfigTI1Input:
 8815              	.LFB195:
4054:Drivers/STM32F3xx_HAL_Driver/Src/stm32f3xx_hal_tim.c **** 
4055:Drivers/STM32F3xx_HAL_Driver/Src/stm32f3xx_hal_tim.c **** /**
4056:Drivers/STM32F3xx_HAL_Driver/Src/stm32f3xx_hal_tim.c ****   * @brief  Selects the signal connected to the TI1 input: direct from CH1_input
4057:Drivers/STM32F3xx_HAL_Driver/Src/stm32f3xx_hal_tim.c ****   *         or a XOR combination between CH1_input, CH2_input & CH3_input
4058:Drivers/STM32F3xx_HAL_Driver/Src/stm32f3xx_hal_tim.c ****   * @param  htim: TIM handle.
4059:Drivers/STM32F3xx_HAL_Driver/Src/stm32f3xx_hal_tim.c ****   * @param  TI1_Selection: Indicate whether or not channel 1 is connected to the
4060:Drivers/STM32F3xx_HAL_Driver/Src/stm32f3xx_hal_tim.c ****   *         output of a XOR gate.
4061:Drivers/STM32F3xx_HAL_Driver/Src/stm32f3xx_hal_tim.c ****   *          This parameter can be one of the following values:
4062:Drivers/STM32F3xx_HAL_Driver/Src/stm32f3xx_hal_tim.c ****   *            @arg TIM_TI1SELECTION_CH1: The TIMx_CH1 pin is connected to TI1 input
4063:Drivers/STM32F3xx_HAL_Driver/Src/stm32f3xx_hal_tim.c ****   *            @arg TIM_TI1SELECTION_XORCOMBINATION: The TIMx_CH1, CH2 and CH3
4064:Drivers/STM32F3xx_HAL_Driver/Src/stm32f3xx_hal_tim.c ****   *            pins are connected to the TI1 input (XOR combination)
4065:Drivers/STM32F3xx_HAL_Driver/Src/stm32f3xx_hal_tim.c ****   * @retval HAL status
4066:Drivers/STM32F3xx_HAL_Driver/Src/stm32f3xx_hal_tim.c ****   */
4067:Drivers/STM32F3xx_HAL_Driver/Src/stm32f3xx_hal_tim.c **** HAL_StatusTypeDef HAL_TIM_ConfigTI1Input(TIM_HandleTypeDef *htim, uint32_t TI1_Selection)
4068:Drivers/STM32F3xx_HAL_Driver/Src/stm32f3xx_hal_tim.c **** {
 8816              		.loc 1 4068 0
 8817              		.cfi_startproc
 8818              		@ args = 0, pretend = 0, frame = 16
 8819              		@ frame_needed = 1, uses_anonymous_args = 0
 8820              		@ link register save eliminated.
 8821 0000 80B4     		push	{r7}
 8822              	.LCFI210:
 8823              		.cfi_def_cfa_offset 4
 8824              		.cfi_offset 7, -4
 8825 0002 85B0     		sub	sp, sp, #20
 8826              	.LCFI211:
 8827              		.cfi_def_cfa_offset 24
 8828 0004 00AF     		add	r7, sp, #0
 8829              	.LCFI212:
 8830              		.cfi_def_cfa_register 7
 8831 0006 7860     		str	r0, [r7, #4]
 8832 0008 3960     		str	r1, [r7]
4069:Drivers/STM32F3xx_HAL_Driver/Src/stm32f3xx_hal_tim.c ****   uint32_t tmpcr2 = 0;
 8833              		.loc 1 4069 0
 8834 000a 0023     		movs	r3, #0
 8835 000c FB60     		str	r3, [r7, #12]
4070:Drivers/STM32F3xx_HAL_Driver/Src/stm32f3xx_hal_tim.c ****   
4071:Drivers/STM32F3xx_HAL_Driver/Src/stm32f3xx_hal_tim.c ****   /* Check the parameters */
4072:Drivers/STM32F3xx_HAL_Driver/Src/stm32f3xx_hal_tim.c ****   assert_param(IS_TIM_XOR_INSTANCE(htim->Instance)); 
4073:Drivers/STM32F3xx_HAL_Driver/Src/stm32f3xx_hal_tim.c ****   assert_param(IS_TIM_TI1SELECTION(TI1_Selection));
4074:Drivers/STM32F3xx_HAL_Driver/Src/stm32f3xx_hal_tim.c **** 
4075:Drivers/STM32F3xx_HAL_Driver/Src/stm32f3xx_hal_tim.c ****   /* Get the TIMx CR2 register value */
4076:Drivers/STM32F3xx_HAL_Driver/Src/stm32f3xx_hal_tim.c ****   tmpcr2 = htim->Instance->CR2;
 8836              		.loc 1 4076 0
 8837 000e 7B68     		ldr	r3, [r7, #4]
ARM GAS  /tmp/ccZyKULX.s 			page 228


 8838 0010 1B68     		ldr	r3, [r3]
 8839 0012 5B68     		ldr	r3, [r3, #4]
 8840 0014 FB60     		str	r3, [r7, #12]
4077:Drivers/STM32F3xx_HAL_Driver/Src/stm32f3xx_hal_tim.c **** 
4078:Drivers/STM32F3xx_HAL_Driver/Src/stm32f3xx_hal_tim.c ****   /* Reset the TI1 selection */
4079:Drivers/STM32F3xx_HAL_Driver/Src/stm32f3xx_hal_tim.c ****   tmpcr2 &= ~TIM_CR2_TI1S;
 8841              		.loc 1 4079 0
 8842 0016 FB68     		ldr	r3, [r7, #12]
 8843 0018 23F08003 		bic	r3, r3, #128
 8844 001c FB60     		str	r3, [r7, #12]
4080:Drivers/STM32F3xx_HAL_Driver/Src/stm32f3xx_hal_tim.c **** 
4081:Drivers/STM32F3xx_HAL_Driver/Src/stm32f3xx_hal_tim.c ****   /* Set the the TI1 selection */
4082:Drivers/STM32F3xx_HAL_Driver/Src/stm32f3xx_hal_tim.c ****   tmpcr2 |= TI1_Selection;
 8845              		.loc 1 4082 0
 8846 001e FA68     		ldr	r2, [r7, #12]
 8847 0020 3B68     		ldr	r3, [r7]
 8848 0022 1343     		orrs	r3, r3, r2
 8849 0024 FB60     		str	r3, [r7, #12]
4083:Drivers/STM32F3xx_HAL_Driver/Src/stm32f3xx_hal_tim.c ****   
4084:Drivers/STM32F3xx_HAL_Driver/Src/stm32f3xx_hal_tim.c ****   /* Write to TIMxCR2 */
4085:Drivers/STM32F3xx_HAL_Driver/Src/stm32f3xx_hal_tim.c ****   htim->Instance->CR2 = tmpcr2;
 8850              		.loc 1 4085 0
 8851 0026 7B68     		ldr	r3, [r7, #4]
 8852 0028 1B68     		ldr	r3, [r3]
 8853 002a FA68     		ldr	r2, [r7, #12]
 8854 002c 5A60     		str	r2, [r3, #4]
4086:Drivers/STM32F3xx_HAL_Driver/Src/stm32f3xx_hal_tim.c **** 
4087:Drivers/STM32F3xx_HAL_Driver/Src/stm32f3xx_hal_tim.c ****   return HAL_OK;
 8855              		.loc 1 4087 0
 8856 002e 0023     		movs	r3, #0
4088:Drivers/STM32F3xx_HAL_Driver/Src/stm32f3xx_hal_tim.c **** }
 8857              		.loc 1 4088 0
 8858 0030 1846     		mov	r0, r3
 8859 0032 1437     		adds	r7, r7, #20
 8860 0034 BD46     		mov	sp, r7
 8861              		@ sp needed
 8862 0036 5DF8047B 		ldr	r7, [sp], #4
 8863 003a 7047     		bx	lr
 8864              		.cfi_endproc
 8865              	.LFE195:
 8867              		.section	.text.HAL_TIM_SlaveConfigSynchronization,"ax",%progbits
 8868              		.align	2
 8869              		.global	HAL_TIM_SlaveConfigSynchronization
 8870              		.thumb
 8871              		.thumb_func
 8873              	HAL_TIM_SlaveConfigSynchronization:
 8874              	.LFB196:
4089:Drivers/STM32F3xx_HAL_Driver/Src/stm32f3xx_hal_tim.c **** 
4090:Drivers/STM32F3xx_HAL_Driver/Src/stm32f3xx_hal_tim.c **** /**
4091:Drivers/STM32F3xx_HAL_Driver/Src/stm32f3xx_hal_tim.c ****   * @brief  Configures the TIM in Slave mode
4092:Drivers/STM32F3xx_HAL_Driver/Src/stm32f3xx_hal_tim.c ****   * @param  htim: TIM handle.
4093:Drivers/STM32F3xx_HAL_Driver/Src/stm32f3xx_hal_tim.c ****   * @param  sSlaveConfig: pointer to a TIM_SlaveConfigTypeDef structure that
4094:Drivers/STM32F3xx_HAL_Driver/Src/stm32f3xx_hal_tim.c ****   *         contains the selected trigger (internal trigger input, filtered
4095:Drivers/STM32F3xx_HAL_Driver/Src/stm32f3xx_hal_tim.c ****   *         timer input or external trigger input) and the ) and the Slave 
4096:Drivers/STM32F3xx_HAL_Driver/Src/stm32f3xx_hal_tim.c ****   *         mode (Disable, Reset, Gated, Trigger, External clock mode 1). 
4097:Drivers/STM32F3xx_HAL_Driver/Src/stm32f3xx_hal_tim.c ****   * @retval HAL status
4098:Drivers/STM32F3xx_HAL_Driver/Src/stm32f3xx_hal_tim.c ****   */
ARM GAS  /tmp/ccZyKULX.s 			page 229


4099:Drivers/STM32F3xx_HAL_Driver/Src/stm32f3xx_hal_tim.c **** HAL_StatusTypeDef HAL_TIM_SlaveConfigSynchronization(TIM_HandleTypeDef *htim, TIM_SlaveConfigTypeDe
4100:Drivers/STM32F3xx_HAL_Driver/Src/stm32f3xx_hal_tim.c **** {
 8875              		.loc 1 4100 0
 8876              		.cfi_startproc
 8877              		@ args = 0, pretend = 0, frame = 8
 8878              		@ frame_needed = 1, uses_anonymous_args = 0
 8879 0000 80B5     		push	{r7, lr}
 8880              	.LCFI213:
 8881              		.cfi_def_cfa_offset 8
 8882              		.cfi_offset 7, -8
 8883              		.cfi_offset 14, -4
 8884 0002 82B0     		sub	sp, sp, #8
 8885              	.LCFI214:
 8886              		.cfi_def_cfa_offset 16
 8887 0004 00AF     		add	r7, sp, #0
 8888              	.LCFI215:
 8889              		.cfi_def_cfa_register 7
 8890 0006 7860     		str	r0, [r7, #4]
 8891 0008 3960     		str	r1, [r7]
4101:Drivers/STM32F3xx_HAL_Driver/Src/stm32f3xx_hal_tim.c ****   /* Check the parameters */
4102:Drivers/STM32F3xx_HAL_Driver/Src/stm32f3xx_hal_tim.c ****   assert_param(IS_TIM_SLAVE_INSTANCE(htim->Instance));
4103:Drivers/STM32F3xx_HAL_Driver/Src/stm32f3xx_hal_tim.c ****   assert_param(IS_TIM_SLAVE_MODE(sSlaveConfig->SlaveMode));
4104:Drivers/STM32F3xx_HAL_Driver/Src/stm32f3xx_hal_tim.c ****   assert_param(IS_TIM_TRIGGER_SELECTION(sSlaveConfig->InputTrigger));
4105:Drivers/STM32F3xx_HAL_Driver/Src/stm32f3xx_hal_tim.c ****   
4106:Drivers/STM32F3xx_HAL_Driver/Src/stm32f3xx_hal_tim.c ****   __HAL_LOCK(htim);
 8892              		.loc 1 4106 0
 8893 000a 7B68     		ldr	r3, [r7, #4]
 8894 000c 93F83830 		ldrb	r3, [r3, #56]	@ zero_extendqisi2
 8895 0010 012B     		cmp	r3, #1
 8896 0012 01D1     		bne	.L541
 8897              		.loc 1 4106 0 is_stmt 0 discriminator 1
 8898 0014 0223     		movs	r3, #2
 8899 0016 24E0     		b	.L542
 8900              	.L541:
 8901              		.loc 1 4106 0 discriminator 2
 8902 0018 7B68     		ldr	r3, [r7, #4]
 8903 001a 0122     		movs	r2, #1
 8904 001c 83F83820 		strb	r2, [r3, #56]
4107:Drivers/STM32F3xx_HAL_Driver/Src/stm32f3xx_hal_tim.c **** 
4108:Drivers/STM32F3xx_HAL_Driver/Src/stm32f3xx_hal_tim.c ****   htim->State = HAL_TIM_STATE_BUSY;
 8905              		.loc 1 4108 0 is_stmt 1 discriminator 2
 8906 0020 7B68     		ldr	r3, [r7, #4]
 8907 0022 0222     		movs	r2, #2
 8908 0024 83F83920 		strb	r2, [r3, #57]
4109:Drivers/STM32F3xx_HAL_Driver/Src/stm32f3xx_hal_tim.c ****   
4110:Drivers/STM32F3xx_HAL_Driver/Src/stm32f3xx_hal_tim.c ****   TIM_SlaveTimer_SetConfig(htim, sSlaveConfig);
 8909              		.loc 1 4110 0 discriminator 2
 8910 0028 7868     		ldr	r0, [r7, #4]
 8911 002a 3968     		ldr	r1, [r7]
 8912 002c FFF7FEFF 		bl	TIM_SlaveTimer_SetConfig
4111:Drivers/STM32F3xx_HAL_Driver/Src/stm32f3xx_hal_tim.c ****   
4112:Drivers/STM32F3xx_HAL_Driver/Src/stm32f3xx_hal_tim.c ****   /* Disable Trigger Interrupt */
4113:Drivers/STM32F3xx_HAL_Driver/Src/stm32f3xx_hal_tim.c ****   __HAL_TIM_DISABLE_IT(htim, TIM_IT_TRIGGER);
 8913              		.loc 1 4113 0 discriminator 2
 8914 0030 7B68     		ldr	r3, [r7, #4]
 8915 0032 1B68     		ldr	r3, [r3]
 8916 0034 7A68     		ldr	r2, [r7, #4]
ARM GAS  /tmp/ccZyKULX.s 			page 230


 8917 0036 1268     		ldr	r2, [r2]
 8918 0038 D268     		ldr	r2, [r2, #12]
 8919 003a 22F04002 		bic	r2, r2, #64
 8920 003e DA60     		str	r2, [r3, #12]
4114:Drivers/STM32F3xx_HAL_Driver/Src/stm32f3xx_hal_tim.c ****   
4115:Drivers/STM32F3xx_HAL_Driver/Src/stm32f3xx_hal_tim.c ****   /* Disable Trigger DMA request */
4116:Drivers/STM32F3xx_HAL_Driver/Src/stm32f3xx_hal_tim.c ****   __HAL_TIM_DISABLE_DMA(htim, TIM_DMA_TRIGGER);
 8921              		.loc 1 4116 0 discriminator 2
 8922 0040 7B68     		ldr	r3, [r7, #4]
 8923 0042 1B68     		ldr	r3, [r3]
 8924 0044 7A68     		ldr	r2, [r7, #4]
 8925 0046 1268     		ldr	r2, [r2]
 8926 0048 D268     		ldr	r2, [r2, #12]
 8927 004a 22F48042 		bic	r2, r2, #16384
 8928 004e DA60     		str	r2, [r3, #12]
4117:Drivers/STM32F3xx_HAL_Driver/Src/stm32f3xx_hal_tim.c ****   
4118:Drivers/STM32F3xx_HAL_Driver/Src/stm32f3xx_hal_tim.c ****   htim->State = HAL_TIM_STATE_READY;
 8929              		.loc 1 4118 0 discriminator 2
 8930 0050 7B68     		ldr	r3, [r7, #4]
 8931 0052 0122     		movs	r2, #1
 8932 0054 83F83920 		strb	r2, [r3, #57]
4119:Drivers/STM32F3xx_HAL_Driver/Src/stm32f3xx_hal_tim.c ****      
4120:Drivers/STM32F3xx_HAL_Driver/Src/stm32f3xx_hal_tim.c ****   __HAL_UNLOCK(htim);  
 8933              		.loc 1 4120 0 discriminator 2
 8934 0058 7B68     		ldr	r3, [r7, #4]
 8935 005a 0022     		movs	r2, #0
 8936 005c 83F83820 		strb	r2, [r3, #56]
4121:Drivers/STM32F3xx_HAL_Driver/Src/stm32f3xx_hal_tim.c ****   
4122:Drivers/STM32F3xx_HAL_Driver/Src/stm32f3xx_hal_tim.c ****   return HAL_OK;
 8937              		.loc 1 4122 0 discriminator 2
 8938 0060 0023     		movs	r3, #0
 8939              	.L542:
4123:Drivers/STM32F3xx_HAL_Driver/Src/stm32f3xx_hal_tim.c **** } 
 8940              		.loc 1 4123 0
 8941 0062 1846     		mov	r0, r3
 8942 0064 0837     		adds	r7, r7, #8
 8943 0066 BD46     		mov	sp, r7
 8944              		@ sp needed
 8945 0068 80BD     		pop	{r7, pc}
 8946              		.cfi_endproc
 8947              	.LFE196:
 8949 006a 00BF     		.section	.text.HAL_TIM_SlaveConfigSynchronization_IT,"ax",%progbits
 8950              		.align	2
 8951              		.global	HAL_TIM_SlaveConfigSynchronization_IT
 8952              		.thumb
 8953              		.thumb_func
 8955              	HAL_TIM_SlaveConfigSynchronization_IT:
 8956              	.LFB197:
4124:Drivers/STM32F3xx_HAL_Driver/Src/stm32f3xx_hal_tim.c **** 
4125:Drivers/STM32F3xx_HAL_Driver/Src/stm32f3xx_hal_tim.c **** /**
4126:Drivers/STM32F3xx_HAL_Driver/Src/stm32f3xx_hal_tim.c ****   * @brief  Configures the TIM in Slave mode in interrupt mode
4127:Drivers/STM32F3xx_HAL_Driver/Src/stm32f3xx_hal_tim.c ****   * @param  htim: TIM handle.
4128:Drivers/STM32F3xx_HAL_Driver/Src/stm32f3xx_hal_tim.c ****   * @param  sSlaveConfig: pointer to a TIM_SlaveConfigTypeDef structure that
4129:Drivers/STM32F3xx_HAL_Driver/Src/stm32f3xx_hal_tim.c ****   *         contains the selected trigger (internal trigger input, filtered
4130:Drivers/STM32F3xx_HAL_Driver/Src/stm32f3xx_hal_tim.c ****   *         timer input or external trigger input) and the ) and the Slave 
4131:Drivers/STM32F3xx_HAL_Driver/Src/stm32f3xx_hal_tim.c ****   *         mode (Disable, Reset, Gated, Trigger, External clock mode 1). 
4132:Drivers/STM32F3xx_HAL_Driver/Src/stm32f3xx_hal_tim.c ****   * @retval HAL status
ARM GAS  /tmp/ccZyKULX.s 			page 231


4133:Drivers/STM32F3xx_HAL_Driver/Src/stm32f3xx_hal_tim.c ****   */
4134:Drivers/STM32F3xx_HAL_Driver/Src/stm32f3xx_hal_tim.c **** HAL_StatusTypeDef HAL_TIM_SlaveConfigSynchronization_IT(TIM_HandleTypeDef *htim, 
4135:Drivers/STM32F3xx_HAL_Driver/Src/stm32f3xx_hal_tim.c ****                                                         TIM_SlaveConfigTypeDef * sSlaveConfig)
4136:Drivers/STM32F3xx_HAL_Driver/Src/stm32f3xx_hal_tim.c **** {
 8957              		.loc 1 4136 0
 8958              		.cfi_startproc
 8959              		@ args = 0, pretend = 0, frame = 8
 8960              		@ frame_needed = 1, uses_anonymous_args = 0
 8961 0000 80B5     		push	{r7, lr}
 8962              	.LCFI216:
 8963              		.cfi_def_cfa_offset 8
 8964              		.cfi_offset 7, -8
 8965              		.cfi_offset 14, -4
 8966 0002 82B0     		sub	sp, sp, #8
 8967              	.LCFI217:
 8968              		.cfi_def_cfa_offset 16
 8969 0004 00AF     		add	r7, sp, #0
 8970              	.LCFI218:
 8971              		.cfi_def_cfa_register 7
 8972 0006 7860     		str	r0, [r7, #4]
 8973 0008 3960     		str	r1, [r7]
4137:Drivers/STM32F3xx_HAL_Driver/Src/stm32f3xx_hal_tim.c ****   /* Check the parameters */
4138:Drivers/STM32F3xx_HAL_Driver/Src/stm32f3xx_hal_tim.c ****   assert_param(IS_TIM_SLAVE_INSTANCE(htim->Instance));
4139:Drivers/STM32F3xx_HAL_Driver/Src/stm32f3xx_hal_tim.c ****   assert_param(IS_TIM_SLAVE_MODE(sSlaveConfig->SlaveMode));
4140:Drivers/STM32F3xx_HAL_Driver/Src/stm32f3xx_hal_tim.c ****   assert_param(IS_TIM_TRIGGER_SELECTION(sSlaveConfig->InputTrigger));
4141:Drivers/STM32F3xx_HAL_Driver/Src/stm32f3xx_hal_tim.c ****   
4142:Drivers/STM32F3xx_HAL_Driver/Src/stm32f3xx_hal_tim.c ****   __HAL_LOCK(htim);
 8974              		.loc 1 4142 0
 8975 000a 7B68     		ldr	r3, [r7, #4]
 8976 000c 93F83830 		ldrb	r3, [r3, #56]	@ zero_extendqisi2
 8977 0010 012B     		cmp	r3, #1
 8978 0012 01D1     		bne	.L544
 8979              		.loc 1 4142 0 is_stmt 0 discriminator 1
 8980 0014 0223     		movs	r3, #2
 8981 0016 24E0     		b	.L545
 8982              	.L544:
 8983              		.loc 1 4142 0 discriminator 2
 8984 0018 7B68     		ldr	r3, [r7, #4]
 8985 001a 0122     		movs	r2, #1
 8986 001c 83F83820 		strb	r2, [r3, #56]
4143:Drivers/STM32F3xx_HAL_Driver/Src/stm32f3xx_hal_tim.c **** 
4144:Drivers/STM32F3xx_HAL_Driver/Src/stm32f3xx_hal_tim.c ****   htim->State = HAL_TIM_STATE_BUSY;
 8987              		.loc 1 4144 0 is_stmt 1 discriminator 2
 8988 0020 7B68     		ldr	r3, [r7, #4]
 8989 0022 0222     		movs	r2, #2
 8990 0024 83F83920 		strb	r2, [r3, #57]
4145:Drivers/STM32F3xx_HAL_Driver/Src/stm32f3xx_hal_tim.c ****   
4146:Drivers/STM32F3xx_HAL_Driver/Src/stm32f3xx_hal_tim.c ****   TIM_SlaveTimer_SetConfig(htim, sSlaveConfig);
 8991              		.loc 1 4146 0 discriminator 2
 8992 0028 7868     		ldr	r0, [r7, #4]
 8993 002a 3968     		ldr	r1, [r7]
 8994 002c FFF7FEFF 		bl	TIM_SlaveTimer_SetConfig
4147:Drivers/STM32F3xx_HAL_Driver/Src/stm32f3xx_hal_tim.c ****   
4148:Drivers/STM32F3xx_HAL_Driver/Src/stm32f3xx_hal_tim.c ****   /* Enable Trigger Interrupt */
4149:Drivers/STM32F3xx_HAL_Driver/Src/stm32f3xx_hal_tim.c ****   __HAL_TIM_ENABLE_IT(htim, TIM_IT_TRIGGER);
 8995              		.loc 1 4149 0 discriminator 2
 8996 0030 7B68     		ldr	r3, [r7, #4]
ARM GAS  /tmp/ccZyKULX.s 			page 232


 8997 0032 1B68     		ldr	r3, [r3]
 8998 0034 7A68     		ldr	r2, [r7, #4]
 8999 0036 1268     		ldr	r2, [r2]
 9000 0038 D268     		ldr	r2, [r2, #12]
 9001 003a 42F04002 		orr	r2, r2, #64
 9002 003e DA60     		str	r2, [r3, #12]
4150:Drivers/STM32F3xx_HAL_Driver/Src/stm32f3xx_hal_tim.c ****   
4151:Drivers/STM32F3xx_HAL_Driver/Src/stm32f3xx_hal_tim.c ****   /* Disable Trigger DMA request */
4152:Drivers/STM32F3xx_HAL_Driver/Src/stm32f3xx_hal_tim.c ****   __HAL_TIM_DISABLE_DMA(htim, TIM_DMA_TRIGGER);
 9003              		.loc 1 4152 0 discriminator 2
 9004 0040 7B68     		ldr	r3, [r7, #4]
 9005 0042 1B68     		ldr	r3, [r3]
 9006 0044 7A68     		ldr	r2, [r7, #4]
 9007 0046 1268     		ldr	r2, [r2]
 9008 0048 D268     		ldr	r2, [r2, #12]
 9009 004a 22F48042 		bic	r2, r2, #16384
 9010 004e DA60     		str	r2, [r3, #12]
4153:Drivers/STM32F3xx_HAL_Driver/Src/stm32f3xx_hal_tim.c ****   
4154:Drivers/STM32F3xx_HAL_Driver/Src/stm32f3xx_hal_tim.c ****   htim->State = HAL_TIM_STATE_READY;
 9011              		.loc 1 4154 0 discriminator 2
 9012 0050 7B68     		ldr	r3, [r7, #4]
 9013 0052 0122     		movs	r2, #1
 9014 0054 83F83920 		strb	r2, [r3, #57]
4155:Drivers/STM32F3xx_HAL_Driver/Src/stm32f3xx_hal_tim.c ****      
4156:Drivers/STM32F3xx_HAL_Driver/Src/stm32f3xx_hal_tim.c ****   __HAL_UNLOCK(htim);  
 9015              		.loc 1 4156 0 discriminator 2
 9016 0058 7B68     		ldr	r3, [r7, #4]
 9017 005a 0022     		movs	r2, #0
 9018 005c 83F83820 		strb	r2, [r3, #56]
4157:Drivers/STM32F3xx_HAL_Driver/Src/stm32f3xx_hal_tim.c ****   
4158:Drivers/STM32F3xx_HAL_Driver/Src/stm32f3xx_hal_tim.c ****   return HAL_OK;
 9019              		.loc 1 4158 0 discriminator 2
 9020 0060 0023     		movs	r3, #0
 9021              	.L545:
4159:Drivers/STM32F3xx_HAL_Driver/Src/stm32f3xx_hal_tim.c **** } 
 9022              		.loc 1 4159 0
 9023 0062 1846     		mov	r0, r3
 9024 0064 0837     		adds	r7, r7, #8
 9025 0066 BD46     		mov	sp, r7
 9026              		@ sp needed
 9027 0068 80BD     		pop	{r7, pc}
 9028              		.cfi_endproc
 9029              	.LFE197:
 9031 006a 00BF     		.section	.text.HAL_TIM_ReadCapturedValue,"ax",%progbits
 9032              		.align	2
 9033              		.global	HAL_TIM_ReadCapturedValue
 9034              		.thumb
 9035              		.thumb_func
 9037              	HAL_TIM_ReadCapturedValue:
 9038              	.LFB198:
4160:Drivers/STM32F3xx_HAL_Driver/Src/stm32f3xx_hal_tim.c **** 
4161:Drivers/STM32F3xx_HAL_Driver/Src/stm32f3xx_hal_tim.c **** /**
4162:Drivers/STM32F3xx_HAL_Driver/Src/stm32f3xx_hal_tim.c ****   * @brief  Read the captured value from Capture Compare unit
4163:Drivers/STM32F3xx_HAL_Driver/Src/stm32f3xx_hal_tim.c ****   * @param  htim: TIM handle.
4164:Drivers/STM32F3xx_HAL_Driver/Src/stm32f3xx_hal_tim.c ****   * @param  Channel: TIM Channels to be enabled
4165:Drivers/STM32F3xx_HAL_Driver/Src/stm32f3xx_hal_tim.c ****   *          This parameter can be one of the following values:
4166:Drivers/STM32F3xx_HAL_Driver/Src/stm32f3xx_hal_tim.c ****   *            @arg TIM_CHANNEL_1: TIM Channel 1 selected
ARM GAS  /tmp/ccZyKULX.s 			page 233


4167:Drivers/STM32F3xx_HAL_Driver/Src/stm32f3xx_hal_tim.c ****   *            @arg TIM_CHANNEL_2: TIM Channel 2 selected
4168:Drivers/STM32F3xx_HAL_Driver/Src/stm32f3xx_hal_tim.c ****   *            @arg TIM_CHANNEL_3: TIM Channel 3 selected
4169:Drivers/STM32F3xx_HAL_Driver/Src/stm32f3xx_hal_tim.c ****   *            @arg TIM_CHANNEL_4: TIM Channel 4 selected
4170:Drivers/STM32F3xx_HAL_Driver/Src/stm32f3xx_hal_tim.c ****   * @retval Captured value
4171:Drivers/STM32F3xx_HAL_Driver/Src/stm32f3xx_hal_tim.c ****   */
4172:Drivers/STM32F3xx_HAL_Driver/Src/stm32f3xx_hal_tim.c **** uint32_t HAL_TIM_ReadCapturedValue(TIM_HandleTypeDef *htim, uint32_t Channel)
4173:Drivers/STM32F3xx_HAL_Driver/Src/stm32f3xx_hal_tim.c **** {
 9039              		.loc 1 4173 0
 9040              		.cfi_startproc
 9041              		@ args = 0, pretend = 0, frame = 16
 9042              		@ frame_needed = 1, uses_anonymous_args = 0
 9043              		@ link register save eliminated.
 9044 0000 80B4     		push	{r7}
 9045              	.LCFI219:
 9046              		.cfi_def_cfa_offset 4
 9047              		.cfi_offset 7, -4
 9048 0002 85B0     		sub	sp, sp, #20
 9049              	.LCFI220:
 9050              		.cfi_def_cfa_offset 24
 9051 0004 00AF     		add	r7, sp, #0
 9052              	.LCFI221:
 9053              		.cfi_def_cfa_register 7
 9054 0006 7860     		str	r0, [r7, #4]
 9055 0008 3960     		str	r1, [r7]
4174:Drivers/STM32F3xx_HAL_Driver/Src/stm32f3xx_hal_tim.c ****   uint32_t tmpreg = 0;
 9056              		.loc 1 4174 0
 9057 000a 0023     		movs	r3, #0
 9058 000c FB60     		str	r3, [r7, #12]
4175:Drivers/STM32F3xx_HAL_Driver/Src/stm32f3xx_hal_tim.c ****   
4176:Drivers/STM32F3xx_HAL_Driver/Src/stm32f3xx_hal_tim.c ****   __HAL_LOCK(htim);
 9059              		.loc 1 4176 0
 9060 000e 7B68     		ldr	r3, [r7, #4]
 9061 0010 93F83830 		ldrb	r3, [r3, #56]	@ zero_extendqisi2
 9062 0014 012B     		cmp	r3, #1
 9063 0016 01D1     		bne	.L547
 9064              		.loc 1 4176 0 is_stmt 0 discriminator 1
 9065 0018 0223     		movs	r3, #2
 9066 001a 3DE0     		b	.L548
 9067              	.L547:
 9068              		.loc 1 4176 0 discriminator 2
 9069 001c 7B68     		ldr	r3, [r7, #4]
 9070 001e 0122     		movs	r2, #1
 9071 0020 83F83820 		strb	r2, [r3, #56]
4177:Drivers/STM32F3xx_HAL_Driver/Src/stm32f3xx_hal_tim.c ****   
4178:Drivers/STM32F3xx_HAL_Driver/Src/stm32f3xx_hal_tim.c ****   switch (Channel)
 9072              		.loc 1 4178 0 is_stmt 1 discriminator 2
 9073 0024 3B68     		ldr	r3, [r7]
 9074 0026 0C2B     		cmp	r3, #12
 9075 0028 30D8     		bhi	.L556
 9076 002a 01A2     		adr	r2, .L551
 9077 002c 52F823F0 		ldr	pc, [r2, r3, lsl #2]
 9078              		.p2align 2
 9079              	.L551:
 9080 0030 65000000 		.word	.L550+1
 9081 0034 8D000000 		.word	.L556+1
 9082 0038 8D000000 		.word	.L556+1
 9083 003c 8D000000 		.word	.L556+1
ARM GAS  /tmp/ccZyKULX.s 			page 234


 9084 0040 6F000000 		.word	.L552+1
 9085 0044 8D000000 		.word	.L556+1
 9086 0048 8D000000 		.word	.L556+1
 9087 004c 8D000000 		.word	.L556+1
 9088 0050 79000000 		.word	.L553+1
 9089 0054 8D000000 		.word	.L556+1
 9090 0058 8D000000 		.word	.L556+1
 9091 005c 8D000000 		.word	.L556+1
 9092 0060 83000000 		.word	.L554+1
 9093              		.p2align 1
 9094              	.L550:
4179:Drivers/STM32F3xx_HAL_Driver/Src/stm32f3xx_hal_tim.c ****   {
4180:Drivers/STM32F3xx_HAL_Driver/Src/stm32f3xx_hal_tim.c ****   case TIM_CHANNEL_1:
4181:Drivers/STM32F3xx_HAL_Driver/Src/stm32f3xx_hal_tim.c ****     {
4182:Drivers/STM32F3xx_HAL_Driver/Src/stm32f3xx_hal_tim.c ****       /* Check the parameters */
4183:Drivers/STM32F3xx_HAL_Driver/Src/stm32f3xx_hal_tim.c ****       assert_param(IS_TIM_CC1_INSTANCE(htim->Instance));
4184:Drivers/STM32F3xx_HAL_Driver/Src/stm32f3xx_hal_tim.c ****       
4185:Drivers/STM32F3xx_HAL_Driver/Src/stm32f3xx_hal_tim.c ****       /* Return the capture 1 value */
4186:Drivers/STM32F3xx_HAL_Driver/Src/stm32f3xx_hal_tim.c ****       tmpreg =  htim->Instance->CCR1;
 9095              		.loc 1 4186 0
 9096 0064 7B68     		ldr	r3, [r7, #4]
 9097 0066 1B68     		ldr	r3, [r3]
 9098 0068 5B6B     		ldr	r3, [r3, #52]
 9099 006a FB60     		str	r3, [r7, #12]
4187:Drivers/STM32F3xx_HAL_Driver/Src/stm32f3xx_hal_tim.c ****       
4188:Drivers/STM32F3xx_HAL_Driver/Src/stm32f3xx_hal_tim.c ****       break;
 9100              		.loc 1 4188 0
 9101 006c 0FE0     		b	.L555
 9102              	.L552:
4189:Drivers/STM32F3xx_HAL_Driver/Src/stm32f3xx_hal_tim.c ****     }
4190:Drivers/STM32F3xx_HAL_Driver/Src/stm32f3xx_hal_tim.c ****   case TIM_CHANNEL_2:
4191:Drivers/STM32F3xx_HAL_Driver/Src/stm32f3xx_hal_tim.c ****     {
4192:Drivers/STM32F3xx_HAL_Driver/Src/stm32f3xx_hal_tim.c ****       /* Check the parameters */
4193:Drivers/STM32F3xx_HAL_Driver/Src/stm32f3xx_hal_tim.c ****       assert_param(IS_TIM_CC2_INSTANCE(htim->Instance));
4194:Drivers/STM32F3xx_HAL_Driver/Src/stm32f3xx_hal_tim.c ****       
4195:Drivers/STM32F3xx_HAL_Driver/Src/stm32f3xx_hal_tim.c ****       /* Return the capture 2 value */
4196:Drivers/STM32F3xx_HAL_Driver/Src/stm32f3xx_hal_tim.c ****       tmpreg =   htim->Instance->CCR2;
 9103              		.loc 1 4196 0
 9104 006e 7B68     		ldr	r3, [r7, #4]
 9105 0070 1B68     		ldr	r3, [r3]
 9106 0072 9B6B     		ldr	r3, [r3, #56]
 9107 0074 FB60     		str	r3, [r7, #12]
4197:Drivers/STM32F3xx_HAL_Driver/Src/stm32f3xx_hal_tim.c ****       
4198:Drivers/STM32F3xx_HAL_Driver/Src/stm32f3xx_hal_tim.c ****       break;
 9108              		.loc 1 4198 0
 9109 0076 0AE0     		b	.L555
 9110              	.L553:
4199:Drivers/STM32F3xx_HAL_Driver/Src/stm32f3xx_hal_tim.c ****     }
4200:Drivers/STM32F3xx_HAL_Driver/Src/stm32f3xx_hal_tim.c ****     
4201:Drivers/STM32F3xx_HAL_Driver/Src/stm32f3xx_hal_tim.c ****   case TIM_CHANNEL_3:
4202:Drivers/STM32F3xx_HAL_Driver/Src/stm32f3xx_hal_tim.c ****     {
4203:Drivers/STM32F3xx_HAL_Driver/Src/stm32f3xx_hal_tim.c ****       /* Check the parameters */
4204:Drivers/STM32F3xx_HAL_Driver/Src/stm32f3xx_hal_tim.c ****       assert_param(IS_TIM_CC3_INSTANCE(htim->Instance));
4205:Drivers/STM32F3xx_HAL_Driver/Src/stm32f3xx_hal_tim.c ****       
4206:Drivers/STM32F3xx_HAL_Driver/Src/stm32f3xx_hal_tim.c ****       /* Return the capture 3 value */
4207:Drivers/STM32F3xx_HAL_Driver/Src/stm32f3xx_hal_tim.c ****       tmpreg =   htim->Instance->CCR3;
 9111              		.loc 1 4207 0
ARM GAS  /tmp/ccZyKULX.s 			page 235


 9112 0078 7B68     		ldr	r3, [r7, #4]
 9113 007a 1B68     		ldr	r3, [r3]
 9114 007c DB6B     		ldr	r3, [r3, #60]
 9115 007e FB60     		str	r3, [r7, #12]
4208:Drivers/STM32F3xx_HAL_Driver/Src/stm32f3xx_hal_tim.c ****       
4209:Drivers/STM32F3xx_HAL_Driver/Src/stm32f3xx_hal_tim.c ****       break;
 9116              		.loc 1 4209 0
 9117 0080 05E0     		b	.L555
 9118              	.L554:
4210:Drivers/STM32F3xx_HAL_Driver/Src/stm32f3xx_hal_tim.c ****     }
4211:Drivers/STM32F3xx_HAL_Driver/Src/stm32f3xx_hal_tim.c ****     
4212:Drivers/STM32F3xx_HAL_Driver/Src/stm32f3xx_hal_tim.c ****   case TIM_CHANNEL_4:
4213:Drivers/STM32F3xx_HAL_Driver/Src/stm32f3xx_hal_tim.c ****     {
4214:Drivers/STM32F3xx_HAL_Driver/Src/stm32f3xx_hal_tim.c ****       /* Check the parameters */
4215:Drivers/STM32F3xx_HAL_Driver/Src/stm32f3xx_hal_tim.c ****       assert_param(IS_TIM_CC4_INSTANCE(htim->Instance));
4216:Drivers/STM32F3xx_HAL_Driver/Src/stm32f3xx_hal_tim.c ****       
4217:Drivers/STM32F3xx_HAL_Driver/Src/stm32f3xx_hal_tim.c ****       /* Return the capture 4 value */
4218:Drivers/STM32F3xx_HAL_Driver/Src/stm32f3xx_hal_tim.c ****       tmpreg =   htim->Instance->CCR4;
 9119              		.loc 1 4218 0
 9120 0082 7B68     		ldr	r3, [r7, #4]
 9121 0084 1B68     		ldr	r3, [r3]
 9122 0086 1B6C     		ldr	r3, [r3, #64]
 9123 0088 FB60     		str	r3, [r7, #12]
4219:Drivers/STM32F3xx_HAL_Driver/Src/stm32f3xx_hal_tim.c ****       
4220:Drivers/STM32F3xx_HAL_Driver/Src/stm32f3xx_hal_tim.c ****       break;
 9124              		.loc 1 4220 0
 9125 008a 00E0     		b	.L555
 9126              	.L556:
4221:Drivers/STM32F3xx_HAL_Driver/Src/stm32f3xx_hal_tim.c ****     }
4222:Drivers/STM32F3xx_HAL_Driver/Src/stm32f3xx_hal_tim.c ****     
4223:Drivers/STM32F3xx_HAL_Driver/Src/stm32f3xx_hal_tim.c ****   default:
4224:Drivers/STM32F3xx_HAL_Driver/Src/stm32f3xx_hal_tim.c ****     break;  
 9127              		.loc 1 4224 0
 9128 008c 00BF     		nop
 9129              	.L555:
4225:Drivers/STM32F3xx_HAL_Driver/Src/stm32f3xx_hal_tim.c ****   }
4226:Drivers/STM32F3xx_HAL_Driver/Src/stm32f3xx_hal_tim.c ****      
4227:Drivers/STM32F3xx_HAL_Driver/Src/stm32f3xx_hal_tim.c ****   __HAL_UNLOCK(htim);  
 9130              		.loc 1 4227 0
 9131 008e 7B68     		ldr	r3, [r7, #4]
 9132 0090 0022     		movs	r2, #0
 9133 0092 83F83820 		strb	r2, [r3, #56]
4228:Drivers/STM32F3xx_HAL_Driver/Src/stm32f3xx_hal_tim.c ****   return tmpreg;
 9134              		.loc 1 4228 0
 9135 0096 FB68     		ldr	r3, [r7, #12]
 9136              	.L548:
4229:Drivers/STM32F3xx_HAL_Driver/Src/stm32f3xx_hal_tim.c **** }
 9137              		.loc 1 4229 0
 9138 0098 1846     		mov	r0, r3
 9139 009a 1437     		adds	r7, r7, #20
 9140 009c BD46     		mov	sp, r7
 9141              		@ sp needed
 9142 009e 5DF8047B 		ldr	r7, [sp], #4
 9143 00a2 7047     		bx	lr
 9144              		.cfi_endproc
 9145              	.LFE198:
 9147              		.section	.text.HAL_TIM_PeriodElapsedCallback,"ax",%progbits
ARM GAS  /tmp/ccZyKULX.s 			page 236


 9148              		.align	2
 9149              		.weak	HAL_TIM_PeriodElapsedCallback
 9150              		.thumb
 9151              		.thumb_func
 9153              	HAL_TIM_PeriodElapsedCallback:
 9154              	.LFB199:
4230:Drivers/STM32F3xx_HAL_Driver/Src/stm32f3xx_hal_tim.c **** 
4231:Drivers/STM32F3xx_HAL_Driver/Src/stm32f3xx_hal_tim.c **** /**
4232:Drivers/STM32F3xx_HAL_Driver/Src/stm32f3xx_hal_tim.c ****   * @}
4233:Drivers/STM32F3xx_HAL_Driver/Src/stm32f3xx_hal_tim.c ****   */
4234:Drivers/STM32F3xx_HAL_Driver/Src/stm32f3xx_hal_tim.c ****   
4235:Drivers/STM32F3xx_HAL_Driver/Src/stm32f3xx_hal_tim.c **** /** @defgroup TIM_Exported_Functions_Group9 TIM Callbacks functions
4236:Drivers/STM32F3xx_HAL_Driver/Src/stm32f3xx_hal_tim.c ****  *  @brief    TIM Callbacks functions 
4237:Drivers/STM32F3xx_HAL_Driver/Src/stm32f3xx_hal_tim.c ****  *
4238:Drivers/STM32F3xx_HAL_Driver/Src/stm32f3xx_hal_tim.c **** @verbatim   
4239:Drivers/STM32F3xx_HAL_Driver/Src/stm32f3xx_hal_tim.c ****   ==============================================================================
4240:Drivers/STM32F3xx_HAL_Driver/Src/stm32f3xx_hal_tim.c ****                         ##### TIM Callbacks functions #####
4241:Drivers/STM32F3xx_HAL_Driver/Src/stm32f3xx_hal_tim.c ****   ==============================================================================  
4242:Drivers/STM32F3xx_HAL_Driver/Src/stm32f3xx_hal_tim.c ****  [..]  
4243:Drivers/STM32F3xx_HAL_Driver/Src/stm32f3xx_hal_tim.c ****    This section provides TIM callback functions:
4244:Drivers/STM32F3xx_HAL_Driver/Src/stm32f3xx_hal_tim.c ****    (+) Timer Period elapsed callback
4245:Drivers/STM32F3xx_HAL_Driver/Src/stm32f3xx_hal_tim.c ****    (+) Timer Output Compare callback
4246:Drivers/STM32F3xx_HAL_Driver/Src/stm32f3xx_hal_tim.c ****    (+) Timer Input capture callback
4247:Drivers/STM32F3xx_HAL_Driver/Src/stm32f3xx_hal_tim.c ****    (+) Timer Trigger callback
4248:Drivers/STM32F3xx_HAL_Driver/Src/stm32f3xx_hal_tim.c ****    (+) Timer Error callback
4249:Drivers/STM32F3xx_HAL_Driver/Src/stm32f3xx_hal_tim.c **** 
4250:Drivers/STM32F3xx_HAL_Driver/Src/stm32f3xx_hal_tim.c **** @endverbatim
4251:Drivers/STM32F3xx_HAL_Driver/Src/stm32f3xx_hal_tim.c ****   * @{
4252:Drivers/STM32F3xx_HAL_Driver/Src/stm32f3xx_hal_tim.c ****   */
4253:Drivers/STM32F3xx_HAL_Driver/Src/stm32f3xx_hal_tim.c **** 
4254:Drivers/STM32F3xx_HAL_Driver/Src/stm32f3xx_hal_tim.c **** /**
4255:Drivers/STM32F3xx_HAL_Driver/Src/stm32f3xx_hal_tim.c ****   * @brief  Period elapsed callback in non blocking mode 
4256:Drivers/STM32F3xx_HAL_Driver/Src/stm32f3xx_hal_tim.c ****   * @param  htim: TIM handle
4257:Drivers/STM32F3xx_HAL_Driver/Src/stm32f3xx_hal_tim.c ****   * @retval None
4258:Drivers/STM32F3xx_HAL_Driver/Src/stm32f3xx_hal_tim.c ****   */
4259:Drivers/STM32F3xx_HAL_Driver/Src/stm32f3xx_hal_tim.c **** __weak void HAL_TIM_PeriodElapsedCallback(TIM_HandleTypeDef *htim)
4260:Drivers/STM32F3xx_HAL_Driver/Src/stm32f3xx_hal_tim.c **** {
 9155              		.loc 1 4260 0
 9156              		.cfi_startproc
 9157              		@ args = 0, pretend = 0, frame = 8
 9158              		@ frame_needed = 1, uses_anonymous_args = 0
 9159              		@ link register save eliminated.
 9160 0000 80B4     		push	{r7}
 9161              	.LCFI222:
 9162              		.cfi_def_cfa_offset 4
 9163              		.cfi_offset 7, -4
 9164 0002 83B0     		sub	sp, sp, #12
 9165              	.LCFI223:
 9166              		.cfi_def_cfa_offset 16
 9167 0004 00AF     		add	r7, sp, #0
 9168              	.LCFI224:
 9169              		.cfi_def_cfa_register 7
 9170 0006 7860     		str	r0, [r7, #4]
4261:Drivers/STM32F3xx_HAL_Driver/Src/stm32f3xx_hal_tim.c ****   /* Prevent unused argument(s) compilation warning */
4262:Drivers/STM32F3xx_HAL_Driver/Src/stm32f3xx_hal_tim.c ****   UNUSED(htim);
4263:Drivers/STM32F3xx_HAL_Driver/Src/stm32f3xx_hal_tim.c **** 
4264:Drivers/STM32F3xx_HAL_Driver/Src/stm32f3xx_hal_tim.c ****   /* NOTE : This function Should not be modified, when the callback is needed,
ARM GAS  /tmp/ccZyKULX.s 			page 237


4265:Drivers/STM32F3xx_HAL_Driver/Src/stm32f3xx_hal_tim.c ****             the __HAL_TIM_PeriodElapsedCallback could be implemented in the user file
4266:Drivers/STM32F3xx_HAL_Driver/Src/stm32f3xx_hal_tim.c ****    */
4267:Drivers/STM32F3xx_HAL_Driver/Src/stm32f3xx_hal_tim.c ****   
4268:Drivers/STM32F3xx_HAL_Driver/Src/stm32f3xx_hal_tim.c **** }
 9171              		.loc 1 4268 0
 9172 0008 0C37     		adds	r7, r7, #12
 9173 000a BD46     		mov	sp, r7
 9174              		@ sp needed
 9175 000c 5DF8047B 		ldr	r7, [sp], #4
 9176 0010 7047     		bx	lr
 9177              		.cfi_endproc
 9178              	.LFE199:
 9180 0012 00BF     		.section	.text.HAL_TIM_OC_DelayElapsedCallback,"ax",%progbits
 9181              		.align	2
 9182              		.weak	HAL_TIM_OC_DelayElapsedCallback
 9183              		.thumb
 9184              		.thumb_func
 9186              	HAL_TIM_OC_DelayElapsedCallback:
 9187              	.LFB200:
4269:Drivers/STM32F3xx_HAL_Driver/Src/stm32f3xx_hal_tim.c **** /**
4270:Drivers/STM32F3xx_HAL_Driver/Src/stm32f3xx_hal_tim.c ****   * @brief  Output Compare callback in non blocking mode 
4271:Drivers/STM32F3xx_HAL_Driver/Src/stm32f3xx_hal_tim.c ****   * @param  htim: TIM OC handle
4272:Drivers/STM32F3xx_HAL_Driver/Src/stm32f3xx_hal_tim.c ****   * @retval None
4273:Drivers/STM32F3xx_HAL_Driver/Src/stm32f3xx_hal_tim.c ****   */
4274:Drivers/STM32F3xx_HAL_Driver/Src/stm32f3xx_hal_tim.c **** __weak void HAL_TIM_OC_DelayElapsedCallback(TIM_HandleTypeDef *htim)
4275:Drivers/STM32F3xx_HAL_Driver/Src/stm32f3xx_hal_tim.c **** {
 9188              		.loc 1 4275 0
 9189              		.cfi_startproc
 9190              		@ args = 0, pretend = 0, frame = 8
 9191              		@ frame_needed = 1, uses_anonymous_args = 0
 9192              		@ link register save eliminated.
 9193 0000 80B4     		push	{r7}
 9194              	.LCFI225:
 9195              		.cfi_def_cfa_offset 4
 9196              		.cfi_offset 7, -4
 9197 0002 83B0     		sub	sp, sp, #12
 9198              	.LCFI226:
 9199              		.cfi_def_cfa_offset 16
 9200 0004 00AF     		add	r7, sp, #0
 9201              	.LCFI227:
 9202              		.cfi_def_cfa_register 7
 9203 0006 7860     		str	r0, [r7, #4]
4276:Drivers/STM32F3xx_HAL_Driver/Src/stm32f3xx_hal_tim.c ****   /* Prevent unused argument(s) compilation warning */
4277:Drivers/STM32F3xx_HAL_Driver/Src/stm32f3xx_hal_tim.c ****   UNUSED(htim);
4278:Drivers/STM32F3xx_HAL_Driver/Src/stm32f3xx_hal_tim.c **** 
4279:Drivers/STM32F3xx_HAL_Driver/Src/stm32f3xx_hal_tim.c ****   /* NOTE : This function Should not be modified, when the callback is needed,
4280:Drivers/STM32F3xx_HAL_Driver/Src/stm32f3xx_hal_tim.c ****             the __HAL_TIM_OC_DelayElapsedCallback could be implemented in the user file
4281:Drivers/STM32F3xx_HAL_Driver/Src/stm32f3xx_hal_tim.c ****    */
4282:Drivers/STM32F3xx_HAL_Driver/Src/stm32f3xx_hal_tim.c **** }
 9204              		.loc 1 4282 0
 9205 0008 0C37     		adds	r7, r7, #12
 9206 000a BD46     		mov	sp, r7
 9207              		@ sp needed
 9208 000c 5DF8047B 		ldr	r7, [sp], #4
 9209 0010 7047     		bx	lr
 9210              		.cfi_endproc
 9211              	.LFE200:
ARM GAS  /tmp/ccZyKULX.s 			page 238


 9213 0012 00BF     		.section	.text.HAL_TIM_IC_CaptureCallback,"ax",%progbits
 9214              		.align	2
 9215              		.weak	HAL_TIM_IC_CaptureCallback
 9216              		.thumb
 9217              		.thumb_func
 9219              	HAL_TIM_IC_CaptureCallback:
 9220              	.LFB201:
4283:Drivers/STM32F3xx_HAL_Driver/Src/stm32f3xx_hal_tim.c **** /**
4284:Drivers/STM32F3xx_HAL_Driver/Src/stm32f3xx_hal_tim.c ****   * @brief  Input Capture callback in non blocking mode 
4285:Drivers/STM32F3xx_HAL_Driver/Src/stm32f3xx_hal_tim.c ****   * @param  htim: TIM IC handle
4286:Drivers/STM32F3xx_HAL_Driver/Src/stm32f3xx_hal_tim.c ****   * @retval None
4287:Drivers/STM32F3xx_HAL_Driver/Src/stm32f3xx_hal_tim.c ****   */
4288:Drivers/STM32F3xx_HAL_Driver/Src/stm32f3xx_hal_tim.c **** __weak void HAL_TIM_IC_CaptureCallback(TIM_HandleTypeDef *htim)
4289:Drivers/STM32F3xx_HAL_Driver/Src/stm32f3xx_hal_tim.c **** {
 9221              		.loc 1 4289 0
 9222              		.cfi_startproc
 9223              		@ args = 0, pretend = 0, frame = 8
 9224              		@ frame_needed = 1, uses_anonymous_args = 0
 9225              		@ link register save eliminated.
 9226 0000 80B4     		push	{r7}
 9227              	.LCFI228:
 9228              		.cfi_def_cfa_offset 4
 9229              		.cfi_offset 7, -4
 9230 0002 83B0     		sub	sp, sp, #12
 9231              	.LCFI229:
 9232              		.cfi_def_cfa_offset 16
 9233 0004 00AF     		add	r7, sp, #0
 9234              	.LCFI230:
 9235              		.cfi_def_cfa_register 7
 9236 0006 7860     		str	r0, [r7, #4]
4290:Drivers/STM32F3xx_HAL_Driver/Src/stm32f3xx_hal_tim.c ****   /* Prevent unused argument(s) compilation warning */
4291:Drivers/STM32F3xx_HAL_Driver/Src/stm32f3xx_hal_tim.c ****   UNUSED(htim);
4292:Drivers/STM32F3xx_HAL_Driver/Src/stm32f3xx_hal_tim.c **** 
4293:Drivers/STM32F3xx_HAL_Driver/Src/stm32f3xx_hal_tim.c ****   /* NOTE : This function Should not be modified, when the callback is needed,
4294:Drivers/STM32F3xx_HAL_Driver/Src/stm32f3xx_hal_tim.c ****             the __HAL_TIM_IC_CaptureCallback could be implemented in the user file
4295:Drivers/STM32F3xx_HAL_Driver/Src/stm32f3xx_hal_tim.c ****    */
4296:Drivers/STM32F3xx_HAL_Driver/Src/stm32f3xx_hal_tim.c **** }
 9237              		.loc 1 4296 0
 9238 0008 0C37     		adds	r7, r7, #12
 9239 000a BD46     		mov	sp, r7
 9240              		@ sp needed
 9241 000c 5DF8047B 		ldr	r7, [sp], #4
 9242 0010 7047     		bx	lr
 9243              		.cfi_endproc
 9244              	.LFE201:
 9246 0012 00BF     		.section	.text.HAL_TIM_PWM_PulseFinishedCallback,"ax",%progbits
 9247              		.align	2
 9248              		.weak	HAL_TIM_PWM_PulseFinishedCallback
 9249              		.thumb
 9250              		.thumb_func
 9252              	HAL_TIM_PWM_PulseFinishedCallback:
 9253              	.LFB202:
4297:Drivers/STM32F3xx_HAL_Driver/Src/stm32f3xx_hal_tim.c **** 
4298:Drivers/STM32F3xx_HAL_Driver/Src/stm32f3xx_hal_tim.c **** /**
4299:Drivers/STM32F3xx_HAL_Driver/Src/stm32f3xx_hal_tim.c ****   * @brief  PWM Pulse finished callback in non blocking mode 
4300:Drivers/STM32F3xx_HAL_Driver/Src/stm32f3xx_hal_tim.c ****   * @param  htim: TIM handle
4301:Drivers/STM32F3xx_HAL_Driver/Src/stm32f3xx_hal_tim.c ****   * @retval None
ARM GAS  /tmp/ccZyKULX.s 			page 239


4302:Drivers/STM32F3xx_HAL_Driver/Src/stm32f3xx_hal_tim.c ****   */
4303:Drivers/STM32F3xx_HAL_Driver/Src/stm32f3xx_hal_tim.c **** __weak void HAL_TIM_PWM_PulseFinishedCallback(TIM_HandleTypeDef *htim)
4304:Drivers/STM32F3xx_HAL_Driver/Src/stm32f3xx_hal_tim.c **** {
 9254              		.loc 1 4304 0
 9255              		.cfi_startproc
 9256              		@ args = 0, pretend = 0, frame = 8
 9257              		@ frame_needed = 1, uses_anonymous_args = 0
 9258              		@ link register save eliminated.
 9259 0000 80B4     		push	{r7}
 9260              	.LCFI231:
 9261              		.cfi_def_cfa_offset 4
 9262              		.cfi_offset 7, -4
 9263 0002 83B0     		sub	sp, sp, #12
 9264              	.LCFI232:
 9265              		.cfi_def_cfa_offset 16
 9266 0004 00AF     		add	r7, sp, #0
 9267              	.LCFI233:
 9268              		.cfi_def_cfa_register 7
 9269 0006 7860     		str	r0, [r7, #4]
4305:Drivers/STM32F3xx_HAL_Driver/Src/stm32f3xx_hal_tim.c ****   /* Prevent unused argument(s) compilation warning */
4306:Drivers/STM32F3xx_HAL_Driver/Src/stm32f3xx_hal_tim.c ****   UNUSED(htim);
4307:Drivers/STM32F3xx_HAL_Driver/Src/stm32f3xx_hal_tim.c **** 
4308:Drivers/STM32F3xx_HAL_Driver/Src/stm32f3xx_hal_tim.c ****   /* NOTE : This function Should not be modified, when the callback is needed,
4309:Drivers/STM32F3xx_HAL_Driver/Src/stm32f3xx_hal_tim.c ****             the __HAL_TIM_PWM_PulseFinishedCallback could be implemented in the user file
4310:Drivers/STM32F3xx_HAL_Driver/Src/stm32f3xx_hal_tim.c ****    */
4311:Drivers/STM32F3xx_HAL_Driver/Src/stm32f3xx_hal_tim.c **** }
 9270              		.loc 1 4311 0
 9271 0008 0C37     		adds	r7, r7, #12
 9272 000a BD46     		mov	sp, r7
 9273              		@ sp needed
 9274 000c 5DF8047B 		ldr	r7, [sp], #4
 9275 0010 7047     		bx	lr
 9276              		.cfi_endproc
 9277              	.LFE202:
 9279 0012 00BF     		.section	.text.HAL_TIM_TriggerCallback,"ax",%progbits
 9280              		.align	2
 9281              		.weak	HAL_TIM_TriggerCallback
 9282              		.thumb
 9283              		.thumb_func
 9285              	HAL_TIM_TriggerCallback:
 9286              	.LFB203:
4312:Drivers/STM32F3xx_HAL_Driver/Src/stm32f3xx_hal_tim.c **** 
4313:Drivers/STM32F3xx_HAL_Driver/Src/stm32f3xx_hal_tim.c **** /**
4314:Drivers/STM32F3xx_HAL_Driver/Src/stm32f3xx_hal_tim.c ****   * @brief  Hall Trigger detection callback in non blocking mode 
4315:Drivers/STM32F3xx_HAL_Driver/Src/stm32f3xx_hal_tim.c ****   * @param  htim: TIM handle
4316:Drivers/STM32F3xx_HAL_Driver/Src/stm32f3xx_hal_tim.c ****   * @retval None
4317:Drivers/STM32F3xx_HAL_Driver/Src/stm32f3xx_hal_tim.c ****   */
4318:Drivers/STM32F3xx_HAL_Driver/Src/stm32f3xx_hal_tim.c **** __weak void HAL_TIM_TriggerCallback(TIM_HandleTypeDef *htim)
4319:Drivers/STM32F3xx_HAL_Driver/Src/stm32f3xx_hal_tim.c **** {
 9287              		.loc 1 4319 0
 9288              		.cfi_startproc
 9289              		@ args = 0, pretend = 0, frame = 8
 9290              		@ frame_needed = 1, uses_anonymous_args = 0
 9291              		@ link register save eliminated.
 9292 0000 80B4     		push	{r7}
 9293              	.LCFI234:
 9294              		.cfi_def_cfa_offset 4
ARM GAS  /tmp/ccZyKULX.s 			page 240


 9295              		.cfi_offset 7, -4
 9296 0002 83B0     		sub	sp, sp, #12
 9297              	.LCFI235:
 9298              		.cfi_def_cfa_offset 16
 9299 0004 00AF     		add	r7, sp, #0
 9300              	.LCFI236:
 9301              		.cfi_def_cfa_register 7
 9302 0006 7860     		str	r0, [r7, #4]
4320:Drivers/STM32F3xx_HAL_Driver/Src/stm32f3xx_hal_tim.c ****   /* Prevent unused argument(s) compilation warning */
4321:Drivers/STM32F3xx_HAL_Driver/Src/stm32f3xx_hal_tim.c ****   UNUSED(htim);
4322:Drivers/STM32F3xx_HAL_Driver/Src/stm32f3xx_hal_tim.c **** 
4323:Drivers/STM32F3xx_HAL_Driver/Src/stm32f3xx_hal_tim.c ****   /* NOTE : This function Should not be modified, when the callback is needed,
4324:Drivers/STM32F3xx_HAL_Driver/Src/stm32f3xx_hal_tim.c ****             the HAL_TIM_TriggerCallback could be implemented in the user file
4325:Drivers/STM32F3xx_HAL_Driver/Src/stm32f3xx_hal_tim.c ****    */
4326:Drivers/STM32F3xx_HAL_Driver/Src/stm32f3xx_hal_tim.c **** }
 9303              		.loc 1 4326 0
 9304 0008 0C37     		adds	r7, r7, #12
 9305 000a BD46     		mov	sp, r7
 9306              		@ sp needed
 9307 000c 5DF8047B 		ldr	r7, [sp], #4
 9308 0010 7047     		bx	lr
 9309              		.cfi_endproc
 9310              	.LFE203:
 9312 0012 00BF     		.section	.text.HAL_TIM_ErrorCallback,"ax",%progbits
 9313              		.align	2
 9314              		.weak	HAL_TIM_ErrorCallback
 9315              		.thumb
 9316              		.thumb_func
 9318              	HAL_TIM_ErrorCallback:
 9319              	.LFB204:
4327:Drivers/STM32F3xx_HAL_Driver/Src/stm32f3xx_hal_tim.c **** 
4328:Drivers/STM32F3xx_HAL_Driver/Src/stm32f3xx_hal_tim.c **** /**
4329:Drivers/STM32F3xx_HAL_Driver/Src/stm32f3xx_hal_tim.c ****   * @brief  Timer error callback in non blocking mode 
4330:Drivers/STM32F3xx_HAL_Driver/Src/stm32f3xx_hal_tim.c ****   * @param  htim: TIM handle
4331:Drivers/STM32F3xx_HAL_Driver/Src/stm32f3xx_hal_tim.c ****   * @retval None
4332:Drivers/STM32F3xx_HAL_Driver/Src/stm32f3xx_hal_tim.c ****   */
4333:Drivers/STM32F3xx_HAL_Driver/Src/stm32f3xx_hal_tim.c **** __weak void HAL_TIM_ErrorCallback(TIM_HandleTypeDef *htim)
4334:Drivers/STM32F3xx_HAL_Driver/Src/stm32f3xx_hal_tim.c **** {
 9320              		.loc 1 4334 0
 9321              		.cfi_startproc
 9322              		@ args = 0, pretend = 0, frame = 8
 9323              		@ frame_needed = 1, uses_anonymous_args = 0
 9324              		@ link register save eliminated.
 9325 0000 80B4     		push	{r7}
 9326              	.LCFI237:
 9327              		.cfi_def_cfa_offset 4
 9328              		.cfi_offset 7, -4
 9329 0002 83B0     		sub	sp, sp, #12
 9330              	.LCFI238:
 9331              		.cfi_def_cfa_offset 16
 9332 0004 00AF     		add	r7, sp, #0
 9333              	.LCFI239:
 9334              		.cfi_def_cfa_register 7
 9335 0006 7860     		str	r0, [r7, #4]
4335:Drivers/STM32F3xx_HAL_Driver/Src/stm32f3xx_hal_tim.c ****   /* Prevent unused argument(s) compilation warning */
4336:Drivers/STM32F3xx_HAL_Driver/Src/stm32f3xx_hal_tim.c ****   UNUSED(htim);
4337:Drivers/STM32F3xx_HAL_Driver/Src/stm32f3xx_hal_tim.c **** 
ARM GAS  /tmp/ccZyKULX.s 			page 241


4338:Drivers/STM32F3xx_HAL_Driver/Src/stm32f3xx_hal_tim.c ****   /* NOTE : This function Should not be modified, when the callback is needed,
4339:Drivers/STM32F3xx_HAL_Driver/Src/stm32f3xx_hal_tim.c ****             the HAL_TIM_ErrorCallback could be implemented in the user file
4340:Drivers/STM32F3xx_HAL_Driver/Src/stm32f3xx_hal_tim.c ****    */
4341:Drivers/STM32F3xx_HAL_Driver/Src/stm32f3xx_hal_tim.c **** }
 9336              		.loc 1 4341 0
 9337 0008 0C37     		adds	r7, r7, #12
 9338 000a BD46     		mov	sp, r7
 9339              		@ sp needed
 9340 000c 5DF8047B 		ldr	r7, [sp], #4
 9341 0010 7047     		bx	lr
 9342              		.cfi_endproc
 9343              	.LFE204:
 9345 0012 00BF     		.section	.text.HAL_TIM_Base_GetState,"ax",%progbits
 9346              		.align	2
 9347              		.global	HAL_TIM_Base_GetState
 9348              		.thumb
 9349              		.thumb_func
 9351              	HAL_TIM_Base_GetState:
 9352              	.LFB205:
4342:Drivers/STM32F3xx_HAL_Driver/Src/stm32f3xx_hal_tim.c **** 
4343:Drivers/STM32F3xx_HAL_Driver/Src/stm32f3xx_hal_tim.c **** /**
4344:Drivers/STM32F3xx_HAL_Driver/Src/stm32f3xx_hal_tim.c ****   * @}
4345:Drivers/STM32F3xx_HAL_Driver/Src/stm32f3xx_hal_tim.c ****   */
4346:Drivers/STM32F3xx_HAL_Driver/Src/stm32f3xx_hal_tim.c **** 
4347:Drivers/STM32F3xx_HAL_Driver/Src/stm32f3xx_hal_tim.c **** /** @defgroup TIM_Exported_Functions_Group10 Peripheral State functions 
4348:Drivers/STM32F3xx_HAL_Driver/Src/stm32f3xx_hal_tim.c ****  *  @brief   Peripheral State functions 
4349:Drivers/STM32F3xx_HAL_Driver/Src/stm32f3xx_hal_tim.c ****  *
4350:Drivers/STM32F3xx_HAL_Driver/Src/stm32f3xx_hal_tim.c **** @verbatim   
4351:Drivers/STM32F3xx_HAL_Driver/Src/stm32f3xx_hal_tim.c ****   ==============================================================================
4352:Drivers/STM32F3xx_HAL_Driver/Src/stm32f3xx_hal_tim.c ****                         ##### Peripheral State functions #####
4353:Drivers/STM32F3xx_HAL_Driver/Src/stm32f3xx_hal_tim.c ****   ==============================================================================  
4354:Drivers/STM32F3xx_HAL_Driver/Src/stm32f3xx_hal_tim.c ****     [..]
4355:Drivers/STM32F3xx_HAL_Driver/Src/stm32f3xx_hal_tim.c ****     This subsection permit to get in run-time the status of the peripheral 
4356:Drivers/STM32F3xx_HAL_Driver/Src/stm32f3xx_hal_tim.c ****     and the data flow.
4357:Drivers/STM32F3xx_HAL_Driver/Src/stm32f3xx_hal_tim.c **** 
4358:Drivers/STM32F3xx_HAL_Driver/Src/stm32f3xx_hal_tim.c **** @endverbatim
4359:Drivers/STM32F3xx_HAL_Driver/Src/stm32f3xx_hal_tim.c ****   * @{
4360:Drivers/STM32F3xx_HAL_Driver/Src/stm32f3xx_hal_tim.c ****   */
4361:Drivers/STM32F3xx_HAL_Driver/Src/stm32f3xx_hal_tim.c **** 
4362:Drivers/STM32F3xx_HAL_Driver/Src/stm32f3xx_hal_tim.c **** /**
4363:Drivers/STM32F3xx_HAL_Driver/Src/stm32f3xx_hal_tim.c ****   * @brief  Return the TIM Base state
4364:Drivers/STM32F3xx_HAL_Driver/Src/stm32f3xx_hal_tim.c ****   * @param  htim: TIM Base handle
4365:Drivers/STM32F3xx_HAL_Driver/Src/stm32f3xx_hal_tim.c ****   * @retval HAL state
4366:Drivers/STM32F3xx_HAL_Driver/Src/stm32f3xx_hal_tim.c ****   */
4367:Drivers/STM32F3xx_HAL_Driver/Src/stm32f3xx_hal_tim.c **** HAL_TIM_StateTypeDef HAL_TIM_Base_GetState(TIM_HandleTypeDef *htim)
4368:Drivers/STM32F3xx_HAL_Driver/Src/stm32f3xx_hal_tim.c **** {
 9353              		.loc 1 4368 0
 9354              		.cfi_startproc
 9355              		@ args = 0, pretend = 0, frame = 8
 9356              		@ frame_needed = 1, uses_anonymous_args = 0
 9357              		@ link register save eliminated.
 9358 0000 80B4     		push	{r7}
 9359              	.LCFI240:
 9360              		.cfi_def_cfa_offset 4
 9361              		.cfi_offset 7, -4
 9362 0002 83B0     		sub	sp, sp, #12
 9363              	.LCFI241:
ARM GAS  /tmp/ccZyKULX.s 			page 242


 9364              		.cfi_def_cfa_offset 16
 9365 0004 00AF     		add	r7, sp, #0
 9366              	.LCFI242:
 9367              		.cfi_def_cfa_register 7
 9368 0006 7860     		str	r0, [r7, #4]
4369:Drivers/STM32F3xx_HAL_Driver/Src/stm32f3xx_hal_tim.c ****   return htim->State;
 9369              		.loc 1 4369 0
 9370 0008 7B68     		ldr	r3, [r7, #4]
 9371 000a 93F83930 		ldrb	r3, [r3, #57]
 9372 000e DBB2     		uxtb	r3, r3
4370:Drivers/STM32F3xx_HAL_Driver/Src/stm32f3xx_hal_tim.c **** }
 9373              		.loc 1 4370 0
 9374 0010 1846     		mov	r0, r3
 9375 0012 0C37     		adds	r7, r7, #12
 9376 0014 BD46     		mov	sp, r7
 9377              		@ sp needed
 9378 0016 5DF8047B 		ldr	r7, [sp], #4
 9379 001a 7047     		bx	lr
 9380              		.cfi_endproc
 9381              	.LFE205:
 9383              		.section	.text.HAL_TIM_OC_GetState,"ax",%progbits
 9384              		.align	2
 9385              		.global	HAL_TIM_OC_GetState
 9386              		.thumb
 9387              		.thumb_func
 9389              	HAL_TIM_OC_GetState:
 9390              	.LFB206:
4371:Drivers/STM32F3xx_HAL_Driver/Src/stm32f3xx_hal_tim.c **** 
4372:Drivers/STM32F3xx_HAL_Driver/Src/stm32f3xx_hal_tim.c **** /**
4373:Drivers/STM32F3xx_HAL_Driver/Src/stm32f3xx_hal_tim.c ****   * @brief  Return the TIM OC state
4374:Drivers/STM32F3xx_HAL_Driver/Src/stm32f3xx_hal_tim.c ****   * @param  htim: TIM Ouput Compare handle
4375:Drivers/STM32F3xx_HAL_Driver/Src/stm32f3xx_hal_tim.c ****   * @retval HAL state
4376:Drivers/STM32F3xx_HAL_Driver/Src/stm32f3xx_hal_tim.c ****   */
4377:Drivers/STM32F3xx_HAL_Driver/Src/stm32f3xx_hal_tim.c **** HAL_TIM_StateTypeDef HAL_TIM_OC_GetState(TIM_HandleTypeDef *htim)
4378:Drivers/STM32F3xx_HAL_Driver/Src/stm32f3xx_hal_tim.c **** {
 9391              		.loc 1 4378 0
 9392              		.cfi_startproc
 9393              		@ args = 0, pretend = 0, frame = 8
 9394              		@ frame_needed = 1, uses_anonymous_args = 0
 9395              		@ link register save eliminated.
 9396 0000 80B4     		push	{r7}
 9397              	.LCFI243:
 9398              		.cfi_def_cfa_offset 4
 9399              		.cfi_offset 7, -4
 9400 0002 83B0     		sub	sp, sp, #12
 9401              	.LCFI244:
 9402              		.cfi_def_cfa_offset 16
 9403 0004 00AF     		add	r7, sp, #0
 9404              	.LCFI245:
 9405              		.cfi_def_cfa_register 7
 9406 0006 7860     		str	r0, [r7, #4]
4379:Drivers/STM32F3xx_HAL_Driver/Src/stm32f3xx_hal_tim.c ****   return htim->State;
 9407              		.loc 1 4379 0
 9408 0008 7B68     		ldr	r3, [r7, #4]
 9409 000a 93F83930 		ldrb	r3, [r3, #57]
 9410 000e DBB2     		uxtb	r3, r3
4380:Drivers/STM32F3xx_HAL_Driver/Src/stm32f3xx_hal_tim.c **** }
ARM GAS  /tmp/ccZyKULX.s 			page 243


 9411              		.loc 1 4380 0
 9412 0010 1846     		mov	r0, r3
 9413 0012 0C37     		adds	r7, r7, #12
 9414 0014 BD46     		mov	sp, r7
 9415              		@ sp needed
 9416 0016 5DF8047B 		ldr	r7, [sp], #4
 9417 001a 7047     		bx	lr
 9418              		.cfi_endproc
 9419              	.LFE206:
 9421              		.section	.text.HAL_TIM_PWM_GetState,"ax",%progbits
 9422              		.align	2
 9423              		.global	HAL_TIM_PWM_GetState
 9424              		.thumb
 9425              		.thumb_func
 9427              	HAL_TIM_PWM_GetState:
 9428              	.LFB207:
4381:Drivers/STM32F3xx_HAL_Driver/Src/stm32f3xx_hal_tim.c **** 
4382:Drivers/STM32F3xx_HAL_Driver/Src/stm32f3xx_hal_tim.c **** /**
4383:Drivers/STM32F3xx_HAL_Driver/Src/stm32f3xx_hal_tim.c ****   * @brief  Return the TIM PWM state
4384:Drivers/STM32F3xx_HAL_Driver/Src/stm32f3xx_hal_tim.c ****   * @param  htim: TIM handle
4385:Drivers/STM32F3xx_HAL_Driver/Src/stm32f3xx_hal_tim.c ****   * @retval HAL state
4386:Drivers/STM32F3xx_HAL_Driver/Src/stm32f3xx_hal_tim.c ****   */
4387:Drivers/STM32F3xx_HAL_Driver/Src/stm32f3xx_hal_tim.c **** HAL_TIM_StateTypeDef HAL_TIM_PWM_GetState(TIM_HandleTypeDef *htim)
4388:Drivers/STM32F3xx_HAL_Driver/Src/stm32f3xx_hal_tim.c **** {
 9429              		.loc 1 4388 0
 9430              		.cfi_startproc
 9431              		@ args = 0, pretend = 0, frame = 8
 9432              		@ frame_needed = 1, uses_anonymous_args = 0
 9433              		@ link register save eliminated.
 9434 0000 80B4     		push	{r7}
 9435              	.LCFI246:
 9436              		.cfi_def_cfa_offset 4
 9437              		.cfi_offset 7, -4
 9438 0002 83B0     		sub	sp, sp, #12
 9439              	.LCFI247:
 9440              		.cfi_def_cfa_offset 16
 9441 0004 00AF     		add	r7, sp, #0
 9442              	.LCFI248:
 9443              		.cfi_def_cfa_register 7
 9444 0006 7860     		str	r0, [r7, #4]
4389:Drivers/STM32F3xx_HAL_Driver/Src/stm32f3xx_hal_tim.c ****   return htim->State;
 9445              		.loc 1 4389 0
 9446 0008 7B68     		ldr	r3, [r7, #4]
 9447 000a 93F83930 		ldrb	r3, [r3, #57]
 9448 000e DBB2     		uxtb	r3, r3
4390:Drivers/STM32F3xx_HAL_Driver/Src/stm32f3xx_hal_tim.c **** }
 9449              		.loc 1 4390 0
 9450 0010 1846     		mov	r0, r3
 9451 0012 0C37     		adds	r7, r7, #12
 9452 0014 BD46     		mov	sp, r7
 9453              		@ sp needed
 9454 0016 5DF8047B 		ldr	r7, [sp], #4
 9455 001a 7047     		bx	lr
 9456              		.cfi_endproc
 9457              	.LFE207:
 9459              		.section	.text.HAL_TIM_IC_GetState,"ax",%progbits
 9460              		.align	2
ARM GAS  /tmp/ccZyKULX.s 			page 244


 9461              		.global	HAL_TIM_IC_GetState
 9462              		.thumb
 9463              		.thumb_func
 9465              	HAL_TIM_IC_GetState:
 9466              	.LFB208:
4391:Drivers/STM32F3xx_HAL_Driver/Src/stm32f3xx_hal_tim.c **** 
4392:Drivers/STM32F3xx_HAL_Driver/Src/stm32f3xx_hal_tim.c **** /**
4393:Drivers/STM32F3xx_HAL_Driver/Src/stm32f3xx_hal_tim.c ****   * @brief  Return the TIM Input Capture state
4394:Drivers/STM32F3xx_HAL_Driver/Src/stm32f3xx_hal_tim.c ****   * @param  htim: TIM IC handle
4395:Drivers/STM32F3xx_HAL_Driver/Src/stm32f3xx_hal_tim.c ****   * @retval HAL state
4396:Drivers/STM32F3xx_HAL_Driver/Src/stm32f3xx_hal_tim.c ****   */
4397:Drivers/STM32F3xx_HAL_Driver/Src/stm32f3xx_hal_tim.c **** HAL_TIM_StateTypeDef HAL_TIM_IC_GetState(TIM_HandleTypeDef *htim)
4398:Drivers/STM32F3xx_HAL_Driver/Src/stm32f3xx_hal_tim.c **** {
 9467              		.loc 1 4398 0
 9468              		.cfi_startproc
 9469              		@ args = 0, pretend = 0, frame = 8
 9470              		@ frame_needed = 1, uses_anonymous_args = 0
 9471              		@ link register save eliminated.
 9472 0000 80B4     		push	{r7}
 9473              	.LCFI249:
 9474              		.cfi_def_cfa_offset 4
 9475              		.cfi_offset 7, -4
 9476 0002 83B0     		sub	sp, sp, #12
 9477              	.LCFI250:
 9478              		.cfi_def_cfa_offset 16
 9479 0004 00AF     		add	r7, sp, #0
 9480              	.LCFI251:
 9481              		.cfi_def_cfa_register 7
 9482 0006 7860     		str	r0, [r7, #4]
4399:Drivers/STM32F3xx_HAL_Driver/Src/stm32f3xx_hal_tim.c ****   return htim->State;
 9483              		.loc 1 4399 0
 9484 0008 7B68     		ldr	r3, [r7, #4]
 9485 000a 93F83930 		ldrb	r3, [r3, #57]
 9486 000e DBB2     		uxtb	r3, r3
4400:Drivers/STM32F3xx_HAL_Driver/Src/stm32f3xx_hal_tim.c **** }
 9487              		.loc 1 4400 0
 9488 0010 1846     		mov	r0, r3
 9489 0012 0C37     		adds	r7, r7, #12
 9490 0014 BD46     		mov	sp, r7
 9491              		@ sp needed
 9492 0016 5DF8047B 		ldr	r7, [sp], #4
 9493 001a 7047     		bx	lr
 9494              		.cfi_endproc
 9495              	.LFE208:
 9497              		.section	.text.HAL_TIM_OnePulse_GetState,"ax",%progbits
 9498              		.align	2
 9499              		.global	HAL_TIM_OnePulse_GetState
 9500              		.thumb
 9501              		.thumb_func
 9503              	HAL_TIM_OnePulse_GetState:
 9504              	.LFB209:
4401:Drivers/STM32F3xx_HAL_Driver/Src/stm32f3xx_hal_tim.c **** 
4402:Drivers/STM32F3xx_HAL_Driver/Src/stm32f3xx_hal_tim.c **** /**
4403:Drivers/STM32F3xx_HAL_Driver/Src/stm32f3xx_hal_tim.c ****   * @brief  Return the TIM One Pulse Mode state
4404:Drivers/STM32F3xx_HAL_Driver/Src/stm32f3xx_hal_tim.c ****   * @param  htim: TIM OPM handle
4405:Drivers/STM32F3xx_HAL_Driver/Src/stm32f3xx_hal_tim.c ****   * @retval HAL state
4406:Drivers/STM32F3xx_HAL_Driver/Src/stm32f3xx_hal_tim.c ****   */
ARM GAS  /tmp/ccZyKULX.s 			page 245


4407:Drivers/STM32F3xx_HAL_Driver/Src/stm32f3xx_hal_tim.c **** HAL_TIM_StateTypeDef HAL_TIM_OnePulse_GetState(TIM_HandleTypeDef *htim)
4408:Drivers/STM32F3xx_HAL_Driver/Src/stm32f3xx_hal_tim.c **** {
 9505              		.loc 1 4408 0
 9506              		.cfi_startproc
 9507              		@ args = 0, pretend = 0, frame = 8
 9508              		@ frame_needed = 1, uses_anonymous_args = 0
 9509              		@ link register save eliminated.
 9510 0000 80B4     		push	{r7}
 9511              	.LCFI252:
 9512              		.cfi_def_cfa_offset 4
 9513              		.cfi_offset 7, -4
 9514 0002 83B0     		sub	sp, sp, #12
 9515              	.LCFI253:
 9516              		.cfi_def_cfa_offset 16
 9517 0004 00AF     		add	r7, sp, #0
 9518              	.LCFI254:
 9519              		.cfi_def_cfa_register 7
 9520 0006 7860     		str	r0, [r7, #4]
4409:Drivers/STM32F3xx_HAL_Driver/Src/stm32f3xx_hal_tim.c ****   return htim->State;
 9521              		.loc 1 4409 0
 9522 0008 7B68     		ldr	r3, [r7, #4]
 9523 000a 93F83930 		ldrb	r3, [r3, #57]
 9524 000e DBB2     		uxtb	r3, r3
4410:Drivers/STM32F3xx_HAL_Driver/Src/stm32f3xx_hal_tim.c **** }
 9525              		.loc 1 4410 0
 9526 0010 1846     		mov	r0, r3
 9527 0012 0C37     		adds	r7, r7, #12
 9528 0014 BD46     		mov	sp, r7
 9529              		@ sp needed
 9530 0016 5DF8047B 		ldr	r7, [sp], #4
 9531 001a 7047     		bx	lr
 9532              		.cfi_endproc
 9533              	.LFE209:
 9535              		.section	.text.HAL_TIM_Encoder_GetState,"ax",%progbits
 9536              		.align	2
 9537              		.global	HAL_TIM_Encoder_GetState
 9538              		.thumb
 9539              		.thumb_func
 9541              	HAL_TIM_Encoder_GetState:
 9542              	.LFB210:
4411:Drivers/STM32F3xx_HAL_Driver/Src/stm32f3xx_hal_tim.c **** 
4412:Drivers/STM32F3xx_HAL_Driver/Src/stm32f3xx_hal_tim.c **** /**
4413:Drivers/STM32F3xx_HAL_Driver/Src/stm32f3xx_hal_tim.c ****   * @brief  Return the TIM Encoder Mode state
4414:Drivers/STM32F3xx_HAL_Driver/Src/stm32f3xx_hal_tim.c ****   * @param  htim: TIM Encoder handle
4415:Drivers/STM32F3xx_HAL_Driver/Src/stm32f3xx_hal_tim.c ****   * @retval HAL state
4416:Drivers/STM32F3xx_HAL_Driver/Src/stm32f3xx_hal_tim.c ****   */
4417:Drivers/STM32F3xx_HAL_Driver/Src/stm32f3xx_hal_tim.c **** HAL_TIM_StateTypeDef HAL_TIM_Encoder_GetState(TIM_HandleTypeDef *htim)
4418:Drivers/STM32F3xx_HAL_Driver/Src/stm32f3xx_hal_tim.c **** {
 9543              		.loc 1 4418 0
 9544              		.cfi_startproc
 9545              		@ args = 0, pretend = 0, frame = 8
 9546              		@ frame_needed = 1, uses_anonymous_args = 0
 9547              		@ link register save eliminated.
 9548 0000 80B4     		push	{r7}
 9549              	.LCFI255:
 9550              		.cfi_def_cfa_offset 4
 9551              		.cfi_offset 7, -4
ARM GAS  /tmp/ccZyKULX.s 			page 246


 9552 0002 83B0     		sub	sp, sp, #12
 9553              	.LCFI256:
 9554              		.cfi_def_cfa_offset 16
 9555 0004 00AF     		add	r7, sp, #0
 9556              	.LCFI257:
 9557              		.cfi_def_cfa_register 7
 9558 0006 7860     		str	r0, [r7, #4]
4419:Drivers/STM32F3xx_HAL_Driver/Src/stm32f3xx_hal_tim.c ****   return htim->State;
 9559              		.loc 1 4419 0
 9560 0008 7B68     		ldr	r3, [r7, #4]
 9561 000a 93F83930 		ldrb	r3, [r3, #57]
 9562 000e DBB2     		uxtb	r3, r3
4420:Drivers/STM32F3xx_HAL_Driver/Src/stm32f3xx_hal_tim.c **** }
 9563              		.loc 1 4420 0
 9564 0010 1846     		mov	r0, r3
 9565 0012 0C37     		adds	r7, r7, #12
 9566 0014 BD46     		mov	sp, r7
 9567              		@ sp needed
 9568 0016 5DF8047B 		ldr	r7, [sp], #4
 9569 001a 7047     		bx	lr
 9570              		.cfi_endproc
 9571              	.LFE210:
 9573              		.section	.text.TIM_DMAError,"ax",%progbits
 9574              		.align	2
 9575              		.global	TIM_DMAError
 9576              		.thumb
 9577              		.thumb_func
 9579              	TIM_DMAError:
 9580              	.LFB211:
4421:Drivers/STM32F3xx_HAL_Driver/Src/stm32f3xx_hal_tim.c **** 
4422:Drivers/STM32F3xx_HAL_Driver/Src/stm32f3xx_hal_tim.c **** /**
4423:Drivers/STM32F3xx_HAL_Driver/Src/stm32f3xx_hal_tim.c ****   * @}
4424:Drivers/STM32F3xx_HAL_Driver/Src/stm32f3xx_hal_tim.c ****   */
4425:Drivers/STM32F3xx_HAL_Driver/Src/stm32f3xx_hal_tim.c **** 
4426:Drivers/STM32F3xx_HAL_Driver/Src/stm32f3xx_hal_tim.c **** /**
4427:Drivers/STM32F3xx_HAL_Driver/Src/stm32f3xx_hal_tim.c ****   * @}
4428:Drivers/STM32F3xx_HAL_Driver/Src/stm32f3xx_hal_tim.c ****   */  
4429:Drivers/STM32F3xx_HAL_Driver/Src/stm32f3xx_hal_tim.c **** 
4430:Drivers/STM32F3xx_HAL_Driver/Src/stm32f3xx_hal_tim.c **** /** @addtogroup TIM_Private_Functions TIM_Private_Functions
4431:Drivers/STM32F3xx_HAL_Driver/Src/stm32f3xx_hal_tim.c ****   * @{
4432:Drivers/STM32F3xx_HAL_Driver/Src/stm32f3xx_hal_tim.c ****   */ 
4433:Drivers/STM32F3xx_HAL_Driver/Src/stm32f3xx_hal_tim.c **** 
4434:Drivers/STM32F3xx_HAL_Driver/Src/stm32f3xx_hal_tim.c **** /**
4435:Drivers/STM32F3xx_HAL_Driver/Src/stm32f3xx_hal_tim.c ****   * @brief  TIM DMA error callback 
4436:Drivers/STM32F3xx_HAL_Driver/Src/stm32f3xx_hal_tim.c ****   * @param  hdma : pointer to DMA handle.
4437:Drivers/STM32F3xx_HAL_Driver/Src/stm32f3xx_hal_tim.c ****   * @retval None
4438:Drivers/STM32F3xx_HAL_Driver/Src/stm32f3xx_hal_tim.c ****   */
4439:Drivers/STM32F3xx_HAL_Driver/Src/stm32f3xx_hal_tim.c **** void TIM_DMAError(DMA_HandleTypeDef *hdma)
4440:Drivers/STM32F3xx_HAL_Driver/Src/stm32f3xx_hal_tim.c **** {
 9581              		.loc 1 4440 0
 9582              		.cfi_startproc
 9583              		@ args = 0, pretend = 0, frame = 16
 9584              		@ frame_needed = 1, uses_anonymous_args = 0
 9585 0000 80B5     		push	{r7, lr}
 9586              	.LCFI258:
 9587              		.cfi_def_cfa_offset 8
 9588              		.cfi_offset 7, -8
ARM GAS  /tmp/ccZyKULX.s 			page 247


 9589              		.cfi_offset 14, -4
 9590 0002 84B0     		sub	sp, sp, #16
 9591              	.LCFI259:
 9592              		.cfi_def_cfa_offset 24
 9593 0004 00AF     		add	r7, sp, #0
 9594              	.LCFI260:
 9595              		.cfi_def_cfa_register 7
 9596 0006 7860     		str	r0, [r7, #4]
4441:Drivers/STM32F3xx_HAL_Driver/Src/stm32f3xx_hal_tim.c ****   TIM_HandleTypeDef* htim = ( TIM_HandleTypeDef* )((DMA_HandleTypeDef* )hdma)->Parent;
 9597              		.loc 1 4441 0
 9598 0008 7B68     		ldr	r3, [r7, #4]
 9599 000a 5B6A     		ldr	r3, [r3, #36]
 9600 000c FB60     		str	r3, [r7, #12]
4442:Drivers/STM32F3xx_HAL_Driver/Src/stm32f3xx_hal_tim.c ****   
4443:Drivers/STM32F3xx_HAL_Driver/Src/stm32f3xx_hal_tim.c ****   htim->State= HAL_TIM_STATE_READY;
 9601              		.loc 1 4443 0
 9602 000e FB68     		ldr	r3, [r7, #12]
 9603 0010 0122     		movs	r2, #1
 9604 0012 83F83920 		strb	r2, [r3, #57]
4444:Drivers/STM32F3xx_HAL_Driver/Src/stm32f3xx_hal_tim.c ****    
4445:Drivers/STM32F3xx_HAL_Driver/Src/stm32f3xx_hal_tim.c ****   HAL_TIM_ErrorCallback(htim);
 9605              		.loc 1 4445 0
 9606 0016 F868     		ldr	r0, [r7, #12]
 9607 0018 FFF7FEFF 		bl	HAL_TIM_ErrorCallback
4446:Drivers/STM32F3xx_HAL_Driver/Src/stm32f3xx_hal_tim.c **** }
 9608              		.loc 1 4446 0
 9609 001c 1037     		adds	r7, r7, #16
 9610 001e BD46     		mov	sp, r7
 9611              		@ sp needed
 9612 0020 80BD     		pop	{r7, pc}
 9613              		.cfi_endproc
 9614              	.LFE211:
 9616 0022 00BF     		.section	.text.TIM_DMADelayPulseCplt,"ax",%progbits
 9617              		.align	2
 9618              		.global	TIM_DMADelayPulseCplt
 9619              		.thumb
 9620              		.thumb_func
 9622              	TIM_DMADelayPulseCplt:
 9623              	.LFB212:
4447:Drivers/STM32F3xx_HAL_Driver/Src/stm32f3xx_hal_tim.c **** 
4448:Drivers/STM32F3xx_HAL_Driver/Src/stm32f3xx_hal_tim.c **** /**
4449:Drivers/STM32F3xx_HAL_Driver/Src/stm32f3xx_hal_tim.c ****   * @brief  TIM DMA Delay Pulse complete callback. 
4450:Drivers/STM32F3xx_HAL_Driver/Src/stm32f3xx_hal_tim.c ****   * @param  hdma : pointer to DMA handle.
4451:Drivers/STM32F3xx_HAL_Driver/Src/stm32f3xx_hal_tim.c ****   * @retval None
4452:Drivers/STM32F3xx_HAL_Driver/Src/stm32f3xx_hal_tim.c ****   */
4453:Drivers/STM32F3xx_HAL_Driver/Src/stm32f3xx_hal_tim.c **** void TIM_DMADelayPulseCplt(DMA_HandleTypeDef *hdma)
4454:Drivers/STM32F3xx_HAL_Driver/Src/stm32f3xx_hal_tim.c **** {
 9624              		.loc 1 4454 0
 9625              		.cfi_startproc
 9626              		@ args = 0, pretend = 0, frame = 16
 9627              		@ frame_needed = 1, uses_anonymous_args = 0
 9628 0000 80B5     		push	{r7, lr}
 9629              	.LCFI261:
 9630              		.cfi_def_cfa_offset 8
 9631              		.cfi_offset 7, -8
 9632              		.cfi_offset 14, -4
 9633 0002 84B0     		sub	sp, sp, #16
ARM GAS  /tmp/ccZyKULX.s 			page 248


 9634              	.LCFI262:
 9635              		.cfi_def_cfa_offset 24
 9636 0004 00AF     		add	r7, sp, #0
 9637              	.LCFI263:
 9638              		.cfi_def_cfa_register 7
 9639 0006 7860     		str	r0, [r7, #4]
4455:Drivers/STM32F3xx_HAL_Driver/Src/stm32f3xx_hal_tim.c ****   TIM_HandleTypeDef* htim = ( TIM_HandleTypeDef* )((DMA_HandleTypeDef* )hdma)->Parent;
 9640              		.loc 1 4455 0
 9641 0008 7B68     		ldr	r3, [r7, #4]
 9642 000a 5B6A     		ldr	r3, [r3, #36]
 9643 000c FB60     		str	r3, [r7, #12]
4456:Drivers/STM32F3xx_HAL_Driver/Src/stm32f3xx_hal_tim.c ****   
4457:Drivers/STM32F3xx_HAL_Driver/Src/stm32f3xx_hal_tim.c ****   htim->State= HAL_TIM_STATE_READY; 
 9644              		.loc 1 4457 0
 9645 000e FB68     		ldr	r3, [r7, #12]
 9646 0010 0122     		movs	r2, #1
 9647 0012 83F83920 		strb	r2, [r3, #57]
4458:Drivers/STM32F3xx_HAL_Driver/Src/stm32f3xx_hal_tim.c ****   
4459:Drivers/STM32F3xx_HAL_Driver/Src/stm32f3xx_hal_tim.c ****   if (hdma == htim->hdma[TIM_DMA_ID_CC1])
 9648              		.loc 1 4459 0
 9649 0016 FB68     		ldr	r3, [r7, #12]
 9650 0018 1A6A     		ldr	r2, [r3, #32]
 9651 001a 7B68     		ldr	r3, [r7, #4]
 9652 001c 9A42     		cmp	r2, r3
 9653 001e 03D1     		bne	.L577
4460:Drivers/STM32F3xx_HAL_Driver/Src/stm32f3xx_hal_tim.c ****   {
4461:Drivers/STM32F3xx_HAL_Driver/Src/stm32f3xx_hal_tim.c ****     htim->Channel = HAL_TIM_ACTIVE_CHANNEL_1;
 9654              		.loc 1 4461 0
 9655 0020 FB68     		ldr	r3, [r7, #12]
 9656 0022 0122     		movs	r2, #1
 9657 0024 1A76     		strb	r2, [r3, #24]
 9658 0026 19E0     		b	.L578
 9659              	.L577:
4462:Drivers/STM32F3xx_HAL_Driver/Src/stm32f3xx_hal_tim.c ****   }
4463:Drivers/STM32F3xx_HAL_Driver/Src/stm32f3xx_hal_tim.c ****   else if (hdma == htim->hdma[TIM_DMA_ID_CC2])
 9660              		.loc 1 4463 0
 9661 0028 FB68     		ldr	r3, [r7, #12]
 9662 002a 5A6A     		ldr	r2, [r3, #36]
 9663 002c 7B68     		ldr	r3, [r7, #4]
 9664 002e 9A42     		cmp	r2, r3
 9665 0030 03D1     		bne	.L579
4464:Drivers/STM32F3xx_HAL_Driver/Src/stm32f3xx_hal_tim.c ****   {
4465:Drivers/STM32F3xx_HAL_Driver/Src/stm32f3xx_hal_tim.c ****     htim->Channel = HAL_TIM_ACTIVE_CHANNEL_2;
 9666              		.loc 1 4465 0
 9667 0032 FB68     		ldr	r3, [r7, #12]
 9668 0034 0222     		movs	r2, #2
 9669 0036 1A76     		strb	r2, [r3, #24]
 9670 0038 10E0     		b	.L578
 9671              	.L579:
4466:Drivers/STM32F3xx_HAL_Driver/Src/stm32f3xx_hal_tim.c ****   }
4467:Drivers/STM32F3xx_HAL_Driver/Src/stm32f3xx_hal_tim.c ****   else if (hdma == htim->hdma[TIM_DMA_ID_CC3])
 9672              		.loc 1 4467 0
 9673 003a FB68     		ldr	r3, [r7, #12]
 9674 003c 9A6A     		ldr	r2, [r3, #40]
 9675 003e 7B68     		ldr	r3, [r7, #4]
 9676 0040 9A42     		cmp	r2, r3
 9677 0042 03D1     		bne	.L580
ARM GAS  /tmp/ccZyKULX.s 			page 249


4468:Drivers/STM32F3xx_HAL_Driver/Src/stm32f3xx_hal_tim.c ****   {
4469:Drivers/STM32F3xx_HAL_Driver/Src/stm32f3xx_hal_tim.c ****     htim->Channel = HAL_TIM_ACTIVE_CHANNEL_3;
 9678              		.loc 1 4469 0
 9679 0044 FB68     		ldr	r3, [r7, #12]
 9680 0046 0422     		movs	r2, #4
 9681 0048 1A76     		strb	r2, [r3, #24]
 9682 004a 07E0     		b	.L578
 9683              	.L580:
4470:Drivers/STM32F3xx_HAL_Driver/Src/stm32f3xx_hal_tim.c ****   }
4471:Drivers/STM32F3xx_HAL_Driver/Src/stm32f3xx_hal_tim.c ****   else if (hdma == htim->hdma[TIM_DMA_ID_CC4])
 9684              		.loc 1 4471 0
 9685 004c FB68     		ldr	r3, [r7, #12]
 9686 004e DA6A     		ldr	r2, [r3, #44]
 9687 0050 7B68     		ldr	r3, [r7, #4]
 9688 0052 9A42     		cmp	r2, r3
 9689 0054 02D1     		bne	.L578
4472:Drivers/STM32F3xx_HAL_Driver/Src/stm32f3xx_hal_tim.c ****   {
4473:Drivers/STM32F3xx_HAL_Driver/Src/stm32f3xx_hal_tim.c ****     htim->Channel = HAL_TIM_ACTIVE_CHANNEL_4;
 9690              		.loc 1 4473 0
 9691 0056 FB68     		ldr	r3, [r7, #12]
 9692 0058 0822     		movs	r2, #8
 9693 005a 1A76     		strb	r2, [r3, #24]
 9694              	.L578:
4474:Drivers/STM32F3xx_HAL_Driver/Src/stm32f3xx_hal_tim.c ****   }
4475:Drivers/STM32F3xx_HAL_Driver/Src/stm32f3xx_hal_tim.c **** 
4476:Drivers/STM32F3xx_HAL_Driver/Src/stm32f3xx_hal_tim.c ****   HAL_TIM_PWM_PulseFinishedCallback(htim);
 9695              		.loc 1 4476 0
 9696 005c F868     		ldr	r0, [r7, #12]
 9697 005e FFF7FEFF 		bl	HAL_TIM_PWM_PulseFinishedCallback
4477:Drivers/STM32F3xx_HAL_Driver/Src/stm32f3xx_hal_tim.c **** 
4478:Drivers/STM32F3xx_HAL_Driver/Src/stm32f3xx_hal_tim.c ****   htim->Channel = HAL_TIM_ACTIVE_CHANNEL_CLEARED;
 9698              		.loc 1 4478 0
 9699 0062 FB68     		ldr	r3, [r7, #12]
 9700 0064 0022     		movs	r2, #0
 9701 0066 1A76     		strb	r2, [r3, #24]
4479:Drivers/STM32F3xx_HAL_Driver/Src/stm32f3xx_hal_tim.c **** }
 9702              		.loc 1 4479 0
 9703 0068 1037     		adds	r7, r7, #16
 9704 006a BD46     		mov	sp, r7
 9705              		@ sp needed
 9706 006c 80BD     		pop	{r7, pc}
 9707              		.cfi_endproc
 9708              	.LFE212:
 9710 006e 00BF     		.section	.text.TIM_DMACaptureCplt,"ax",%progbits
 9711              		.align	2
 9712              		.global	TIM_DMACaptureCplt
 9713              		.thumb
 9714              		.thumb_func
 9716              	TIM_DMACaptureCplt:
 9717              	.LFB213:
4480:Drivers/STM32F3xx_HAL_Driver/Src/stm32f3xx_hal_tim.c **** /**
4481:Drivers/STM32F3xx_HAL_Driver/Src/stm32f3xx_hal_tim.c ****   * @brief  TIM DMA Capture complete callback. 
4482:Drivers/STM32F3xx_HAL_Driver/Src/stm32f3xx_hal_tim.c ****   * @param  hdma : pointer to DMA handle.
4483:Drivers/STM32F3xx_HAL_Driver/Src/stm32f3xx_hal_tim.c ****   * @retval None
4484:Drivers/STM32F3xx_HAL_Driver/Src/stm32f3xx_hal_tim.c ****   */
4485:Drivers/STM32F3xx_HAL_Driver/Src/stm32f3xx_hal_tim.c **** void TIM_DMACaptureCplt(DMA_HandleTypeDef *hdma)
4486:Drivers/STM32F3xx_HAL_Driver/Src/stm32f3xx_hal_tim.c **** {
ARM GAS  /tmp/ccZyKULX.s 			page 250


 9718              		.loc 1 4486 0
 9719              		.cfi_startproc
 9720              		@ args = 0, pretend = 0, frame = 16
 9721              		@ frame_needed = 1, uses_anonymous_args = 0
 9722 0000 80B5     		push	{r7, lr}
 9723              	.LCFI264:
 9724              		.cfi_def_cfa_offset 8
 9725              		.cfi_offset 7, -8
 9726              		.cfi_offset 14, -4
 9727 0002 84B0     		sub	sp, sp, #16
 9728              	.LCFI265:
 9729              		.cfi_def_cfa_offset 24
 9730 0004 00AF     		add	r7, sp, #0
 9731              	.LCFI266:
 9732              		.cfi_def_cfa_register 7
 9733 0006 7860     		str	r0, [r7, #4]
4487:Drivers/STM32F3xx_HAL_Driver/Src/stm32f3xx_hal_tim.c ****   TIM_HandleTypeDef* htim = ( TIM_HandleTypeDef* )((DMA_HandleTypeDef* )hdma)->Parent;
 9734              		.loc 1 4487 0
 9735 0008 7B68     		ldr	r3, [r7, #4]
 9736 000a 5B6A     		ldr	r3, [r3, #36]
 9737 000c FB60     		str	r3, [r7, #12]
4488:Drivers/STM32F3xx_HAL_Driver/Src/stm32f3xx_hal_tim.c ****   
4489:Drivers/STM32F3xx_HAL_Driver/Src/stm32f3xx_hal_tim.c ****   htim->State= HAL_TIM_STATE_READY;
 9738              		.loc 1 4489 0
 9739 000e FB68     		ldr	r3, [r7, #12]
 9740 0010 0122     		movs	r2, #1
 9741 0012 83F83920 		strb	r2, [r3, #57]
4490:Drivers/STM32F3xx_HAL_Driver/Src/stm32f3xx_hal_tim.c ****   
4491:Drivers/STM32F3xx_HAL_Driver/Src/stm32f3xx_hal_tim.c ****   if (hdma == htim->hdma[TIM_DMA_ID_CC1])
 9742              		.loc 1 4491 0
 9743 0016 FB68     		ldr	r3, [r7, #12]
 9744 0018 1A6A     		ldr	r2, [r3, #32]
 9745 001a 7B68     		ldr	r3, [r7, #4]
 9746 001c 9A42     		cmp	r2, r3
 9747 001e 03D1     		bne	.L582
4492:Drivers/STM32F3xx_HAL_Driver/Src/stm32f3xx_hal_tim.c ****   {
4493:Drivers/STM32F3xx_HAL_Driver/Src/stm32f3xx_hal_tim.c ****     htim->Channel = HAL_TIM_ACTIVE_CHANNEL_1;
 9748              		.loc 1 4493 0
 9749 0020 FB68     		ldr	r3, [r7, #12]
 9750 0022 0122     		movs	r2, #1
 9751 0024 1A76     		strb	r2, [r3, #24]
 9752 0026 19E0     		b	.L583
 9753              	.L582:
4494:Drivers/STM32F3xx_HAL_Driver/Src/stm32f3xx_hal_tim.c ****   }
4495:Drivers/STM32F3xx_HAL_Driver/Src/stm32f3xx_hal_tim.c ****   else if (hdma == htim->hdma[TIM_DMA_ID_CC2])
 9754              		.loc 1 4495 0
 9755 0028 FB68     		ldr	r3, [r7, #12]
 9756 002a 5A6A     		ldr	r2, [r3, #36]
 9757 002c 7B68     		ldr	r3, [r7, #4]
 9758 002e 9A42     		cmp	r2, r3
 9759 0030 03D1     		bne	.L584
4496:Drivers/STM32F3xx_HAL_Driver/Src/stm32f3xx_hal_tim.c ****   {
4497:Drivers/STM32F3xx_HAL_Driver/Src/stm32f3xx_hal_tim.c ****     htim->Channel = HAL_TIM_ACTIVE_CHANNEL_2;
 9760              		.loc 1 4497 0
 9761 0032 FB68     		ldr	r3, [r7, #12]
 9762 0034 0222     		movs	r2, #2
 9763 0036 1A76     		strb	r2, [r3, #24]
ARM GAS  /tmp/ccZyKULX.s 			page 251


 9764 0038 10E0     		b	.L583
 9765              	.L584:
4498:Drivers/STM32F3xx_HAL_Driver/Src/stm32f3xx_hal_tim.c ****   }
4499:Drivers/STM32F3xx_HAL_Driver/Src/stm32f3xx_hal_tim.c ****   else if (hdma == htim->hdma[TIM_DMA_ID_CC3])
 9766              		.loc 1 4499 0
 9767 003a FB68     		ldr	r3, [r7, #12]
 9768 003c 9A6A     		ldr	r2, [r3, #40]
 9769 003e 7B68     		ldr	r3, [r7, #4]
 9770 0040 9A42     		cmp	r2, r3
 9771 0042 03D1     		bne	.L585
4500:Drivers/STM32F3xx_HAL_Driver/Src/stm32f3xx_hal_tim.c ****   {
4501:Drivers/STM32F3xx_HAL_Driver/Src/stm32f3xx_hal_tim.c ****     htim->Channel = HAL_TIM_ACTIVE_CHANNEL_3;
 9772              		.loc 1 4501 0
 9773 0044 FB68     		ldr	r3, [r7, #12]
 9774 0046 0422     		movs	r2, #4
 9775 0048 1A76     		strb	r2, [r3, #24]
 9776 004a 07E0     		b	.L583
 9777              	.L585:
4502:Drivers/STM32F3xx_HAL_Driver/Src/stm32f3xx_hal_tim.c ****   }
4503:Drivers/STM32F3xx_HAL_Driver/Src/stm32f3xx_hal_tim.c ****   else if (hdma == htim->hdma[TIM_DMA_ID_CC4])
 9778              		.loc 1 4503 0
 9779 004c FB68     		ldr	r3, [r7, #12]
 9780 004e DA6A     		ldr	r2, [r3, #44]
 9781 0050 7B68     		ldr	r3, [r7, #4]
 9782 0052 9A42     		cmp	r2, r3
 9783 0054 02D1     		bne	.L583
4504:Drivers/STM32F3xx_HAL_Driver/Src/stm32f3xx_hal_tim.c ****   {
4505:Drivers/STM32F3xx_HAL_Driver/Src/stm32f3xx_hal_tim.c ****     htim->Channel = HAL_TIM_ACTIVE_CHANNEL_4;
 9784              		.loc 1 4505 0
 9785 0056 FB68     		ldr	r3, [r7, #12]
 9786 0058 0822     		movs	r2, #8
 9787 005a 1A76     		strb	r2, [r3, #24]
 9788              	.L583:
4506:Drivers/STM32F3xx_HAL_Driver/Src/stm32f3xx_hal_tim.c ****   }
4507:Drivers/STM32F3xx_HAL_Driver/Src/stm32f3xx_hal_tim.c ****   
4508:Drivers/STM32F3xx_HAL_Driver/Src/stm32f3xx_hal_tim.c ****   HAL_TIM_IC_CaptureCallback(htim); 
 9789              		.loc 1 4508 0
 9790 005c F868     		ldr	r0, [r7, #12]
 9791 005e FFF7FEFF 		bl	HAL_TIM_IC_CaptureCallback
4509:Drivers/STM32F3xx_HAL_Driver/Src/stm32f3xx_hal_tim.c ****   
4510:Drivers/STM32F3xx_HAL_Driver/Src/stm32f3xx_hal_tim.c ****   htim->Channel = HAL_TIM_ACTIVE_CHANNEL_CLEARED;
 9792              		.loc 1 4510 0
 9793 0062 FB68     		ldr	r3, [r7, #12]
 9794 0064 0022     		movs	r2, #0
 9795 0066 1A76     		strb	r2, [r3, #24]
4511:Drivers/STM32F3xx_HAL_Driver/Src/stm32f3xx_hal_tim.c **** }
 9796              		.loc 1 4511 0
 9797 0068 1037     		adds	r7, r7, #16
 9798 006a BD46     		mov	sp, r7
 9799              		@ sp needed
 9800 006c 80BD     		pop	{r7, pc}
 9801              		.cfi_endproc
 9802              	.LFE213:
 9804 006e 00BF     		.section	.text.TIM_DMAPeriodElapsedCplt,"ax",%progbits
 9805              		.align	2
 9806              		.thumb
 9807              		.thumb_func
ARM GAS  /tmp/ccZyKULX.s 			page 252


 9809              	TIM_DMAPeriodElapsedCplt:
 9810              	.LFB214:
4512:Drivers/STM32F3xx_HAL_Driver/Src/stm32f3xx_hal_tim.c **** 
4513:Drivers/STM32F3xx_HAL_Driver/Src/stm32f3xx_hal_tim.c **** /**
4514:Drivers/STM32F3xx_HAL_Driver/Src/stm32f3xx_hal_tim.c ****   * @brief  TIM DMA Period Elapse complete callback. 
4515:Drivers/STM32F3xx_HAL_Driver/Src/stm32f3xx_hal_tim.c ****   * @param  hdma : pointer to DMA handle.
4516:Drivers/STM32F3xx_HAL_Driver/Src/stm32f3xx_hal_tim.c ****   * @retval None
4517:Drivers/STM32F3xx_HAL_Driver/Src/stm32f3xx_hal_tim.c ****   */
4518:Drivers/STM32F3xx_HAL_Driver/Src/stm32f3xx_hal_tim.c **** static void TIM_DMAPeriodElapsedCplt(DMA_HandleTypeDef *hdma)
4519:Drivers/STM32F3xx_HAL_Driver/Src/stm32f3xx_hal_tim.c **** {
 9811              		.loc 1 4519 0
 9812              		.cfi_startproc
 9813              		@ args = 0, pretend = 0, frame = 16
 9814              		@ frame_needed = 1, uses_anonymous_args = 0
 9815 0000 80B5     		push	{r7, lr}
 9816              	.LCFI267:
 9817              		.cfi_def_cfa_offset 8
 9818              		.cfi_offset 7, -8
 9819              		.cfi_offset 14, -4
 9820 0002 84B0     		sub	sp, sp, #16
 9821              	.LCFI268:
 9822              		.cfi_def_cfa_offset 24
 9823 0004 00AF     		add	r7, sp, #0
 9824              	.LCFI269:
 9825              		.cfi_def_cfa_register 7
 9826 0006 7860     		str	r0, [r7, #4]
4520:Drivers/STM32F3xx_HAL_Driver/Src/stm32f3xx_hal_tim.c ****   TIM_HandleTypeDef* htim = ( TIM_HandleTypeDef* )((DMA_HandleTypeDef* )hdma)->Parent;
 9827              		.loc 1 4520 0
 9828 0008 7B68     		ldr	r3, [r7, #4]
 9829 000a 5B6A     		ldr	r3, [r3, #36]
 9830 000c FB60     		str	r3, [r7, #12]
4521:Drivers/STM32F3xx_HAL_Driver/Src/stm32f3xx_hal_tim.c ****   
4522:Drivers/STM32F3xx_HAL_Driver/Src/stm32f3xx_hal_tim.c ****   htim->State= HAL_TIM_STATE_READY;
 9831              		.loc 1 4522 0
 9832 000e FB68     		ldr	r3, [r7, #12]
 9833 0010 0122     		movs	r2, #1
 9834 0012 83F83920 		strb	r2, [r3, #57]
4523:Drivers/STM32F3xx_HAL_Driver/Src/stm32f3xx_hal_tim.c ****   
4524:Drivers/STM32F3xx_HAL_Driver/Src/stm32f3xx_hal_tim.c ****   HAL_TIM_PeriodElapsedCallback(htim);
 9835              		.loc 1 4524 0
 9836 0016 F868     		ldr	r0, [r7, #12]
 9837 0018 FFF7FEFF 		bl	HAL_TIM_PeriodElapsedCallback
4525:Drivers/STM32F3xx_HAL_Driver/Src/stm32f3xx_hal_tim.c **** }
 9838              		.loc 1 4525 0
 9839 001c 1037     		adds	r7, r7, #16
 9840 001e BD46     		mov	sp, r7
 9841              		@ sp needed
 9842 0020 80BD     		pop	{r7, pc}
 9843              		.cfi_endproc
 9844              	.LFE214:
 9846 0022 00BF     		.section	.text.TIM_DMATriggerCplt,"ax",%progbits
 9847              		.align	2
 9848              		.thumb
 9849              		.thumb_func
 9851              	TIM_DMATriggerCplt:
 9852              	.LFB215:
4526:Drivers/STM32F3xx_HAL_Driver/Src/stm32f3xx_hal_tim.c **** 
ARM GAS  /tmp/ccZyKULX.s 			page 253


4527:Drivers/STM32F3xx_HAL_Driver/Src/stm32f3xx_hal_tim.c **** /**
4528:Drivers/STM32F3xx_HAL_Driver/Src/stm32f3xx_hal_tim.c ****   * @brief  TIM DMA Trigger callback. 
4529:Drivers/STM32F3xx_HAL_Driver/Src/stm32f3xx_hal_tim.c ****   * @param  hdma : pointer to DMA handle.
4530:Drivers/STM32F3xx_HAL_Driver/Src/stm32f3xx_hal_tim.c ****   * @retval None
4531:Drivers/STM32F3xx_HAL_Driver/Src/stm32f3xx_hal_tim.c ****   */
4532:Drivers/STM32F3xx_HAL_Driver/Src/stm32f3xx_hal_tim.c **** static void TIM_DMATriggerCplt(DMA_HandleTypeDef *hdma)
4533:Drivers/STM32F3xx_HAL_Driver/Src/stm32f3xx_hal_tim.c **** {
 9853              		.loc 1 4533 0
 9854              		.cfi_startproc
 9855              		@ args = 0, pretend = 0, frame = 16
 9856              		@ frame_needed = 1, uses_anonymous_args = 0
 9857 0000 80B5     		push	{r7, lr}
 9858              	.LCFI270:
 9859              		.cfi_def_cfa_offset 8
 9860              		.cfi_offset 7, -8
 9861              		.cfi_offset 14, -4
 9862 0002 84B0     		sub	sp, sp, #16
 9863              	.LCFI271:
 9864              		.cfi_def_cfa_offset 24
 9865 0004 00AF     		add	r7, sp, #0
 9866              	.LCFI272:
 9867              		.cfi_def_cfa_register 7
 9868 0006 7860     		str	r0, [r7, #4]
4534:Drivers/STM32F3xx_HAL_Driver/Src/stm32f3xx_hal_tim.c ****   TIM_HandleTypeDef* htim = ( TIM_HandleTypeDef* )((DMA_HandleTypeDef* )hdma)->Parent;  
 9869              		.loc 1 4534 0
 9870 0008 7B68     		ldr	r3, [r7, #4]
 9871 000a 5B6A     		ldr	r3, [r3, #36]
 9872 000c FB60     		str	r3, [r7, #12]
4535:Drivers/STM32F3xx_HAL_Driver/Src/stm32f3xx_hal_tim.c ****   
4536:Drivers/STM32F3xx_HAL_Driver/Src/stm32f3xx_hal_tim.c ****   htim->State= HAL_TIM_STATE_READY; 
 9873              		.loc 1 4536 0
 9874 000e FB68     		ldr	r3, [r7, #12]
 9875 0010 0122     		movs	r2, #1
 9876 0012 83F83920 		strb	r2, [r3, #57]
4537:Drivers/STM32F3xx_HAL_Driver/Src/stm32f3xx_hal_tim.c ****   
4538:Drivers/STM32F3xx_HAL_Driver/Src/stm32f3xx_hal_tim.c ****   HAL_TIM_TriggerCallback(htim);
 9877              		.loc 1 4538 0
 9878 0016 F868     		ldr	r0, [r7, #12]
 9879 0018 FFF7FEFF 		bl	HAL_TIM_TriggerCallback
4539:Drivers/STM32F3xx_HAL_Driver/Src/stm32f3xx_hal_tim.c **** }
 9880              		.loc 1 4539 0
 9881 001c 1037     		adds	r7, r7, #16
 9882 001e BD46     		mov	sp, r7
 9883              		@ sp needed
 9884 0020 80BD     		pop	{r7, pc}
 9885              		.cfi_endproc
 9886              	.LFE215:
 9888 0022 00BF     		.section	.text.TIM_Base_SetConfig,"ax",%progbits
 9889              		.align	2
 9890              		.global	TIM_Base_SetConfig
 9891              		.thumb
 9892              		.thumb_func
 9894              	TIM_Base_SetConfig:
 9895              	.LFB216:
4540:Drivers/STM32F3xx_HAL_Driver/Src/stm32f3xx_hal_tim.c **** 
4541:Drivers/STM32F3xx_HAL_Driver/Src/stm32f3xx_hal_tim.c **** /**
4542:Drivers/STM32F3xx_HAL_Driver/Src/stm32f3xx_hal_tim.c ****   * @brief  Time Base configuration
ARM GAS  /tmp/ccZyKULX.s 			page 254


4543:Drivers/STM32F3xx_HAL_Driver/Src/stm32f3xx_hal_tim.c ****   * @param  TIMx: TIM periheral
4544:Drivers/STM32F3xx_HAL_Driver/Src/stm32f3xx_hal_tim.c ****   * @param  Structure: TIM Base configuration structure
4545:Drivers/STM32F3xx_HAL_Driver/Src/stm32f3xx_hal_tim.c ****   * @retval None
4546:Drivers/STM32F3xx_HAL_Driver/Src/stm32f3xx_hal_tim.c ****   */
4547:Drivers/STM32F3xx_HAL_Driver/Src/stm32f3xx_hal_tim.c **** void TIM_Base_SetConfig(TIM_TypeDef *TIMx, TIM_Base_InitTypeDef *Structure)
4548:Drivers/STM32F3xx_HAL_Driver/Src/stm32f3xx_hal_tim.c **** {
 9896              		.loc 1 4548 0
 9897              		.cfi_startproc
 9898              		@ args = 0, pretend = 0, frame = 16
 9899              		@ frame_needed = 1, uses_anonymous_args = 0
 9900              		@ link register save eliminated.
 9901 0000 80B4     		push	{r7}
 9902              	.LCFI273:
 9903              		.cfi_def_cfa_offset 4
 9904              		.cfi_offset 7, -4
 9905 0002 85B0     		sub	sp, sp, #20
 9906              	.LCFI274:
 9907              		.cfi_def_cfa_offset 24
 9908 0004 00AF     		add	r7, sp, #0
 9909              	.LCFI275:
 9910              		.cfi_def_cfa_register 7
 9911 0006 7860     		str	r0, [r7, #4]
 9912 0008 3960     		str	r1, [r7]
4549:Drivers/STM32F3xx_HAL_Driver/Src/stm32f3xx_hal_tim.c ****   uint32_t tmpcr1 = 0;
 9913              		.loc 1 4549 0
 9914 000a 0023     		movs	r3, #0
 9915 000c FB60     		str	r3, [r7, #12]
4550:Drivers/STM32F3xx_HAL_Driver/Src/stm32f3xx_hal_tim.c ****   tmpcr1 = TIMx->CR1;
 9916              		.loc 1 4550 0
 9917 000e 7B68     		ldr	r3, [r7, #4]
 9918 0010 1B68     		ldr	r3, [r3]
 9919 0012 FB60     		str	r3, [r7, #12]
4551:Drivers/STM32F3xx_HAL_Driver/Src/stm32f3xx_hal_tim.c ****   
4552:Drivers/STM32F3xx_HAL_Driver/Src/stm32f3xx_hal_tim.c ****   /* Set TIM Time Base Unit parameters ---------------------------------------*/
4553:Drivers/STM32F3xx_HAL_Driver/Src/stm32f3xx_hal_tim.c ****   if (IS_TIM_COUNTER_MODE_SELECT_INSTANCE(TIMx))
 9920              		.loc 1 4553 0
 9921 0014 7A68     		ldr	r2, [r7, #4]
 9922 0016 384B     		ldr	r3, .L595
 9923 0018 9A42     		cmp	r2, r3
 9924 001a 0FD0     		beq	.L589
 9925              		.loc 1 4553 0 is_stmt 0 discriminator 1
 9926 001c 7B68     		ldr	r3, [r7, #4]
 9927 001e B3F1804F 		cmp	r3, #1073741824
 9928 0022 0BD0     		beq	.L589
 9929 0024 7A68     		ldr	r2, [r7, #4]
 9930 0026 354B     		ldr	r3, .L595+4
 9931 0028 9A42     		cmp	r2, r3
 9932 002a 07D0     		beq	.L589
 9933 002c 7A68     		ldr	r2, [r7, #4]
 9934 002e 344B     		ldr	r3, .L595+8
 9935 0030 9A42     		cmp	r2, r3
 9936 0032 03D0     		beq	.L589
 9937 0034 7A68     		ldr	r2, [r7, #4]
 9938 0036 334B     		ldr	r3, .L595+12
 9939 0038 9A42     		cmp	r2, r3
 9940 003a 08D1     		bne	.L590
 9941              	.L589:
ARM GAS  /tmp/ccZyKULX.s 			page 255


4554:Drivers/STM32F3xx_HAL_Driver/Src/stm32f3xx_hal_tim.c ****   {
4555:Drivers/STM32F3xx_HAL_Driver/Src/stm32f3xx_hal_tim.c ****     /* Select the Counter Mode */
4556:Drivers/STM32F3xx_HAL_Driver/Src/stm32f3xx_hal_tim.c ****     tmpcr1 &= ~(TIM_CR1_DIR | TIM_CR1_CMS);
 9942              		.loc 1 4556 0 is_stmt 1
 9943 003c FB68     		ldr	r3, [r7, #12]
 9944 003e 23F07003 		bic	r3, r3, #112
 9945 0042 FB60     		str	r3, [r7, #12]
4557:Drivers/STM32F3xx_HAL_Driver/Src/stm32f3xx_hal_tim.c ****     tmpcr1 |= Structure->CounterMode;
 9946              		.loc 1 4557 0
 9947 0044 3B68     		ldr	r3, [r7]
 9948 0046 5B68     		ldr	r3, [r3, #4]
 9949 0048 FA68     		ldr	r2, [r7, #12]
 9950 004a 1343     		orrs	r3, r3, r2
 9951 004c FB60     		str	r3, [r7, #12]
 9952              	.L590:
4558:Drivers/STM32F3xx_HAL_Driver/Src/stm32f3xx_hal_tim.c ****   }
4559:Drivers/STM32F3xx_HAL_Driver/Src/stm32f3xx_hal_tim.c ****  
4560:Drivers/STM32F3xx_HAL_Driver/Src/stm32f3xx_hal_tim.c ****   if(IS_TIM_CLOCK_DIVISION_INSTANCE(TIMx))
 9953              		.loc 1 4560 0
 9954 004e 7A68     		ldr	r2, [r7, #4]
 9955 0050 294B     		ldr	r3, .L595
 9956 0052 9A42     		cmp	r2, r3
 9957 0054 1BD0     		beq	.L591
 9958              		.loc 1 4560 0 is_stmt 0 discriminator 1
 9959 0056 7B68     		ldr	r3, [r7, #4]
 9960 0058 B3F1804F 		cmp	r3, #1073741824
 9961 005c 17D0     		beq	.L591
 9962 005e 7A68     		ldr	r2, [r7, #4]
 9963 0060 264B     		ldr	r3, .L595+4
 9964 0062 9A42     		cmp	r2, r3
 9965 0064 13D0     		beq	.L591
 9966 0066 7A68     		ldr	r2, [r7, #4]
 9967 0068 254B     		ldr	r3, .L595+8
 9968 006a 9A42     		cmp	r2, r3
 9969 006c 0FD0     		beq	.L591
 9970 006e 7A68     		ldr	r2, [r7, #4]
 9971 0070 244B     		ldr	r3, .L595+12
 9972 0072 9A42     		cmp	r2, r3
 9973 0074 0BD0     		beq	.L591
 9974 0076 7A68     		ldr	r2, [r7, #4]
 9975 0078 234B     		ldr	r3, .L595+16
 9976 007a 9A42     		cmp	r2, r3
 9977 007c 07D0     		beq	.L591
 9978 007e 7A68     		ldr	r2, [r7, #4]
 9979 0080 224B     		ldr	r3, .L595+20
 9980 0082 9A42     		cmp	r2, r3
 9981 0084 03D0     		beq	.L591
 9982 0086 7A68     		ldr	r2, [r7, #4]
 9983 0088 214B     		ldr	r3, .L595+24
 9984 008a 9A42     		cmp	r2, r3
 9985 008c 08D1     		bne	.L592
 9986              	.L591:
4561:Drivers/STM32F3xx_HAL_Driver/Src/stm32f3xx_hal_tim.c ****   {
4562:Drivers/STM32F3xx_HAL_Driver/Src/stm32f3xx_hal_tim.c ****     /* Set the clock division */
4563:Drivers/STM32F3xx_HAL_Driver/Src/stm32f3xx_hal_tim.c ****     tmpcr1 &= ~TIM_CR1_CKD;
 9987              		.loc 1 4563 0 is_stmt 1
 9988 008e FB68     		ldr	r3, [r7, #12]
ARM GAS  /tmp/ccZyKULX.s 			page 256


 9989 0090 23F44073 		bic	r3, r3, #768
 9990 0094 FB60     		str	r3, [r7, #12]
4564:Drivers/STM32F3xx_HAL_Driver/Src/stm32f3xx_hal_tim.c ****     tmpcr1 |= (uint32_t)Structure->ClockDivision;
 9991              		.loc 1 4564 0
 9992 0096 3B68     		ldr	r3, [r7]
 9993 0098 DB68     		ldr	r3, [r3, #12]
 9994 009a FA68     		ldr	r2, [r7, #12]
 9995 009c 1343     		orrs	r3, r3, r2
 9996 009e FB60     		str	r3, [r7, #12]
 9997              	.L592:
4565:Drivers/STM32F3xx_HAL_Driver/Src/stm32f3xx_hal_tim.c ****   }
4566:Drivers/STM32F3xx_HAL_Driver/Src/stm32f3xx_hal_tim.c **** 
4567:Drivers/STM32F3xx_HAL_Driver/Src/stm32f3xx_hal_tim.c ****   TIMx->CR1 = tmpcr1;
 9998              		.loc 1 4567 0
 9999 00a0 7B68     		ldr	r3, [r7, #4]
 10000 00a2 FA68     		ldr	r2, [r7, #12]
 10001 00a4 1A60     		str	r2, [r3]
4568:Drivers/STM32F3xx_HAL_Driver/Src/stm32f3xx_hal_tim.c **** 
4569:Drivers/STM32F3xx_HAL_Driver/Src/stm32f3xx_hal_tim.c ****   /* Set the Autoreload value */
4570:Drivers/STM32F3xx_HAL_Driver/Src/stm32f3xx_hal_tim.c ****   TIMx->ARR = (uint32_t)Structure->Period ;
 10002              		.loc 1 4570 0
 10003 00a6 3B68     		ldr	r3, [r7]
 10004 00a8 9A68     		ldr	r2, [r3, #8]
 10005 00aa 7B68     		ldr	r3, [r7, #4]
 10006 00ac DA62     		str	r2, [r3, #44]
4571:Drivers/STM32F3xx_HAL_Driver/Src/stm32f3xx_hal_tim.c ****  
4572:Drivers/STM32F3xx_HAL_Driver/Src/stm32f3xx_hal_tim.c ****   /* Set the Prescaler value */
4573:Drivers/STM32F3xx_HAL_Driver/Src/stm32f3xx_hal_tim.c ****   TIMx->PSC = (uint32_t)Structure->Prescaler;
 10007              		.loc 1 4573 0
 10008 00ae 3B68     		ldr	r3, [r7]
 10009 00b0 1A68     		ldr	r2, [r3]
 10010 00b2 7B68     		ldr	r3, [r7, #4]
 10011 00b4 9A62     		str	r2, [r3, #40]
4574:Drivers/STM32F3xx_HAL_Driver/Src/stm32f3xx_hal_tim.c ****     
4575:Drivers/STM32F3xx_HAL_Driver/Src/stm32f3xx_hal_tim.c ****   if (IS_TIM_REPETITION_COUNTER_INSTANCE(TIMx))  
 10012              		.loc 1 4575 0
 10013 00b6 7A68     		ldr	r2, [r7, #4]
 10014 00b8 0F4B     		ldr	r3, .L595
 10015 00ba 9A42     		cmp	r2, r3
 10016 00bc 0FD0     		beq	.L593
 10017              		.loc 1 4575 0 is_stmt 0 discriminator 1
 10018 00be 7A68     		ldr	r2, [r7, #4]
 10019 00c0 104B     		ldr	r3, .L595+12
 10020 00c2 9A42     		cmp	r2, r3
 10021 00c4 0BD0     		beq	.L593
 10022 00c6 7A68     		ldr	r2, [r7, #4]
 10023 00c8 0F4B     		ldr	r3, .L595+16
 10024 00ca 9A42     		cmp	r2, r3
 10025 00cc 07D0     		beq	.L593
 10026 00ce 7A68     		ldr	r2, [r7, #4]
 10027 00d0 0E4B     		ldr	r3, .L595+20
 10028 00d2 9A42     		cmp	r2, r3
 10029 00d4 03D0     		beq	.L593
 10030 00d6 7A68     		ldr	r2, [r7, #4]
 10031 00d8 0D4B     		ldr	r3, .L595+24
 10032 00da 9A42     		cmp	r2, r3
 10033 00dc 03D1     		bne	.L594
ARM GAS  /tmp/ccZyKULX.s 			page 257


 10034              	.L593:
4576:Drivers/STM32F3xx_HAL_Driver/Src/stm32f3xx_hal_tim.c ****   {
4577:Drivers/STM32F3xx_HAL_Driver/Src/stm32f3xx_hal_tim.c ****     /* Set the Repetition Counter value */
4578:Drivers/STM32F3xx_HAL_Driver/Src/stm32f3xx_hal_tim.c ****     TIMx->RCR = Structure->RepetitionCounter;
 10035              		.loc 1 4578 0 is_stmt 1
 10036 00de 3B68     		ldr	r3, [r7]
 10037 00e0 1A69     		ldr	r2, [r3, #16]
 10038 00e2 7B68     		ldr	r3, [r7, #4]
 10039 00e4 1A63     		str	r2, [r3, #48]
 10040              	.L594:
4579:Drivers/STM32F3xx_HAL_Driver/Src/stm32f3xx_hal_tim.c ****   }
4580:Drivers/STM32F3xx_HAL_Driver/Src/stm32f3xx_hal_tim.c **** 
4581:Drivers/STM32F3xx_HAL_Driver/Src/stm32f3xx_hal_tim.c ****   /* Generate an update event to reload the Prescaler 
4582:Drivers/STM32F3xx_HAL_Driver/Src/stm32f3xx_hal_tim.c ****      and the repetition counter(only for TIM1 and TIM8) value immediatly */
4583:Drivers/STM32F3xx_HAL_Driver/Src/stm32f3xx_hal_tim.c ****   TIMx->EGR = TIM_EGR_UG;
 10041              		.loc 1 4583 0
 10042 00e6 7B68     		ldr	r3, [r7, #4]
 10043 00e8 0122     		movs	r2, #1
 10044 00ea 5A61     		str	r2, [r3, #20]
4584:Drivers/STM32F3xx_HAL_Driver/Src/stm32f3xx_hal_tim.c **** }
 10045              		.loc 1 4584 0
 10046 00ec 1437     		adds	r7, r7, #20
 10047 00ee BD46     		mov	sp, r7
 10048              		@ sp needed
 10049 00f0 5DF8047B 		ldr	r7, [sp], #4
 10050 00f4 7047     		bx	lr
 10051              	.L596:
 10052 00f6 00BF     		.align	2
 10053              	.L595:
 10054 00f8 002C0140 		.word	1073818624
 10055 00fc 00040040 		.word	1073742848
 10056 0100 00080040 		.word	1073743872
 10057 0104 00340140 		.word	1073820672
 10058 0108 00400140 		.word	1073823744
 10059 010c 00440140 		.word	1073824768
 10060 0110 00480140 		.word	1073825792
 10061              		.cfi_endproc
 10062              	.LFE216:
 10064              		.section	.text.TIM_OC1_SetConfig,"ax",%progbits
 10065              		.align	2
 10066              		.global	TIM_OC1_SetConfig
 10067              		.thumb
 10068              		.thumb_func
 10070              	TIM_OC1_SetConfig:
 10071              	.LFB217:
4585:Drivers/STM32F3xx_HAL_Driver/Src/stm32f3xx_hal_tim.c **** 
4586:Drivers/STM32F3xx_HAL_Driver/Src/stm32f3xx_hal_tim.c **** /**
4587:Drivers/STM32F3xx_HAL_Driver/Src/stm32f3xx_hal_tim.c ****   * @brief  Time Ouput Compare 1 configuration
4588:Drivers/STM32F3xx_HAL_Driver/Src/stm32f3xx_hal_tim.c ****   * @param  TIMx to select the TIM peripheral
4589:Drivers/STM32F3xx_HAL_Driver/Src/stm32f3xx_hal_tim.c ****   * @param  OC_Config: The ouput configuration structure
4590:Drivers/STM32F3xx_HAL_Driver/Src/stm32f3xx_hal_tim.c ****   * @retval None
4591:Drivers/STM32F3xx_HAL_Driver/Src/stm32f3xx_hal_tim.c ****   */
4592:Drivers/STM32F3xx_HAL_Driver/Src/stm32f3xx_hal_tim.c **** void TIM_OC1_SetConfig(TIM_TypeDef *TIMx, TIM_OC_InitTypeDef *OC_Config)
4593:Drivers/STM32F3xx_HAL_Driver/Src/stm32f3xx_hal_tim.c **** {
 10072              		.loc 1 4593 0
 10073              		.cfi_startproc
 10074              		@ args = 0, pretend = 0, frame = 24
ARM GAS  /tmp/ccZyKULX.s 			page 258


 10075              		@ frame_needed = 1, uses_anonymous_args = 0
 10076              		@ link register save eliminated.
 10077 0000 80B4     		push	{r7}
 10078              	.LCFI276:
 10079              		.cfi_def_cfa_offset 4
 10080              		.cfi_offset 7, -4
 10081 0002 87B0     		sub	sp, sp, #28
 10082              	.LCFI277:
 10083              		.cfi_def_cfa_offset 32
 10084 0004 00AF     		add	r7, sp, #0
 10085              	.LCFI278:
 10086              		.cfi_def_cfa_register 7
 10087 0006 7860     		str	r0, [r7, #4]
 10088 0008 3960     		str	r1, [r7]
4594:Drivers/STM32F3xx_HAL_Driver/Src/stm32f3xx_hal_tim.c ****   uint32_t tmpccmrx = 0;
 10089              		.loc 1 4594 0
 10090 000a 0023     		movs	r3, #0
 10091 000c FB60     		str	r3, [r7, #12]
4595:Drivers/STM32F3xx_HAL_Driver/Src/stm32f3xx_hal_tim.c ****   uint32_t tmpccer = 0;
 10092              		.loc 1 4595 0
 10093 000e 0023     		movs	r3, #0
 10094 0010 7B61     		str	r3, [r7, #20]
4596:Drivers/STM32F3xx_HAL_Driver/Src/stm32f3xx_hal_tim.c ****   uint32_t tmpcr2 = 0; 
 10095              		.loc 1 4596 0
 10096 0012 0023     		movs	r3, #0
 10097 0014 3B61     		str	r3, [r7, #16]
4597:Drivers/STM32F3xx_HAL_Driver/Src/stm32f3xx_hal_tim.c **** 
4598:Drivers/STM32F3xx_HAL_Driver/Src/stm32f3xx_hal_tim.c ****    /* Disable the Channel 1: Reset the CC1E Bit */
4599:Drivers/STM32F3xx_HAL_Driver/Src/stm32f3xx_hal_tim.c ****   TIMx->CCER &= ~TIM_CCER_CC1E;
 10098              		.loc 1 4599 0
 10099 0016 7B68     		ldr	r3, [r7, #4]
 10100 0018 1B6A     		ldr	r3, [r3, #32]
 10101 001a 23F00102 		bic	r2, r3, #1
 10102 001e 7B68     		ldr	r3, [r7, #4]
 10103 0020 1A62     		str	r2, [r3, #32]
4600:Drivers/STM32F3xx_HAL_Driver/Src/stm32f3xx_hal_tim.c ****   
4601:Drivers/STM32F3xx_HAL_Driver/Src/stm32f3xx_hal_tim.c ****   /* Get the TIMx CCER register value */
4602:Drivers/STM32F3xx_HAL_Driver/Src/stm32f3xx_hal_tim.c ****   tmpccer = TIMx->CCER;
 10104              		.loc 1 4602 0
 10105 0022 7B68     		ldr	r3, [r7, #4]
 10106 0024 1B6A     		ldr	r3, [r3, #32]
 10107 0026 7B61     		str	r3, [r7, #20]
4603:Drivers/STM32F3xx_HAL_Driver/Src/stm32f3xx_hal_tim.c ****   /* Get the TIMx CR2 register value */
4604:Drivers/STM32F3xx_HAL_Driver/Src/stm32f3xx_hal_tim.c ****   tmpcr2 =  TIMx->CR2; 
 10108              		.loc 1 4604 0
 10109 0028 7B68     		ldr	r3, [r7, #4]
 10110 002a 5B68     		ldr	r3, [r3, #4]
 10111 002c 3B61     		str	r3, [r7, #16]
4605:Drivers/STM32F3xx_HAL_Driver/Src/stm32f3xx_hal_tim.c ****   
4606:Drivers/STM32F3xx_HAL_Driver/Src/stm32f3xx_hal_tim.c ****   /* Get the TIMx CCMR1 register value */
4607:Drivers/STM32F3xx_HAL_Driver/Src/stm32f3xx_hal_tim.c ****   tmpccmrx = TIMx->CCMR1;
 10112              		.loc 1 4607 0
 10113 002e 7B68     		ldr	r3, [r7, #4]
 10114 0030 9B69     		ldr	r3, [r3, #24]
 10115 0032 FB60     		str	r3, [r7, #12]
4608:Drivers/STM32F3xx_HAL_Driver/Src/stm32f3xx_hal_tim.c **** 
4609:Drivers/STM32F3xx_HAL_Driver/Src/stm32f3xx_hal_tim.c ****   /* Reset the Output Compare Mode Bits */
ARM GAS  /tmp/ccZyKULX.s 			page 259


4610:Drivers/STM32F3xx_HAL_Driver/Src/stm32f3xx_hal_tim.c ****   tmpccmrx &= ~TIM_CCMR1_OC1M;
 10116              		.loc 1 4610 0
 10117 0034 FB68     		ldr	r3, [r7, #12]
 10118 0036 23F48033 		bic	r3, r3, #65536
 10119 003a 23F07003 		bic	r3, r3, #112
 10120 003e FB60     		str	r3, [r7, #12]
4611:Drivers/STM32F3xx_HAL_Driver/Src/stm32f3xx_hal_tim.c ****   tmpccmrx &= ~TIM_CCMR1_CC1S;
 10121              		.loc 1 4611 0
 10122 0040 FB68     		ldr	r3, [r7, #12]
 10123 0042 23F00303 		bic	r3, r3, #3
 10124 0046 FB60     		str	r3, [r7, #12]
4612:Drivers/STM32F3xx_HAL_Driver/Src/stm32f3xx_hal_tim.c ****   /* Select the Output Compare Mode */
4613:Drivers/STM32F3xx_HAL_Driver/Src/stm32f3xx_hal_tim.c ****   tmpccmrx |= OC_Config->OCMode;
 10125              		.loc 1 4613 0
 10126 0048 3B68     		ldr	r3, [r7]
 10127 004a 1B68     		ldr	r3, [r3]
 10128 004c FA68     		ldr	r2, [r7, #12]
 10129 004e 1343     		orrs	r3, r3, r2
 10130 0050 FB60     		str	r3, [r7, #12]
4614:Drivers/STM32F3xx_HAL_Driver/Src/stm32f3xx_hal_tim.c ****   
4615:Drivers/STM32F3xx_HAL_Driver/Src/stm32f3xx_hal_tim.c ****   /* Reset the Output Polarity level */
4616:Drivers/STM32F3xx_HAL_Driver/Src/stm32f3xx_hal_tim.c ****   tmpccer &= ~TIM_CCER_CC1P;
 10131              		.loc 1 4616 0
 10132 0052 7B69     		ldr	r3, [r7, #20]
 10133 0054 23F00203 		bic	r3, r3, #2
 10134 0058 7B61     		str	r3, [r7, #20]
4617:Drivers/STM32F3xx_HAL_Driver/Src/stm32f3xx_hal_tim.c ****   /* Set the Output Compare Polarity */
4618:Drivers/STM32F3xx_HAL_Driver/Src/stm32f3xx_hal_tim.c ****   tmpccer |= OC_Config->OCPolarity;
 10135              		.loc 1 4618 0
 10136 005a 3B68     		ldr	r3, [r7]
 10137 005c 9B68     		ldr	r3, [r3, #8]
 10138 005e 7A69     		ldr	r2, [r7, #20]
 10139 0060 1343     		orrs	r3, r3, r2
 10140 0062 7B61     		str	r3, [r7, #20]
4619:Drivers/STM32F3xx_HAL_Driver/Src/stm32f3xx_hal_tim.c **** 
4620:Drivers/STM32F3xx_HAL_Driver/Src/stm32f3xx_hal_tim.c ****   if(IS_TIM_CCXN_INSTANCE(TIMx, TIM_CHANNEL_1))
 10141              		.loc 1 4620 0
 10142 0064 7A68     		ldr	r2, [r7, #4]
 10143 0066 2C4B     		ldr	r3, .L602
 10144 0068 9A42     		cmp	r2, r3
 10145 006a 0FD0     		beq	.L598
 10146              		.loc 1 4620 0 is_stmt 0 discriminator 1
 10147 006c 7A68     		ldr	r2, [r7, #4]
 10148 006e 2B4B     		ldr	r3, .L602+4
 10149 0070 9A42     		cmp	r2, r3
 10150 0072 0BD0     		beq	.L598
 10151 0074 7A68     		ldr	r2, [r7, #4]
 10152 0076 2A4B     		ldr	r3, .L602+8
 10153 0078 9A42     		cmp	r2, r3
 10154 007a 07D0     		beq	.L598
 10155 007c 7A68     		ldr	r2, [r7, #4]
 10156 007e 294B     		ldr	r3, .L602+12
 10157 0080 9A42     		cmp	r2, r3
 10158 0082 03D0     		beq	.L598
 10159 0084 7A68     		ldr	r2, [r7, #4]
 10160 0086 284B     		ldr	r3, .L602+16
 10161 0088 9A42     		cmp	r2, r3
ARM GAS  /tmp/ccZyKULX.s 			page 260


 10162 008a 0CD1     		bne	.L599
 10163              	.L598:
4621:Drivers/STM32F3xx_HAL_Driver/Src/stm32f3xx_hal_tim.c ****   {
4622:Drivers/STM32F3xx_HAL_Driver/Src/stm32f3xx_hal_tim.c ****     /* Check parameters */
4623:Drivers/STM32F3xx_HAL_Driver/Src/stm32f3xx_hal_tim.c ****     assert_param(IS_TIM_OCN_POLARITY(OC_Config->OCNPolarity));
4624:Drivers/STM32F3xx_HAL_Driver/Src/stm32f3xx_hal_tim.c ****  
4625:Drivers/STM32F3xx_HAL_Driver/Src/stm32f3xx_hal_tim.c ****     /* Reset the Output N Polarity level */
4626:Drivers/STM32F3xx_HAL_Driver/Src/stm32f3xx_hal_tim.c ****     tmpccer &= ~TIM_CCER_CC1NP;
 10164              		.loc 1 4626 0 is_stmt 1
 10165 008c 7B69     		ldr	r3, [r7, #20]
 10166 008e 23F00803 		bic	r3, r3, #8
 10167 0092 7B61     		str	r3, [r7, #20]
4627:Drivers/STM32F3xx_HAL_Driver/Src/stm32f3xx_hal_tim.c ****     /* Set the Output N Polarity */
4628:Drivers/STM32F3xx_HAL_Driver/Src/stm32f3xx_hal_tim.c ****     tmpccer |= OC_Config->OCNPolarity;
 10168              		.loc 1 4628 0
 10169 0094 3B68     		ldr	r3, [r7]
 10170 0096 DB68     		ldr	r3, [r3, #12]
 10171 0098 7A69     		ldr	r2, [r7, #20]
 10172 009a 1343     		orrs	r3, r3, r2
 10173 009c 7B61     		str	r3, [r7, #20]
4629:Drivers/STM32F3xx_HAL_Driver/Src/stm32f3xx_hal_tim.c ****     /* Reset the Output N State */
4630:Drivers/STM32F3xx_HAL_Driver/Src/stm32f3xx_hal_tim.c ****     tmpccer &= ~TIM_CCER_CC1NE;
 10174              		.loc 1 4630 0
 10175 009e 7B69     		ldr	r3, [r7, #20]
 10176 00a0 23F00403 		bic	r3, r3, #4
 10177 00a4 7B61     		str	r3, [r7, #20]
 10178              	.L599:
4631:Drivers/STM32F3xx_HAL_Driver/Src/stm32f3xx_hal_tim.c ****   }
4632:Drivers/STM32F3xx_HAL_Driver/Src/stm32f3xx_hal_tim.c ****   
4633:Drivers/STM32F3xx_HAL_Driver/Src/stm32f3xx_hal_tim.c ****   if(IS_TIM_BREAK_INSTANCE(TIMx))
 10179              		.loc 1 4633 0
 10180 00a6 7A68     		ldr	r2, [r7, #4]
 10181 00a8 1B4B     		ldr	r3, .L602
 10182 00aa 9A42     		cmp	r2, r3
 10183 00ac 0FD0     		beq	.L600
 10184              		.loc 1 4633 0 is_stmt 0 discriminator 1
 10185 00ae 7A68     		ldr	r2, [r7, #4]
 10186 00b0 1A4B     		ldr	r3, .L602+4
 10187 00b2 9A42     		cmp	r2, r3
 10188 00b4 0BD0     		beq	.L600
 10189 00b6 7A68     		ldr	r2, [r7, #4]
 10190 00b8 194B     		ldr	r3, .L602+8
 10191 00ba 9A42     		cmp	r2, r3
 10192 00bc 07D0     		beq	.L600
 10193 00be 7A68     		ldr	r2, [r7, #4]
 10194 00c0 184B     		ldr	r3, .L602+12
 10195 00c2 9A42     		cmp	r2, r3
 10196 00c4 03D0     		beq	.L600
 10197 00c6 7A68     		ldr	r2, [r7, #4]
 10198 00c8 174B     		ldr	r3, .L602+16
 10199 00ca 9A42     		cmp	r2, r3
 10200 00cc 11D1     		bne	.L601
 10201              	.L600:
4634:Drivers/STM32F3xx_HAL_Driver/Src/stm32f3xx_hal_tim.c ****   {
4635:Drivers/STM32F3xx_HAL_Driver/Src/stm32f3xx_hal_tim.c ****     /* Check parameters */
4636:Drivers/STM32F3xx_HAL_Driver/Src/stm32f3xx_hal_tim.c ****     assert_param(IS_TIM_OCNIDLE_STATE(OC_Config->OCNIdleState));
4637:Drivers/STM32F3xx_HAL_Driver/Src/stm32f3xx_hal_tim.c ****     assert_param(IS_TIM_OCIDLE_STATE(OC_Config->OCIdleState));
ARM GAS  /tmp/ccZyKULX.s 			page 261


4638:Drivers/STM32F3xx_HAL_Driver/Src/stm32f3xx_hal_tim.c **** 
4639:Drivers/STM32F3xx_HAL_Driver/Src/stm32f3xx_hal_tim.c ****     /* Reset the Output Compare and Output Compare N IDLE State */
4640:Drivers/STM32F3xx_HAL_Driver/Src/stm32f3xx_hal_tim.c ****     tmpcr2 &= ~TIM_CR2_OIS1;
 10202              		.loc 1 4640 0 is_stmt 1
 10203 00ce 3B69     		ldr	r3, [r7, #16]
 10204 00d0 23F48073 		bic	r3, r3, #256
 10205 00d4 3B61     		str	r3, [r7, #16]
4641:Drivers/STM32F3xx_HAL_Driver/Src/stm32f3xx_hal_tim.c ****     tmpcr2 &= ~TIM_CR2_OIS1N;
 10206              		.loc 1 4641 0
 10207 00d6 3B69     		ldr	r3, [r7, #16]
 10208 00d8 23F40073 		bic	r3, r3, #512
 10209 00dc 3B61     		str	r3, [r7, #16]
4642:Drivers/STM32F3xx_HAL_Driver/Src/stm32f3xx_hal_tim.c ****     /* Set the Output Idle state */
4643:Drivers/STM32F3xx_HAL_Driver/Src/stm32f3xx_hal_tim.c ****     tmpcr2 |= OC_Config->OCIdleState;
 10210              		.loc 1 4643 0
 10211 00de 3B68     		ldr	r3, [r7]
 10212 00e0 5B69     		ldr	r3, [r3, #20]
 10213 00e2 3A69     		ldr	r2, [r7, #16]
 10214 00e4 1343     		orrs	r3, r3, r2
 10215 00e6 3B61     		str	r3, [r7, #16]
4644:Drivers/STM32F3xx_HAL_Driver/Src/stm32f3xx_hal_tim.c ****     /* Set the Output N Idle state */
4645:Drivers/STM32F3xx_HAL_Driver/Src/stm32f3xx_hal_tim.c ****     tmpcr2 |= OC_Config->OCNIdleState;
 10216              		.loc 1 4645 0
 10217 00e8 3B68     		ldr	r3, [r7]
 10218 00ea 9B69     		ldr	r3, [r3, #24]
 10219 00ec 3A69     		ldr	r2, [r7, #16]
 10220 00ee 1343     		orrs	r3, r3, r2
 10221 00f0 3B61     		str	r3, [r7, #16]
 10222              	.L601:
4646:Drivers/STM32F3xx_HAL_Driver/Src/stm32f3xx_hal_tim.c ****   }
4647:Drivers/STM32F3xx_HAL_Driver/Src/stm32f3xx_hal_tim.c ****   /* Write to TIMx CR2 */
4648:Drivers/STM32F3xx_HAL_Driver/Src/stm32f3xx_hal_tim.c ****   TIMx->CR2 = tmpcr2;
 10223              		.loc 1 4648 0
 10224 00f2 7B68     		ldr	r3, [r7, #4]
 10225 00f4 3A69     		ldr	r2, [r7, #16]
 10226 00f6 5A60     		str	r2, [r3, #4]
4649:Drivers/STM32F3xx_HAL_Driver/Src/stm32f3xx_hal_tim.c ****   
4650:Drivers/STM32F3xx_HAL_Driver/Src/stm32f3xx_hal_tim.c ****   /* Write to TIMx CCMR1 */
4651:Drivers/STM32F3xx_HAL_Driver/Src/stm32f3xx_hal_tim.c ****   TIMx->CCMR1 = tmpccmrx;
 10227              		.loc 1 4651 0
 10228 00f8 7B68     		ldr	r3, [r7, #4]
 10229 00fa FA68     		ldr	r2, [r7, #12]
 10230 00fc 9A61     		str	r2, [r3, #24]
4652:Drivers/STM32F3xx_HAL_Driver/Src/stm32f3xx_hal_tim.c ****   
4653:Drivers/STM32F3xx_HAL_Driver/Src/stm32f3xx_hal_tim.c ****   /* Set the Capture Compare Register value */
4654:Drivers/STM32F3xx_HAL_Driver/Src/stm32f3xx_hal_tim.c ****   TIMx->CCR1 = OC_Config->Pulse;
 10231              		.loc 1 4654 0
 10232 00fe 3B68     		ldr	r3, [r7]
 10233 0100 5A68     		ldr	r2, [r3, #4]
 10234 0102 7B68     		ldr	r3, [r7, #4]
 10235 0104 5A63     		str	r2, [r3, #52]
4655:Drivers/STM32F3xx_HAL_Driver/Src/stm32f3xx_hal_tim.c ****   
4656:Drivers/STM32F3xx_HAL_Driver/Src/stm32f3xx_hal_tim.c ****   /* Write to TIMx CCER */
4657:Drivers/STM32F3xx_HAL_Driver/Src/stm32f3xx_hal_tim.c ****   TIMx->CCER = tmpccer;  
 10236              		.loc 1 4657 0
 10237 0106 7B68     		ldr	r3, [r7, #4]
 10238 0108 7A69     		ldr	r2, [r7, #20]
ARM GAS  /tmp/ccZyKULX.s 			page 262


 10239 010a 1A62     		str	r2, [r3, #32]
4658:Drivers/STM32F3xx_HAL_Driver/Src/stm32f3xx_hal_tim.c **** } 
 10240              		.loc 1 4658 0
 10241 010c 1C37     		adds	r7, r7, #28
 10242 010e BD46     		mov	sp, r7
 10243              		@ sp needed
 10244 0110 5DF8047B 		ldr	r7, [sp], #4
 10245 0114 7047     		bx	lr
 10246              	.L603:
 10247 0116 00BF     		.align	2
 10248              	.L602:
 10249 0118 002C0140 		.word	1073818624
 10250 011c 00340140 		.word	1073820672
 10251 0120 00400140 		.word	1073823744
 10252 0124 00440140 		.word	1073824768
 10253 0128 00480140 		.word	1073825792
 10254              		.cfi_endproc
 10255              	.LFE217:
 10257              		.section	.text.TIM_OC2_SetConfig,"ax",%progbits
 10258              		.align	2
 10259              		.global	TIM_OC2_SetConfig
 10260              		.thumb
 10261              		.thumb_func
 10263              	TIM_OC2_SetConfig:
 10264              	.LFB218:
4659:Drivers/STM32F3xx_HAL_Driver/Src/stm32f3xx_hal_tim.c **** 
4660:Drivers/STM32F3xx_HAL_Driver/Src/stm32f3xx_hal_tim.c **** /**
4661:Drivers/STM32F3xx_HAL_Driver/Src/stm32f3xx_hal_tim.c ****   * @brief  Time Ouput Compare 2 configuration
4662:Drivers/STM32F3xx_HAL_Driver/Src/stm32f3xx_hal_tim.c ****   * @param  TIMx to select the TIM peripheral
4663:Drivers/STM32F3xx_HAL_Driver/Src/stm32f3xx_hal_tim.c ****   * @param  OC_Config: The ouput configuration structure
4664:Drivers/STM32F3xx_HAL_Driver/Src/stm32f3xx_hal_tim.c ****   * @retval None
4665:Drivers/STM32F3xx_HAL_Driver/Src/stm32f3xx_hal_tim.c ****   */
4666:Drivers/STM32F3xx_HAL_Driver/Src/stm32f3xx_hal_tim.c **** void TIM_OC2_SetConfig(TIM_TypeDef *TIMx, TIM_OC_InitTypeDef *OC_Config)
4667:Drivers/STM32F3xx_HAL_Driver/Src/stm32f3xx_hal_tim.c **** {
 10265              		.loc 1 4667 0
 10266              		.cfi_startproc
 10267              		@ args = 0, pretend = 0, frame = 24
 10268              		@ frame_needed = 1, uses_anonymous_args = 0
 10269              		@ link register save eliminated.
 10270 0000 80B4     		push	{r7}
 10271              	.LCFI279:
 10272              		.cfi_def_cfa_offset 4
 10273              		.cfi_offset 7, -4
 10274 0002 87B0     		sub	sp, sp, #28
 10275              	.LCFI280:
 10276              		.cfi_def_cfa_offset 32
 10277 0004 00AF     		add	r7, sp, #0
 10278              	.LCFI281:
 10279              		.cfi_def_cfa_register 7
 10280 0006 7860     		str	r0, [r7, #4]
 10281 0008 3960     		str	r1, [r7]
4668:Drivers/STM32F3xx_HAL_Driver/Src/stm32f3xx_hal_tim.c ****   uint32_t tmpccmrx = 0;
 10282              		.loc 1 4668 0
 10283 000a 0023     		movs	r3, #0
 10284 000c FB60     		str	r3, [r7, #12]
4669:Drivers/STM32F3xx_HAL_Driver/Src/stm32f3xx_hal_tim.c ****   uint32_t tmpccer = 0;
 10285              		.loc 1 4669 0
ARM GAS  /tmp/ccZyKULX.s 			page 263


 10286 000e 0023     		movs	r3, #0
 10287 0010 7B61     		str	r3, [r7, #20]
4670:Drivers/STM32F3xx_HAL_Driver/Src/stm32f3xx_hal_tim.c ****   uint32_t tmpcr2 = 0; 
 10288              		.loc 1 4670 0
 10289 0012 0023     		movs	r3, #0
 10290 0014 3B61     		str	r3, [r7, #16]
4671:Drivers/STM32F3xx_HAL_Driver/Src/stm32f3xx_hal_tim.c **** 
4672:Drivers/STM32F3xx_HAL_Driver/Src/stm32f3xx_hal_tim.c ****   /* Disable the Channel 2: Reset the CC2E Bit */
4673:Drivers/STM32F3xx_HAL_Driver/Src/stm32f3xx_hal_tim.c ****   TIMx->CCER &= ~TIM_CCER_CC2E;
 10291              		.loc 1 4673 0
 10292 0016 7B68     		ldr	r3, [r7, #4]
 10293 0018 1B6A     		ldr	r3, [r3, #32]
 10294 001a 23F01002 		bic	r2, r3, #16
 10295 001e 7B68     		ldr	r3, [r7, #4]
 10296 0020 1A62     		str	r2, [r3, #32]
4674:Drivers/STM32F3xx_HAL_Driver/Src/stm32f3xx_hal_tim.c ****   
4675:Drivers/STM32F3xx_HAL_Driver/Src/stm32f3xx_hal_tim.c ****   /* Get the TIMx CCER register value */
4676:Drivers/STM32F3xx_HAL_Driver/Src/stm32f3xx_hal_tim.c ****   tmpccer = TIMx->CCER;
 10297              		.loc 1 4676 0
 10298 0022 7B68     		ldr	r3, [r7, #4]
 10299 0024 1B6A     		ldr	r3, [r3, #32]
 10300 0026 7B61     		str	r3, [r7, #20]
4677:Drivers/STM32F3xx_HAL_Driver/Src/stm32f3xx_hal_tim.c ****   /* Get the TIMx CR2 register value */
4678:Drivers/STM32F3xx_HAL_Driver/Src/stm32f3xx_hal_tim.c ****   tmpcr2 =  TIMx->CR2; 
 10301              		.loc 1 4678 0
 10302 0028 7B68     		ldr	r3, [r7, #4]
 10303 002a 5B68     		ldr	r3, [r3, #4]
 10304 002c 3B61     		str	r3, [r7, #16]
4679:Drivers/STM32F3xx_HAL_Driver/Src/stm32f3xx_hal_tim.c ****   
4680:Drivers/STM32F3xx_HAL_Driver/Src/stm32f3xx_hal_tim.c ****   /* Get the TIMx CCMR1 register value */
4681:Drivers/STM32F3xx_HAL_Driver/Src/stm32f3xx_hal_tim.c ****   tmpccmrx = TIMx->CCMR1;
 10305              		.loc 1 4681 0
 10306 002e 7B68     		ldr	r3, [r7, #4]
 10307 0030 9B69     		ldr	r3, [r3, #24]
 10308 0032 FB60     		str	r3, [r7, #12]
4682:Drivers/STM32F3xx_HAL_Driver/Src/stm32f3xx_hal_tim.c **** 
4683:Drivers/STM32F3xx_HAL_Driver/Src/stm32f3xx_hal_tim.c ****   /* Reset the Output Compare mode and Capture/Compare selection Bits */
4684:Drivers/STM32F3xx_HAL_Driver/Src/stm32f3xx_hal_tim.c ****   tmpccmrx &= ~TIM_CCMR1_OC2M;
 10309              		.loc 1 4684 0
 10310 0034 FB68     		ldr	r3, [r7, #12]
 10311 0036 23F08073 		bic	r3, r3, #16777216
 10312 003a 23F4E043 		bic	r3, r3, #28672
 10313 003e FB60     		str	r3, [r7, #12]
4685:Drivers/STM32F3xx_HAL_Driver/Src/stm32f3xx_hal_tim.c ****   tmpccmrx &= ~TIM_CCMR1_CC2S;
 10314              		.loc 1 4685 0
 10315 0040 FB68     		ldr	r3, [r7, #12]
 10316 0042 23F44073 		bic	r3, r3, #768
 10317 0046 FB60     		str	r3, [r7, #12]
4686:Drivers/STM32F3xx_HAL_Driver/Src/stm32f3xx_hal_tim.c ****   
4687:Drivers/STM32F3xx_HAL_Driver/Src/stm32f3xx_hal_tim.c ****   /* Select the Output Compare Mode */
4688:Drivers/STM32F3xx_HAL_Driver/Src/stm32f3xx_hal_tim.c ****   tmpccmrx |= (OC_Config->OCMode << 8);
 10318              		.loc 1 4688 0
 10319 0048 3B68     		ldr	r3, [r7]
 10320 004a 1B68     		ldr	r3, [r3]
 10321 004c 1B02     		lsls	r3, r3, #8
 10322 004e FA68     		ldr	r2, [r7, #12]
 10323 0050 1343     		orrs	r3, r3, r2
ARM GAS  /tmp/ccZyKULX.s 			page 264


 10324 0052 FB60     		str	r3, [r7, #12]
4689:Drivers/STM32F3xx_HAL_Driver/Src/stm32f3xx_hal_tim.c ****   
4690:Drivers/STM32F3xx_HAL_Driver/Src/stm32f3xx_hal_tim.c ****   /* Reset the Output Polarity level */
4691:Drivers/STM32F3xx_HAL_Driver/Src/stm32f3xx_hal_tim.c ****   tmpccer &= ~TIM_CCER_CC2P;
 10325              		.loc 1 4691 0
 10326 0054 7B69     		ldr	r3, [r7, #20]
 10327 0056 23F02003 		bic	r3, r3, #32
 10328 005a 7B61     		str	r3, [r7, #20]
4692:Drivers/STM32F3xx_HAL_Driver/Src/stm32f3xx_hal_tim.c ****   /* Set the Output Compare Polarity */
4693:Drivers/STM32F3xx_HAL_Driver/Src/stm32f3xx_hal_tim.c ****   tmpccer |= (OC_Config->OCPolarity << 4);
 10329              		.loc 1 4693 0
 10330 005c 3B68     		ldr	r3, [r7]
 10331 005e 9B68     		ldr	r3, [r3, #8]
 10332 0060 1B01     		lsls	r3, r3, #4
 10333 0062 7A69     		ldr	r2, [r7, #20]
 10334 0064 1343     		orrs	r3, r3, r2
 10335 0066 7B61     		str	r3, [r7, #20]
4694:Drivers/STM32F3xx_HAL_Driver/Src/stm32f3xx_hal_tim.c **** 
4695:Drivers/STM32F3xx_HAL_Driver/Src/stm32f3xx_hal_tim.c ****   if(IS_TIM_CCXN_INSTANCE(TIMx, TIM_CHANNEL_2))
 10336              		.loc 1 4695 0
 10337 0068 7A68     		ldr	r2, [r7, #4]
 10338 006a 274B     		ldr	r3, .L609
 10339 006c 9A42     		cmp	r2, r3
 10340 006e 03D0     		beq	.L605
 10341              		.loc 1 4695 0 is_stmt 0 discriminator 1
 10342 0070 7A68     		ldr	r2, [r7, #4]
 10343 0072 264B     		ldr	r3, .L609+4
 10344 0074 9A42     		cmp	r2, r3
 10345 0076 0DD1     		bne	.L606
 10346              	.L605:
4696:Drivers/STM32F3xx_HAL_Driver/Src/stm32f3xx_hal_tim.c ****   {   
4697:Drivers/STM32F3xx_HAL_Driver/Src/stm32f3xx_hal_tim.c ****     assert_param(IS_TIM_OCN_POLARITY(OC_Config->OCNPolarity));
4698:Drivers/STM32F3xx_HAL_Driver/Src/stm32f3xx_hal_tim.c **** 
4699:Drivers/STM32F3xx_HAL_Driver/Src/stm32f3xx_hal_tim.c ****     /* Reset the Output N Polarity level */
4700:Drivers/STM32F3xx_HAL_Driver/Src/stm32f3xx_hal_tim.c ****     tmpccer &= ~TIM_CCER_CC2NP;
 10347              		.loc 1 4700 0 is_stmt 1
 10348 0078 7B69     		ldr	r3, [r7, #20]
 10349 007a 23F08003 		bic	r3, r3, #128
 10350 007e 7B61     		str	r3, [r7, #20]
4701:Drivers/STM32F3xx_HAL_Driver/Src/stm32f3xx_hal_tim.c ****     /* Set the Output N Polarity */
4702:Drivers/STM32F3xx_HAL_Driver/Src/stm32f3xx_hal_tim.c ****     tmpccer |= (OC_Config->OCNPolarity << 4);
 10351              		.loc 1 4702 0
 10352 0080 3B68     		ldr	r3, [r7]
 10353 0082 DB68     		ldr	r3, [r3, #12]
 10354 0084 1B01     		lsls	r3, r3, #4
 10355 0086 7A69     		ldr	r2, [r7, #20]
 10356 0088 1343     		orrs	r3, r3, r2
 10357 008a 7B61     		str	r3, [r7, #20]
4703:Drivers/STM32F3xx_HAL_Driver/Src/stm32f3xx_hal_tim.c ****     /* Reset the Output N State */
4704:Drivers/STM32F3xx_HAL_Driver/Src/stm32f3xx_hal_tim.c ****     tmpccer &= ~TIM_CCER_CC2NE;
 10358              		.loc 1 4704 0
 10359 008c 7B69     		ldr	r3, [r7, #20]
 10360 008e 23F04003 		bic	r3, r3, #64
 10361 0092 7B61     		str	r3, [r7, #20]
 10362              	.L606:
4705:Drivers/STM32F3xx_HAL_Driver/Src/stm32f3xx_hal_tim.c ****     
4706:Drivers/STM32F3xx_HAL_Driver/Src/stm32f3xx_hal_tim.c ****   }
ARM GAS  /tmp/ccZyKULX.s 			page 265


4707:Drivers/STM32F3xx_HAL_Driver/Src/stm32f3xx_hal_tim.c **** 
4708:Drivers/STM32F3xx_HAL_Driver/Src/stm32f3xx_hal_tim.c ****   if(IS_TIM_BREAK_INSTANCE(TIMx))
 10363              		.loc 1 4708 0
 10364 0094 7A68     		ldr	r2, [r7, #4]
 10365 0096 1C4B     		ldr	r3, .L609
 10366 0098 9A42     		cmp	r2, r3
 10367 009a 0FD0     		beq	.L607
 10368              		.loc 1 4708 0 is_stmt 0 discriminator 1
 10369 009c 7A68     		ldr	r2, [r7, #4]
 10370 009e 1B4B     		ldr	r3, .L609+4
 10371 00a0 9A42     		cmp	r2, r3
 10372 00a2 0BD0     		beq	.L607
 10373 00a4 7A68     		ldr	r2, [r7, #4]
 10374 00a6 1A4B     		ldr	r3, .L609+8
 10375 00a8 9A42     		cmp	r2, r3
 10376 00aa 07D0     		beq	.L607
 10377 00ac 7A68     		ldr	r2, [r7, #4]
 10378 00ae 194B     		ldr	r3, .L609+12
 10379 00b0 9A42     		cmp	r2, r3
 10380 00b2 03D0     		beq	.L607
 10381 00b4 7A68     		ldr	r2, [r7, #4]
 10382 00b6 184B     		ldr	r3, .L609+16
 10383 00b8 9A42     		cmp	r2, r3
 10384 00ba 13D1     		bne	.L608
 10385              	.L607:
4709:Drivers/STM32F3xx_HAL_Driver/Src/stm32f3xx_hal_tim.c ****   {
4710:Drivers/STM32F3xx_HAL_Driver/Src/stm32f3xx_hal_tim.c ****     /* Check parameters */
4711:Drivers/STM32F3xx_HAL_Driver/Src/stm32f3xx_hal_tim.c ****     assert_param(IS_TIM_OCNIDLE_STATE(OC_Config->OCNIdleState));
4712:Drivers/STM32F3xx_HAL_Driver/Src/stm32f3xx_hal_tim.c ****     assert_param(IS_TIM_OCIDLE_STATE(OC_Config->OCIdleState));
4713:Drivers/STM32F3xx_HAL_Driver/Src/stm32f3xx_hal_tim.c **** 
4714:Drivers/STM32F3xx_HAL_Driver/Src/stm32f3xx_hal_tim.c ****     /* Reset the Output Compare and Output Compare N IDLE State */
4715:Drivers/STM32F3xx_HAL_Driver/Src/stm32f3xx_hal_tim.c ****     tmpcr2 &= ~TIM_CR2_OIS2;
 10386              		.loc 1 4715 0 is_stmt 1
 10387 00bc 3B69     		ldr	r3, [r7, #16]
 10388 00be 23F48063 		bic	r3, r3, #1024
 10389 00c2 3B61     		str	r3, [r7, #16]
4716:Drivers/STM32F3xx_HAL_Driver/Src/stm32f3xx_hal_tim.c ****     tmpcr2 &= ~TIM_CR2_OIS2N;
 10390              		.loc 1 4716 0
 10391 00c4 3B69     		ldr	r3, [r7, #16]
 10392 00c6 23F40063 		bic	r3, r3, #2048
 10393 00ca 3B61     		str	r3, [r7, #16]
4717:Drivers/STM32F3xx_HAL_Driver/Src/stm32f3xx_hal_tim.c ****     /* Set the Output Idle state */
4718:Drivers/STM32F3xx_HAL_Driver/Src/stm32f3xx_hal_tim.c ****     tmpcr2 |= (OC_Config->OCIdleState << 2);
 10394              		.loc 1 4718 0
 10395 00cc 3B68     		ldr	r3, [r7]
 10396 00ce 5B69     		ldr	r3, [r3, #20]
 10397 00d0 9B00     		lsls	r3, r3, #2
 10398 00d2 3A69     		ldr	r2, [r7, #16]
 10399 00d4 1343     		orrs	r3, r3, r2
 10400 00d6 3B61     		str	r3, [r7, #16]
4719:Drivers/STM32F3xx_HAL_Driver/Src/stm32f3xx_hal_tim.c ****     /* Set the Output N Idle state */
4720:Drivers/STM32F3xx_HAL_Driver/Src/stm32f3xx_hal_tim.c ****     tmpcr2 |= (OC_Config->OCNIdleState << 2);
 10401              		.loc 1 4720 0
 10402 00d8 3B68     		ldr	r3, [r7]
 10403 00da 9B69     		ldr	r3, [r3, #24]
 10404 00dc 9B00     		lsls	r3, r3, #2
 10405 00de 3A69     		ldr	r2, [r7, #16]
ARM GAS  /tmp/ccZyKULX.s 			page 266


 10406 00e0 1343     		orrs	r3, r3, r2
 10407 00e2 3B61     		str	r3, [r7, #16]
 10408              	.L608:
4721:Drivers/STM32F3xx_HAL_Driver/Src/stm32f3xx_hal_tim.c ****   }
4722:Drivers/STM32F3xx_HAL_Driver/Src/stm32f3xx_hal_tim.c **** 
4723:Drivers/STM32F3xx_HAL_Driver/Src/stm32f3xx_hal_tim.c ****   /* Write to TIMx CR2 */
4724:Drivers/STM32F3xx_HAL_Driver/Src/stm32f3xx_hal_tim.c ****   TIMx->CR2 = tmpcr2;
 10409              		.loc 1 4724 0
 10410 00e4 7B68     		ldr	r3, [r7, #4]
 10411 00e6 3A69     		ldr	r2, [r7, #16]
 10412 00e8 5A60     		str	r2, [r3, #4]
4725:Drivers/STM32F3xx_HAL_Driver/Src/stm32f3xx_hal_tim.c ****   
4726:Drivers/STM32F3xx_HAL_Driver/Src/stm32f3xx_hal_tim.c ****   /* Write to TIMx CCMR1 */
4727:Drivers/STM32F3xx_HAL_Driver/Src/stm32f3xx_hal_tim.c ****   TIMx->CCMR1 = tmpccmrx;
 10413              		.loc 1 4727 0
 10414 00ea 7B68     		ldr	r3, [r7, #4]
 10415 00ec FA68     		ldr	r2, [r7, #12]
 10416 00ee 9A61     		str	r2, [r3, #24]
4728:Drivers/STM32F3xx_HAL_Driver/Src/stm32f3xx_hal_tim.c ****   
4729:Drivers/STM32F3xx_HAL_Driver/Src/stm32f3xx_hal_tim.c ****   /* Set the Capture Compare Register value */
4730:Drivers/STM32F3xx_HAL_Driver/Src/stm32f3xx_hal_tim.c ****   TIMx->CCR2 = OC_Config->Pulse;
 10417              		.loc 1 4730 0
 10418 00f0 3B68     		ldr	r3, [r7]
 10419 00f2 5A68     		ldr	r2, [r3, #4]
 10420 00f4 7B68     		ldr	r3, [r7, #4]
 10421 00f6 9A63     		str	r2, [r3, #56]
4731:Drivers/STM32F3xx_HAL_Driver/Src/stm32f3xx_hal_tim.c ****   
4732:Drivers/STM32F3xx_HAL_Driver/Src/stm32f3xx_hal_tim.c ****   /* Write to TIMx CCER */
4733:Drivers/STM32F3xx_HAL_Driver/Src/stm32f3xx_hal_tim.c ****   TIMx->CCER = tmpccer;  
 10422              		.loc 1 4733 0
 10423 00f8 7B68     		ldr	r3, [r7, #4]
 10424 00fa 7A69     		ldr	r2, [r7, #20]
 10425 00fc 1A62     		str	r2, [r3, #32]
4734:Drivers/STM32F3xx_HAL_Driver/Src/stm32f3xx_hal_tim.c **** }
 10426              		.loc 1 4734 0
 10427 00fe 1C37     		adds	r7, r7, #28
 10428 0100 BD46     		mov	sp, r7
 10429              		@ sp needed
 10430 0102 5DF8047B 		ldr	r7, [sp], #4
 10431 0106 7047     		bx	lr
 10432              	.L610:
 10433              		.align	2
 10434              	.L609:
 10435 0108 002C0140 		.word	1073818624
 10436 010c 00340140 		.word	1073820672
 10437 0110 00400140 		.word	1073823744
 10438 0114 00440140 		.word	1073824768
 10439 0118 00480140 		.word	1073825792
 10440              		.cfi_endproc
 10441              	.LFE218:
 10443              		.section	.text.TIM_OC3_SetConfig,"ax",%progbits
 10444              		.align	2
 10445              		.global	TIM_OC3_SetConfig
 10446              		.thumb
 10447              		.thumb_func
 10449              	TIM_OC3_SetConfig:
 10450              	.LFB219:
ARM GAS  /tmp/ccZyKULX.s 			page 267


4735:Drivers/STM32F3xx_HAL_Driver/Src/stm32f3xx_hal_tim.c **** 
4736:Drivers/STM32F3xx_HAL_Driver/Src/stm32f3xx_hal_tim.c **** /**
4737:Drivers/STM32F3xx_HAL_Driver/Src/stm32f3xx_hal_tim.c ****   * @brief  Time Ouput Compare 3 configuration
4738:Drivers/STM32F3xx_HAL_Driver/Src/stm32f3xx_hal_tim.c ****   * @param  TIMx to select the TIM peripheral
4739:Drivers/STM32F3xx_HAL_Driver/Src/stm32f3xx_hal_tim.c ****   * @param  OC_Config: The ouput configuration structure
4740:Drivers/STM32F3xx_HAL_Driver/Src/stm32f3xx_hal_tim.c ****   * @retval None
4741:Drivers/STM32F3xx_HAL_Driver/Src/stm32f3xx_hal_tim.c ****   */
4742:Drivers/STM32F3xx_HAL_Driver/Src/stm32f3xx_hal_tim.c **** void TIM_OC3_SetConfig(TIM_TypeDef *TIMx, TIM_OC_InitTypeDef *OC_Config)
4743:Drivers/STM32F3xx_HAL_Driver/Src/stm32f3xx_hal_tim.c **** {
 10451              		.loc 1 4743 0
 10452              		.cfi_startproc
 10453              		@ args = 0, pretend = 0, frame = 24
 10454              		@ frame_needed = 1, uses_anonymous_args = 0
 10455              		@ link register save eliminated.
 10456 0000 80B4     		push	{r7}
 10457              	.LCFI282:
 10458              		.cfi_def_cfa_offset 4
 10459              		.cfi_offset 7, -4
 10460 0002 87B0     		sub	sp, sp, #28
 10461              	.LCFI283:
 10462              		.cfi_def_cfa_offset 32
 10463 0004 00AF     		add	r7, sp, #0
 10464              	.LCFI284:
 10465              		.cfi_def_cfa_register 7
 10466 0006 7860     		str	r0, [r7, #4]
 10467 0008 3960     		str	r1, [r7]
4744:Drivers/STM32F3xx_HAL_Driver/Src/stm32f3xx_hal_tim.c ****   uint32_t tmpccmrx = 0;
 10468              		.loc 1 4744 0
 10469 000a 0023     		movs	r3, #0
 10470 000c FB60     		str	r3, [r7, #12]
4745:Drivers/STM32F3xx_HAL_Driver/Src/stm32f3xx_hal_tim.c ****   uint32_t tmpccer = 0;
 10471              		.loc 1 4745 0
 10472 000e 0023     		movs	r3, #0
 10473 0010 7B61     		str	r3, [r7, #20]
4746:Drivers/STM32F3xx_HAL_Driver/Src/stm32f3xx_hal_tim.c ****   uint32_t tmpcr2 = 0; 
 10474              		.loc 1 4746 0
 10475 0012 0023     		movs	r3, #0
 10476 0014 3B61     		str	r3, [r7, #16]
4747:Drivers/STM32F3xx_HAL_Driver/Src/stm32f3xx_hal_tim.c **** 
4748:Drivers/STM32F3xx_HAL_Driver/Src/stm32f3xx_hal_tim.c ****   /* Disable the Channel 3: Reset the CC2E Bit */
4749:Drivers/STM32F3xx_HAL_Driver/Src/stm32f3xx_hal_tim.c ****   TIMx->CCER &= ~TIM_CCER_CC3E;
 10477              		.loc 1 4749 0
 10478 0016 7B68     		ldr	r3, [r7, #4]
 10479 0018 1B6A     		ldr	r3, [r3, #32]
 10480 001a 23F48072 		bic	r2, r3, #256
 10481 001e 7B68     		ldr	r3, [r7, #4]
 10482 0020 1A62     		str	r2, [r3, #32]
4750:Drivers/STM32F3xx_HAL_Driver/Src/stm32f3xx_hal_tim.c ****   
4751:Drivers/STM32F3xx_HAL_Driver/Src/stm32f3xx_hal_tim.c ****   /* Get the TIMx CCER register value */
4752:Drivers/STM32F3xx_HAL_Driver/Src/stm32f3xx_hal_tim.c ****   tmpccer = TIMx->CCER;
 10483              		.loc 1 4752 0
 10484 0022 7B68     		ldr	r3, [r7, #4]
 10485 0024 1B6A     		ldr	r3, [r3, #32]
 10486 0026 7B61     		str	r3, [r7, #20]
4753:Drivers/STM32F3xx_HAL_Driver/Src/stm32f3xx_hal_tim.c ****   /* Get the TIMx CR2 register value */
4754:Drivers/STM32F3xx_HAL_Driver/Src/stm32f3xx_hal_tim.c ****   tmpcr2 =  TIMx->CR2; 
 10487              		.loc 1 4754 0
ARM GAS  /tmp/ccZyKULX.s 			page 268


 10488 0028 7B68     		ldr	r3, [r7, #4]
 10489 002a 5B68     		ldr	r3, [r3, #4]
 10490 002c 3B61     		str	r3, [r7, #16]
4755:Drivers/STM32F3xx_HAL_Driver/Src/stm32f3xx_hal_tim.c ****   
4756:Drivers/STM32F3xx_HAL_Driver/Src/stm32f3xx_hal_tim.c ****   /* Get the TIMx CCMR2 register value */
4757:Drivers/STM32F3xx_HAL_Driver/Src/stm32f3xx_hal_tim.c ****   tmpccmrx = TIMx->CCMR2;
 10491              		.loc 1 4757 0
 10492 002e 7B68     		ldr	r3, [r7, #4]
 10493 0030 DB69     		ldr	r3, [r3, #28]
 10494 0032 FB60     		str	r3, [r7, #12]
4758:Drivers/STM32F3xx_HAL_Driver/Src/stm32f3xx_hal_tim.c **** 
4759:Drivers/STM32F3xx_HAL_Driver/Src/stm32f3xx_hal_tim.c ****   /* Reset the Output Compare mode and Capture/Compare selection Bits */
4760:Drivers/STM32F3xx_HAL_Driver/Src/stm32f3xx_hal_tim.c ****   tmpccmrx &= ~TIM_CCMR2_OC3M;
 10495              		.loc 1 4760 0
 10496 0034 FB68     		ldr	r3, [r7, #12]
 10497 0036 23F48033 		bic	r3, r3, #65536
 10498 003a 23F07003 		bic	r3, r3, #112
 10499 003e FB60     		str	r3, [r7, #12]
4761:Drivers/STM32F3xx_HAL_Driver/Src/stm32f3xx_hal_tim.c ****   tmpccmrx &= ~TIM_CCMR2_CC3S;  
 10500              		.loc 1 4761 0
 10501 0040 FB68     		ldr	r3, [r7, #12]
 10502 0042 23F00303 		bic	r3, r3, #3
 10503 0046 FB60     		str	r3, [r7, #12]
4762:Drivers/STM32F3xx_HAL_Driver/Src/stm32f3xx_hal_tim.c ****   /* Select the Output Compare Mode */
4763:Drivers/STM32F3xx_HAL_Driver/Src/stm32f3xx_hal_tim.c ****   tmpccmrx |= OC_Config->OCMode;
 10504              		.loc 1 4763 0
 10505 0048 3B68     		ldr	r3, [r7]
 10506 004a 1B68     		ldr	r3, [r3]
 10507 004c FA68     		ldr	r2, [r7, #12]
 10508 004e 1343     		orrs	r3, r3, r2
 10509 0050 FB60     		str	r3, [r7, #12]
4764:Drivers/STM32F3xx_HAL_Driver/Src/stm32f3xx_hal_tim.c ****   
4765:Drivers/STM32F3xx_HAL_Driver/Src/stm32f3xx_hal_tim.c ****   /* Reset the Output Polarity level */
4766:Drivers/STM32F3xx_HAL_Driver/Src/stm32f3xx_hal_tim.c ****   tmpccer &= ~TIM_CCER_CC3P;
 10510              		.loc 1 4766 0
 10511 0052 7B69     		ldr	r3, [r7, #20]
 10512 0054 23F40073 		bic	r3, r3, #512
 10513 0058 7B61     		str	r3, [r7, #20]
4767:Drivers/STM32F3xx_HAL_Driver/Src/stm32f3xx_hal_tim.c ****   /* Set the Output Compare Polarity */
4768:Drivers/STM32F3xx_HAL_Driver/Src/stm32f3xx_hal_tim.c ****   tmpccer |= (OC_Config->OCPolarity << 8);
 10514              		.loc 1 4768 0
 10515 005a 3B68     		ldr	r3, [r7]
 10516 005c 9B68     		ldr	r3, [r3, #8]
 10517 005e 1B02     		lsls	r3, r3, #8
 10518 0060 7A69     		ldr	r2, [r7, #20]
 10519 0062 1343     		orrs	r3, r3, r2
 10520 0064 7B61     		str	r3, [r7, #20]
4769:Drivers/STM32F3xx_HAL_Driver/Src/stm32f3xx_hal_tim.c **** 
4770:Drivers/STM32F3xx_HAL_Driver/Src/stm32f3xx_hal_tim.c ****   if(IS_TIM_CCXN_INSTANCE(TIMx, TIM_CHANNEL_3))
 10521              		.loc 1 4770 0
 10522 0066 7A68     		ldr	r2, [r7, #4]
 10523 0068 274B     		ldr	r3, .L616
 10524 006a 9A42     		cmp	r2, r3
 10525 006c 03D0     		beq	.L612
 10526              		.loc 1 4770 0 is_stmt 0 discriminator 1
 10527 006e 7A68     		ldr	r2, [r7, #4]
 10528 0070 264B     		ldr	r3, .L616+4
ARM GAS  /tmp/ccZyKULX.s 			page 269


 10529 0072 9A42     		cmp	r2, r3
 10530 0074 0DD1     		bne	.L613
 10531              	.L612:
4771:Drivers/STM32F3xx_HAL_Driver/Src/stm32f3xx_hal_tim.c ****   {   
4772:Drivers/STM32F3xx_HAL_Driver/Src/stm32f3xx_hal_tim.c ****     assert_param(IS_TIM_OCN_POLARITY(OC_Config->OCNPolarity));
4773:Drivers/STM32F3xx_HAL_Driver/Src/stm32f3xx_hal_tim.c **** 
4774:Drivers/STM32F3xx_HAL_Driver/Src/stm32f3xx_hal_tim.c ****     /* Reset the Output N Polarity level */
4775:Drivers/STM32F3xx_HAL_Driver/Src/stm32f3xx_hal_tim.c ****     tmpccer &= ~TIM_CCER_CC3NP;
 10532              		.loc 1 4775 0 is_stmt 1
 10533 0076 7B69     		ldr	r3, [r7, #20]
 10534 0078 23F40063 		bic	r3, r3, #2048
 10535 007c 7B61     		str	r3, [r7, #20]
4776:Drivers/STM32F3xx_HAL_Driver/Src/stm32f3xx_hal_tim.c ****     /* Set the Output N Polarity */
4777:Drivers/STM32F3xx_HAL_Driver/Src/stm32f3xx_hal_tim.c ****     tmpccer |= (OC_Config->OCNPolarity << 8);
 10536              		.loc 1 4777 0
 10537 007e 3B68     		ldr	r3, [r7]
 10538 0080 DB68     		ldr	r3, [r3, #12]
 10539 0082 1B02     		lsls	r3, r3, #8
 10540 0084 7A69     		ldr	r2, [r7, #20]
 10541 0086 1343     		orrs	r3, r3, r2
 10542 0088 7B61     		str	r3, [r7, #20]
4778:Drivers/STM32F3xx_HAL_Driver/Src/stm32f3xx_hal_tim.c ****     /* Reset the Output N State */
4779:Drivers/STM32F3xx_HAL_Driver/Src/stm32f3xx_hal_tim.c ****     tmpccer &= ~TIM_CCER_CC3NE;
 10543              		.loc 1 4779 0
 10544 008a 7B69     		ldr	r3, [r7, #20]
 10545 008c 23F48063 		bic	r3, r3, #1024
 10546 0090 7B61     		str	r3, [r7, #20]
 10547              	.L613:
4780:Drivers/STM32F3xx_HAL_Driver/Src/stm32f3xx_hal_tim.c ****   }
4781:Drivers/STM32F3xx_HAL_Driver/Src/stm32f3xx_hal_tim.c ****   
4782:Drivers/STM32F3xx_HAL_Driver/Src/stm32f3xx_hal_tim.c ****   if(IS_TIM_BREAK_INSTANCE(TIMx))
 10548              		.loc 1 4782 0
 10549 0092 7A68     		ldr	r2, [r7, #4]
 10550 0094 1C4B     		ldr	r3, .L616
 10551 0096 9A42     		cmp	r2, r3
 10552 0098 0FD0     		beq	.L614
 10553              		.loc 1 4782 0 is_stmt 0 discriminator 1
 10554 009a 7A68     		ldr	r2, [r7, #4]
 10555 009c 1B4B     		ldr	r3, .L616+4
 10556 009e 9A42     		cmp	r2, r3
 10557 00a0 0BD0     		beq	.L614
 10558 00a2 7A68     		ldr	r2, [r7, #4]
 10559 00a4 1A4B     		ldr	r3, .L616+8
 10560 00a6 9A42     		cmp	r2, r3
 10561 00a8 07D0     		beq	.L614
 10562 00aa 7A68     		ldr	r2, [r7, #4]
 10563 00ac 194B     		ldr	r3, .L616+12
 10564 00ae 9A42     		cmp	r2, r3
 10565 00b0 03D0     		beq	.L614
 10566 00b2 7A68     		ldr	r2, [r7, #4]
 10567 00b4 184B     		ldr	r3, .L616+16
 10568 00b6 9A42     		cmp	r2, r3
 10569 00b8 13D1     		bne	.L615
 10570              	.L614:
4783:Drivers/STM32F3xx_HAL_Driver/Src/stm32f3xx_hal_tim.c ****   {
4784:Drivers/STM32F3xx_HAL_Driver/Src/stm32f3xx_hal_tim.c ****     /* Check parameters */
4785:Drivers/STM32F3xx_HAL_Driver/Src/stm32f3xx_hal_tim.c ****     assert_param(IS_TIM_OCNIDLE_STATE(OC_Config->OCNIdleState));
ARM GAS  /tmp/ccZyKULX.s 			page 270


4786:Drivers/STM32F3xx_HAL_Driver/Src/stm32f3xx_hal_tim.c ****     assert_param(IS_TIM_OCIDLE_STATE(OC_Config->OCIdleState));
4787:Drivers/STM32F3xx_HAL_Driver/Src/stm32f3xx_hal_tim.c **** 
4788:Drivers/STM32F3xx_HAL_Driver/Src/stm32f3xx_hal_tim.c ****     /* Reset the Output Compare and Output Compare N IDLE State */
4789:Drivers/STM32F3xx_HAL_Driver/Src/stm32f3xx_hal_tim.c ****     tmpcr2 &= ~TIM_CR2_OIS3;
 10571              		.loc 1 4789 0 is_stmt 1
 10572 00ba 3B69     		ldr	r3, [r7, #16]
 10573 00bc 23F48053 		bic	r3, r3, #4096
 10574 00c0 3B61     		str	r3, [r7, #16]
4790:Drivers/STM32F3xx_HAL_Driver/Src/stm32f3xx_hal_tim.c ****     tmpcr2 &= ~TIM_CR2_OIS3N;
 10575              		.loc 1 4790 0
 10576 00c2 3B69     		ldr	r3, [r7, #16]
 10577 00c4 23F40053 		bic	r3, r3, #8192
 10578 00c8 3B61     		str	r3, [r7, #16]
4791:Drivers/STM32F3xx_HAL_Driver/Src/stm32f3xx_hal_tim.c ****     /* Set the Output Idle state */
4792:Drivers/STM32F3xx_HAL_Driver/Src/stm32f3xx_hal_tim.c ****     tmpcr2 |= (OC_Config->OCIdleState << 4);
 10579              		.loc 1 4792 0
 10580 00ca 3B68     		ldr	r3, [r7]
 10581 00cc 5B69     		ldr	r3, [r3, #20]
 10582 00ce 1B01     		lsls	r3, r3, #4
 10583 00d0 3A69     		ldr	r2, [r7, #16]
 10584 00d2 1343     		orrs	r3, r3, r2
 10585 00d4 3B61     		str	r3, [r7, #16]
4793:Drivers/STM32F3xx_HAL_Driver/Src/stm32f3xx_hal_tim.c ****     /* Set the Output N Idle state */
4794:Drivers/STM32F3xx_HAL_Driver/Src/stm32f3xx_hal_tim.c ****     tmpcr2 |= (OC_Config->OCNIdleState << 4);
 10586              		.loc 1 4794 0
 10587 00d6 3B68     		ldr	r3, [r7]
 10588 00d8 9B69     		ldr	r3, [r3, #24]
 10589 00da 1B01     		lsls	r3, r3, #4
 10590 00dc 3A69     		ldr	r2, [r7, #16]
 10591 00de 1343     		orrs	r3, r3, r2
 10592 00e0 3B61     		str	r3, [r7, #16]
 10593              	.L615:
4795:Drivers/STM32F3xx_HAL_Driver/Src/stm32f3xx_hal_tim.c ****   }
4796:Drivers/STM32F3xx_HAL_Driver/Src/stm32f3xx_hal_tim.c **** 
4797:Drivers/STM32F3xx_HAL_Driver/Src/stm32f3xx_hal_tim.c ****   /* Write to TIMx CR2 */
4798:Drivers/STM32F3xx_HAL_Driver/Src/stm32f3xx_hal_tim.c ****   TIMx->CR2 = tmpcr2;
 10594              		.loc 1 4798 0
 10595 00e2 7B68     		ldr	r3, [r7, #4]
 10596 00e4 3A69     		ldr	r2, [r7, #16]
 10597 00e6 5A60     		str	r2, [r3, #4]
4799:Drivers/STM32F3xx_HAL_Driver/Src/stm32f3xx_hal_tim.c ****   
4800:Drivers/STM32F3xx_HAL_Driver/Src/stm32f3xx_hal_tim.c ****   /* Write to TIMx CCMR2 */
4801:Drivers/STM32F3xx_HAL_Driver/Src/stm32f3xx_hal_tim.c ****   TIMx->CCMR2 = tmpccmrx;
 10598              		.loc 1 4801 0
 10599 00e8 7B68     		ldr	r3, [r7, #4]
 10600 00ea FA68     		ldr	r2, [r7, #12]
 10601 00ec DA61     		str	r2, [r3, #28]
4802:Drivers/STM32F3xx_HAL_Driver/Src/stm32f3xx_hal_tim.c ****   
4803:Drivers/STM32F3xx_HAL_Driver/Src/stm32f3xx_hal_tim.c ****   /* Set the Capture Compare Register value */
4804:Drivers/STM32F3xx_HAL_Driver/Src/stm32f3xx_hal_tim.c ****   TIMx->CCR3 = OC_Config->Pulse;
 10602              		.loc 1 4804 0
 10603 00ee 3B68     		ldr	r3, [r7]
 10604 00f0 5A68     		ldr	r2, [r3, #4]
 10605 00f2 7B68     		ldr	r3, [r7, #4]
 10606 00f4 DA63     		str	r2, [r3, #60]
4805:Drivers/STM32F3xx_HAL_Driver/Src/stm32f3xx_hal_tim.c ****   
4806:Drivers/STM32F3xx_HAL_Driver/Src/stm32f3xx_hal_tim.c ****   /* Write to TIMx CCER */
ARM GAS  /tmp/ccZyKULX.s 			page 271


4807:Drivers/STM32F3xx_HAL_Driver/Src/stm32f3xx_hal_tim.c ****   TIMx->CCER = tmpccer;  
 10607              		.loc 1 4807 0
 10608 00f6 7B68     		ldr	r3, [r7, #4]
 10609 00f8 7A69     		ldr	r2, [r7, #20]
 10610 00fa 1A62     		str	r2, [r3, #32]
4808:Drivers/STM32F3xx_HAL_Driver/Src/stm32f3xx_hal_tim.c **** }
 10611              		.loc 1 4808 0
 10612 00fc 1C37     		adds	r7, r7, #28
 10613 00fe BD46     		mov	sp, r7
 10614              		@ sp needed
 10615 0100 5DF8047B 		ldr	r7, [sp], #4
 10616 0104 7047     		bx	lr
 10617              	.L617:
 10618 0106 00BF     		.align	2
 10619              	.L616:
 10620 0108 002C0140 		.word	1073818624
 10621 010c 00340140 		.word	1073820672
 10622 0110 00400140 		.word	1073823744
 10623 0114 00440140 		.word	1073824768
 10624 0118 00480140 		.word	1073825792
 10625              		.cfi_endproc
 10626              	.LFE219:
 10628              		.section	.text.TIM_OC4_SetConfig,"ax",%progbits
 10629              		.align	2
 10630              		.global	TIM_OC4_SetConfig
 10631              		.thumb
 10632              		.thumb_func
 10634              	TIM_OC4_SetConfig:
 10635              	.LFB220:
4809:Drivers/STM32F3xx_HAL_Driver/Src/stm32f3xx_hal_tim.c **** 
4810:Drivers/STM32F3xx_HAL_Driver/Src/stm32f3xx_hal_tim.c **** /**
4811:Drivers/STM32F3xx_HAL_Driver/Src/stm32f3xx_hal_tim.c ****   * @brief  Time Ouput Compare 4 configuration
4812:Drivers/STM32F3xx_HAL_Driver/Src/stm32f3xx_hal_tim.c ****   * @param  TIMx to select the TIM peripheral
4813:Drivers/STM32F3xx_HAL_Driver/Src/stm32f3xx_hal_tim.c ****   * @param  OC_Config: The ouput configuration structure
4814:Drivers/STM32F3xx_HAL_Driver/Src/stm32f3xx_hal_tim.c ****   * @retval None
4815:Drivers/STM32F3xx_HAL_Driver/Src/stm32f3xx_hal_tim.c ****   */
4816:Drivers/STM32F3xx_HAL_Driver/Src/stm32f3xx_hal_tim.c **** void TIM_OC4_SetConfig(TIM_TypeDef *TIMx, TIM_OC_InitTypeDef *OC_Config)
4817:Drivers/STM32F3xx_HAL_Driver/Src/stm32f3xx_hal_tim.c **** {
 10636              		.loc 1 4817 0
 10637              		.cfi_startproc
 10638              		@ args = 0, pretend = 0, frame = 24
 10639              		@ frame_needed = 1, uses_anonymous_args = 0
 10640              		@ link register save eliminated.
 10641 0000 80B4     		push	{r7}
 10642              	.LCFI285:
 10643              		.cfi_def_cfa_offset 4
 10644              		.cfi_offset 7, -4
 10645 0002 87B0     		sub	sp, sp, #28
 10646              	.LCFI286:
 10647              		.cfi_def_cfa_offset 32
 10648 0004 00AF     		add	r7, sp, #0
 10649              	.LCFI287:
 10650              		.cfi_def_cfa_register 7
 10651 0006 7860     		str	r0, [r7, #4]
 10652 0008 3960     		str	r1, [r7]
4818:Drivers/STM32F3xx_HAL_Driver/Src/stm32f3xx_hal_tim.c ****   uint32_t tmpccmrx = 0;
 10653              		.loc 1 4818 0
ARM GAS  /tmp/ccZyKULX.s 			page 272


 10654 000a 0023     		movs	r3, #0
 10655 000c 3B61     		str	r3, [r7, #16]
4819:Drivers/STM32F3xx_HAL_Driver/Src/stm32f3xx_hal_tim.c ****   uint32_t tmpccer = 0;
 10656              		.loc 1 4819 0
 10657 000e 0023     		movs	r3, #0
 10658 0010 FB60     		str	r3, [r7, #12]
4820:Drivers/STM32F3xx_HAL_Driver/Src/stm32f3xx_hal_tim.c ****   uint32_t tmpcr2 = 0; 
 10659              		.loc 1 4820 0
 10660 0012 0023     		movs	r3, #0
 10661 0014 7B61     		str	r3, [r7, #20]
4821:Drivers/STM32F3xx_HAL_Driver/Src/stm32f3xx_hal_tim.c **** 
4822:Drivers/STM32F3xx_HAL_Driver/Src/stm32f3xx_hal_tim.c ****   /* Disable the Channel 4: Reset the CC4E Bit */
4823:Drivers/STM32F3xx_HAL_Driver/Src/stm32f3xx_hal_tim.c ****   TIMx->CCER &= ~TIM_CCER_CC4E;
 10662              		.loc 1 4823 0
 10663 0016 7B68     		ldr	r3, [r7, #4]
 10664 0018 1B6A     		ldr	r3, [r3, #32]
 10665 001a 23F48052 		bic	r2, r3, #4096
 10666 001e 7B68     		ldr	r3, [r7, #4]
 10667 0020 1A62     		str	r2, [r3, #32]
4824:Drivers/STM32F3xx_HAL_Driver/Src/stm32f3xx_hal_tim.c ****   
4825:Drivers/STM32F3xx_HAL_Driver/Src/stm32f3xx_hal_tim.c ****   /* Get the TIMx CCER register value */
4826:Drivers/STM32F3xx_HAL_Driver/Src/stm32f3xx_hal_tim.c ****   tmpccer = TIMx->CCER;
 10668              		.loc 1 4826 0
 10669 0022 7B68     		ldr	r3, [r7, #4]
 10670 0024 1B6A     		ldr	r3, [r3, #32]
 10671 0026 FB60     		str	r3, [r7, #12]
4827:Drivers/STM32F3xx_HAL_Driver/Src/stm32f3xx_hal_tim.c ****   /* Get the TIMx CR2 register value */
4828:Drivers/STM32F3xx_HAL_Driver/Src/stm32f3xx_hal_tim.c ****   tmpcr2 =  TIMx->CR2; 
 10672              		.loc 1 4828 0
 10673 0028 7B68     		ldr	r3, [r7, #4]
 10674 002a 5B68     		ldr	r3, [r3, #4]
 10675 002c 7B61     		str	r3, [r7, #20]
4829:Drivers/STM32F3xx_HAL_Driver/Src/stm32f3xx_hal_tim.c ****   
4830:Drivers/STM32F3xx_HAL_Driver/Src/stm32f3xx_hal_tim.c ****   /* Get the TIMx CCMR2 register value */
4831:Drivers/STM32F3xx_HAL_Driver/Src/stm32f3xx_hal_tim.c ****   tmpccmrx = TIMx->CCMR2;
 10676              		.loc 1 4831 0
 10677 002e 7B68     		ldr	r3, [r7, #4]
 10678 0030 DB69     		ldr	r3, [r3, #28]
 10679 0032 3B61     		str	r3, [r7, #16]
4832:Drivers/STM32F3xx_HAL_Driver/Src/stm32f3xx_hal_tim.c **** 
4833:Drivers/STM32F3xx_HAL_Driver/Src/stm32f3xx_hal_tim.c ****   /* Reset the Output Compare mode and Capture/Compare selection Bits */
4834:Drivers/STM32F3xx_HAL_Driver/Src/stm32f3xx_hal_tim.c ****   tmpccmrx &= ~TIM_CCMR2_OC4M;
 10680              		.loc 1 4834 0
 10681 0034 3B69     		ldr	r3, [r7, #16]
 10682 0036 23F08073 		bic	r3, r3, #16777216
 10683 003a 23F4E043 		bic	r3, r3, #28672
 10684 003e 3B61     		str	r3, [r7, #16]
4835:Drivers/STM32F3xx_HAL_Driver/Src/stm32f3xx_hal_tim.c ****   tmpccmrx &= ~TIM_CCMR2_CC4S;
 10685              		.loc 1 4835 0
 10686 0040 3B69     		ldr	r3, [r7, #16]
 10687 0042 23F44073 		bic	r3, r3, #768
 10688 0046 3B61     		str	r3, [r7, #16]
4836:Drivers/STM32F3xx_HAL_Driver/Src/stm32f3xx_hal_tim.c ****   
4837:Drivers/STM32F3xx_HAL_Driver/Src/stm32f3xx_hal_tim.c ****   /* Select the Output Compare Mode */
4838:Drivers/STM32F3xx_HAL_Driver/Src/stm32f3xx_hal_tim.c ****   tmpccmrx |= (OC_Config->OCMode << 8);
 10689              		.loc 1 4838 0
 10690 0048 3B68     		ldr	r3, [r7]
ARM GAS  /tmp/ccZyKULX.s 			page 273


 10691 004a 1B68     		ldr	r3, [r3]
 10692 004c 1B02     		lsls	r3, r3, #8
 10693 004e 3A69     		ldr	r2, [r7, #16]
 10694 0050 1343     		orrs	r3, r3, r2
 10695 0052 3B61     		str	r3, [r7, #16]
4839:Drivers/STM32F3xx_HAL_Driver/Src/stm32f3xx_hal_tim.c ****   
4840:Drivers/STM32F3xx_HAL_Driver/Src/stm32f3xx_hal_tim.c ****   /* Reset the Output Polarity level */
4841:Drivers/STM32F3xx_HAL_Driver/Src/stm32f3xx_hal_tim.c ****   tmpccer &= ~TIM_CCER_CC4P;
 10696              		.loc 1 4841 0
 10697 0054 FB68     		ldr	r3, [r7, #12]
 10698 0056 23F40053 		bic	r3, r3, #8192
 10699 005a FB60     		str	r3, [r7, #12]
4842:Drivers/STM32F3xx_HAL_Driver/Src/stm32f3xx_hal_tim.c ****   /* Set the Output Compare Polarity */
4843:Drivers/STM32F3xx_HAL_Driver/Src/stm32f3xx_hal_tim.c ****   tmpccer |= (OC_Config->OCPolarity << 12);
 10700              		.loc 1 4843 0
 10701 005c 3B68     		ldr	r3, [r7]
 10702 005e 9B68     		ldr	r3, [r3, #8]
 10703 0060 1B03     		lsls	r3, r3, #12
 10704 0062 FA68     		ldr	r2, [r7, #12]
 10705 0064 1343     		orrs	r3, r3, r2
 10706 0066 FB60     		str	r3, [r7, #12]
4844:Drivers/STM32F3xx_HAL_Driver/Src/stm32f3xx_hal_tim.c **** 
4845:Drivers/STM32F3xx_HAL_Driver/Src/stm32f3xx_hal_tim.c ****   if(IS_TIM_BREAK_INSTANCE(TIMx))
 10707              		.loc 1 4845 0
 10708 0068 7A68     		ldr	r2, [r7, #4]
 10709 006a 174B     		ldr	r3, .L621
 10710 006c 9A42     		cmp	r2, r3
 10711 006e 0FD0     		beq	.L619
 10712              		.loc 1 4845 0 is_stmt 0 discriminator 1
 10713 0070 7A68     		ldr	r2, [r7, #4]
 10714 0072 164B     		ldr	r3, .L621+4
 10715 0074 9A42     		cmp	r2, r3
 10716 0076 0BD0     		beq	.L619
 10717 0078 7A68     		ldr	r2, [r7, #4]
 10718 007a 154B     		ldr	r3, .L621+8
 10719 007c 9A42     		cmp	r2, r3
 10720 007e 07D0     		beq	.L619
 10721 0080 7A68     		ldr	r2, [r7, #4]
 10722 0082 144B     		ldr	r3, .L621+12
 10723 0084 9A42     		cmp	r2, r3
 10724 0086 03D0     		beq	.L619
 10725 0088 7A68     		ldr	r2, [r7, #4]
 10726 008a 134B     		ldr	r3, .L621+16
 10727 008c 9A42     		cmp	r2, r3
 10728 008e 09D1     		bne	.L620
 10729              	.L619:
4846:Drivers/STM32F3xx_HAL_Driver/Src/stm32f3xx_hal_tim.c ****   {
4847:Drivers/STM32F3xx_HAL_Driver/Src/stm32f3xx_hal_tim.c ****     assert_param(IS_TIM_OCIDLE_STATE(OC_Config->OCIdleState));
4848:Drivers/STM32F3xx_HAL_Driver/Src/stm32f3xx_hal_tim.c **** 
4849:Drivers/STM32F3xx_HAL_Driver/Src/stm32f3xx_hal_tim.c ****    /* Reset the Output Compare IDLE State */
4850:Drivers/STM32F3xx_HAL_Driver/Src/stm32f3xx_hal_tim.c ****     tmpcr2 &= ~TIM_CR2_OIS4;
 10730              		.loc 1 4850 0 is_stmt 1
 10731 0090 7B69     		ldr	r3, [r7, #20]
 10732 0092 23F48043 		bic	r3, r3, #16384
 10733 0096 7B61     		str	r3, [r7, #20]
4851:Drivers/STM32F3xx_HAL_Driver/Src/stm32f3xx_hal_tim.c ****     /* Set the Output Idle state */
4852:Drivers/STM32F3xx_HAL_Driver/Src/stm32f3xx_hal_tim.c ****     tmpcr2 |= (OC_Config->OCIdleState << 6);
ARM GAS  /tmp/ccZyKULX.s 			page 274


 10734              		.loc 1 4852 0
 10735 0098 3B68     		ldr	r3, [r7]
 10736 009a 5B69     		ldr	r3, [r3, #20]
 10737 009c 9B01     		lsls	r3, r3, #6
 10738 009e 7A69     		ldr	r2, [r7, #20]
 10739 00a0 1343     		orrs	r3, r3, r2
 10740 00a2 7B61     		str	r3, [r7, #20]
 10741              	.L620:
4853:Drivers/STM32F3xx_HAL_Driver/Src/stm32f3xx_hal_tim.c ****   }
4854:Drivers/STM32F3xx_HAL_Driver/Src/stm32f3xx_hal_tim.c **** 
4855:Drivers/STM32F3xx_HAL_Driver/Src/stm32f3xx_hal_tim.c ****   /* Write to TIMx CR2 */
4856:Drivers/STM32F3xx_HAL_Driver/Src/stm32f3xx_hal_tim.c ****   TIMx->CR2 = tmpcr2;
 10742              		.loc 1 4856 0
 10743 00a4 7B68     		ldr	r3, [r7, #4]
 10744 00a6 7A69     		ldr	r2, [r7, #20]
 10745 00a8 5A60     		str	r2, [r3, #4]
4857:Drivers/STM32F3xx_HAL_Driver/Src/stm32f3xx_hal_tim.c ****   
4858:Drivers/STM32F3xx_HAL_Driver/Src/stm32f3xx_hal_tim.c ****   /* Write to TIMx CCMR2 */
4859:Drivers/STM32F3xx_HAL_Driver/Src/stm32f3xx_hal_tim.c ****   TIMx->CCMR2 = tmpccmrx;
 10746              		.loc 1 4859 0
 10747 00aa 7B68     		ldr	r3, [r7, #4]
 10748 00ac 3A69     		ldr	r2, [r7, #16]
 10749 00ae DA61     		str	r2, [r3, #28]
4860:Drivers/STM32F3xx_HAL_Driver/Src/stm32f3xx_hal_tim.c ****   
4861:Drivers/STM32F3xx_HAL_Driver/Src/stm32f3xx_hal_tim.c ****   /* Set the Capture Compare Register value */
4862:Drivers/STM32F3xx_HAL_Driver/Src/stm32f3xx_hal_tim.c ****   TIMx->CCR4 = OC_Config->Pulse;
 10750              		.loc 1 4862 0
 10751 00b0 3B68     		ldr	r3, [r7]
 10752 00b2 5A68     		ldr	r2, [r3, #4]
 10753 00b4 7B68     		ldr	r3, [r7, #4]
 10754 00b6 1A64     		str	r2, [r3, #64]
4863:Drivers/STM32F3xx_HAL_Driver/Src/stm32f3xx_hal_tim.c ****   
4864:Drivers/STM32F3xx_HAL_Driver/Src/stm32f3xx_hal_tim.c ****   /* Write to TIMx CCER */
4865:Drivers/STM32F3xx_HAL_Driver/Src/stm32f3xx_hal_tim.c ****   TIMx->CCER = tmpccer;  
 10755              		.loc 1 4865 0
 10756 00b8 7B68     		ldr	r3, [r7, #4]
 10757 00ba FA68     		ldr	r2, [r7, #12]
 10758 00bc 1A62     		str	r2, [r3, #32]
4866:Drivers/STM32F3xx_HAL_Driver/Src/stm32f3xx_hal_tim.c **** }
 10759              		.loc 1 4866 0
 10760 00be 1C37     		adds	r7, r7, #28
 10761 00c0 BD46     		mov	sp, r7
 10762              		@ sp needed
 10763 00c2 5DF8047B 		ldr	r7, [sp], #4
 10764 00c6 7047     		bx	lr
 10765              	.L622:
 10766              		.align	2
 10767              	.L621:
 10768 00c8 002C0140 		.word	1073818624
 10769 00cc 00340140 		.word	1073820672
 10770 00d0 00400140 		.word	1073823744
 10771 00d4 00440140 		.word	1073824768
 10772 00d8 00480140 		.word	1073825792
 10773              		.cfi_endproc
 10774              	.LFE220:
 10776              		.section	.text.TIM_SlaveTimer_SetConfig,"ax",%progbits
 10777              		.align	2
ARM GAS  /tmp/ccZyKULX.s 			page 275


 10778              		.thumb
 10779              		.thumb_func
 10781              	TIM_SlaveTimer_SetConfig:
 10782              	.LFB221:
4867:Drivers/STM32F3xx_HAL_Driver/Src/stm32f3xx_hal_tim.c **** 
4868:Drivers/STM32F3xx_HAL_Driver/Src/stm32f3xx_hal_tim.c **** static void TIM_SlaveTimer_SetConfig(TIM_HandleTypeDef *htim,
4869:Drivers/STM32F3xx_HAL_Driver/Src/stm32f3xx_hal_tim.c ****                               TIM_SlaveConfigTypeDef * sSlaveConfig)
4870:Drivers/STM32F3xx_HAL_Driver/Src/stm32f3xx_hal_tim.c **** {
 10783              		.loc 1 4870 0
 10784              		.cfi_startproc
 10785              		@ args = 0, pretend = 0, frame = 24
 10786              		@ frame_needed = 1, uses_anonymous_args = 0
 10787 0000 80B5     		push	{r7, lr}
 10788              	.LCFI288:
 10789              		.cfi_def_cfa_offset 8
 10790              		.cfi_offset 7, -8
 10791              		.cfi_offset 14, -4
 10792 0002 86B0     		sub	sp, sp, #24
 10793              	.LCFI289:
 10794              		.cfi_def_cfa_offset 32
 10795 0004 00AF     		add	r7, sp, #0
 10796              	.LCFI290:
 10797              		.cfi_def_cfa_register 7
 10798 0006 7860     		str	r0, [r7, #4]
 10799 0008 3960     		str	r1, [r7]
4871:Drivers/STM32F3xx_HAL_Driver/Src/stm32f3xx_hal_tim.c ****   uint32_t tmpsmcr = 0;
 10800              		.loc 1 4871 0
 10801 000a 0023     		movs	r3, #0
 10802 000c 7B61     		str	r3, [r7, #20]
4872:Drivers/STM32F3xx_HAL_Driver/Src/stm32f3xx_hal_tim.c ****   uint32_t tmpccmr1 = 0;
 10803              		.loc 1 4872 0
 10804 000e 0023     		movs	r3, #0
 10805 0010 3B61     		str	r3, [r7, #16]
4873:Drivers/STM32F3xx_HAL_Driver/Src/stm32f3xx_hal_tim.c ****   uint32_t tmpccer = 0;
 10806              		.loc 1 4873 0
 10807 0012 0023     		movs	r3, #0
 10808 0014 FB60     		str	r3, [r7, #12]
4874:Drivers/STM32F3xx_HAL_Driver/Src/stm32f3xx_hal_tim.c **** 
4875:Drivers/STM32F3xx_HAL_Driver/Src/stm32f3xx_hal_tim.c ****   /* Get the TIMx SMCR register value */
4876:Drivers/STM32F3xx_HAL_Driver/Src/stm32f3xx_hal_tim.c ****   tmpsmcr = htim->Instance->SMCR;
 10809              		.loc 1 4876 0
 10810 0016 7B68     		ldr	r3, [r7, #4]
 10811 0018 1B68     		ldr	r3, [r3]
 10812 001a 9B68     		ldr	r3, [r3, #8]
 10813 001c 7B61     		str	r3, [r7, #20]
4877:Drivers/STM32F3xx_HAL_Driver/Src/stm32f3xx_hal_tim.c **** 
4878:Drivers/STM32F3xx_HAL_Driver/Src/stm32f3xx_hal_tim.c ****   /* Reset the Trigger Selection Bits */
4879:Drivers/STM32F3xx_HAL_Driver/Src/stm32f3xx_hal_tim.c ****   tmpsmcr &= ~TIM_SMCR_TS;
 10814              		.loc 1 4879 0
 10815 001e 7B69     		ldr	r3, [r7, #20]
 10816 0020 23F07003 		bic	r3, r3, #112
 10817 0024 7B61     		str	r3, [r7, #20]
4880:Drivers/STM32F3xx_HAL_Driver/Src/stm32f3xx_hal_tim.c ****   /* Set the Input Trigger source */
4881:Drivers/STM32F3xx_HAL_Driver/Src/stm32f3xx_hal_tim.c ****   tmpsmcr |= sSlaveConfig->InputTrigger;
 10818              		.loc 1 4881 0
 10819 0026 3B68     		ldr	r3, [r7]
 10820 0028 5B68     		ldr	r3, [r3, #4]
ARM GAS  /tmp/ccZyKULX.s 			page 276


 10821 002a 7A69     		ldr	r2, [r7, #20]
 10822 002c 1343     		orrs	r3, r3, r2
 10823 002e 7B61     		str	r3, [r7, #20]
4882:Drivers/STM32F3xx_HAL_Driver/Src/stm32f3xx_hal_tim.c **** 
4883:Drivers/STM32F3xx_HAL_Driver/Src/stm32f3xx_hal_tim.c ****   /* Reset the slave mode Bits */
4884:Drivers/STM32F3xx_HAL_Driver/Src/stm32f3xx_hal_tim.c ****   tmpsmcr &= ~TIM_SMCR_SMS;
 10824              		.loc 1 4884 0
 10825 0030 7B69     		ldr	r3, [r7, #20]
 10826 0032 23F48033 		bic	r3, r3, #65536
 10827 0036 23F00703 		bic	r3, r3, #7
 10828 003a 7B61     		str	r3, [r7, #20]
4885:Drivers/STM32F3xx_HAL_Driver/Src/stm32f3xx_hal_tim.c ****   /* Set the slave mode */
4886:Drivers/STM32F3xx_HAL_Driver/Src/stm32f3xx_hal_tim.c ****   tmpsmcr |= sSlaveConfig->SlaveMode;
 10829              		.loc 1 4886 0
 10830 003c 3B68     		ldr	r3, [r7]
 10831 003e 1B68     		ldr	r3, [r3]
 10832 0040 7A69     		ldr	r2, [r7, #20]
 10833 0042 1343     		orrs	r3, r3, r2
 10834 0044 7B61     		str	r3, [r7, #20]
4887:Drivers/STM32F3xx_HAL_Driver/Src/stm32f3xx_hal_tim.c **** 
4888:Drivers/STM32F3xx_HAL_Driver/Src/stm32f3xx_hal_tim.c ****   /* Write to TIMx SMCR */
4889:Drivers/STM32F3xx_HAL_Driver/Src/stm32f3xx_hal_tim.c ****   htim->Instance->SMCR = tmpsmcr;
 10835              		.loc 1 4889 0
 10836 0046 7B68     		ldr	r3, [r7, #4]
 10837 0048 1B68     		ldr	r3, [r3]
 10838 004a 7A69     		ldr	r2, [r7, #20]
 10839 004c 9A60     		str	r2, [r3, #8]
4890:Drivers/STM32F3xx_HAL_Driver/Src/stm32f3xx_hal_tim.c ****  
4891:Drivers/STM32F3xx_HAL_Driver/Src/stm32f3xx_hal_tim.c ****   /* Configure the trigger prescaler, filter, and polarity */
4892:Drivers/STM32F3xx_HAL_Driver/Src/stm32f3xx_hal_tim.c ****   switch (sSlaveConfig->InputTrigger)
 10840              		.loc 1 4892 0
 10841 004e 3B68     		ldr	r3, [r7]
 10842 0050 5B68     		ldr	r3, [r3, #4]
 10843 0052 302B     		cmp	r3, #48
 10844 0054 5AD0     		beq	.L636
 10845 0056 302B     		cmp	r3, #48
 10846 0058 06D8     		bhi	.L626
 10847 005a 102B     		cmp	r3, #16
 10848 005c 58D0     		beq	.L637
 10849 005e 202B     		cmp	r3, #32
 10850 0060 58D0     		beq	.L638
 10851 0062 002B     		cmp	r3, #0
 10852 0064 58D0     		beq	.L639
4893:Drivers/STM32F3xx_HAL_Driver/Src/stm32f3xx_hal_tim.c ****   {
4894:Drivers/STM32F3xx_HAL_Driver/Src/stm32f3xx_hal_tim.c ****   case TIM_TS_ETRF:
4895:Drivers/STM32F3xx_HAL_Driver/Src/stm32f3xx_hal_tim.c ****     {
4896:Drivers/STM32F3xx_HAL_Driver/Src/stm32f3xx_hal_tim.c ****       /* Check the parameters */
4897:Drivers/STM32F3xx_HAL_Driver/Src/stm32f3xx_hal_tim.c ****       assert_param(IS_TIM_CLOCKSOURCE_ETRMODE1_INSTANCE(htim->Instance));
4898:Drivers/STM32F3xx_HAL_Driver/Src/stm32f3xx_hal_tim.c ****       assert_param(IS_TIM_TRIGGERPRESCALER(sSlaveConfig->TriggerPrescaler));
4899:Drivers/STM32F3xx_HAL_Driver/Src/stm32f3xx_hal_tim.c ****       assert_param(IS_TIM_TRIGGERPOLARITY(sSlaveConfig->TriggerPolarity));
4900:Drivers/STM32F3xx_HAL_Driver/Src/stm32f3xx_hal_tim.c ****       assert_param(IS_TIM_TRIGGERFILTER(sSlaveConfig->TriggerFilter));
4901:Drivers/STM32F3xx_HAL_Driver/Src/stm32f3xx_hal_tim.c ****       /* Configure the ETR Trigger source */
4902:Drivers/STM32F3xx_HAL_Driver/Src/stm32f3xx_hal_tim.c ****       TIM_ETR_SetConfig(htim->Instance, 
4903:Drivers/STM32F3xx_HAL_Driver/Src/stm32f3xx_hal_tim.c ****                         sSlaveConfig->TriggerPrescaler, 
4904:Drivers/STM32F3xx_HAL_Driver/Src/stm32f3xx_hal_tim.c ****                         sSlaveConfig->TriggerPolarity, 
4905:Drivers/STM32F3xx_HAL_Driver/Src/stm32f3xx_hal_tim.c ****                         sSlaveConfig->TriggerFilter);
4906:Drivers/STM32F3xx_HAL_Driver/Src/stm32f3xx_hal_tim.c ****     }
ARM GAS  /tmp/ccZyKULX.s 			page 277


4907:Drivers/STM32F3xx_HAL_Driver/Src/stm32f3xx_hal_tim.c ****     break;
4908:Drivers/STM32F3xx_HAL_Driver/Src/stm32f3xx_hal_tim.c ****     
4909:Drivers/STM32F3xx_HAL_Driver/Src/stm32f3xx_hal_tim.c ****   case TIM_TS_TI1F_ED:
4910:Drivers/STM32F3xx_HAL_Driver/Src/stm32f3xx_hal_tim.c ****     {
4911:Drivers/STM32F3xx_HAL_Driver/Src/stm32f3xx_hal_tim.c ****       /* Check the parameters */
4912:Drivers/STM32F3xx_HAL_Driver/Src/stm32f3xx_hal_tim.c ****       assert_param(IS_TIM_CC1_INSTANCE(htim->Instance));
4913:Drivers/STM32F3xx_HAL_Driver/Src/stm32f3xx_hal_tim.c ****       assert_param(IS_TIM_TRIGGERFILTER(sSlaveConfig->TriggerFilter));
4914:Drivers/STM32F3xx_HAL_Driver/Src/stm32f3xx_hal_tim.c ****   
4915:Drivers/STM32F3xx_HAL_Driver/Src/stm32f3xx_hal_tim.c ****       /* Disable the Channel 1: Reset the CC1E Bit */
4916:Drivers/STM32F3xx_HAL_Driver/Src/stm32f3xx_hal_tim.c ****       tmpccer = htim->Instance->CCER;
4917:Drivers/STM32F3xx_HAL_Driver/Src/stm32f3xx_hal_tim.c ****       htim->Instance->CCER &= ~TIM_CCER_CC1E;
4918:Drivers/STM32F3xx_HAL_Driver/Src/stm32f3xx_hal_tim.c ****       tmpccmr1 = htim->Instance->CCMR1;    
4919:Drivers/STM32F3xx_HAL_Driver/Src/stm32f3xx_hal_tim.c ****       
4920:Drivers/STM32F3xx_HAL_Driver/Src/stm32f3xx_hal_tim.c ****       /* Set the filter */
4921:Drivers/STM32F3xx_HAL_Driver/Src/stm32f3xx_hal_tim.c ****       tmpccmr1 &= ~TIM_CCMR1_IC1F;
4922:Drivers/STM32F3xx_HAL_Driver/Src/stm32f3xx_hal_tim.c ****       tmpccmr1 |= ((sSlaveConfig->TriggerFilter) << 4);
4923:Drivers/STM32F3xx_HAL_Driver/Src/stm32f3xx_hal_tim.c ****       
4924:Drivers/STM32F3xx_HAL_Driver/Src/stm32f3xx_hal_tim.c ****       /* Write to TIMx CCMR1 and CCER registers */
4925:Drivers/STM32F3xx_HAL_Driver/Src/stm32f3xx_hal_tim.c ****       htim->Instance->CCMR1 = tmpccmr1;
4926:Drivers/STM32F3xx_HAL_Driver/Src/stm32f3xx_hal_tim.c ****       htim->Instance->CCER = tmpccer;                               
4927:Drivers/STM32F3xx_HAL_Driver/Src/stm32f3xx_hal_tim.c ****                                
4928:Drivers/STM32F3xx_HAL_Driver/Src/stm32f3xx_hal_tim.c ****     }
4929:Drivers/STM32F3xx_HAL_Driver/Src/stm32f3xx_hal_tim.c ****     break;
4930:Drivers/STM32F3xx_HAL_Driver/Src/stm32f3xx_hal_tim.c ****     
4931:Drivers/STM32F3xx_HAL_Driver/Src/stm32f3xx_hal_tim.c ****   case TIM_TS_TI1FP1:
4932:Drivers/STM32F3xx_HAL_Driver/Src/stm32f3xx_hal_tim.c ****     {
4933:Drivers/STM32F3xx_HAL_Driver/Src/stm32f3xx_hal_tim.c ****       /* Check the parameters */
4934:Drivers/STM32F3xx_HAL_Driver/Src/stm32f3xx_hal_tim.c ****       assert_param(IS_TIM_CC1_INSTANCE(htim->Instance));
4935:Drivers/STM32F3xx_HAL_Driver/Src/stm32f3xx_hal_tim.c ****       assert_param(IS_TIM_TRIGGERPOLARITY(sSlaveConfig->TriggerPolarity));
4936:Drivers/STM32F3xx_HAL_Driver/Src/stm32f3xx_hal_tim.c ****       assert_param(IS_TIM_TRIGGERFILTER(sSlaveConfig->TriggerFilter));
4937:Drivers/STM32F3xx_HAL_Driver/Src/stm32f3xx_hal_tim.c ****   
4938:Drivers/STM32F3xx_HAL_Driver/Src/stm32f3xx_hal_tim.c ****       /* Configure TI1 Filter and Polarity */
4939:Drivers/STM32F3xx_HAL_Driver/Src/stm32f3xx_hal_tim.c ****       TIM_TI1_ConfigInputStage(htim->Instance,
4940:Drivers/STM32F3xx_HAL_Driver/Src/stm32f3xx_hal_tim.c ****                                sSlaveConfig->TriggerPolarity,
4941:Drivers/STM32F3xx_HAL_Driver/Src/stm32f3xx_hal_tim.c ****                                sSlaveConfig->TriggerFilter);
4942:Drivers/STM32F3xx_HAL_Driver/Src/stm32f3xx_hal_tim.c ****     }
4943:Drivers/STM32F3xx_HAL_Driver/Src/stm32f3xx_hal_tim.c ****     break;
4944:Drivers/STM32F3xx_HAL_Driver/Src/stm32f3xx_hal_tim.c ****     
4945:Drivers/STM32F3xx_HAL_Driver/Src/stm32f3xx_hal_tim.c ****   case TIM_TS_TI2FP2:
4946:Drivers/STM32F3xx_HAL_Driver/Src/stm32f3xx_hal_tim.c ****     {
4947:Drivers/STM32F3xx_HAL_Driver/Src/stm32f3xx_hal_tim.c ****       /* Check the parameters */
4948:Drivers/STM32F3xx_HAL_Driver/Src/stm32f3xx_hal_tim.c ****       assert_param(IS_TIM_CC2_INSTANCE(htim->Instance));
4949:Drivers/STM32F3xx_HAL_Driver/Src/stm32f3xx_hal_tim.c ****       assert_param(IS_TIM_TRIGGERPOLARITY(sSlaveConfig->TriggerPolarity));
4950:Drivers/STM32F3xx_HAL_Driver/Src/stm32f3xx_hal_tim.c ****       assert_param(IS_TIM_TRIGGERFILTER(sSlaveConfig->TriggerFilter));
4951:Drivers/STM32F3xx_HAL_Driver/Src/stm32f3xx_hal_tim.c ****   
4952:Drivers/STM32F3xx_HAL_Driver/Src/stm32f3xx_hal_tim.c ****       /* Configure TI2 Filter and Polarity */
4953:Drivers/STM32F3xx_HAL_Driver/Src/stm32f3xx_hal_tim.c ****       TIM_TI2_ConfigInputStage(htim->Instance,
4954:Drivers/STM32F3xx_HAL_Driver/Src/stm32f3xx_hal_tim.c ****                                 sSlaveConfig->TriggerPolarity,
4955:Drivers/STM32F3xx_HAL_Driver/Src/stm32f3xx_hal_tim.c ****                                 sSlaveConfig->TriggerFilter);
4956:Drivers/STM32F3xx_HAL_Driver/Src/stm32f3xx_hal_tim.c ****     }
4957:Drivers/STM32F3xx_HAL_Driver/Src/stm32f3xx_hal_tim.c ****     break;
4958:Drivers/STM32F3xx_HAL_Driver/Src/stm32f3xx_hal_tim.c ****     
4959:Drivers/STM32F3xx_HAL_Driver/Src/stm32f3xx_hal_tim.c ****   case TIM_TS_ITR0:
4960:Drivers/STM32F3xx_HAL_Driver/Src/stm32f3xx_hal_tim.c ****     {
4961:Drivers/STM32F3xx_HAL_Driver/Src/stm32f3xx_hal_tim.c ****       /* Check the parameter */
4962:Drivers/STM32F3xx_HAL_Driver/Src/stm32f3xx_hal_tim.c ****       assert_param(IS_TIM_CC2_INSTANCE(htim->Instance));
4963:Drivers/STM32F3xx_HAL_Driver/Src/stm32f3xx_hal_tim.c ****     }
ARM GAS  /tmp/ccZyKULX.s 			page 278


4964:Drivers/STM32F3xx_HAL_Driver/Src/stm32f3xx_hal_tim.c ****     break;
4965:Drivers/STM32F3xx_HAL_Driver/Src/stm32f3xx_hal_tim.c ****     
4966:Drivers/STM32F3xx_HAL_Driver/Src/stm32f3xx_hal_tim.c ****   case TIM_TS_ITR1:
4967:Drivers/STM32F3xx_HAL_Driver/Src/stm32f3xx_hal_tim.c ****     {
4968:Drivers/STM32F3xx_HAL_Driver/Src/stm32f3xx_hal_tim.c ****       /* Check the parameter */
4969:Drivers/STM32F3xx_HAL_Driver/Src/stm32f3xx_hal_tim.c ****       assert_param(IS_TIM_CC2_INSTANCE(htim->Instance));
4970:Drivers/STM32F3xx_HAL_Driver/Src/stm32f3xx_hal_tim.c ****     }
4971:Drivers/STM32F3xx_HAL_Driver/Src/stm32f3xx_hal_tim.c ****     break;
4972:Drivers/STM32F3xx_HAL_Driver/Src/stm32f3xx_hal_tim.c ****     
4973:Drivers/STM32F3xx_HAL_Driver/Src/stm32f3xx_hal_tim.c ****   case TIM_TS_ITR2:
4974:Drivers/STM32F3xx_HAL_Driver/Src/stm32f3xx_hal_tim.c ****     {
4975:Drivers/STM32F3xx_HAL_Driver/Src/stm32f3xx_hal_tim.c ****       /* Check the parameter */
4976:Drivers/STM32F3xx_HAL_Driver/Src/stm32f3xx_hal_tim.c ****       assert_param(IS_TIM_CC2_INSTANCE(htim->Instance));
4977:Drivers/STM32F3xx_HAL_Driver/Src/stm32f3xx_hal_tim.c ****     }
4978:Drivers/STM32F3xx_HAL_Driver/Src/stm32f3xx_hal_tim.c ****     break;
4979:Drivers/STM32F3xx_HAL_Driver/Src/stm32f3xx_hal_tim.c ****     
4980:Drivers/STM32F3xx_HAL_Driver/Src/stm32f3xx_hal_tim.c ****   case TIM_TS_ITR3:
4981:Drivers/STM32F3xx_HAL_Driver/Src/stm32f3xx_hal_tim.c ****     {
4982:Drivers/STM32F3xx_HAL_Driver/Src/stm32f3xx_hal_tim.c ****       /* Check the parameter */
4983:Drivers/STM32F3xx_HAL_Driver/Src/stm32f3xx_hal_tim.c ****       assert_param(IS_TIM_CC2_INSTANCE(htim->Instance));
4984:Drivers/STM32F3xx_HAL_Driver/Src/stm32f3xx_hal_tim.c ****     }
4985:Drivers/STM32F3xx_HAL_Driver/Src/stm32f3xx_hal_tim.c ****     break;
4986:Drivers/STM32F3xx_HAL_Driver/Src/stm32f3xx_hal_tim.c ****        
4987:Drivers/STM32F3xx_HAL_Driver/Src/stm32f3xx_hal_tim.c ****   default:
4988:Drivers/STM32F3xx_HAL_Driver/Src/stm32f3xx_hal_tim.c ****     break;
 10853              		.loc 1 4988 0
 10854 0066 58E0     		b	.L623
 10855              	.L626:
4892:Drivers/STM32F3xx_HAL_Driver/Src/stm32f3xx_hal_tim.c ****   {
 10856              		.loc 1 4892 0
 10857 0068 502B     		cmp	r3, #80
 10858 006a 37D0     		beq	.L630
 10859 006c 502B     		cmp	r3, #80
 10860 006e 02D8     		bhi	.L631
 10861 0070 402B     		cmp	r3, #64
 10862 0072 10D0     		beq	.L632
 10863              		.loc 1 4988 0
 10864 0074 51E0     		b	.L623
 10865              	.L631:
4892:Drivers/STM32F3xx_HAL_Driver/Src/stm32f3xx_hal_tim.c ****   {
 10866              		.loc 1 4892 0
 10867 0076 602B     		cmp	r3, #96
 10868 0078 3CD0     		beq	.L633
 10869 007a 702B     		cmp	r3, #112
 10870 007c 00D0     		beq	.L634
 10871              		.loc 1 4988 0
 10872 007e 4CE0     		b	.L623
 10873              	.L634:
4902:Drivers/STM32F3xx_HAL_Driver/Src/stm32f3xx_hal_tim.c ****                         sSlaveConfig->TriggerPrescaler, 
 10874              		.loc 1 4902 0
 10875 0080 7B68     		ldr	r3, [r7, #4]
 10876 0082 1868     		ldr	r0, [r3]
 10877 0084 3B68     		ldr	r3, [r7]
 10878 0086 D968     		ldr	r1, [r3, #12]
 10879 0088 3B68     		ldr	r3, [r7]
 10880 008a 9A68     		ldr	r2, [r3, #8]
 10881 008c 3B68     		ldr	r3, [r7]
ARM GAS  /tmp/ccZyKULX.s 			page 279


 10882 008e 1B69     		ldr	r3, [r3, #16]
 10883 0090 FFF7FEFF 		bl	TIM_ETR_SetConfig
4907:Drivers/STM32F3xx_HAL_Driver/Src/stm32f3xx_hal_tim.c ****     
 10884              		.loc 1 4907 0
 10885 0094 41E0     		b	.L623
 10886              	.L632:
4916:Drivers/STM32F3xx_HAL_Driver/Src/stm32f3xx_hal_tim.c ****       htim->Instance->CCER &= ~TIM_CCER_CC1E;
 10887              		.loc 1 4916 0
 10888 0096 7B68     		ldr	r3, [r7, #4]
 10889 0098 1B68     		ldr	r3, [r3]
 10890 009a 1B6A     		ldr	r3, [r3, #32]
 10891 009c FB60     		str	r3, [r7, #12]
4917:Drivers/STM32F3xx_HAL_Driver/Src/stm32f3xx_hal_tim.c ****       tmpccmr1 = htim->Instance->CCMR1;    
 10892              		.loc 1 4917 0
 10893 009e 7B68     		ldr	r3, [r7, #4]
 10894 00a0 1B68     		ldr	r3, [r3]
 10895 00a2 7A68     		ldr	r2, [r7, #4]
 10896 00a4 1268     		ldr	r2, [r2]
 10897 00a6 126A     		ldr	r2, [r2, #32]
 10898 00a8 22F00102 		bic	r2, r2, #1
 10899 00ac 1A62     		str	r2, [r3, #32]
4918:Drivers/STM32F3xx_HAL_Driver/Src/stm32f3xx_hal_tim.c ****       
 10900              		.loc 1 4918 0
 10901 00ae 7B68     		ldr	r3, [r7, #4]
 10902 00b0 1B68     		ldr	r3, [r3]
 10903 00b2 9B69     		ldr	r3, [r3, #24]
 10904 00b4 3B61     		str	r3, [r7, #16]
4921:Drivers/STM32F3xx_HAL_Driver/Src/stm32f3xx_hal_tim.c ****       tmpccmr1 |= ((sSlaveConfig->TriggerFilter) << 4);
 10905              		.loc 1 4921 0
 10906 00b6 3B69     		ldr	r3, [r7, #16]
 10907 00b8 23F0F003 		bic	r3, r3, #240
 10908 00bc 3B61     		str	r3, [r7, #16]
4922:Drivers/STM32F3xx_HAL_Driver/Src/stm32f3xx_hal_tim.c ****       
 10909              		.loc 1 4922 0
 10910 00be 3B68     		ldr	r3, [r7]
 10911 00c0 1B69     		ldr	r3, [r3, #16]
 10912 00c2 1B01     		lsls	r3, r3, #4
 10913 00c4 3A69     		ldr	r2, [r7, #16]
 10914 00c6 1343     		orrs	r3, r3, r2
 10915 00c8 3B61     		str	r3, [r7, #16]
4925:Drivers/STM32F3xx_HAL_Driver/Src/stm32f3xx_hal_tim.c ****       htim->Instance->CCER = tmpccer;                               
 10916              		.loc 1 4925 0
 10917 00ca 7B68     		ldr	r3, [r7, #4]
 10918 00cc 1B68     		ldr	r3, [r3]
 10919 00ce 3A69     		ldr	r2, [r7, #16]
 10920 00d0 9A61     		str	r2, [r3, #24]
4926:Drivers/STM32F3xx_HAL_Driver/Src/stm32f3xx_hal_tim.c ****                                
 10921              		.loc 1 4926 0
 10922 00d2 7B68     		ldr	r3, [r7, #4]
 10923 00d4 1B68     		ldr	r3, [r3]
 10924 00d6 FA68     		ldr	r2, [r7, #12]
 10925 00d8 1A62     		str	r2, [r3, #32]
4929:Drivers/STM32F3xx_HAL_Driver/Src/stm32f3xx_hal_tim.c ****     
 10926              		.loc 1 4929 0
 10927 00da 1EE0     		b	.L623
 10928              	.L630:
4939:Drivers/STM32F3xx_HAL_Driver/Src/stm32f3xx_hal_tim.c ****                                sSlaveConfig->TriggerPolarity,
ARM GAS  /tmp/ccZyKULX.s 			page 280


 10929              		.loc 1 4939 0
 10930 00dc 7B68     		ldr	r3, [r7, #4]
 10931 00de 1968     		ldr	r1, [r3]
 10932 00e0 3B68     		ldr	r3, [r7]
 10933 00e2 9A68     		ldr	r2, [r3, #8]
 10934 00e4 3B68     		ldr	r3, [r7]
 10935 00e6 1B69     		ldr	r3, [r3, #16]
 10936 00e8 0846     		mov	r0, r1
 10937 00ea 1146     		mov	r1, r2
 10938 00ec 1A46     		mov	r2, r3
 10939 00ee FFF7FEFF 		bl	TIM_TI1_ConfigInputStage
4943:Drivers/STM32F3xx_HAL_Driver/Src/stm32f3xx_hal_tim.c ****     
 10940              		.loc 1 4943 0
 10941 00f2 12E0     		b	.L623
 10942              	.L633:
4953:Drivers/STM32F3xx_HAL_Driver/Src/stm32f3xx_hal_tim.c ****                                 sSlaveConfig->TriggerPolarity,
 10943              		.loc 1 4953 0
 10944 00f4 7B68     		ldr	r3, [r7, #4]
 10945 00f6 1968     		ldr	r1, [r3]
 10946 00f8 3B68     		ldr	r3, [r7]
 10947 00fa 9A68     		ldr	r2, [r3, #8]
 10948 00fc 3B68     		ldr	r3, [r7]
 10949 00fe 1B69     		ldr	r3, [r3, #16]
 10950 0100 0846     		mov	r0, r1
 10951 0102 1146     		mov	r1, r2
 10952 0104 1A46     		mov	r2, r3
 10953 0106 FFF7FEFF 		bl	TIM_TI2_ConfigInputStage
4957:Drivers/STM32F3xx_HAL_Driver/Src/stm32f3xx_hal_tim.c ****     
 10954              		.loc 1 4957 0
 10955 010a 06E0     		b	.L623
 10956              	.L636:
4985:Drivers/STM32F3xx_HAL_Driver/Src/stm32f3xx_hal_tim.c ****        
 10957              		.loc 1 4985 0
 10958 010c 00BF     		nop
 10959 010e 04E0     		b	.L623
 10960              	.L637:
4971:Drivers/STM32F3xx_HAL_Driver/Src/stm32f3xx_hal_tim.c ****     
 10961              		.loc 1 4971 0
 10962 0110 00BF     		nop
 10963 0112 02E0     		b	.L623
 10964              	.L638:
4978:Drivers/STM32F3xx_HAL_Driver/Src/stm32f3xx_hal_tim.c ****     
 10965              		.loc 1 4978 0
 10966 0114 00BF     		nop
 10967 0116 00E0     		b	.L623
 10968              	.L639:
4964:Drivers/STM32F3xx_HAL_Driver/Src/stm32f3xx_hal_tim.c ****     
 10969              		.loc 1 4964 0
 10970 0118 00BF     		nop
 10971              	.L623:
4989:Drivers/STM32F3xx_HAL_Driver/Src/stm32f3xx_hal_tim.c ****   }
4990:Drivers/STM32F3xx_HAL_Driver/Src/stm32f3xx_hal_tim.c **** }
 10972              		.loc 1 4990 0
 10973 011a 1837     		adds	r7, r7, #24
 10974 011c BD46     		mov	sp, r7
 10975              		@ sp needed
 10976 011e 80BD     		pop	{r7, pc}
ARM GAS  /tmp/ccZyKULX.s 			page 281


 10977              		.cfi_endproc
 10978              	.LFE221:
 10980              		.section	.text.TIM_TI1_SetConfig,"ax",%progbits
 10981              		.align	2
 10982              		.global	TIM_TI1_SetConfig
 10983              		.thumb
 10984              		.thumb_func
 10986              	TIM_TI1_SetConfig:
 10987              	.LFB222:
4991:Drivers/STM32F3xx_HAL_Driver/Src/stm32f3xx_hal_tim.c **** 
4992:Drivers/STM32F3xx_HAL_Driver/Src/stm32f3xx_hal_tim.c **** /**
4993:Drivers/STM32F3xx_HAL_Driver/Src/stm32f3xx_hal_tim.c ****   * @brief  Configure the TI1 as Input.
4994:Drivers/STM32F3xx_HAL_Driver/Src/stm32f3xx_hal_tim.c ****   * @param  TIMx to select the TIM peripheral.
4995:Drivers/STM32F3xx_HAL_Driver/Src/stm32f3xx_hal_tim.c ****   * @param  TIM_ICPolarity : The Input Polarity.
4996:Drivers/STM32F3xx_HAL_Driver/Src/stm32f3xx_hal_tim.c ****   *          This parameter can be one of the following values:
4997:Drivers/STM32F3xx_HAL_Driver/Src/stm32f3xx_hal_tim.c ****   *            @arg TIM_ICPOLARITY_RISING
4998:Drivers/STM32F3xx_HAL_Driver/Src/stm32f3xx_hal_tim.c ****   *            @arg TIM_ICPOLARITY_FALLING
4999:Drivers/STM32F3xx_HAL_Driver/Src/stm32f3xx_hal_tim.c ****   *            @arg TIM_ICPOLARITY_BOTHEDGE  
5000:Drivers/STM32F3xx_HAL_Driver/Src/stm32f3xx_hal_tim.c ****   * @param  TIM_ICSelection: specifies the input to be used.
5001:Drivers/STM32F3xx_HAL_Driver/Src/stm32f3xx_hal_tim.c ****   *          This parameter can be one of the following values:
5002:Drivers/STM32F3xx_HAL_Driver/Src/stm32f3xx_hal_tim.c ****   *            @arg TIM_ICSELECTION_DIRECTTI: TIM Input 1 is selected to be connected to IC1.
5003:Drivers/STM32F3xx_HAL_Driver/Src/stm32f3xx_hal_tim.c ****   *            @arg TIM_ICSELECTION_INDIRECTTI: TIM Input 1 is selected to be connected to IC2.
5004:Drivers/STM32F3xx_HAL_Driver/Src/stm32f3xx_hal_tim.c ****   *            @arg TIM_ICSELECTION_TRC: TIM Input 1 is selected to be connected to TRC.
5005:Drivers/STM32F3xx_HAL_Driver/Src/stm32f3xx_hal_tim.c ****   * @param  TIM_ICFilter: Specifies the Input Capture Filter.
5006:Drivers/STM32F3xx_HAL_Driver/Src/stm32f3xx_hal_tim.c ****   *          This parameter must be a value between 0x00 and 0x0F.
5007:Drivers/STM32F3xx_HAL_Driver/Src/stm32f3xx_hal_tim.c ****   * @retval None
5008:Drivers/STM32F3xx_HAL_Driver/Src/stm32f3xx_hal_tim.c ****   * @note TIM_ICFilter and TIM_ICPolarity are not used in INDIRECT mode as TI2FP1 
5009:Drivers/STM32F3xx_HAL_Driver/Src/stm32f3xx_hal_tim.c ****   *       (on channel2 path) is used as the input signal. Therefore CCMR1 must be 
5010:Drivers/STM32F3xx_HAL_Driver/Src/stm32f3xx_hal_tim.c ****   *        protected against un-initialized filter and polarity values.
5011:Drivers/STM32F3xx_HAL_Driver/Src/stm32f3xx_hal_tim.c ****   */
5012:Drivers/STM32F3xx_HAL_Driver/Src/stm32f3xx_hal_tim.c **** void TIM_TI1_SetConfig(TIM_TypeDef *TIMx, uint32_t TIM_ICPolarity, uint32_t TIM_ICSelection,
5013:Drivers/STM32F3xx_HAL_Driver/Src/stm32f3xx_hal_tim.c ****                        uint32_t TIM_ICFilter)
5014:Drivers/STM32F3xx_HAL_Driver/Src/stm32f3xx_hal_tim.c **** {
 10988              		.loc 1 5014 0
 10989              		.cfi_startproc
 10990              		@ args = 0, pretend = 0, frame = 24
 10991              		@ frame_needed = 1, uses_anonymous_args = 0
 10992              		@ link register save eliminated.
 10993 0000 80B4     		push	{r7}
 10994              	.LCFI291:
 10995              		.cfi_def_cfa_offset 4
 10996              		.cfi_offset 7, -4
 10997 0002 87B0     		sub	sp, sp, #28
 10998              	.LCFI292:
 10999              		.cfi_def_cfa_offset 32
 11000 0004 00AF     		add	r7, sp, #0
 11001              	.LCFI293:
 11002              		.cfi_def_cfa_register 7
 11003 0006 F860     		str	r0, [r7, #12]
 11004 0008 B960     		str	r1, [r7, #8]
 11005 000a 7A60     		str	r2, [r7, #4]
 11006 000c 3B60     		str	r3, [r7]
5015:Drivers/STM32F3xx_HAL_Driver/Src/stm32f3xx_hal_tim.c ****   uint32_t tmpccmr1 = 0;
 11007              		.loc 1 5015 0
 11008 000e 0023     		movs	r3, #0
 11009 0010 7B61     		str	r3, [r7, #20]
5016:Drivers/STM32F3xx_HAL_Driver/Src/stm32f3xx_hal_tim.c ****   uint32_t tmpccer = 0;
ARM GAS  /tmp/ccZyKULX.s 			page 282


 11010              		.loc 1 5016 0
 11011 0012 0023     		movs	r3, #0
 11012 0014 3B61     		str	r3, [r7, #16]
5017:Drivers/STM32F3xx_HAL_Driver/Src/stm32f3xx_hal_tim.c **** 
5018:Drivers/STM32F3xx_HAL_Driver/Src/stm32f3xx_hal_tim.c ****   /* Disable the Channel 1: Reset the CC1E Bit */
5019:Drivers/STM32F3xx_HAL_Driver/Src/stm32f3xx_hal_tim.c ****   TIMx->CCER &= ~TIM_CCER_CC1E;
 11013              		.loc 1 5019 0
 11014 0016 FB68     		ldr	r3, [r7, #12]
 11015 0018 1B6A     		ldr	r3, [r3, #32]
 11016 001a 23F00102 		bic	r2, r3, #1
 11017 001e FB68     		ldr	r3, [r7, #12]
 11018 0020 1A62     		str	r2, [r3, #32]
5020:Drivers/STM32F3xx_HAL_Driver/Src/stm32f3xx_hal_tim.c ****   tmpccmr1 = TIMx->CCMR1;
 11019              		.loc 1 5020 0
 11020 0022 FB68     		ldr	r3, [r7, #12]
 11021 0024 9B69     		ldr	r3, [r3, #24]
 11022 0026 7B61     		str	r3, [r7, #20]
5021:Drivers/STM32F3xx_HAL_Driver/Src/stm32f3xx_hal_tim.c ****   tmpccer = TIMx->CCER;
 11023              		.loc 1 5021 0
 11024 0028 FB68     		ldr	r3, [r7, #12]
 11025 002a 1B6A     		ldr	r3, [r3, #32]
 11026 002c 3B61     		str	r3, [r7, #16]
5022:Drivers/STM32F3xx_HAL_Driver/Src/stm32f3xx_hal_tim.c **** 
5023:Drivers/STM32F3xx_HAL_Driver/Src/stm32f3xx_hal_tim.c ****   /* Select the Input */
5024:Drivers/STM32F3xx_HAL_Driver/Src/stm32f3xx_hal_tim.c ****   if(IS_TIM_CC2_INSTANCE(TIMx) != RESET)
 11027              		.loc 1 5024 0
 11028 002e FA68     		ldr	r2, [r7, #12]
 11029 0030 234B     		ldr	r3, .L646
 11030 0032 9A42     		cmp	r2, r3
 11031 0034 13D0     		beq	.L641
 11032              		.loc 1 5024 0 is_stmt 0 discriminator 2
 11033 0036 FB68     		ldr	r3, [r7, #12]
 11034 0038 B3F1804F 		cmp	r3, #1073741824
 11035 003c 0FD0     		beq	.L641
 11036              		.loc 1 5024 0 discriminator 1
 11037 003e FA68     		ldr	r2, [r7, #12]
 11038 0040 204B     		ldr	r3, .L646+4
 11039 0042 9A42     		cmp	r2, r3
 11040 0044 0BD0     		beq	.L641
 11041 0046 FA68     		ldr	r2, [r7, #12]
 11042 0048 1F4B     		ldr	r3, .L646+8
 11043 004a 9A42     		cmp	r2, r3
 11044 004c 07D0     		beq	.L641
 11045 004e FA68     		ldr	r2, [r7, #12]
 11046 0050 1E4B     		ldr	r3, .L646+12
 11047 0052 9A42     		cmp	r2, r3
 11048 0054 03D0     		beq	.L641
 11049 0056 FA68     		ldr	r2, [r7, #12]
 11050 0058 1D4B     		ldr	r3, .L646+16
 11051 005a 9A42     		cmp	r2, r3
 11052 005c 01D1     		bne	.L642
 11053              	.L641:
 11054 005e 0123     		movs	r3, #1
 11055 0060 00E0     		b	.L643
 11056              	.L642:
 11057              		.loc 1 5024 0 discriminator 3
 11058 0062 0023     		movs	r3, #0
ARM GAS  /tmp/ccZyKULX.s 			page 283


 11059              	.L643:
 11060              		.loc 1 5024 0 discriminator 4
 11061 0064 002B     		cmp	r3, #0
 11062 0066 08D0     		beq	.L644
5025:Drivers/STM32F3xx_HAL_Driver/Src/stm32f3xx_hal_tim.c ****   {
5026:Drivers/STM32F3xx_HAL_Driver/Src/stm32f3xx_hal_tim.c ****     tmpccmr1 &= ~TIM_CCMR1_CC1S;
 11063              		.loc 1 5026 0 is_stmt 1
 11064 0068 7B69     		ldr	r3, [r7, #20]
 11065 006a 23F00303 		bic	r3, r3, #3
 11066 006e 7B61     		str	r3, [r7, #20]
5027:Drivers/STM32F3xx_HAL_Driver/Src/stm32f3xx_hal_tim.c ****     tmpccmr1 |= TIM_ICSelection;
 11067              		.loc 1 5027 0
 11068 0070 7A69     		ldr	r2, [r7, #20]
 11069 0072 7B68     		ldr	r3, [r7, #4]
 11070 0074 1343     		orrs	r3, r3, r2
 11071 0076 7B61     		str	r3, [r7, #20]
 11072 0078 03E0     		b	.L645
 11073              	.L644:
5028:Drivers/STM32F3xx_HAL_Driver/Src/stm32f3xx_hal_tim.c ****   } 
5029:Drivers/STM32F3xx_HAL_Driver/Src/stm32f3xx_hal_tim.c ****   else
5030:Drivers/STM32F3xx_HAL_Driver/Src/stm32f3xx_hal_tim.c ****   {
5031:Drivers/STM32F3xx_HAL_Driver/Src/stm32f3xx_hal_tim.c ****     tmpccmr1 |= TIM_CCMR1_CC1S_0;
 11074              		.loc 1 5031 0
 11075 007a 7B69     		ldr	r3, [r7, #20]
 11076 007c 43F00103 		orr	r3, r3, #1
 11077 0080 7B61     		str	r3, [r7, #20]
 11078              	.L645:
5032:Drivers/STM32F3xx_HAL_Driver/Src/stm32f3xx_hal_tim.c ****   }
5033:Drivers/STM32F3xx_HAL_Driver/Src/stm32f3xx_hal_tim.c ****   
5034:Drivers/STM32F3xx_HAL_Driver/Src/stm32f3xx_hal_tim.c ****   /* Set the filter */
5035:Drivers/STM32F3xx_HAL_Driver/Src/stm32f3xx_hal_tim.c ****   tmpccmr1 &= ~TIM_CCMR1_IC1F;
 11079              		.loc 1 5035 0
 11080 0082 7B69     		ldr	r3, [r7, #20]
 11081 0084 23F0F003 		bic	r3, r3, #240
 11082 0088 7B61     		str	r3, [r7, #20]
5036:Drivers/STM32F3xx_HAL_Driver/Src/stm32f3xx_hal_tim.c ****   tmpccmr1 |= ((TIM_ICFilter << 4) & TIM_CCMR1_IC1F);
 11083              		.loc 1 5036 0
 11084 008a 3B68     		ldr	r3, [r7]
 11085 008c 1B01     		lsls	r3, r3, #4
 11086 008e DBB2     		uxtb	r3, r3
 11087 0090 7A69     		ldr	r2, [r7, #20]
 11088 0092 1343     		orrs	r3, r3, r2
 11089 0094 7B61     		str	r3, [r7, #20]
5037:Drivers/STM32F3xx_HAL_Driver/Src/stm32f3xx_hal_tim.c **** 
5038:Drivers/STM32F3xx_HAL_Driver/Src/stm32f3xx_hal_tim.c ****   /* Select the Polarity and set the CC1E Bit */
5039:Drivers/STM32F3xx_HAL_Driver/Src/stm32f3xx_hal_tim.c ****   tmpccer &= ~(TIM_CCER_CC1P | TIM_CCER_CC1NP);
 11090              		.loc 1 5039 0
 11091 0096 3B69     		ldr	r3, [r7, #16]
 11092 0098 23F00A03 		bic	r3, r3, #10
 11093 009c 3B61     		str	r3, [r7, #16]
5040:Drivers/STM32F3xx_HAL_Driver/Src/stm32f3xx_hal_tim.c ****   tmpccer |= (TIM_ICPolarity & (TIM_CCER_CC1P | TIM_CCER_CC1NP));
 11094              		.loc 1 5040 0
 11095 009e BB68     		ldr	r3, [r7, #8]
 11096 00a0 03F00A03 		and	r3, r3, #10
 11097 00a4 3A69     		ldr	r2, [r7, #16]
 11098 00a6 1343     		orrs	r3, r3, r2
 11099 00a8 3B61     		str	r3, [r7, #16]
ARM GAS  /tmp/ccZyKULX.s 			page 284


5041:Drivers/STM32F3xx_HAL_Driver/Src/stm32f3xx_hal_tim.c **** 
5042:Drivers/STM32F3xx_HAL_Driver/Src/stm32f3xx_hal_tim.c ****   /* Write to TIMx CCMR1 and CCER registers */
5043:Drivers/STM32F3xx_HAL_Driver/Src/stm32f3xx_hal_tim.c ****   TIMx->CCMR1 = tmpccmr1;
 11100              		.loc 1 5043 0
 11101 00aa FB68     		ldr	r3, [r7, #12]
 11102 00ac 7A69     		ldr	r2, [r7, #20]
 11103 00ae 9A61     		str	r2, [r3, #24]
5044:Drivers/STM32F3xx_HAL_Driver/Src/stm32f3xx_hal_tim.c ****   TIMx->CCER = tmpccer;
 11104              		.loc 1 5044 0
 11105 00b0 FB68     		ldr	r3, [r7, #12]
 11106 00b2 3A69     		ldr	r2, [r7, #16]
 11107 00b4 1A62     		str	r2, [r3, #32]
5045:Drivers/STM32F3xx_HAL_Driver/Src/stm32f3xx_hal_tim.c **** }
 11108              		.loc 1 5045 0
 11109 00b6 1C37     		adds	r7, r7, #28
 11110 00b8 BD46     		mov	sp, r7
 11111              		@ sp needed
 11112 00ba 5DF8047B 		ldr	r7, [sp], #4
 11113 00be 7047     		bx	lr
 11114              	.L647:
 11115              		.align	2
 11116              	.L646:
 11117 00c0 002C0140 		.word	1073818624
 11118 00c4 00040040 		.word	1073742848
 11119 00c8 00080040 		.word	1073743872
 11120 00cc 00340140 		.word	1073820672
 11121 00d0 00400140 		.word	1073823744
 11122              		.cfi_endproc
 11123              	.LFE222:
 11125              		.section	.text.TIM_TI1_ConfigInputStage,"ax",%progbits
 11126              		.align	2
 11127              		.thumb
 11128              		.thumb_func
 11130              	TIM_TI1_ConfigInputStage:
 11131              	.LFB223:
5046:Drivers/STM32F3xx_HAL_Driver/Src/stm32f3xx_hal_tim.c **** 
5047:Drivers/STM32F3xx_HAL_Driver/Src/stm32f3xx_hal_tim.c **** /**
5048:Drivers/STM32F3xx_HAL_Driver/Src/stm32f3xx_hal_tim.c ****   * @brief  Configure the Polarity and Filter for TI1.
5049:Drivers/STM32F3xx_HAL_Driver/Src/stm32f3xx_hal_tim.c ****   * @param  TIMx to select the TIM peripheral.
5050:Drivers/STM32F3xx_HAL_Driver/Src/stm32f3xx_hal_tim.c ****   * @param  TIM_ICPolarity : The Input Polarity.
5051:Drivers/STM32F3xx_HAL_Driver/Src/stm32f3xx_hal_tim.c ****   *          This parameter can be one of the following values:
5052:Drivers/STM32F3xx_HAL_Driver/Src/stm32f3xx_hal_tim.c ****   *            @arg TIM_ICPOLARITY_RISING
5053:Drivers/STM32F3xx_HAL_Driver/Src/stm32f3xx_hal_tim.c ****   *            @arg TIM_ICPOLARITY_FALLING
5054:Drivers/STM32F3xx_HAL_Driver/Src/stm32f3xx_hal_tim.c ****   *            @arg TIM_ICPOLARITY_BOTHEDGE
5055:Drivers/STM32F3xx_HAL_Driver/Src/stm32f3xx_hal_tim.c ****   * @param  TIM_ICFilter: Specifies the Input Capture Filter.
5056:Drivers/STM32F3xx_HAL_Driver/Src/stm32f3xx_hal_tim.c ****   *          This parameter must be a value between 0x00 and 0x0F.
5057:Drivers/STM32F3xx_HAL_Driver/Src/stm32f3xx_hal_tim.c ****   * @retval None
5058:Drivers/STM32F3xx_HAL_Driver/Src/stm32f3xx_hal_tim.c ****   */
5059:Drivers/STM32F3xx_HAL_Driver/Src/stm32f3xx_hal_tim.c **** static void TIM_TI1_ConfigInputStage(TIM_TypeDef *TIMx, uint32_t TIM_ICPolarity, uint32_t TIM_ICFil
5060:Drivers/STM32F3xx_HAL_Driver/Src/stm32f3xx_hal_tim.c **** {
 11132              		.loc 1 5060 0
 11133              		.cfi_startproc
 11134              		@ args = 0, pretend = 0, frame = 24
 11135              		@ frame_needed = 1, uses_anonymous_args = 0
 11136              		@ link register save eliminated.
 11137 0000 80B4     		push	{r7}
 11138              	.LCFI294:
ARM GAS  /tmp/ccZyKULX.s 			page 285


 11139              		.cfi_def_cfa_offset 4
 11140              		.cfi_offset 7, -4
 11141 0002 87B0     		sub	sp, sp, #28
 11142              	.LCFI295:
 11143              		.cfi_def_cfa_offset 32
 11144 0004 00AF     		add	r7, sp, #0
 11145              	.LCFI296:
 11146              		.cfi_def_cfa_register 7
 11147 0006 F860     		str	r0, [r7, #12]
 11148 0008 B960     		str	r1, [r7, #8]
 11149 000a 7A60     		str	r2, [r7, #4]
5061:Drivers/STM32F3xx_HAL_Driver/Src/stm32f3xx_hal_tim.c ****   uint32_t tmpccmr1 = 0;
 11150              		.loc 1 5061 0
 11151 000c 0023     		movs	r3, #0
 11152 000e 7B61     		str	r3, [r7, #20]
5062:Drivers/STM32F3xx_HAL_Driver/Src/stm32f3xx_hal_tim.c ****   uint32_t tmpccer = 0;
 11153              		.loc 1 5062 0
 11154 0010 0023     		movs	r3, #0
 11155 0012 3B61     		str	r3, [r7, #16]
5063:Drivers/STM32F3xx_HAL_Driver/Src/stm32f3xx_hal_tim.c ****   
5064:Drivers/STM32F3xx_HAL_Driver/Src/stm32f3xx_hal_tim.c ****   /* Disable the Channel 1: Reset the CC1E Bit */
5065:Drivers/STM32F3xx_HAL_Driver/Src/stm32f3xx_hal_tim.c ****   tmpccer = TIMx->CCER;
 11156              		.loc 1 5065 0
 11157 0014 FB68     		ldr	r3, [r7, #12]
 11158 0016 1B6A     		ldr	r3, [r3, #32]
 11159 0018 3B61     		str	r3, [r7, #16]
5066:Drivers/STM32F3xx_HAL_Driver/Src/stm32f3xx_hal_tim.c ****   TIMx->CCER &= ~TIM_CCER_CC1E;
 11160              		.loc 1 5066 0
 11161 001a FB68     		ldr	r3, [r7, #12]
 11162 001c 1B6A     		ldr	r3, [r3, #32]
 11163 001e 23F00102 		bic	r2, r3, #1
 11164 0022 FB68     		ldr	r3, [r7, #12]
 11165 0024 1A62     		str	r2, [r3, #32]
5067:Drivers/STM32F3xx_HAL_Driver/Src/stm32f3xx_hal_tim.c ****   tmpccmr1 = TIMx->CCMR1;    
 11166              		.loc 1 5067 0
 11167 0026 FB68     		ldr	r3, [r7, #12]
 11168 0028 9B69     		ldr	r3, [r3, #24]
 11169 002a 7B61     		str	r3, [r7, #20]
5068:Drivers/STM32F3xx_HAL_Driver/Src/stm32f3xx_hal_tim.c ****   
5069:Drivers/STM32F3xx_HAL_Driver/Src/stm32f3xx_hal_tim.c ****   /* Set the filter */
5070:Drivers/STM32F3xx_HAL_Driver/Src/stm32f3xx_hal_tim.c ****   tmpccmr1 &= ~TIM_CCMR1_IC1F;
 11170              		.loc 1 5070 0
 11171 002c 7B69     		ldr	r3, [r7, #20]
 11172 002e 23F0F003 		bic	r3, r3, #240
 11173 0032 7B61     		str	r3, [r7, #20]
5071:Drivers/STM32F3xx_HAL_Driver/Src/stm32f3xx_hal_tim.c ****   tmpccmr1 |= (TIM_ICFilter << 4);
 11174              		.loc 1 5071 0
 11175 0034 7B68     		ldr	r3, [r7, #4]
 11176 0036 1B01     		lsls	r3, r3, #4
 11177 0038 7A69     		ldr	r2, [r7, #20]
 11178 003a 1343     		orrs	r3, r3, r2
 11179 003c 7B61     		str	r3, [r7, #20]
5072:Drivers/STM32F3xx_HAL_Driver/Src/stm32f3xx_hal_tim.c ****   
5073:Drivers/STM32F3xx_HAL_Driver/Src/stm32f3xx_hal_tim.c ****   /* Select the Polarity and set the CC1E Bit */
5074:Drivers/STM32F3xx_HAL_Driver/Src/stm32f3xx_hal_tim.c ****   tmpccer &= ~(TIM_CCER_CC1P | TIM_CCER_CC1NP);
 11180              		.loc 1 5074 0
 11181 003e 3B69     		ldr	r3, [r7, #16]
ARM GAS  /tmp/ccZyKULX.s 			page 286


 11182 0040 23F00A03 		bic	r3, r3, #10
 11183 0044 3B61     		str	r3, [r7, #16]
5075:Drivers/STM32F3xx_HAL_Driver/Src/stm32f3xx_hal_tim.c ****   tmpccer |= TIM_ICPolarity;
 11184              		.loc 1 5075 0
 11185 0046 3A69     		ldr	r2, [r7, #16]
 11186 0048 BB68     		ldr	r3, [r7, #8]
 11187 004a 1343     		orrs	r3, r3, r2
 11188 004c 3B61     		str	r3, [r7, #16]
5076:Drivers/STM32F3xx_HAL_Driver/Src/stm32f3xx_hal_tim.c ****   
5077:Drivers/STM32F3xx_HAL_Driver/Src/stm32f3xx_hal_tim.c ****   /* Write to TIMx CCMR1 and CCER registers */
5078:Drivers/STM32F3xx_HAL_Driver/Src/stm32f3xx_hal_tim.c ****   TIMx->CCMR1 = tmpccmr1;
 11189              		.loc 1 5078 0
 11190 004e FB68     		ldr	r3, [r7, #12]
 11191 0050 7A69     		ldr	r2, [r7, #20]
 11192 0052 9A61     		str	r2, [r3, #24]
5079:Drivers/STM32F3xx_HAL_Driver/Src/stm32f3xx_hal_tim.c ****   TIMx->CCER = tmpccer;
 11193              		.loc 1 5079 0
 11194 0054 FB68     		ldr	r3, [r7, #12]
 11195 0056 3A69     		ldr	r2, [r7, #16]
 11196 0058 1A62     		str	r2, [r3, #32]
5080:Drivers/STM32F3xx_HAL_Driver/Src/stm32f3xx_hal_tim.c **** }
 11197              		.loc 1 5080 0
 11198 005a 1C37     		adds	r7, r7, #28
 11199 005c BD46     		mov	sp, r7
 11200              		@ sp needed
 11201 005e 5DF8047B 		ldr	r7, [sp], #4
 11202 0062 7047     		bx	lr
 11203              		.cfi_endproc
 11204              	.LFE223:
 11206              		.section	.text.TIM_TI2_SetConfig,"ax",%progbits
 11207              		.align	2
 11208              		.thumb
 11209              		.thumb_func
 11211              	TIM_TI2_SetConfig:
 11212              	.LFB224:
5081:Drivers/STM32F3xx_HAL_Driver/Src/stm32f3xx_hal_tim.c **** 
5082:Drivers/STM32F3xx_HAL_Driver/Src/stm32f3xx_hal_tim.c **** /**
5083:Drivers/STM32F3xx_HAL_Driver/Src/stm32f3xx_hal_tim.c ****   * @brief  Configure the TI2 as Input.
5084:Drivers/STM32F3xx_HAL_Driver/Src/stm32f3xx_hal_tim.c ****   * @param  TIMx to select the TIM peripheral
5085:Drivers/STM32F3xx_HAL_Driver/Src/stm32f3xx_hal_tim.c ****   * @param  TIM_ICPolarity : The Input Polarity.
5086:Drivers/STM32F3xx_HAL_Driver/Src/stm32f3xx_hal_tim.c ****   *          This parameter can be one of the following values:
5087:Drivers/STM32F3xx_HAL_Driver/Src/stm32f3xx_hal_tim.c ****   *            @arg TIM_ICPOLARITY_RISING
5088:Drivers/STM32F3xx_HAL_Driver/Src/stm32f3xx_hal_tim.c ****   *            @arg TIM_ICPOLARITY_FALLING
5089:Drivers/STM32F3xx_HAL_Driver/Src/stm32f3xx_hal_tim.c ****   *            @arg TIM_ICPOLARITY_BOTHEDGE   
5090:Drivers/STM32F3xx_HAL_Driver/Src/stm32f3xx_hal_tim.c ****   * @param  TIM_ICSelection: specifies the input to be used.
5091:Drivers/STM32F3xx_HAL_Driver/Src/stm32f3xx_hal_tim.c ****   *          This parameter can be one of the following values:
5092:Drivers/STM32F3xx_HAL_Driver/Src/stm32f3xx_hal_tim.c ****   *            @arg TIM_ICSELECTION_DIRECTTI: TIM Input 2 is selected to be connected to IC2.
5093:Drivers/STM32F3xx_HAL_Driver/Src/stm32f3xx_hal_tim.c ****   *            @arg TIM_ICSELECTION_INDIRECTTI: TIM Input 2 is selected to be connected to IC1.
5094:Drivers/STM32F3xx_HAL_Driver/Src/stm32f3xx_hal_tim.c ****   *            @arg TIM_ICSELECTION_TRC: TIM Input 2 is selected to be connected to TRC.
5095:Drivers/STM32F3xx_HAL_Driver/Src/stm32f3xx_hal_tim.c ****   * @param  TIM_ICFilter: Specifies the Input Capture Filter.
5096:Drivers/STM32F3xx_HAL_Driver/Src/stm32f3xx_hal_tim.c ****   *          This parameter must be a value between 0x00 and 0x0F.
5097:Drivers/STM32F3xx_HAL_Driver/Src/stm32f3xx_hal_tim.c ****   * @retval None
5098:Drivers/STM32F3xx_HAL_Driver/Src/stm32f3xx_hal_tim.c ****   * @note TIM_ICFilter and TIM_ICPolarity are not used in INDIRECT mode as TI1FP2 
5099:Drivers/STM32F3xx_HAL_Driver/Src/stm32f3xx_hal_tim.c ****   *       (on channel1 path) is used as the input signal. Therefore CCMR1 must be 
5100:Drivers/STM32F3xx_HAL_Driver/Src/stm32f3xx_hal_tim.c ****   *        protected against un-initialized filter and polarity values.
5101:Drivers/STM32F3xx_HAL_Driver/Src/stm32f3xx_hal_tim.c ****   */
5102:Drivers/STM32F3xx_HAL_Driver/Src/stm32f3xx_hal_tim.c **** static void TIM_TI2_SetConfig(TIM_TypeDef *TIMx, uint32_t TIM_ICPolarity, uint32_t TIM_ICSelection,
ARM GAS  /tmp/ccZyKULX.s 			page 287


5103:Drivers/STM32F3xx_HAL_Driver/Src/stm32f3xx_hal_tim.c ****                        uint32_t TIM_ICFilter)
5104:Drivers/STM32F3xx_HAL_Driver/Src/stm32f3xx_hal_tim.c **** {
 11213              		.loc 1 5104 0
 11214              		.cfi_startproc
 11215              		@ args = 0, pretend = 0, frame = 24
 11216              		@ frame_needed = 1, uses_anonymous_args = 0
 11217              		@ link register save eliminated.
 11218 0000 80B4     		push	{r7}
 11219              	.LCFI297:
 11220              		.cfi_def_cfa_offset 4
 11221              		.cfi_offset 7, -4
 11222 0002 87B0     		sub	sp, sp, #28
 11223              	.LCFI298:
 11224              		.cfi_def_cfa_offset 32
 11225 0004 00AF     		add	r7, sp, #0
 11226              	.LCFI299:
 11227              		.cfi_def_cfa_register 7
 11228 0006 F860     		str	r0, [r7, #12]
 11229 0008 B960     		str	r1, [r7, #8]
 11230 000a 7A60     		str	r2, [r7, #4]
 11231 000c 3B60     		str	r3, [r7]
5105:Drivers/STM32F3xx_HAL_Driver/Src/stm32f3xx_hal_tim.c ****   uint32_t tmpccmr1 = 0;
 11232              		.loc 1 5105 0
 11233 000e 0023     		movs	r3, #0
 11234 0010 7B61     		str	r3, [r7, #20]
5106:Drivers/STM32F3xx_HAL_Driver/Src/stm32f3xx_hal_tim.c ****   uint32_t tmpccer = 0;
 11235              		.loc 1 5106 0
 11236 0012 0023     		movs	r3, #0
 11237 0014 3B61     		str	r3, [r7, #16]
5107:Drivers/STM32F3xx_HAL_Driver/Src/stm32f3xx_hal_tim.c **** 
5108:Drivers/STM32F3xx_HAL_Driver/Src/stm32f3xx_hal_tim.c ****   /* Disable the Channel 2: Reset the CC2E Bit */
5109:Drivers/STM32F3xx_HAL_Driver/Src/stm32f3xx_hal_tim.c ****   TIMx->CCER &= ~TIM_CCER_CC2E;
 11238              		.loc 1 5109 0
 11239 0016 FB68     		ldr	r3, [r7, #12]
 11240 0018 1B6A     		ldr	r3, [r3, #32]
 11241 001a 23F01002 		bic	r2, r3, #16
 11242 001e FB68     		ldr	r3, [r7, #12]
 11243 0020 1A62     		str	r2, [r3, #32]
5110:Drivers/STM32F3xx_HAL_Driver/Src/stm32f3xx_hal_tim.c ****   tmpccmr1 = TIMx->CCMR1;
 11244              		.loc 1 5110 0
 11245 0022 FB68     		ldr	r3, [r7, #12]
 11246 0024 9B69     		ldr	r3, [r3, #24]
 11247 0026 7B61     		str	r3, [r7, #20]
5111:Drivers/STM32F3xx_HAL_Driver/Src/stm32f3xx_hal_tim.c ****   tmpccer = TIMx->CCER;
 11248              		.loc 1 5111 0
 11249 0028 FB68     		ldr	r3, [r7, #12]
 11250 002a 1B6A     		ldr	r3, [r3, #32]
 11251 002c 3B61     		str	r3, [r7, #16]
5112:Drivers/STM32F3xx_HAL_Driver/Src/stm32f3xx_hal_tim.c **** 
5113:Drivers/STM32F3xx_HAL_Driver/Src/stm32f3xx_hal_tim.c ****   /* Select the Input */
5114:Drivers/STM32F3xx_HAL_Driver/Src/stm32f3xx_hal_tim.c ****   tmpccmr1 &= ~TIM_CCMR1_CC2S;
 11252              		.loc 1 5114 0
 11253 002e 7B69     		ldr	r3, [r7, #20]
 11254 0030 23F44073 		bic	r3, r3, #768
 11255 0034 7B61     		str	r3, [r7, #20]
5115:Drivers/STM32F3xx_HAL_Driver/Src/stm32f3xx_hal_tim.c ****   tmpccmr1 |= (TIM_ICSelection << 8);
 11256              		.loc 1 5115 0
ARM GAS  /tmp/ccZyKULX.s 			page 288


 11257 0036 7B68     		ldr	r3, [r7, #4]
 11258 0038 1B02     		lsls	r3, r3, #8
 11259 003a 7A69     		ldr	r2, [r7, #20]
 11260 003c 1343     		orrs	r3, r3, r2
 11261 003e 7B61     		str	r3, [r7, #20]
5116:Drivers/STM32F3xx_HAL_Driver/Src/stm32f3xx_hal_tim.c **** 
5117:Drivers/STM32F3xx_HAL_Driver/Src/stm32f3xx_hal_tim.c ****   /* Set the filter */
5118:Drivers/STM32F3xx_HAL_Driver/Src/stm32f3xx_hal_tim.c ****   tmpccmr1 &= ~TIM_CCMR1_IC2F;
 11262              		.loc 1 5118 0
 11263 0040 7B69     		ldr	r3, [r7, #20]
 11264 0042 23F47043 		bic	r3, r3, #61440
 11265 0046 7B61     		str	r3, [r7, #20]
5119:Drivers/STM32F3xx_HAL_Driver/Src/stm32f3xx_hal_tim.c ****   tmpccmr1 |= ((TIM_ICFilter << 12) & TIM_CCMR1_IC2F);
 11266              		.loc 1 5119 0
 11267 0048 3B68     		ldr	r3, [r7]
 11268 004a 1B03     		lsls	r3, r3, #12
 11269 004c 9BB2     		uxth	r3, r3
 11270 004e 7A69     		ldr	r2, [r7, #20]
 11271 0050 1343     		orrs	r3, r3, r2
 11272 0052 7B61     		str	r3, [r7, #20]
5120:Drivers/STM32F3xx_HAL_Driver/Src/stm32f3xx_hal_tim.c **** 
5121:Drivers/STM32F3xx_HAL_Driver/Src/stm32f3xx_hal_tim.c ****   /* Select the Polarity and set the CC2E Bit */
5122:Drivers/STM32F3xx_HAL_Driver/Src/stm32f3xx_hal_tim.c ****   tmpccer &= ~(TIM_CCER_CC2P | TIM_CCER_CC2NP);
 11273              		.loc 1 5122 0
 11274 0054 3B69     		ldr	r3, [r7, #16]
 11275 0056 23F0A003 		bic	r3, r3, #160
 11276 005a 3B61     		str	r3, [r7, #16]
5123:Drivers/STM32F3xx_HAL_Driver/Src/stm32f3xx_hal_tim.c ****   tmpccer |= ((TIM_ICPolarity << 4) & (TIM_CCER_CC2P | TIM_CCER_CC2NP));
 11277              		.loc 1 5123 0
 11278 005c BB68     		ldr	r3, [r7, #8]
 11279 005e 1B01     		lsls	r3, r3, #4
 11280 0060 03F0A003 		and	r3, r3, #160
 11281 0064 3A69     		ldr	r2, [r7, #16]
 11282 0066 1343     		orrs	r3, r3, r2
 11283 0068 3B61     		str	r3, [r7, #16]
5124:Drivers/STM32F3xx_HAL_Driver/Src/stm32f3xx_hal_tim.c **** 
5125:Drivers/STM32F3xx_HAL_Driver/Src/stm32f3xx_hal_tim.c ****   /* Write to TIMx CCMR1 and CCER registers */
5126:Drivers/STM32F3xx_HAL_Driver/Src/stm32f3xx_hal_tim.c ****   TIMx->CCMR1 = tmpccmr1 ;
 11284              		.loc 1 5126 0
 11285 006a FB68     		ldr	r3, [r7, #12]
 11286 006c 7A69     		ldr	r2, [r7, #20]
 11287 006e 9A61     		str	r2, [r3, #24]
5127:Drivers/STM32F3xx_HAL_Driver/Src/stm32f3xx_hal_tim.c ****   TIMx->CCER = tmpccer;
 11288              		.loc 1 5127 0
 11289 0070 FB68     		ldr	r3, [r7, #12]
 11290 0072 3A69     		ldr	r2, [r7, #16]
 11291 0074 1A62     		str	r2, [r3, #32]
5128:Drivers/STM32F3xx_HAL_Driver/Src/stm32f3xx_hal_tim.c **** }
 11292              		.loc 1 5128 0
 11293 0076 1C37     		adds	r7, r7, #28
 11294 0078 BD46     		mov	sp, r7
 11295              		@ sp needed
 11296 007a 5DF8047B 		ldr	r7, [sp], #4
 11297 007e 7047     		bx	lr
 11298              		.cfi_endproc
 11299              	.LFE224:
 11301              		.section	.text.TIM_TI2_ConfigInputStage,"ax",%progbits
ARM GAS  /tmp/ccZyKULX.s 			page 289


 11302              		.align	2
 11303              		.thumb
 11304              		.thumb_func
 11306              	TIM_TI2_ConfigInputStage:
 11307              	.LFB225:
5129:Drivers/STM32F3xx_HAL_Driver/Src/stm32f3xx_hal_tim.c **** 
5130:Drivers/STM32F3xx_HAL_Driver/Src/stm32f3xx_hal_tim.c **** /**
5131:Drivers/STM32F3xx_HAL_Driver/Src/stm32f3xx_hal_tim.c ****   * @brief  Configure the Polarity and Filter for TI2.
5132:Drivers/STM32F3xx_HAL_Driver/Src/stm32f3xx_hal_tim.c ****   * @param  TIMx to select the TIM peripheral.
5133:Drivers/STM32F3xx_HAL_Driver/Src/stm32f3xx_hal_tim.c ****   * @param  TIM_ICPolarity : The Input Polarity.
5134:Drivers/STM32F3xx_HAL_Driver/Src/stm32f3xx_hal_tim.c ****   *          This parameter can be one of the following values:
5135:Drivers/STM32F3xx_HAL_Driver/Src/stm32f3xx_hal_tim.c ****   *            @arg TIM_ICPOLARITY_RISING
5136:Drivers/STM32F3xx_HAL_Driver/Src/stm32f3xx_hal_tim.c ****   *            @arg TIM_ICPOLARITY_FALLING
5137:Drivers/STM32F3xx_HAL_Driver/Src/stm32f3xx_hal_tim.c ****   *            @arg TIM_ICPOLARITY_BOTHEDGE
5138:Drivers/STM32F3xx_HAL_Driver/Src/stm32f3xx_hal_tim.c ****   * @param  TIM_ICFilter: Specifies the Input Capture Filter.
5139:Drivers/STM32F3xx_HAL_Driver/Src/stm32f3xx_hal_tim.c ****   *          This parameter must be a value between 0x00 and 0x0F.
5140:Drivers/STM32F3xx_HAL_Driver/Src/stm32f3xx_hal_tim.c ****   * @retval None
5141:Drivers/STM32F3xx_HAL_Driver/Src/stm32f3xx_hal_tim.c ****   */
5142:Drivers/STM32F3xx_HAL_Driver/Src/stm32f3xx_hal_tim.c **** static void TIM_TI2_ConfigInputStage(TIM_TypeDef *TIMx, uint32_t TIM_ICPolarity, uint32_t TIM_ICFil
5143:Drivers/STM32F3xx_HAL_Driver/Src/stm32f3xx_hal_tim.c **** {
 11308              		.loc 1 5143 0
 11309              		.cfi_startproc
 11310              		@ args = 0, pretend = 0, frame = 24
 11311              		@ frame_needed = 1, uses_anonymous_args = 0
 11312              		@ link register save eliminated.
 11313 0000 80B4     		push	{r7}
 11314              	.LCFI300:
 11315              		.cfi_def_cfa_offset 4
 11316              		.cfi_offset 7, -4
 11317 0002 87B0     		sub	sp, sp, #28
 11318              	.LCFI301:
 11319              		.cfi_def_cfa_offset 32
 11320 0004 00AF     		add	r7, sp, #0
 11321              	.LCFI302:
 11322              		.cfi_def_cfa_register 7
 11323 0006 F860     		str	r0, [r7, #12]
 11324 0008 B960     		str	r1, [r7, #8]
 11325 000a 7A60     		str	r2, [r7, #4]
5144:Drivers/STM32F3xx_HAL_Driver/Src/stm32f3xx_hal_tim.c ****   uint32_t tmpccmr1 = 0;
 11326              		.loc 1 5144 0
 11327 000c 0023     		movs	r3, #0
 11328 000e 7B61     		str	r3, [r7, #20]
5145:Drivers/STM32F3xx_HAL_Driver/Src/stm32f3xx_hal_tim.c ****   uint32_t tmpccer = 0;
 11329              		.loc 1 5145 0
 11330 0010 0023     		movs	r3, #0
 11331 0012 3B61     		str	r3, [r7, #16]
5146:Drivers/STM32F3xx_HAL_Driver/Src/stm32f3xx_hal_tim.c ****   
5147:Drivers/STM32F3xx_HAL_Driver/Src/stm32f3xx_hal_tim.c ****   /* Disable the Channel 2: Reset the CC2E Bit */
5148:Drivers/STM32F3xx_HAL_Driver/Src/stm32f3xx_hal_tim.c ****   TIMx->CCER &= ~TIM_CCER_CC2E;
 11332              		.loc 1 5148 0
 11333 0014 FB68     		ldr	r3, [r7, #12]
 11334 0016 1B6A     		ldr	r3, [r3, #32]
 11335 0018 23F01002 		bic	r2, r3, #16
 11336 001c FB68     		ldr	r3, [r7, #12]
 11337 001e 1A62     		str	r2, [r3, #32]
5149:Drivers/STM32F3xx_HAL_Driver/Src/stm32f3xx_hal_tim.c ****   tmpccmr1 = TIMx->CCMR1;
 11338              		.loc 1 5149 0
ARM GAS  /tmp/ccZyKULX.s 			page 290


 11339 0020 FB68     		ldr	r3, [r7, #12]
 11340 0022 9B69     		ldr	r3, [r3, #24]
 11341 0024 7B61     		str	r3, [r7, #20]
5150:Drivers/STM32F3xx_HAL_Driver/Src/stm32f3xx_hal_tim.c ****   tmpccer = TIMx->CCER;
 11342              		.loc 1 5150 0
 11343 0026 FB68     		ldr	r3, [r7, #12]
 11344 0028 1B6A     		ldr	r3, [r3, #32]
 11345 002a 3B61     		str	r3, [r7, #16]
5151:Drivers/STM32F3xx_HAL_Driver/Src/stm32f3xx_hal_tim.c ****   
5152:Drivers/STM32F3xx_HAL_Driver/Src/stm32f3xx_hal_tim.c ****   /* Set the filter */
5153:Drivers/STM32F3xx_HAL_Driver/Src/stm32f3xx_hal_tim.c ****   tmpccmr1 &= ~TIM_CCMR1_IC2F;
 11346              		.loc 1 5153 0
 11347 002c 7B69     		ldr	r3, [r7, #20]
 11348 002e 23F47043 		bic	r3, r3, #61440
 11349 0032 7B61     		str	r3, [r7, #20]
5154:Drivers/STM32F3xx_HAL_Driver/Src/stm32f3xx_hal_tim.c ****   tmpccmr1 |= (TIM_ICFilter << 12);
 11350              		.loc 1 5154 0
 11351 0034 7B68     		ldr	r3, [r7, #4]
 11352 0036 1B03     		lsls	r3, r3, #12
 11353 0038 7A69     		ldr	r2, [r7, #20]
 11354 003a 1343     		orrs	r3, r3, r2
 11355 003c 7B61     		str	r3, [r7, #20]
5155:Drivers/STM32F3xx_HAL_Driver/Src/stm32f3xx_hal_tim.c **** 
5156:Drivers/STM32F3xx_HAL_Driver/Src/stm32f3xx_hal_tim.c ****   /* Select the Polarity and set the CC2E Bit */
5157:Drivers/STM32F3xx_HAL_Driver/Src/stm32f3xx_hal_tim.c ****   tmpccer &= ~(TIM_CCER_CC2P | TIM_CCER_CC2NP);
 11356              		.loc 1 5157 0
 11357 003e 3B69     		ldr	r3, [r7, #16]
 11358 0040 23F0A003 		bic	r3, r3, #160
 11359 0044 3B61     		str	r3, [r7, #16]
5158:Drivers/STM32F3xx_HAL_Driver/Src/stm32f3xx_hal_tim.c ****   tmpccer |= (TIM_ICPolarity << 4);
 11360              		.loc 1 5158 0
 11361 0046 BB68     		ldr	r3, [r7, #8]
 11362 0048 1B01     		lsls	r3, r3, #4
 11363 004a 3A69     		ldr	r2, [r7, #16]
 11364 004c 1343     		orrs	r3, r3, r2
 11365 004e 3B61     		str	r3, [r7, #16]
5159:Drivers/STM32F3xx_HAL_Driver/Src/stm32f3xx_hal_tim.c **** 
5160:Drivers/STM32F3xx_HAL_Driver/Src/stm32f3xx_hal_tim.c ****   /* Write to TIMx CCMR1 and CCER registers */
5161:Drivers/STM32F3xx_HAL_Driver/Src/stm32f3xx_hal_tim.c ****   TIMx->CCMR1 = tmpccmr1 ;
 11366              		.loc 1 5161 0
 11367 0050 FB68     		ldr	r3, [r7, #12]
 11368 0052 7A69     		ldr	r2, [r7, #20]
 11369 0054 9A61     		str	r2, [r3, #24]
5162:Drivers/STM32F3xx_HAL_Driver/Src/stm32f3xx_hal_tim.c ****   TIMx->CCER = tmpccer;
 11370              		.loc 1 5162 0
 11371 0056 FB68     		ldr	r3, [r7, #12]
 11372 0058 3A69     		ldr	r2, [r7, #16]
 11373 005a 1A62     		str	r2, [r3, #32]
5163:Drivers/STM32F3xx_HAL_Driver/Src/stm32f3xx_hal_tim.c **** }
 11374              		.loc 1 5163 0
 11375 005c 1C37     		adds	r7, r7, #28
 11376 005e BD46     		mov	sp, r7
 11377              		@ sp needed
 11378 0060 5DF8047B 		ldr	r7, [sp], #4
 11379 0064 7047     		bx	lr
 11380              		.cfi_endproc
 11381              	.LFE225:
ARM GAS  /tmp/ccZyKULX.s 			page 291


 11383 0066 00BF     		.section	.text.TIM_TI3_SetConfig,"ax",%progbits
 11384              		.align	2
 11385              		.thumb
 11386              		.thumb_func
 11388              	TIM_TI3_SetConfig:
 11389              	.LFB226:
5164:Drivers/STM32F3xx_HAL_Driver/Src/stm32f3xx_hal_tim.c **** 
5165:Drivers/STM32F3xx_HAL_Driver/Src/stm32f3xx_hal_tim.c **** /**
5166:Drivers/STM32F3xx_HAL_Driver/Src/stm32f3xx_hal_tim.c ****   * @brief  Configure the TI3 as Input.
5167:Drivers/STM32F3xx_HAL_Driver/Src/stm32f3xx_hal_tim.c ****   * @param  TIMx to select the TIM peripheral
5168:Drivers/STM32F3xx_HAL_Driver/Src/stm32f3xx_hal_tim.c ****   * @param  TIM_ICPolarity : The Input Polarity.
5169:Drivers/STM32F3xx_HAL_Driver/Src/stm32f3xx_hal_tim.c ****   *          This parameter can be one of the following values:
5170:Drivers/STM32F3xx_HAL_Driver/Src/stm32f3xx_hal_tim.c ****   *            @arg TIM_ICPOLARITY_RISING
5171:Drivers/STM32F3xx_HAL_Driver/Src/stm32f3xx_hal_tim.c ****   *            @arg TIM_ICPOLARITY_FALLING
5172:Drivers/STM32F3xx_HAL_Driver/Src/stm32f3xx_hal_tim.c ****   *            @arg TIM_ICPOLARITY_BOTHEDGE         
5173:Drivers/STM32F3xx_HAL_Driver/Src/stm32f3xx_hal_tim.c ****   * @param  TIM_ICSelection: specifies the input to be used.
5174:Drivers/STM32F3xx_HAL_Driver/Src/stm32f3xx_hal_tim.c ****   *          This parameter can be one of the following values:
5175:Drivers/STM32F3xx_HAL_Driver/Src/stm32f3xx_hal_tim.c ****   *            @arg TIM_ICSELECTION_DIRECTTI: TIM Input 3 is selected to be connected to IC3.
5176:Drivers/STM32F3xx_HAL_Driver/Src/stm32f3xx_hal_tim.c ****   *            @arg TIM_ICSELECTION_INDIRECTTI: TIM Input 3 is selected to be connected to IC4.
5177:Drivers/STM32F3xx_HAL_Driver/Src/stm32f3xx_hal_tim.c ****   *            @arg TIM_ICSELECTION_TRC: TIM Input 3 is selected to be connected to TRC.
5178:Drivers/STM32F3xx_HAL_Driver/Src/stm32f3xx_hal_tim.c ****   * @param  TIM_ICFilter: Specifies the Input Capture Filter.
5179:Drivers/STM32F3xx_HAL_Driver/Src/stm32f3xx_hal_tim.c ****   *          This parameter must be a value between 0x00 and 0x0F.
5180:Drivers/STM32F3xx_HAL_Driver/Src/stm32f3xx_hal_tim.c ****   * @retval None
5181:Drivers/STM32F3xx_HAL_Driver/Src/stm32f3xx_hal_tim.c ****   * @note TIM_ICFilter and TIM_ICPolarity are not used in INDIRECT mode as TI3FP4 
5182:Drivers/STM32F3xx_HAL_Driver/Src/stm32f3xx_hal_tim.c ****   *       (on channel1 path) is used as the input signal. Therefore CCMR2 must be 
5183:Drivers/STM32F3xx_HAL_Driver/Src/stm32f3xx_hal_tim.c ****   *        protected against un-initialized filter and polarity values.
5184:Drivers/STM32F3xx_HAL_Driver/Src/stm32f3xx_hal_tim.c ****   */
5185:Drivers/STM32F3xx_HAL_Driver/Src/stm32f3xx_hal_tim.c **** static void TIM_TI3_SetConfig(TIM_TypeDef *TIMx, uint32_t TIM_ICPolarity, uint32_t TIM_ICSelection,
5186:Drivers/STM32F3xx_HAL_Driver/Src/stm32f3xx_hal_tim.c ****                        uint32_t TIM_ICFilter)
5187:Drivers/STM32F3xx_HAL_Driver/Src/stm32f3xx_hal_tim.c **** {
 11390              		.loc 1 5187 0
 11391              		.cfi_startproc
 11392              		@ args = 0, pretend = 0, frame = 24
 11393              		@ frame_needed = 1, uses_anonymous_args = 0
 11394              		@ link register save eliminated.
 11395 0000 80B4     		push	{r7}
 11396              	.LCFI303:
 11397              		.cfi_def_cfa_offset 4
 11398              		.cfi_offset 7, -4
 11399 0002 87B0     		sub	sp, sp, #28
 11400              	.LCFI304:
 11401              		.cfi_def_cfa_offset 32
 11402 0004 00AF     		add	r7, sp, #0
 11403              	.LCFI305:
 11404              		.cfi_def_cfa_register 7
 11405 0006 F860     		str	r0, [r7, #12]
 11406 0008 B960     		str	r1, [r7, #8]
 11407 000a 7A60     		str	r2, [r7, #4]
 11408 000c 3B60     		str	r3, [r7]
5188:Drivers/STM32F3xx_HAL_Driver/Src/stm32f3xx_hal_tim.c ****   uint32_t tmpccmr2 = 0;
 11409              		.loc 1 5188 0
 11410 000e 0023     		movs	r3, #0
 11411 0010 7B61     		str	r3, [r7, #20]
5189:Drivers/STM32F3xx_HAL_Driver/Src/stm32f3xx_hal_tim.c ****   uint32_t tmpccer = 0;
 11412              		.loc 1 5189 0
 11413 0012 0023     		movs	r3, #0
 11414 0014 3B61     		str	r3, [r7, #16]
ARM GAS  /tmp/ccZyKULX.s 			page 292


5190:Drivers/STM32F3xx_HAL_Driver/Src/stm32f3xx_hal_tim.c **** 
5191:Drivers/STM32F3xx_HAL_Driver/Src/stm32f3xx_hal_tim.c ****   /* Disable the Channel 3: Reset the CC3E Bit */
5192:Drivers/STM32F3xx_HAL_Driver/Src/stm32f3xx_hal_tim.c ****   TIMx->CCER &= ~TIM_CCER_CC3E;
 11415              		.loc 1 5192 0
 11416 0016 FB68     		ldr	r3, [r7, #12]
 11417 0018 1B6A     		ldr	r3, [r3, #32]
 11418 001a 23F48072 		bic	r2, r3, #256
 11419 001e FB68     		ldr	r3, [r7, #12]
 11420 0020 1A62     		str	r2, [r3, #32]
5193:Drivers/STM32F3xx_HAL_Driver/Src/stm32f3xx_hal_tim.c ****   tmpccmr2 = TIMx->CCMR2;
 11421              		.loc 1 5193 0
 11422 0022 FB68     		ldr	r3, [r7, #12]
 11423 0024 DB69     		ldr	r3, [r3, #28]
 11424 0026 7B61     		str	r3, [r7, #20]
5194:Drivers/STM32F3xx_HAL_Driver/Src/stm32f3xx_hal_tim.c ****   tmpccer = TIMx->CCER;
 11425              		.loc 1 5194 0
 11426 0028 FB68     		ldr	r3, [r7, #12]
 11427 002a 1B6A     		ldr	r3, [r3, #32]
 11428 002c 3B61     		str	r3, [r7, #16]
5195:Drivers/STM32F3xx_HAL_Driver/Src/stm32f3xx_hal_tim.c **** 
5196:Drivers/STM32F3xx_HAL_Driver/Src/stm32f3xx_hal_tim.c ****   /* Select the Input */
5197:Drivers/STM32F3xx_HAL_Driver/Src/stm32f3xx_hal_tim.c ****   tmpccmr2 &= ~TIM_CCMR2_CC3S;
 11429              		.loc 1 5197 0
 11430 002e 7B69     		ldr	r3, [r7, #20]
 11431 0030 23F00303 		bic	r3, r3, #3
 11432 0034 7B61     		str	r3, [r7, #20]
5198:Drivers/STM32F3xx_HAL_Driver/Src/stm32f3xx_hal_tim.c ****   tmpccmr2 |= TIM_ICSelection;
 11433              		.loc 1 5198 0
 11434 0036 7A69     		ldr	r2, [r7, #20]
 11435 0038 7B68     		ldr	r3, [r7, #4]
 11436 003a 1343     		orrs	r3, r3, r2
 11437 003c 7B61     		str	r3, [r7, #20]
5199:Drivers/STM32F3xx_HAL_Driver/Src/stm32f3xx_hal_tim.c **** 
5200:Drivers/STM32F3xx_HAL_Driver/Src/stm32f3xx_hal_tim.c ****   /* Set the filter */
5201:Drivers/STM32F3xx_HAL_Driver/Src/stm32f3xx_hal_tim.c ****   tmpccmr2 &= ~TIM_CCMR2_IC3F;
 11438              		.loc 1 5201 0
 11439 003e 7B69     		ldr	r3, [r7, #20]
 11440 0040 23F0F003 		bic	r3, r3, #240
 11441 0044 7B61     		str	r3, [r7, #20]
5202:Drivers/STM32F3xx_HAL_Driver/Src/stm32f3xx_hal_tim.c ****   tmpccmr2 |= ((TIM_ICFilter << 4) & TIM_CCMR2_IC3F);
 11442              		.loc 1 5202 0
 11443 0046 3B68     		ldr	r3, [r7]
 11444 0048 1B01     		lsls	r3, r3, #4
 11445 004a DBB2     		uxtb	r3, r3
 11446 004c 7A69     		ldr	r2, [r7, #20]
 11447 004e 1343     		orrs	r3, r3, r2
 11448 0050 7B61     		str	r3, [r7, #20]
5203:Drivers/STM32F3xx_HAL_Driver/Src/stm32f3xx_hal_tim.c **** 
5204:Drivers/STM32F3xx_HAL_Driver/Src/stm32f3xx_hal_tim.c ****   /* Select the Polarity and set the CC3E Bit */
5205:Drivers/STM32F3xx_HAL_Driver/Src/stm32f3xx_hal_tim.c ****   tmpccer &= ~(TIM_CCER_CC3P | TIM_CCER_CC3NP);
 11449              		.loc 1 5205 0
 11450 0052 3B69     		ldr	r3, [r7, #16]
 11451 0054 23F42063 		bic	r3, r3, #2560
 11452 0058 3B61     		str	r3, [r7, #16]
5206:Drivers/STM32F3xx_HAL_Driver/Src/stm32f3xx_hal_tim.c ****   tmpccer |= ((TIM_ICPolarity << 8) & (TIM_CCER_CC3P | TIM_CCER_CC3NP));
 11453              		.loc 1 5206 0
 11454 005a BB68     		ldr	r3, [r7, #8]
ARM GAS  /tmp/ccZyKULX.s 			page 293


 11455 005c 1B02     		lsls	r3, r3, #8
 11456 005e 03F42063 		and	r3, r3, #2560
 11457 0062 3A69     		ldr	r2, [r7, #16]
 11458 0064 1343     		orrs	r3, r3, r2
 11459 0066 3B61     		str	r3, [r7, #16]
5207:Drivers/STM32F3xx_HAL_Driver/Src/stm32f3xx_hal_tim.c **** 
5208:Drivers/STM32F3xx_HAL_Driver/Src/stm32f3xx_hal_tim.c ****   /* Write to TIMx CCMR2 and CCER registers */
5209:Drivers/STM32F3xx_HAL_Driver/Src/stm32f3xx_hal_tim.c ****   TIMx->CCMR2 = tmpccmr2;
 11460              		.loc 1 5209 0
 11461 0068 FB68     		ldr	r3, [r7, #12]
 11462 006a 7A69     		ldr	r2, [r7, #20]
 11463 006c DA61     		str	r2, [r3, #28]
5210:Drivers/STM32F3xx_HAL_Driver/Src/stm32f3xx_hal_tim.c ****   TIMx->CCER = tmpccer;
 11464              		.loc 1 5210 0
 11465 006e FB68     		ldr	r3, [r7, #12]
 11466 0070 3A69     		ldr	r2, [r7, #16]
 11467 0072 1A62     		str	r2, [r3, #32]
5211:Drivers/STM32F3xx_HAL_Driver/Src/stm32f3xx_hal_tim.c **** }
 11468              		.loc 1 5211 0
 11469 0074 1C37     		adds	r7, r7, #28
 11470 0076 BD46     		mov	sp, r7
 11471              		@ sp needed
 11472 0078 5DF8047B 		ldr	r7, [sp], #4
 11473 007c 7047     		bx	lr
 11474              		.cfi_endproc
 11475              	.LFE226:
 11477 007e 00BF     		.section	.text.TIM_TI4_SetConfig,"ax",%progbits
 11478              		.align	2
 11479              		.thumb
 11480              		.thumb_func
 11482              	TIM_TI4_SetConfig:
 11483              	.LFB227:
5212:Drivers/STM32F3xx_HAL_Driver/Src/stm32f3xx_hal_tim.c **** 
5213:Drivers/STM32F3xx_HAL_Driver/Src/stm32f3xx_hal_tim.c **** /**
5214:Drivers/STM32F3xx_HAL_Driver/Src/stm32f3xx_hal_tim.c ****   * @brief  Configure the TI4 as Input.
5215:Drivers/STM32F3xx_HAL_Driver/Src/stm32f3xx_hal_tim.c ****   * @param  TIMx to select the TIM peripheral
5216:Drivers/STM32F3xx_HAL_Driver/Src/stm32f3xx_hal_tim.c ****   * @param  TIM_ICPolarity : The Input Polarity.
5217:Drivers/STM32F3xx_HAL_Driver/Src/stm32f3xx_hal_tim.c ****   *          This parameter can be one of the following values:
5218:Drivers/STM32F3xx_HAL_Driver/Src/stm32f3xx_hal_tim.c ****   *            @arg TIM_ICPOLARITY_RISING
5219:Drivers/STM32F3xx_HAL_Driver/Src/stm32f3xx_hal_tim.c ****   *            @arg TIM_ICPOLARITY_FALLING
5220:Drivers/STM32F3xx_HAL_Driver/Src/stm32f3xx_hal_tim.c ****   *            @arg TIM_ICPOLARITY_BOTHEDGE     
5221:Drivers/STM32F3xx_HAL_Driver/Src/stm32f3xx_hal_tim.c ****   * @param  TIM_ICSelection: specifies the input to be used.
5222:Drivers/STM32F3xx_HAL_Driver/Src/stm32f3xx_hal_tim.c ****   *          This parameter can be one of the following values:
5223:Drivers/STM32F3xx_HAL_Driver/Src/stm32f3xx_hal_tim.c ****   *            @arg TIM_ICSELECTION_DIRECTTI: TIM Input 4 is selected to be connected to IC4.
5224:Drivers/STM32F3xx_HAL_Driver/Src/stm32f3xx_hal_tim.c ****   *            @arg TIM_ICSELECTION_INDIRECTTI: TIM Input 4 is selected to be connected to IC3.
5225:Drivers/STM32F3xx_HAL_Driver/Src/stm32f3xx_hal_tim.c ****   *            @arg TIM_ICSELECTION_TRC: TIM Input 4 is selected to be connected to TRC.
5226:Drivers/STM32F3xx_HAL_Driver/Src/stm32f3xx_hal_tim.c ****   * @param  TIM_ICFilter: Specifies the Input Capture Filter.
5227:Drivers/STM32F3xx_HAL_Driver/Src/stm32f3xx_hal_tim.c ****   *          This parameter must be a value between 0x00 and 0x0F.
5228:Drivers/STM32F3xx_HAL_Driver/Src/stm32f3xx_hal_tim.c ****   * @note TIM_ICFilter and TIM_ICPolarity are not used in INDIRECT mode as TI4FP3 
5229:Drivers/STM32F3xx_HAL_Driver/Src/stm32f3xx_hal_tim.c ****   *       (on channel1 path) is used as the input signal. Therefore CCMR2 must be 
5230:Drivers/STM32F3xx_HAL_Driver/Src/stm32f3xx_hal_tim.c ****   *        protected against un-initialized filter and polarity values.
5231:Drivers/STM32F3xx_HAL_Driver/Src/stm32f3xx_hal_tim.c ****   * @retval None
5232:Drivers/STM32F3xx_HAL_Driver/Src/stm32f3xx_hal_tim.c ****   */
5233:Drivers/STM32F3xx_HAL_Driver/Src/stm32f3xx_hal_tim.c **** static void TIM_TI4_SetConfig(TIM_TypeDef *TIMx, uint32_t TIM_ICPolarity, uint32_t TIM_ICSelection,
5234:Drivers/STM32F3xx_HAL_Driver/Src/stm32f3xx_hal_tim.c ****                        uint32_t TIM_ICFilter)
5235:Drivers/STM32F3xx_HAL_Driver/Src/stm32f3xx_hal_tim.c **** {
 11484              		.loc 1 5235 0
ARM GAS  /tmp/ccZyKULX.s 			page 294


 11485              		.cfi_startproc
 11486              		@ args = 0, pretend = 0, frame = 24
 11487              		@ frame_needed = 1, uses_anonymous_args = 0
 11488              		@ link register save eliminated.
 11489 0000 80B4     		push	{r7}
 11490              	.LCFI306:
 11491              		.cfi_def_cfa_offset 4
 11492              		.cfi_offset 7, -4
 11493 0002 87B0     		sub	sp, sp, #28
 11494              	.LCFI307:
 11495              		.cfi_def_cfa_offset 32
 11496 0004 00AF     		add	r7, sp, #0
 11497              	.LCFI308:
 11498              		.cfi_def_cfa_register 7
 11499 0006 F860     		str	r0, [r7, #12]
 11500 0008 B960     		str	r1, [r7, #8]
 11501 000a 7A60     		str	r2, [r7, #4]
 11502 000c 3B60     		str	r3, [r7]
5236:Drivers/STM32F3xx_HAL_Driver/Src/stm32f3xx_hal_tim.c ****   uint32_t tmpccmr2 = 0;
 11503              		.loc 1 5236 0
 11504 000e 0023     		movs	r3, #0
 11505 0010 7B61     		str	r3, [r7, #20]
5237:Drivers/STM32F3xx_HAL_Driver/Src/stm32f3xx_hal_tim.c ****   uint32_t tmpccer = 0;
 11506              		.loc 1 5237 0
 11507 0012 0023     		movs	r3, #0
 11508 0014 3B61     		str	r3, [r7, #16]
5238:Drivers/STM32F3xx_HAL_Driver/Src/stm32f3xx_hal_tim.c **** 
5239:Drivers/STM32F3xx_HAL_Driver/Src/stm32f3xx_hal_tim.c ****   /* Disable the Channel 4: Reset the CC4E Bit */
5240:Drivers/STM32F3xx_HAL_Driver/Src/stm32f3xx_hal_tim.c ****   TIMx->CCER &= ~TIM_CCER_CC4E;
 11509              		.loc 1 5240 0
 11510 0016 FB68     		ldr	r3, [r7, #12]
 11511 0018 1B6A     		ldr	r3, [r3, #32]
 11512 001a 23F48052 		bic	r2, r3, #4096
 11513 001e FB68     		ldr	r3, [r7, #12]
 11514 0020 1A62     		str	r2, [r3, #32]
5241:Drivers/STM32F3xx_HAL_Driver/Src/stm32f3xx_hal_tim.c ****   tmpccmr2 = TIMx->CCMR2;
 11515              		.loc 1 5241 0
 11516 0022 FB68     		ldr	r3, [r7, #12]
 11517 0024 DB69     		ldr	r3, [r3, #28]
 11518 0026 7B61     		str	r3, [r7, #20]
5242:Drivers/STM32F3xx_HAL_Driver/Src/stm32f3xx_hal_tim.c ****   tmpccer = TIMx->CCER;
 11519              		.loc 1 5242 0
 11520 0028 FB68     		ldr	r3, [r7, #12]
 11521 002a 1B6A     		ldr	r3, [r3, #32]
 11522 002c 3B61     		str	r3, [r7, #16]
5243:Drivers/STM32F3xx_HAL_Driver/Src/stm32f3xx_hal_tim.c **** 
5244:Drivers/STM32F3xx_HAL_Driver/Src/stm32f3xx_hal_tim.c ****   /* Select the Input */
5245:Drivers/STM32F3xx_HAL_Driver/Src/stm32f3xx_hal_tim.c ****   tmpccmr2 &= ~TIM_CCMR2_CC4S;
 11523              		.loc 1 5245 0
 11524 002e 7B69     		ldr	r3, [r7, #20]
 11525 0030 23F44073 		bic	r3, r3, #768
 11526 0034 7B61     		str	r3, [r7, #20]
5246:Drivers/STM32F3xx_HAL_Driver/Src/stm32f3xx_hal_tim.c ****   tmpccmr2 |= (TIM_ICSelection << 8);
 11527              		.loc 1 5246 0
 11528 0036 7B68     		ldr	r3, [r7, #4]
 11529 0038 1B02     		lsls	r3, r3, #8
 11530 003a 7A69     		ldr	r2, [r7, #20]
ARM GAS  /tmp/ccZyKULX.s 			page 295


 11531 003c 1343     		orrs	r3, r3, r2
 11532 003e 7B61     		str	r3, [r7, #20]
5247:Drivers/STM32F3xx_HAL_Driver/Src/stm32f3xx_hal_tim.c **** 
5248:Drivers/STM32F3xx_HAL_Driver/Src/stm32f3xx_hal_tim.c ****   /* Set the filter */
5249:Drivers/STM32F3xx_HAL_Driver/Src/stm32f3xx_hal_tim.c ****   tmpccmr2 &= ~TIM_CCMR2_IC4F;
 11533              		.loc 1 5249 0
 11534 0040 7B69     		ldr	r3, [r7, #20]
 11535 0042 23F47043 		bic	r3, r3, #61440
 11536 0046 7B61     		str	r3, [r7, #20]
5250:Drivers/STM32F3xx_HAL_Driver/Src/stm32f3xx_hal_tim.c ****   tmpccmr2 |= ((TIM_ICFilter << 12) & TIM_CCMR2_IC4F);
 11537              		.loc 1 5250 0
 11538 0048 3B68     		ldr	r3, [r7]
 11539 004a 1B03     		lsls	r3, r3, #12
 11540 004c 9BB2     		uxth	r3, r3
 11541 004e 7A69     		ldr	r2, [r7, #20]
 11542 0050 1343     		orrs	r3, r3, r2
 11543 0052 7B61     		str	r3, [r7, #20]
5251:Drivers/STM32F3xx_HAL_Driver/Src/stm32f3xx_hal_tim.c **** 
5252:Drivers/STM32F3xx_HAL_Driver/Src/stm32f3xx_hal_tim.c ****   /* Select the Polarity and set the CC4E Bit */
5253:Drivers/STM32F3xx_HAL_Driver/Src/stm32f3xx_hal_tim.c ****   tmpccer &= ~(TIM_CCER_CC4P | TIM_CCER_CC4NP);
 11544              		.loc 1 5253 0
 11545 0054 3B69     		ldr	r3, [r7, #16]
 11546 0056 23F42043 		bic	r3, r3, #40960
 11547 005a 3B61     		str	r3, [r7, #16]
5254:Drivers/STM32F3xx_HAL_Driver/Src/stm32f3xx_hal_tim.c ****   tmpccer |= ((TIM_ICPolarity << 12) & (TIM_CCER_CC4P | TIM_CCER_CC4NP));
 11548              		.loc 1 5254 0
 11549 005c BB68     		ldr	r3, [r7, #8]
 11550 005e 1B03     		lsls	r3, r3, #12
 11551 0060 03F42043 		and	r3, r3, #40960
 11552 0064 3A69     		ldr	r2, [r7, #16]
 11553 0066 1343     		orrs	r3, r3, r2
 11554 0068 3B61     		str	r3, [r7, #16]
5255:Drivers/STM32F3xx_HAL_Driver/Src/stm32f3xx_hal_tim.c **** 
5256:Drivers/STM32F3xx_HAL_Driver/Src/stm32f3xx_hal_tim.c ****   /* Write to TIMx CCMR2 and CCER registers */
5257:Drivers/STM32F3xx_HAL_Driver/Src/stm32f3xx_hal_tim.c ****   TIMx->CCMR2 = tmpccmr2;
 11555              		.loc 1 5257 0
 11556 006a FB68     		ldr	r3, [r7, #12]
 11557 006c 7A69     		ldr	r2, [r7, #20]
 11558 006e DA61     		str	r2, [r3, #28]
5258:Drivers/STM32F3xx_HAL_Driver/Src/stm32f3xx_hal_tim.c ****   TIMx->CCER = tmpccer ;
 11559              		.loc 1 5258 0
 11560 0070 FB68     		ldr	r3, [r7, #12]
 11561 0072 3A69     		ldr	r2, [r7, #16]
 11562 0074 1A62     		str	r2, [r3, #32]
5259:Drivers/STM32F3xx_HAL_Driver/Src/stm32f3xx_hal_tim.c **** }
 11563              		.loc 1 5259 0
 11564 0076 1C37     		adds	r7, r7, #28
 11565 0078 BD46     		mov	sp, r7
 11566              		@ sp needed
 11567 007a 5DF8047B 		ldr	r7, [sp], #4
 11568 007e 7047     		bx	lr
 11569              		.cfi_endproc
 11570              	.LFE227:
 11572              		.section	.text.TIM_ITRx_SetConfig,"ax",%progbits
 11573              		.align	2
 11574              		.thumb
 11575              		.thumb_func
ARM GAS  /tmp/ccZyKULX.s 			page 296


 11577              	TIM_ITRx_SetConfig:
 11578              	.LFB228:
5260:Drivers/STM32F3xx_HAL_Driver/Src/stm32f3xx_hal_tim.c **** 
5261:Drivers/STM32F3xx_HAL_Driver/Src/stm32f3xx_hal_tim.c **** /**
5262:Drivers/STM32F3xx_HAL_Driver/Src/stm32f3xx_hal_tim.c ****   * @brief  Selects the Input Trigger source
5263:Drivers/STM32F3xx_HAL_Driver/Src/stm32f3xx_hal_tim.c ****   * @param  TIMx to select the TIM peripheral
5264:Drivers/STM32F3xx_HAL_Driver/Src/stm32f3xx_hal_tim.c ****   * @param  InputTriggerSource: The Input Trigger source.
5265:Drivers/STM32F3xx_HAL_Driver/Src/stm32f3xx_hal_tim.c ****   *          This parameter can be one of the following values:
5266:Drivers/STM32F3xx_HAL_Driver/Src/stm32f3xx_hal_tim.c ****   *            @arg TIM_TS_ITR0: Internal Trigger 0
5267:Drivers/STM32F3xx_HAL_Driver/Src/stm32f3xx_hal_tim.c ****   *            @arg TIM_TS_ITR1: Internal Trigger 1
5268:Drivers/STM32F3xx_HAL_Driver/Src/stm32f3xx_hal_tim.c ****   *            @arg TIM_TS_ITR2: Internal Trigger 2
5269:Drivers/STM32F3xx_HAL_Driver/Src/stm32f3xx_hal_tim.c ****   *            @arg TIM_TS_ITR3: Internal Trigger 3
5270:Drivers/STM32F3xx_HAL_Driver/Src/stm32f3xx_hal_tim.c ****   *            @arg TIM_TS_TI1F_ED: TI1 Edge Detector
5271:Drivers/STM32F3xx_HAL_Driver/Src/stm32f3xx_hal_tim.c ****   *            @arg TIM_TS_TI1FP1: Filtered Timer Input 1
5272:Drivers/STM32F3xx_HAL_Driver/Src/stm32f3xx_hal_tim.c ****   *            @arg TIM_TS_TI2FP2: Filtered Timer Input 2
5273:Drivers/STM32F3xx_HAL_Driver/Src/stm32f3xx_hal_tim.c ****   *            @arg TIM_TS_ETRF: External Trigger input
5274:Drivers/STM32F3xx_HAL_Driver/Src/stm32f3xx_hal_tim.c ****   * @retval None
5275:Drivers/STM32F3xx_HAL_Driver/Src/stm32f3xx_hal_tim.c ****   */
5276:Drivers/STM32F3xx_HAL_Driver/Src/stm32f3xx_hal_tim.c **** static void TIM_ITRx_SetConfig(TIM_TypeDef *TIMx, uint16_t InputTriggerSource)
5277:Drivers/STM32F3xx_HAL_Driver/Src/stm32f3xx_hal_tim.c **** {
 11579              		.loc 1 5277 0
 11580              		.cfi_startproc
 11581              		@ args = 0, pretend = 0, frame = 16
 11582              		@ frame_needed = 1, uses_anonymous_args = 0
 11583              		@ link register save eliminated.
 11584 0000 80B4     		push	{r7}
 11585              	.LCFI309:
 11586              		.cfi_def_cfa_offset 4
 11587              		.cfi_offset 7, -4
 11588 0002 85B0     		sub	sp, sp, #20
 11589              	.LCFI310:
 11590              		.cfi_def_cfa_offset 24
 11591 0004 00AF     		add	r7, sp, #0
 11592              	.LCFI311:
 11593              		.cfi_def_cfa_register 7
 11594 0006 7860     		str	r0, [r7, #4]
 11595 0008 0B46     		mov	r3, r1
 11596 000a 7B80     		strh	r3, [r7, #2]	@ movhi
5278:Drivers/STM32F3xx_HAL_Driver/Src/stm32f3xx_hal_tim.c ****   uint32_t tmpsmcr = 0;
 11597              		.loc 1 5278 0
 11598 000c 0023     		movs	r3, #0
 11599 000e FB60     		str	r3, [r7, #12]
5279:Drivers/STM32F3xx_HAL_Driver/Src/stm32f3xx_hal_tim.c ****   
5280:Drivers/STM32F3xx_HAL_Driver/Src/stm32f3xx_hal_tim.c ****    /* Get the TIMx SMCR register value */
5281:Drivers/STM32F3xx_HAL_Driver/Src/stm32f3xx_hal_tim.c ****    tmpsmcr = TIMx->SMCR;
 11600              		.loc 1 5281 0
 11601 0010 7B68     		ldr	r3, [r7, #4]
 11602 0012 9B68     		ldr	r3, [r3, #8]
 11603 0014 FB60     		str	r3, [r7, #12]
5282:Drivers/STM32F3xx_HAL_Driver/Src/stm32f3xx_hal_tim.c ****    /* Reset the TS Bits */
5283:Drivers/STM32F3xx_HAL_Driver/Src/stm32f3xx_hal_tim.c ****    tmpsmcr &= ~TIM_SMCR_TS;
 11604              		.loc 1 5283 0
 11605 0016 FB68     		ldr	r3, [r7, #12]
 11606 0018 23F07003 		bic	r3, r3, #112
 11607 001c FB60     		str	r3, [r7, #12]
5284:Drivers/STM32F3xx_HAL_Driver/Src/stm32f3xx_hal_tim.c ****    /* Set the Input Trigger source and the slave mode*/
5285:Drivers/STM32F3xx_HAL_Driver/Src/stm32f3xx_hal_tim.c ****    tmpsmcr |= InputTriggerSource | TIM_SLAVEMODE_EXTERNAL1;
ARM GAS  /tmp/ccZyKULX.s 			page 297


 11608              		.loc 1 5285 0
 11609 001e 7B88     		ldrh	r3, [r7, #2]	@ movhi
 11610 0020 43F00703 		orr	r3, r3, #7
 11611 0024 9BB2     		uxth	r3, r3
 11612 0026 FA68     		ldr	r2, [r7, #12]
 11613 0028 1343     		orrs	r3, r3, r2
 11614 002a FB60     		str	r3, [r7, #12]
5286:Drivers/STM32F3xx_HAL_Driver/Src/stm32f3xx_hal_tim.c ****    /* Write to TIMx SMCR */
5287:Drivers/STM32F3xx_HAL_Driver/Src/stm32f3xx_hal_tim.c ****    TIMx->SMCR = tmpsmcr;
 11615              		.loc 1 5287 0
 11616 002c 7B68     		ldr	r3, [r7, #4]
 11617 002e FA68     		ldr	r2, [r7, #12]
 11618 0030 9A60     		str	r2, [r3, #8]
5288:Drivers/STM32F3xx_HAL_Driver/Src/stm32f3xx_hal_tim.c **** }
 11619              		.loc 1 5288 0
 11620 0032 1437     		adds	r7, r7, #20
 11621 0034 BD46     		mov	sp, r7
 11622              		@ sp needed
 11623 0036 5DF8047B 		ldr	r7, [sp], #4
 11624 003a 7047     		bx	lr
 11625              		.cfi_endproc
 11626              	.LFE228:
 11628              		.section	.text.TIM_ETR_SetConfig,"ax",%progbits
 11629              		.align	2
 11630              		.global	TIM_ETR_SetConfig
 11631              		.thumb
 11632              		.thumb_func
 11634              	TIM_ETR_SetConfig:
 11635              	.LFB229:
5289:Drivers/STM32F3xx_HAL_Driver/Src/stm32f3xx_hal_tim.c **** /**
5290:Drivers/STM32F3xx_HAL_Driver/Src/stm32f3xx_hal_tim.c ****   * @brief  Configures the TIMx External Trigger (ETR).
5291:Drivers/STM32F3xx_HAL_Driver/Src/stm32f3xx_hal_tim.c ****   * @param  TIMx to select the TIM peripheral
5292:Drivers/STM32F3xx_HAL_Driver/Src/stm32f3xx_hal_tim.c ****   * @param  TIM_ExtTRGPrescaler: The external Trigger Prescaler.
5293:Drivers/STM32F3xx_HAL_Driver/Src/stm32f3xx_hal_tim.c ****   *          This parameter can be one of the following values:
5294:Drivers/STM32F3xx_HAL_Driver/Src/stm32f3xx_hal_tim.c ****   *            @arg TIM_ETRPRESCALER_DIV1 : ETRP Prescaler OFF.
5295:Drivers/STM32F3xx_HAL_Driver/Src/stm32f3xx_hal_tim.c ****   *            @arg TIM_ETRPRESCALER_DIV2 : ETRP frequency divided by 2.
5296:Drivers/STM32F3xx_HAL_Driver/Src/stm32f3xx_hal_tim.c ****   *            @arg TIM_ETRPRESCALER_DIV4 : ETRP frequency divided by 4.
5297:Drivers/STM32F3xx_HAL_Driver/Src/stm32f3xx_hal_tim.c ****   *            @arg TIM_ETRPRESCALER_DIV8 : ETRP frequency divided by 8.
5298:Drivers/STM32F3xx_HAL_Driver/Src/stm32f3xx_hal_tim.c ****   * @param  TIM_ExtTRGPolarity: The external Trigger Polarity.
5299:Drivers/STM32F3xx_HAL_Driver/Src/stm32f3xx_hal_tim.c ****   *          This parameter can be one of the following values:
5300:Drivers/STM32F3xx_HAL_Driver/Src/stm32f3xx_hal_tim.c ****   *            @arg TIM_ETRPOLARITY_INVERTED : active low or falling edge active.
5301:Drivers/STM32F3xx_HAL_Driver/Src/stm32f3xx_hal_tim.c ****   *            @arg TIM_ETRPOLARITY_NONINVERTED : active high or rising edge active.
5302:Drivers/STM32F3xx_HAL_Driver/Src/stm32f3xx_hal_tim.c ****   * @param  ExtTRGFilter: External Trigger Filter.
5303:Drivers/STM32F3xx_HAL_Driver/Src/stm32f3xx_hal_tim.c ****   *          This parameter must be a value between 0x00 and 0x0F
5304:Drivers/STM32F3xx_HAL_Driver/Src/stm32f3xx_hal_tim.c ****   * @retval None
5305:Drivers/STM32F3xx_HAL_Driver/Src/stm32f3xx_hal_tim.c ****   */
5306:Drivers/STM32F3xx_HAL_Driver/Src/stm32f3xx_hal_tim.c **** void TIM_ETR_SetConfig(TIM_TypeDef* TIMx, uint32_t TIM_ExtTRGPrescaler,
5307:Drivers/STM32F3xx_HAL_Driver/Src/stm32f3xx_hal_tim.c ****                        uint32_t TIM_ExtTRGPolarity, uint32_t ExtTRGFilter)
5308:Drivers/STM32F3xx_HAL_Driver/Src/stm32f3xx_hal_tim.c **** {
 11636              		.loc 1 5308 0
 11637              		.cfi_startproc
 11638              		@ args = 0, pretend = 0, frame = 24
 11639              		@ frame_needed = 1, uses_anonymous_args = 0
 11640              		@ link register save eliminated.
 11641 0000 80B4     		push	{r7}
 11642              	.LCFI312:
 11643              		.cfi_def_cfa_offset 4
ARM GAS  /tmp/ccZyKULX.s 			page 298


 11644              		.cfi_offset 7, -4
 11645 0002 87B0     		sub	sp, sp, #28
 11646              	.LCFI313:
 11647              		.cfi_def_cfa_offset 32
 11648 0004 00AF     		add	r7, sp, #0
 11649              	.LCFI314:
 11650              		.cfi_def_cfa_register 7
 11651 0006 F860     		str	r0, [r7, #12]
 11652 0008 B960     		str	r1, [r7, #8]
 11653 000a 7A60     		str	r2, [r7, #4]
 11654 000c 3B60     		str	r3, [r7]
5309:Drivers/STM32F3xx_HAL_Driver/Src/stm32f3xx_hal_tim.c ****   uint32_t tmpsmcr = 0;
 11655              		.loc 1 5309 0
 11656 000e 0023     		movs	r3, #0
 11657 0010 7B61     		str	r3, [r7, #20]
5310:Drivers/STM32F3xx_HAL_Driver/Src/stm32f3xx_hal_tim.c **** 
5311:Drivers/STM32F3xx_HAL_Driver/Src/stm32f3xx_hal_tim.c ****   tmpsmcr = TIMx->SMCR;
 11658              		.loc 1 5311 0
 11659 0012 FB68     		ldr	r3, [r7, #12]
 11660 0014 9B68     		ldr	r3, [r3, #8]
 11661 0016 7B61     		str	r3, [r7, #20]
5312:Drivers/STM32F3xx_HAL_Driver/Src/stm32f3xx_hal_tim.c **** 
5313:Drivers/STM32F3xx_HAL_Driver/Src/stm32f3xx_hal_tim.c ****   /* Reset the ETR Bits */
5314:Drivers/STM32F3xx_HAL_Driver/Src/stm32f3xx_hal_tim.c ****   tmpsmcr &= ~(TIM_SMCR_ETF | TIM_SMCR_ETPS | TIM_SMCR_ECE | TIM_SMCR_ETP);
 11662              		.loc 1 5314 0
 11663 0018 7B69     		ldr	r3, [r7, #20]
 11664 001a 23F47F43 		bic	r3, r3, #65280
 11665 001e 7B61     		str	r3, [r7, #20]
5315:Drivers/STM32F3xx_HAL_Driver/Src/stm32f3xx_hal_tim.c **** 
5316:Drivers/STM32F3xx_HAL_Driver/Src/stm32f3xx_hal_tim.c ****   /* Set the Prescaler, the Filter value and the Polarity */
5317:Drivers/STM32F3xx_HAL_Driver/Src/stm32f3xx_hal_tim.c ****   tmpsmcr |= (uint32_t)(TIM_ExtTRGPrescaler | (TIM_ExtTRGPolarity | (ExtTRGFilter << 8)));
 11666              		.loc 1 5317 0
 11667 0020 3B68     		ldr	r3, [r7]
 11668 0022 1A02     		lsls	r2, r3, #8
 11669 0024 7B68     		ldr	r3, [r7, #4]
 11670 0026 1A43     		orrs	r2, r2, r3
 11671 0028 BB68     		ldr	r3, [r7, #8]
 11672 002a 1343     		orrs	r3, r3, r2
 11673 002c 7A69     		ldr	r2, [r7, #20]
 11674 002e 1343     		orrs	r3, r3, r2
 11675 0030 7B61     		str	r3, [r7, #20]
5318:Drivers/STM32F3xx_HAL_Driver/Src/stm32f3xx_hal_tim.c **** 
5319:Drivers/STM32F3xx_HAL_Driver/Src/stm32f3xx_hal_tim.c ****   /* Write to TIMx SMCR */
5320:Drivers/STM32F3xx_HAL_Driver/Src/stm32f3xx_hal_tim.c ****   TIMx->SMCR = tmpsmcr;
 11676              		.loc 1 5320 0
 11677 0032 FB68     		ldr	r3, [r7, #12]
 11678 0034 7A69     		ldr	r2, [r7, #20]
 11679 0036 9A60     		str	r2, [r3, #8]
5321:Drivers/STM32F3xx_HAL_Driver/Src/stm32f3xx_hal_tim.c **** } 
 11680              		.loc 1 5321 0
 11681 0038 1C37     		adds	r7, r7, #28
 11682 003a BD46     		mov	sp, r7
 11683              		@ sp needed
 11684 003c 5DF8047B 		ldr	r7, [sp], #4
 11685 0040 7047     		bx	lr
 11686              		.cfi_endproc
 11687              	.LFE229:
ARM GAS  /tmp/ccZyKULX.s 			page 299


 11689 0042 00BF     		.section	.text.TIM_CCxChannelCmd,"ax",%progbits
 11690              		.align	2
 11691              		.global	TIM_CCxChannelCmd
 11692              		.thumb
 11693              		.thumb_func
 11695              	TIM_CCxChannelCmd:
 11696              	.LFB230:
5322:Drivers/STM32F3xx_HAL_Driver/Src/stm32f3xx_hal_tim.c **** 
5323:Drivers/STM32F3xx_HAL_Driver/Src/stm32f3xx_hal_tim.c **** /**
5324:Drivers/STM32F3xx_HAL_Driver/Src/stm32f3xx_hal_tim.c ****   * @brief  Enables or disables the TIM Capture Compare Channel x.
5325:Drivers/STM32F3xx_HAL_Driver/Src/stm32f3xx_hal_tim.c ****   * @param  TIMx to select the TIM peripheral
5326:Drivers/STM32F3xx_HAL_Driver/Src/stm32f3xx_hal_tim.c ****   * @param  Channel: specifies the TIM Channel
5327:Drivers/STM32F3xx_HAL_Driver/Src/stm32f3xx_hal_tim.c ****   *          This parameter can be one of the following values:
5328:Drivers/STM32F3xx_HAL_Driver/Src/stm32f3xx_hal_tim.c ****   *            @arg TIM_CHANNEL_1: TIM Channel 1
5329:Drivers/STM32F3xx_HAL_Driver/Src/stm32f3xx_hal_tim.c ****   *            @arg TIM_CHANNEL_2: TIM Channel 2
5330:Drivers/STM32F3xx_HAL_Driver/Src/stm32f3xx_hal_tim.c ****   *            @arg TIM_CHANNEL_3: TIM Channel 3
5331:Drivers/STM32F3xx_HAL_Driver/Src/stm32f3xx_hal_tim.c ****   *            @arg TIM_CHANNEL_4: TIM Channel 4
5332:Drivers/STM32F3xx_HAL_Driver/Src/stm32f3xx_hal_tim.c ****   * @param  ChannelState: specifies the TIM Channel CCxE bit new state.
5333:Drivers/STM32F3xx_HAL_Driver/Src/stm32f3xx_hal_tim.c ****   *          This parameter can be: TIM_CCx_ENABLE or TIM_CCx_Disable. 
5334:Drivers/STM32F3xx_HAL_Driver/Src/stm32f3xx_hal_tim.c ****   * @retval None
5335:Drivers/STM32F3xx_HAL_Driver/Src/stm32f3xx_hal_tim.c ****   */
5336:Drivers/STM32F3xx_HAL_Driver/Src/stm32f3xx_hal_tim.c **** void TIM_CCxChannelCmd(TIM_TypeDef* TIMx, uint32_t Channel, uint32_t ChannelState)
5337:Drivers/STM32F3xx_HAL_Driver/Src/stm32f3xx_hal_tim.c **** {
 11697              		.loc 1 5337 0
 11698              		.cfi_startproc
 11699              		@ args = 0, pretend = 0, frame = 24
 11700              		@ frame_needed = 1, uses_anonymous_args = 0
 11701              		@ link register save eliminated.
 11702 0000 80B4     		push	{r7}
 11703              	.LCFI315:
 11704              		.cfi_def_cfa_offset 4
 11705              		.cfi_offset 7, -4
 11706 0002 87B0     		sub	sp, sp, #28
 11707              	.LCFI316:
 11708              		.cfi_def_cfa_offset 32
 11709 0004 00AF     		add	r7, sp, #0
 11710              	.LCFI317:
 11711              		.cfi_def_cfa_register 7
 11712 0006 F860     		str	r0, [r7, #12]
 11713 0008 B960     		str	r1, [r7, #8]
 11714 000a 7A60     		str	r2, [r7, #4]
5338:Drivers/STM32F3xx_HAL_Driver/Src/stm32f3xx_hal_tim.c ****   uint32_t tmp = 0;
 11715              		.loc 1 5338 0
 11716 000c 0023     		movs	r3, #0
 11717 000e 7B61     		str	r3, [r7, #20]
5339:Drivers/STM32F3xx_HAL_Driver/Src/stm32f3xx_hal_tim.c **** 
5340:Drivers/STM32F3xx_HAL_Driver/Src/stm32f3xx_hal_tim.c ****   /* Check the parameters */
5341:Drivers/STM32F3xx_HAL_Driver/Src/stm32f3xx_hal_tim.c ****   assert_param(IS_TIM_CC1_INSTANCE(TIMx)); 
5342:Drivers/STM32F3xx_HAL_Driver/Src/stm32f3xx_hal_tim.c ****   assert_param(IS_TIM_CHANNELS(Channel));
5343:Drivers/STM32F3xx_HAL_Driver/Src/stm32f3xx_hal_tim.c **** 
5344:Drivers/STM32F3xx_HAL_Driver/Src/stm32f3xx_hal_tim.c ****   tmp = TIM_CCER_CC1E << Channel;
 11718              		.loc 1 5344 0
 11719 0010 BB68     		ldr	r3, [r7, #8]
 11720 0012 0122     		movs	r2, #1
 11721 0014 02FA03F3 		lsl	r3, r2, r3
 11722 0018 7B61     		str	r3, [r7, #20]
5345:Drivers/STM32F3xx_HAL_Driver/Src/stm32f3xx_hal_tim.c **** 
ARM GAS  /tmp/ccZyKULX.s 			page 300


5346:Drivers/STM32F3xx_HAL_Driver/Src/stm32f3xx_hal_tim.c ****   /* Reset the CCxE Bit */
5347:Drivers/STM32F3xx_HAL_Driver/Src/stm32f3xx_hal_tim.c ****   TIMx->CCER &= ~tmp;
 11723              		.loc 1 5347 0
 11724 001a FB68     		ldr	r3, [r7, #12]
 11725 001c 1A6A     		ldr	r2, [r3, #32]
 11726 001e 7B69     		ldr	r3, [r7, #20]
 11727 0020 DB43     		mvns	r3, r3
 11728 0022 1A40     		ands	r2, r2, r3
 11729 0024 FB68     		ldr	r3, [r7, #12]
 11730 0026 1A62     		str	r2, [r3, #32]
5348:Drivers/STM32F3xx_HAL_Driver/Src/stm32f3xx_hal_tim.c **** 
5349:Drivers/STM32F3xx_HAL_Driver/Src/stm32f3xx_hal_tim.c ****   /* Set or reset the CCxE Bit */ 
5350:Drivers/STM32F3xx_HAL_Driver/Src/stm32f3xx_hal_tim.c ****   TIMx->CCER |=  (uint32_t)(ChannelState << Channel);
 11731              		.loc 1 5350 0
 11732 0028 FB68     		ldr	r3, [r7, #12]
 11733 002a 1A6A     		ldr	r2, [r3, #32]
 11734 002c BB68     		ldr	r3, [r7, #8]
 11735 002e 7968     		ldr	r1, [r7, #4]
 11736 0030 01FA03F3 		lsl	r3, r1, r3
 11737 0034 1A43     		orrs	r2, r2, r3
 11738 0036 FB68     		ldr	r3, [r7, #12]
 11739 0038 1A62     		str	r2, [r3, #32]
5351:Drivers/STM32F3xx_HAL_Driver/Src/stm32f3xx_hal_tim.c **** }
 11740              		.loc 1 5351 0
 11741 003a 1C37     		adds	r7, r7, #28
 11742 003c BD46     		mov	sp, r7
 11743              		@ sp needed
 11744 003e 5DF8047B 		ldr	r7, [sp], #4
 11745 0042 7047     		bx	lr
 11746              		.cfi_endproc
 11747              	.LFE230:
 11749              		.text
 11750              	.Letext0:
 11751              		.file 2 "/usr/include/newlib/machine/_default_types.h"
 11752              		.file 3 "/usr/include/newlib/stdint.h"
 11753              		.file 4 "Drivers/CMSIS/Device/ST/STM32F3xx/Include/stm32f303xc.h"
 11754              		.file 5 "Drivers/CMSIS/Device/ST/STM32F3xx/Include/stm32f3xx.h"
 11755              		.file 6 "Drivers/STM32F3xx_HAL_Driver/Inc/stm32f3xx_hal_def.h"
 11756              		.file 7 "Drivers/STM32F3xx_HAL_Driver/Inc/stm32f3xx_hal_dma.h"
 11757              		.file 8 "Drivers/STM32F3xx_HAL_Driver/Inc/stm32f3xx_hal_tim.h"
 11758              		.file 9 "Drivers/CMSIS/Include/core_cm4.h"
ARM GAS  /tmp/ccZyKULX.s 			page 301


DEFINED SYMBOLS
                            *ABS*:0000000000000000 stm32f3xx_hal_tim.c
     /tmp/ccZyKULX.s:21     .text.HAL_TIM_Base_Init:0000000000000000 $t
     /tmp/ccZyKULX.s:26     .text.HAL_TIM_Base_Init:0000000000000000 HAL_TIM_Base_Init
     /tmp/ccZyKULX.s:175    .text.HAL_TIM_Base_MspInit:0000000000000000 HAL_TIM_Base_MspInit
     /tmp/ccZyKULX.s:9894   .text.TIM_Base_SetConfig:0000000000000000 TIM_Base_SetConfig
     /tmp/ccZyKULX.s:96     .text.HAL_TIM_Base_DeInit:0000000000000000 $t
     /tmp/ccZyKULX.s:101    .text.HAL_TIM_Base_DeInit:0000000000000000 HAL_TIM_Base_DeInit
     /tmp/ccZyKULX.s:208    .text.HAL_TIM_Base_MspDeInit:0000000000000000 HAL_TIM_Base_MspDeInit
     /tmp/ccZyKULX.s:170    .text.HAL_TIM_Base_MspInit:0000000000000000 $t
     /tmp/ccZyKULX.s:203    .text.HAL_TIM_Base_MspDeInit:0000000000000000 $t
     /tmp/ccZyKULX.s:236    .text.HAL_TIM_Base_Start:0000000000000000 $t
     /tmp/ccZyKULX.s:241    .text.HAL_TIM_Base_Start:0000000000000000 HAL_TIM_Base_Start
     /tmp/ccZyKULX.s:288    .text.HAL_TIM_Base_Stop:0000000000000000 $t
     /tmp/ccZyKULX.s:293    .text.HAL_TIM_Base_Stop:0000000000000000 HAL_TIM_Base_Stop
     /tmp/ccZyKULX.s:356    .text.HAL_TIM_Base_Start_IT:0000000000000000 $t
     /tmp/ccZyKULX.s:361    .text.HAL_TIM_Base_Start_IT:0000000000000000 HAL_TIM_Base_Start_IT
     /tmp/ccZyKULX.s:408    .text.HAL_TIM_Base_Stop_IT:0000000000000000 $t
     /tmp/ccZyKULX.s:413    .text.HAL_TIM_Base_Stop_IT:0000000000000000 HAL_TIM_Base_Stop_IT
     /tmp/ccZyKULX.s:476    .text.HAL_TIM_Base_Start_DMA:0000000000000000 $t
     /tmp/ccZyKULX.s:481    .text.HAL_TIM_Base_Start_DMA:0000000000000000 HAL_TIM_Base_Start_DMA
     /tmp/ccZyKULX.s:583    .text.HAL_TIM_Base_Start_DMA:0000000000000090 $d
     /tmp/ccZyKULX.s:9809   .text.TIM_DMAPeriodElapsedCplt:0000000000000000 TIM_DMAPeriodElapsedCplt
     /tmp/ccZyKULX.s:9579   .text.TIM_DMAError:0000000000000000 TIM_DMAError
     /tmp/ccZyKULX.s:589    .text.HAL_TIM_Base_Stop_DMA:0000000000000000 $t
     /tmp/ccZyKULX.s:594    .text.HAL_TIM_Base_Stop_DMA:0000000000000000 HAL_TIM_Base_Stop_DMA
     /tmp/ccZyKULX.s:661    .text.HAL_TIM_OC_Init:0000000000000000 $t
     /tmp/ccZyKULX.s:666    .text.HAL_TIM_OC_Init:0000000000000000 HAL_TIM_OC_Init
     /tmp/ccZyKULX.s:814    .text.HAL_TIM_OC_MspInit:0000000000000000 HAL_TIM_OC_MspInit
     /tmp/ccZyKULX.s:735    .text.HAL_TIM_OC_DeInit:0000000000000000 $t
     /tmp/ccZyKULX.s:740    .text.HAL_TIM_OC_DeInit:0000000000000000 HAL_TIM_OC_DeInit
     /tmp/ccZyKULX.s:847    .text.HAL_TIM_OC_MspDeInit:0000000000000000 HAL_TIM_OC_MspDeInit
     /tmp/ccZyKULX.s:809    .text.HAL_TIM_OC_MspInit:0000000000000000 $t
     /tmp/ccZyKULX.s:842    .text.HAL_TIM_OC_MspDeInit:0000000000000000 $t
     /tmp/ccZyKULX.s:875    .text.HAL_TIM_OC_Start:0000000000000000 $t
     /tmp/ccZyKULX.s:880    .text.HAL_TIM_OC_Start:0000000000000000 HAL_TIM_OC_Start
     /tmp/ccZyKULX.s:11695  .text.TIM_CCxChannelCmd:0000000000000000 TIM_CCxChannelCmd
     /tmp/ccZyKULX.s:972    .text.HAL_TIM_OC_Start:0000000000000080 $d
     /tmp/ccZyKULX.s:981    .text.HAL_TIM_OC_Stop:0000000000000000 $t
     /tmp/ccZyKULX.s:986    .text.HAL_TIM_OC_Stop:0000000000000000 HAL_TIM_OC_Stop
     /tmp/ccZyKULX.s:1109   .text.HAL_TIM_OC_Stop:00000000000000c0 $d
     /tmp/ccZyKULX.s:1118   .text.HAL_TIM_OC_Start_IT:0000000000000000 $t
     /tmp/ccZyKULX.s:1123   .text.HAL_TIM_OC_Start_IT:0000000000000000 HAL_TIM_OC_Start_IT
     /tmp/ccZyKULX.s:1150   .text.HAL_TIM_OC_Start_IT:0000000000000018 $d
     /tmp/ccZyKULX.s:1163   .text.HAL_TIM_OC_Start_IT:000000000000004c $t
     /tmp/ccZyKULX.s:1285   .text.HAL_TIM_OC_Start_IT:000000000000010c $d
     /tmp/ccZyKULX.s:1294   .text.HAL_TIM_OC_Stop_IT:0000000000000000 $t
     /tmp/ccZyKULX.s:1299   .text.HAL_TIM_OC_Stop_IT:0000000000000000 HAL_TIM_OC_Stop_IT
     /tmp/ccZyKULX.s:1326   .text.HAL_TIM_OC_Stop_IT:0000000000000018 $d
     /tmp/ccZyKULX.s:1339   .text.HAL_TIM_OC_Stop_IT:000000000000004c $t
     /tmp/ccZyKULX.s:1492   .text.HAL_TIM_OC_Stop_IT:000000000000014c $d
     /tmp/ccZyKULX.s:1501   .text.HAL_TIM_OC_Start_DMA:0000000000000000 $t
     /tmp/ccZyKULX.s:1506   .text.HAL_TIM_OC_Start_DMA:0000000000000000 HAL_TIM_OC_Start_DMA
     /tmp/ccZyKULX.s:1568   .text.HAL_TIM_OC_Start_DMA:0000000000000050 $d
     /tmp/ccZyKULX.s:1581   .text.HAL_TIM_OC_Start_DMA:0000000000000084 $t
     /tmp/ccZyKULX.s:1784   .text.HAL_TIM_OC_Start_DMA:00000000000001d4 $d
     /tmp/ccZyKULX.s:9622   .text.TIM_DMADelayPulseCplt:0000000000000000 TIM_DMADelayPulseCplt
ARM GAS  /tmp/ccZyKULX.s 			page 302


     /tmp/ccZyKULX.s:1795   .text.HAL_TIM_OC_Stop_DMA:0000000000000000 $t
     /tmp/ccZyKULX.s:1800   .text.HAL_TIM_OC_Stop_DMA:0000000000000000 HAL_TIM_OC_Stop_DMA
     /tmp/ccZyKULX.s:1827   .text.HAL_TIM_OC_Stop_DMA:0000000000000018 $d
     /tmp/ccZyKULX.s:1840   .text.HAL_TIM_OC_Stop_DMA:000000000000004c $t
     /tmp/ccZyKULX.s:1997   .text.HAL_TIM_OC_Stop_DMA:0000000000000154 $d
     /tmp/ccZyKULX.s:2006   .text.HAL_TIM_PWM_Init:0000000000000000 $t
     /tmp/ccZyKULX.s:2011   .text.HAL_TIM_PWM_Init:0000000000000000 HAL_TIM_PWM_Init
     /tmp/ccZyKULX.s:2159   .text.HAL_TIM_PWM_MspInit:0000000000000000 HAL_TIM_PWM_MspInit
     /tmp/ccZyKULX.s:2080   .text.HAL_TIM_PWM_DeInit:0000000000000000 $t
     /tmp/ccZyKULX.s:2085   .text.HAL_TIM_PWM_DeInit:0000000000000000 HAL_TIM_PWM_DeInit
     /tmp/ccZyKULX.s:2192   .text.HAL_TIM_PWM_MspDeInit:0000000000000000 HAL_TIM_PWM_MspDeInit
     /tmp/ccZyKULX.s:2154   .text.HAL_TIM_PWM_MspInit:0000000000000000 $t
     /tmp/ccZyKULX.s:2187   .text.HAL_TIM_PWM_MspDeInit:0000000000000000 $t
     /tmp/ccZyKULX.s:2220   .text.HAL_TIM_PWM_Start:0000000000000000 $t
     /tmp/ccZyKULX.s:2225   .text.HAL_TIM_PWM_Start:0000000000000000 HAL_TIM_PWM_Start
     /tmp/ccZyKULX.s:2317   .text.HAL_TIM_PWM_Start:0000000000000080 $d
     /tmp/ccZyKULX.s:2326   .text.HAL_TIM_PWM_Stop:0000000000000000 $t
     /tmp/ccZyKULX.s:2331   .text.HAL_TIM_PWM_Stop:0000000000000000 HAL_TIM_PWM_Stop
     /tmp/ccZyKULX.s:2458   .text.HAL_TIM_PWM_Stop:00000000000000c8 $d
     /tmp/ccZyKULX.s:2467   .text.HAL_TIM_PWM_Start_IT:0000000000000000 $t
     /tmp/ccZyKULX.s:2472   .text.HAL_TIM_PWM_Start_IT:0000000000000000 HAL_TIM_PWM_Start_IT
     /tmp/ccZyKULX.s:2499   .text.HAL_TIM_PWM_Start_IT:0000000000000018 $d
     /tmp/ccZyKULX.s:2512   .text.HAL_TIM_PWM_Start_IT:000000000000004c $t
     /tmp/ccZyKULX.s:2634   .text.HAL_TIM_PWM_Start_IT:000000000000010c $d
     /tmp/ccZyKULX.s:2643   .text.HAL_TIM_PWM_Stop_IT:0000000000000000 $t
     /tmp/ccZyKULX.s:2648   .text.HAL_TIM_PWM_Stop_IT:0000000000000000 HAL_TIM_PWM_Stop_IT
     /tmp/ccZyKULX.s:2675   .text.HAL_TIM_PWM_Stop_IT:0000000000000018 $d
     /tmp/ccZyKULX.s:2688   .text.HAL_TIM_PWM_Stop_IT:000000000000004c $t
     /tmp/ccZyKULX.s:2841   .text.HAL_TIM_PWM_Stop_IT:000000000000014c $d
     /tmp/ccZyKULX.s:2850   .text.HAL_TIM_PWM_Start_DMA:0000000000000000 $t
     /tmp/ccZyKULX.s:2855   .text.HAL_TIM_PWM_Start_DMA:0000000000000000 HAL_TIM_PWM_Start_DMA
     /tmp/ccZyKULX.s:2917   .text.HAL_TIM_PWM_Start_DMA:0000000000000050 $d
     /tmp/ccZyKULX.s:2930   .text.HAL_TIM_PWM_Start_DMA:0000000000000084 $t
     /tmp/ccZyKULX.s:3133   .text.HAL_TIM_PWM_Start_DMA:00000000000001d4 $d
     /tmp/ccZyKULX.s:3144   .text.HAL_TIM_PWM_Stop_DMA:0000000000000000 $t
     /tmp/ccZyKULX.s:3149   .text.HAL_TIM_PWM_Stop_DMA:0000000000000000 HAL_TIM_PWM_Stop_DMA
     /tmp/ccZyKULX.s:3176   .text.HAL_TIM_PWM_Stop_DMA:0000000000000018 $d
     /tmp/ccZyKULX.s:3189   .text.HAL_TIM_PWM_Stop_DMA:000000000000004c $t
     /tmp/ccZyKULX.s:3346   .text.HAL_TIM_PWM_Stop_DMA:0000000000000154 $d
     /tmp/ccZyKULX.s:3355   .text.HAL_TIM_IC_Init:0000000000000000 $t
     /tmp/ccZyKULX.s:3360   .text.HAL_TIM_IC_Init:0000000000000000 HAL_TIM_IC_Init
     /tmp/ccZyKULX.s:3508   .text.HAL_TIM_IC_MspInit:0000000000000000 HAL_TIM_IC_MspInit
     /tmp/ccZyKULX.s:3429   .text.HAL_TIM_IC_DeInit:0000000000000000 $t
     /tmp/ccZyKULX.s:3434   .text.HAL_TIM_IC_DeInit:0000000000000000 HAL_TIM_IC_DeInit
     /tmp/ccZyKULX.s:3541   .text.HAL_TIM_IC_MspDeInit:0000000000000000 HAL_TIM_IC_MspDeInit
     /tmp/ccZyKULX.s:3503   .text.HAL_TIM_IC_MspInit:0000000000000000 $t
     /tmp/ccZyKULX.s:3536   .text.HAL_TIM_IC_MspDeInit:0000000000000000 $t
     /tmp/ccZyKULX.s:3569   .text.HAL_TIM_IC_Start:0000000000000000 $t
     /tmp/ccZyKULX.s:3574   .text.HAL_TIM_IC_Start:0000000000000000 HAL_TIM_IC_Start
     /tmp/ccZyKULX.s:3620   .text.HAL_TIM_IC_Stop:0000000000000000 $t
     /tmp/ccZyKULX.s:3625   .text.HAL_TIM_IC_Stop:0000000000000000 HAL_TIM_IC_Stop
     /tmp/ccZyKULX.s:3687   .text.HAL_TIM_IC_Start_IT:0000000000000000 $t
     /tmp/ccZyKULX.s:3692   .text.HAL_TIM_IC_Start_IT:0000000000000000 HAL_TIM_IC_Start_IT
     /tmp/ccZyKULX.s:3719   .text.HAL_TIM_IC_Start_IT:0000000000000018 $d
     /tmp/ccZyKULX.s:3732   .text.HAL_TIM_IC_Start_IT:000000000000004c $t
     /tmp/ccZyKULX.s:3808   .text.HAL_TIM_IC_Stop_IT:0000000000000000 $t
     /tmp/ccZyKULX.s:3813   .text.HAL_TIM_IC_Stop_IT:0000000000000000 HAL_TIM_IC_Stop_IT
ARM GAS  /tmp/ccZyKULX.s 			page 303


     /tmp/ccZyKULX.s:3840   .text.HAL_TIM_IC_Stop_IT:0000000000000018 $d
     /tmp/ccZyKULX.s:3853   .text.HAL_TIM_IC_Stop_IT:000000000000004c $t
     /tmp/ccZyKULX.s:3945   .text.HAL_TIM_IC_Start_DMA:0000000000000000 $t
     /tmp/ccZyKULX.s:3950   .text.HAL_TIM_IC_Start_DMA:0000000000000000 HAL_TIM_IC_Start_DMA
     /tmp/ccZyKULX.s:4012   .text.HAL_TIM_IC_Start_DMA:0000000000000050 $d
     /tmp/ccZyKULX.s:4025   .text.HAL_TIM_IC_Start_DMA:0000000000000084 $t
     /tmp/ccZyKULX.s:4181   .text.HAL_TIM_IC_Start_DMA:0000000000000188 $d
     /tmp/ccZyKULX.s:9716   .text.TIM_DMACaptureCplt:0000000000000000 TIM_DMACaptureCplt
     /tmp/ccZyKULX.s:4187   .text.HAL_TIM_IC_Stop_DMA:0000000000000000 $t
     /tmp/ccZyKULX.s:4192   .text.HAL_TIM_IC_Stop_DMA:0000000000000000 HAL_TIM_IC_Stop_DMA
     /tmp/ccZyKULX.s:4219   .text.HAL_TIM_IC_Stop_DMA:0000000000000018 $d
     /tmp/ccZyKULX.s:4232   .text.HAL_TIM_IC_Stop_DMA:000000000000004c $t
     /tmp/ccZyKULX.s:4328   .text.HAL_TIM_OnePulse_Init:0000000000000000 $t
     /tmp/ccZyKULX.s:4333   .text.HAL_TIM_OnePulse_Init:0000000000000000 HAL_TIM_OnePulse_Init
     /tmp/ccZyKULX.s:4499   .text.HAL_TIM_OnePulse_MspInit:0000000000000000 HAL_TIM_OnePulse_MspInit
     /tmp/ccZyKULX.s:4420   .text.HAL_TIM_OnePulse_DeInit:0000000000000000 $t
     /tmp/ccZyKULX.s:4425   .text.HAL_TIM_OnePulse_DeInit:0000000000000000 HAL_TIM_OnePulse_DeInit
     /tmp/ccZyKULX.s:4532   .text.HAL_TIM_OnePulse_MspDeInit:0000000000000000 HAL_TIM_OnePulse_MspDeInit
     /tmp/ccZyKULX.s:4494   .text.HAL_TIM_OnePulse_MspInit:0000000000000000 $t
     /tmp/ccZyKULX.s:4527   .text.HAL_TIM_OnePulse_MspDeInit:0000000000000000 $t
     /tmp/ccZyKULX.s:4560   .text.HAL_TIM_OnePulse_Start:0000000000000000 $t
     /tmp/ccZyKULX.s:4565   .text.HAL_TIM_OnePulse_Start:0000000000000000 HAL_TIM_OnePulse_Start
     /tmp/ccZyKULX.s:4656   .text.HAL_TIM_OnePulse_Start:000000000000007c $d
     /tmp/ccZyKULX.s:4665   .text.HAL_TIM_OnePulse_Stop:0000000000000000 $t
     /tmp/ccZyKULX.s:4670   .text.HAL_TIM_OnePulse_Stop:0000000000000000 HAL_TIM_OnePulse_Stop
     /tmp/ccZyKULX.s:4800   .text.HAL_TIM_OnePulse_Stop:00000000000000cc $d
     /tmp/ccZyKULX.s:4809   .text.HAL_TIM_OnePulse_Start_IT:0000000000000000 $t
     /tmp/ccZyKULX.s:4814   .text.HAL_TIM_OnePulse_Start_IT:0000000000000000 HAL_TIM_OnePulse_Start_IT
     /tmp/ccZyKULX.s:4921   .text.HAL_TIM_OnePulse_Start_IT:000000000000009c $d
     /tmp/ccZyKULX.s:4930   .text.HAL_TIM_OnePulse_Stop_IT:0000000000000000 $t
     /tmp/ccZyKULX.s:4935   .text.HAL_TIM_OnePulse_Stop_IT:0000000000000000 HAL_TIM_OnePulse_Stop_IT
     /tmp/ccZyKULX.s:5081   .text.HAL_TIM_OnePulse_Stop_IT:00000000000000ec $d
     /tmp/ccZyKULX.s:5090   .text.HAL_TIM_Encoder_Init:0000000000000000 $t
     /tmp/ccZyKULX.s:5095   .text.HAL_TIM_Encoder_Init:0000000000000000 HAL_TIM_Encoder_Init
     /tmp/ccZyKULX.s:5362   .text.HAL_TIM_Encoder_MspInit:0000000000000000 HAL_TIM_Encoder_MspInit
     /tmp/ccZyKULX.s:5283   .text.HAL_TIM_Encoder_DeInit:0000000000000000 $t
     /tmp/ccZyKULX.s:5288   .text.HAL_TIM_Encoder_DeInit:0000000000000000 HAL_TIM_Encoder_DeInit
     /tmp/ccZyKULX.s:5395   .text.HAL_TIM_Encoder_MspDeInit:0000000000000000 HAL_TIM_Encoder_MspDeInit
     /tmp/ccZyKULX.s:5357   .text.HAL_TIM_Encoder_MspInit:0000000000000000 $t
     /tmp/ccZyKULX.s:5390   .text.HAL_TIM_Encoder_MspDeInit:0000000000000000 $t
     /tmp/ccZyKULX.s:5423   .text.HAL_TIM_Encoder_Start:0000000000000000 $t
     /tmp/ccZyKULX.s:5428   .text.HAL_TIM_Encoder_Start:0000000000000000 HAL_TIM_Encoder_Start
     /tmp/ccZyKULX.s:5512   .text.HAL_TIM_Encoder_Stop:0000000000000000 $t
     /tmp/ccZyKULX.s:5517   .text.HAL_TIM_Encoder_Stop:0000000000000000 HAL_TIM_Encoder_Stop
     /tmp/ccZyKULX.s:5617   .text.HAL_TIM_Encoder_Start_IT:0000000000000000 $t
     /tmp/ccZyKULX.s:5622   .text.HAL_TIM_Encoder_Start_IT:0000000000000000 HAL_TIM_Encoder_Start_IT
     /tmp/ccZyKULX.s:5738   .text.HAL_TIM_Encoder_Stop_IT:0000000000000000 $t
     /tmp/ccZyKULX.s:5743   .text.HAL_TIM_Encoder_Stop_IT:0000000000000000 HAL_TIM_Encoder_Stop_IT
     /tmp/ccZyKULX.s:5875   .text.HAL_TIM_Encoder_Start_DMA:0000000000000000 $t
     /tmp/ccZyKULX.s:5880   .text.HAL_TIM_Encoder_Start_DMA:0000000000000000 HAL_TIM_Encoder_Start_DMA
     /tmp/ccZyKULX.s:6135   .text.HAL_TIM_Encoder_Start_DMA:00000000000001a0 $d
     /tmp/ccZyKULX.s:6141   .text.HAL_TIM_Encoder_Stop_DMA:0000000000000000 $t
     /tmp/ccZyKULX.s:6146   .text.HAL_TIM_Encoder_Stop_DMA:0000000000000000 HAL_TIM_Encoder_Stop_DMA
     /tmp/ccZyKULX.s:6278   .text.HAL_TIM_IRQHandler:0000000000000000 $t
     /tmp/ccZyKULX.s:6283   .text.HAL_TIM_IRQHandler:0000000000000000 HAL_TIM_IRQHandler
     /tmp/ccZyKULX.s:9219   .text.HAL_TIM_IC_CaptureCallback:0000000000000000 HAL_TIM_IC_CaptureCallback
     /tmp/ccZyKULX.s:9186   .text.HAL_TIM_OC_DelayElapsedCallback:0000000000000000 HAL_TIM_OC_DelayElapsedCallback
ARM GAS  /tmp/ccZyKULX.s 			page 304


     /tmp/ccZyKULX.s:9252   .text.HAL_TIM_PWM_PulseFinishedCallback:0000000000000000 HAL_TIM_PWM_PulseFinishedCallback
     /tmp/ccZyKULX.s:9153   .text.HAL_TIM_PeriodElapsedCallback:0000000000000000 HAL_TIM_PeriodElapsedCallback
     /tmp/ccZyKULX.s:9285   .text.HAL_TIM_TriggerCallback:0000000000000000 HAL_TIM_TriggerCallback
     /tmp/ccZyKULX.s:6590   .text.HAL_TIM_OC_ConfigChannel:0000000000000000 $t
     /tmp/ccZyKULX.s:6595   .text.HAL_TIM_OC_ConfigChannel:0000000000000000 HAL_TIM_OC_ConfigChannel
     /tmp/ccZyKULX.s:6640   .text.HAL_TIM_OC_ConfigChannel:0000000000000038 $d
     /tmp/ccZyKULX.s:6653   .text.HAL_TIM_OC_ConfigChannel:000000000000006c $t
     /tmp/ccZyKULX.s:10070  .text.TIM_OC1_SetConfig:0000000000000000 TIM_OC1_SetConfig
     /tmp/ccZyKULX.s:10263  .text.TIM_OC2_SetConfig:0000000000000000 TIM_OC2_SetConfig
     /tmp/ccZyKULX.s:10449  .text.TIM_OC3_SetConfig:0000000000000000 TIM_OC3_SetConfig
     /tmp/ccZyKULX.s:10634  .text.TIM_OC4_SetConfig:0000000000000000 TIM_OC4_SetConfig
     /tmp/ccZyKULX.s:6715   .text.HAL_TIM_IC_ConfigChannel:0000000000000000 $t
     /tmp/ccZyKULX.s:6720   .text.HAL_TIM_IC_ConfigChannel:0000000000000000 HAL_TIM_IC_ConfigChannel
     /tmp/ccZyKULX.s:10986  .text.TIM_TI1_SetConfig:0000000000000000 TIM_TI1_SetConfig
     /tmp/ccZyKULX.s:11211  .text.TIM_TI2_SetConfig:0000000000000000 TIM_TI2_SetConfig
     /tmp/ccZyKULX.s:11388  .text.TIM_TI3_SetConfig:0000000000000000 TIM_TI3_SetConfig
     /tmp/ccZyKULX.s:11482  .text.TIM_TI4_SetConfig:0000000000000000 TIM_TI4_SetConfig
     /tmp/ccZyKULX.s:6911   .text.HAL_TIM_PWM_ConfigChannel:0000000000000000 $t
     /tmp/ccZyKULX.s:6916   .text.HAL_TIM_PWM_ConfigChannel:0000000000000000 HAL_TIM_PWM_ConfigChannel
     /tmp/ccZyKULX.s:6961   .text.HAL_TIM_PWM_ConfigChannel:0000000000000038 $d
     /tmp/ccZyKULX.s:6974   .text.HAL_TIM_PWM_ConfigChannel:000000000000006c $t
     /tmp/ccZyKULX.s:7142   .text.HAL_TIM_OnePulse_ConfigChannel:0000000000000000 $t
     /tmp/ccZyKULX.s:7147   .text.HAL_TIM_OnePulse_ConfigChannel:0000000000000000 HAL_TIM_OnePulse_ConfigChannel
     /tmp/ccZyKULX.s:7385   .text.HAL_TIM_DMABurst_WriteStart:0000000000000000 $t
     /tmp/ccZyKULX.s:7390   .text.HAL_TIM_DMABurst_WriteStart:0000000000000000 HAL_TIM_DMABurst_WriteStart
     /tmp/ccZyKULX.s:7676   .text.HAL_TIM_DMABurst_WriteStart:00000000000001d0 $d
     /tmp/ccZyKULX.s:9851   .text.TIM_DMATriggerCplt:0000000000000000 TIM_DMATriggerCplt
     /tmp/ccZyKULX.s:7685   .text.HAL_TIM_DMABurst_WriteStop:0000000000000000 $t
     /tmp/ccZyKULX.s:7690   .text.HAL_TIM_DMABurst_WriteStop:0000000000000000 HAL_TIM_DMABurst_WriteStop
     /tmp/ccZyKULX.s:7812   .text.HAL_TIM_DMABurst_ReadStart:0000000000000000 $t
     /tmp/ccZyKULX.s:7817   .text.HAL_TIM_DMABurst_ReadStart:0000000000000000 HAL_TIM_DMABurst_ReadStart
     /tmp/ccZyKULX.s:8103   .text.HAL_TIM_DMABurst_ReadStart:00000000000001d0 $d
     /tmp/ccZyKULX.s:8112   .text.HAL_TIM_DMABurst_ReadStop:0000000000000000 $t
     /tmp/ccZyKULX.s:8117   .text.HAL_TIM_DMABurst_ReadStop:0000000000000000 HAL_TIM_DMABurst_ReadStop
     /tmp/ccZyKULX.s:8239   .text.HAL_TIM_GenerateEvent:0000000000000000 $t
     /tmp/ccZyKULX.s:8244   .text.HAL_TIM_GenerateEvent:0000000000000000 HAL_TIM_GenerateEvent
     /tmp/ccZyKULX.s:8307   .text.HAL_TIM_ConfigOCrefClear:0000000000000000 $t
     /tmp/ccZyKULX.s:8312   .text.HAL_TIM_ConfigOCrefClear:0000000000000000 HAL_TIM_ConfigOCrefClear
     /tmp/ccZyKULX.s:11634  .text.TIM_ETR_SetConfig:0000000000000000 TIM_ETR_SetConfig
     /tmp/ccZyKULX.s:8373   .text.HAL_TIM_ConfigOCrefClear:0000000000000054 $d
     /tmp/ccZyKULX.s:8386   .text.HAL_TIM_ConfigOCrefClear:0000000000000088 $t
     /tmp/ccZyKULX.s:8520   .text.HAL_TIM_ConfigClockSource:0000000000000000 $t
     /tmp/ccZyKULX.s:8525   .text.HAL_TIM_ConfigClockSource:0000000000000000 HAL_TIM_ConfigClockSource
     /tmp/ccZyKULX.s:11130  .text.TIM_TI1_ConfigInputStage:0000000000000000 TIM_TI1_ConfigInputStage
     /tmp/ccZyKULX.s:11577  .text.TIM_ITRx_SetConfig:0000000000000000 TIM_ITRx_SetConfig
     /tmp/ccZyKULX.s:11306  .text.TIM_TI2_ConfigInputStage:0000000000000000 TIM_TI2_ConfigInputStage
     /tmp/ccZyKULX.s:8809   .text.HAL_TIM_ConfigTI1Input:0000000000000000 $t
     /tmp/ccZyKULX.s:8814   .text.HAL_TIM_ConfigTI1Input:0000000000000000 HAL_TIM_ConfigTI1Input
     /tmp/ccZyKULX.s:8868   .text.HAL_TIM_SlaveConfigSynchronization:0000000000000000 $t
     /tmp/ccZyKULX.s:8873   .text.HAL_TIM_SlaveConfigSynchronization:0000000000000000 HAL_TIM_SlaveConfigSynchronization
     /tmp/ccZyKULX.s:10781  .text.TIM_SlaveTimer_SetConfig:0000000000000000 TIM_SlaveTimer_SetConfig
     /tmp/ccZyKULX.s:8950   .text.HAL_TIM_SlaveConfigSynchronization_IT:0000000000000000 $t
     /tmp/ccZyKULX.s:8955   .text.HAL_TIM_SlaveConfigSynchronization_IT:0000000000000000 HAL_TIM_SlaveConfigSynchronization_IT
     /tmp/ccZyKULX.s:9032   .text.HAL_TIM_ReadCapturedValue:0000000000000000 $t
     /tmp/ccZyKULX.s:9037   .text.HAL_TIM_ReadCapturedValue:0000000000000000 HAL_TIM_ReadCapturedValue
     /tmp/ccZyKULX.s:9080   .text.HAL_TIM_ReadCapturedValue:0000000000000030 $d
     /tmp/ccZyKULX.s:9093   .text.HAL_TIM_ReadCapturedValue:0000000000000064 $t
ARM GAS  /tmp/ccZyKULX.s 			page 305


     /tmp/ccZyKULX.s:9148   .text.HAL_TIM_PeriodElapsedCallback:0000000000000000 $t
     /tmp/ccZyKULX.s:9181   .text.HAL_TIM_OC_DelayElapsedCallback:0000000000000000 $t
     /tmp/ccZyKULX.s:9214   .text.HAL_TIM_IC_CaptureCallback:0000000000000000 $t
     /tmp/ccZyKULX.s:9247   .text.HAL_TIM_PWM_PulseFinishedCallback:0000000000000000 $t
     /tmp/ccZyKULX.s:9280   .text.HAL_TIM_TriggerCallback:0000000000000000 $t
     /tmp/ccZyKULX.s:9313   .text.HAL_TIM_ErrorCallback:0000000000000000 $t
     /tmp/ccZyKULX.s:9318   .text.HAL_TIM_ErrorCallback:0000000000000000 HAL_TIM_ErrorCallback
     /tmp/ccZyKULX.s:9346   .text.HAL_TIM_Base_GetState:0000000000000000 $t
     /tmp/ccZyKULX.s:9351   .text.HAL_TIM_Base_GetState:0000000000000000 HAL_TIM_Base_GetState
     /tmp/ccZyKULX.s:9384   .text.HAL_TIM_OC_GetState:0000000000000000 $t
     /tmp/ccZyKULX.s:9389   .text.HAL_TIM_OC_GetState:0000000000000000 HAL_TIM_OC_GetState
     /tmp/ccZyKULX.s:9422   .text.HAL_TIM_PWM_GetState:0000000000000000 $t
     /tmp/ccZyKULX.s:9427   .text.HAL_TIM_PWM_GetState:0000000000000000 HAL_TIM_PWM_GetState
     /tmp/ccZyKULX.s:9460   .text.HAL_TIM_IC_GetState:0000000000000000 $t
     /tmp/ccZyKULX.s:9465   .text.HAL_TIM_IC_GetState:0000000000000000 HAL_TIM_IC_GetState
     /tmp/ccZyKULX.s:9498   .text.HAL_TIM_OnePulse_GetState:0000000000000000 $t
     /tmp/ccZyKULX.s:9503   .text.HAL_TIM_OnePulse_GetState:0000000000000000 HAL_TIM_OnePulse_GetState
     /tmp/ccZyKULX.s:9536   .text.HAL_TIM_Encoder_GetState:0000000000000000 $t
     /tmp/ccZyKULX.s:9541   .text.HAL_TIM_Encoder_GetState:0000000000000000 HAL_TIM_Encoder_GetState
     /tmp/ccZyKULX.s:9574   .text.TIM_DMAError:0000000000000000 $t
     /tmp/ccZyKULX.s:9617   .text.TIM_DMADelayPulseCplt:0000000000000000 $t
     /tmp/ccZyKULX.s:9711   .text.TIM_DMACaptureCplt:0000000000000000 $t
     /tmp/ccZyKULX.s:9805   .text.TIM_DMAPeriodElapsedCplt:0000000000000000 $t
     /tmp/ccZyKULX.s:9847   .text.TIM_DMATriggerCplt:0000000000000000 $t
     /tmp/ccZyKULX.s:9889   .text.TIM_Base_SetConfig:0000000000000000 $t
     /tmp/ccZyKULX.s:10054  .text.TIM_Base_SetConfig:00000000000000f8 $d
     /tmp/ccZyKULX.s:10065  .text.TIM_OC1_SetConfig:0000000000000000 $t
     /tmp/ccZyKULX.s:10249  .text.TIM_OC1_SetConfig:0000000000000118 $d
     /tmp/ccZyKULX.s:10258  .text.TIM_OC2_SetConfig:0000000000000000 $t
     /tmp/ccZyKULX.s:10435  .text.TIM_OC2_SetConfig:0000000000000108 $d
     /tmp/ccZyKULX.s:10444  .text.TIM_OC3_SetConfig:0000000000000000 $t
     /tmp/ccZyKULX.s:10620  .text.TIM_OC3_SetConfig:0000000000000108 $d
     /tmp/ccZyKULX.s:10629  .text.TIM_OC4_SetConfig:0000000000000000 $t
     /tmp/ccZyKULX.s:10768  .text.TIM_OC4_SetConfig:00000000000000c8 $d
     /tmp/ccZyKULX.s:10777  .text.TIM_SlaveTimer_SetConfig:0000000000000000 $t
     /tmp/ccZyKULX.s:10981  .text.TIM_TI1_SetConfig:0000000000000000 $t
     /tmp/ccZyKULX.s:11117  .text.TIM_TI1_SetConfig:00000000000000c0 $d
     /tmp/ccZyKULX.s:11126  .text.TIM_TI1_ConfigInputStage:0000000000000000 $t
     /tmp/ccZyKULX.s:11207  .text.TIM_TI2_SetConfig:0000000000000000 $t
     /tmp/ccZyKULX.s:11302  .text.TIM_TI2_ConfigInputStage:0000000000000000 $t
     /tmp/ccZyKULX.s:11384  .text.TIM_TI3_SetConfig:0000000000000000 $t
     /tmp/ccZyKULX.s:11478  .text.TIM_TI4_SetConfig:0000000000000000 $t
     /tmp/ccZyKULX.s:11573  .text.TIM_ITRx_SetConfig:0000000000000000 $t
     /tmp/ccZyKULX.s:11629  .text.TIM_ETR_SetConfig:0000000000000000 $t
     /tmp/ccZyKULX.s:11690  .text.TIM_CCxChannelCmd:0000000000000000 $t
                     .debug_frame:0000000000000010 $d

UNDEFINED SYMBOLS
HAL_DMA_Start_IT
HAL_TIMEx_BreakCallback
HAL_TIMEx_CommutationCallback
TIMEx_DMACommutationCplt
HAL_DMA_Abort
