ARM GAS  /tmp/ccRzvoJq.s 			page 1


   1              		.syntax unified
   2              		.cpu cortex-m4
   3              		.eabi_attribute 27, 3
   4              		.eabi_attribute 28, 1
   5              		.fpu fpv4-sp-d16
   6              		.eabi_attribute 20, 1
   7              		.eabi_attribute 21, 1
   8              		.eabi_attribute 23, 3
   9              		.eabi_attribute 24, 1
  10              		.eabi_attribute 25, 1
  11              		.eabi_attribute 26, 1
  12              		.eabi_attribute 30, 6
  13              		.eabi_attribute 34, 1
  14              		.eabi_attribute 18, 4
  15              		.thumb
  16              		.file	"stm32f3xx_hal_tim_ex.c"
  17              		.text
  18              	.Ltext0:
  19              		.cfi_sections	.debug_frame
  20              		.section	.text.HAL_TIMEx_HallSensor_Init,"ax",%progbits
  21              		.align	2
  22              		.global	HAL_TIMEx_HallSensor_Init
  23              		.thumb
  24              		.thumb_func
  26              	HAL_TIMEx_HallSensor_Init:
  27              	.LFB125:
  28              		.file 1 "Drivers/STM32F3xx_HAL_Driver/Src/stm32f3xx_hal_tim_ex.c"
   1:Drivers/STM32F3xx_HAL_Driver/Src/stm32f3xx_hal_tim_ex.c **** /**
   2:Drivers/STM32F3xx_HAL_Driver/Src/stm32f3xx_hal_tim_ex.c ****   ******************************************************************************
   3:Drivers/STM32F3xx_HAL_Driver/Src/stm32f3xx_hal_tim_ex.c ****   * @file    stm32f3xx_hal_tim_ex.c
   4:Drivers/STM32F3xx_HAL_Driver/Src/stm32f3xx_hal_tim_ex.c ****   * @author  MCD Application Team
   5:Drivers/STM32F3xx_HAL_Driver/Src/stm32f3xx_hal_tim_ex.c ****   * @version V1.2.1
   6:Drivers/STM32F3xx_HAL_Driver/Src/stm32f3xx_hal_tim_ex.c ****   * @date    29-April-2015
   7:Drivers/STM32F3xx_HAL_Driver/Src/stm32f3xx_hal_tim_ex.c ****   * @brief   TIM HAL module driver.
   8:Drivers/STM32F3xx_HAL_Driver/Src/stm32f3xx_hal_tim_ex.c ****   *          This file provides firmware functions to manage the following 
   9:Drivers/STM32F3xx_HAL_Driver/Src/stm32f3xx_hal_tim_ex.c ****   *          functionalities of the Timer Extended peripheral:
  10:Drivers/STM32F3xx_HAL_Driver/Src/stm32f3xx_hal_tim_ex.c ****   *           + Time Hall Sensor Interface Initialization
  11:Drivers/STM32F3xx_HAL_Driver/Src/stm32f3xx_hal_tim_ex.c ****   *           + Time Hall Sensor Interface Start
  12:Drivers/STM32F3xx_HAL_Driver/Src/stm32f3xx_hal_tim_ex.c ****   *           + Time Complementary signal bread and dead time configuration  
  13:Drivers/STM32F3xx_HAL_Driver/Src/stm32f3xx_hal_tim_ex.c ****   *           + Time Master and Slave synchronization configuration
  14:Drivers/STM32F3xx_HAL_Driver/Src/stm32f3xx_hal_tim_ex.c ****   *           + Time Output Compare/PWM Channel Configuration (for channels 5 and 6)
  15:Drivers/STM32F3xx_HAL_Driver/Src/stm32f3xx_hal_tim_ex.c ****   *           + Time OCRef clear configuration
  16:Drivers/STM32F3xx_HAL_Driver/Src/stm32f3xx_hal_tim_ex.c ****   *           + Timer remapping capabilities configuration
  17:Drivers/STM32F3xx_HAL_Driver/Src/stm32f3xx_hal_tim_ex.c ****   @verbatim
  18:Drivers/STM32F3xx_HAL_Driver/Src/stm32f3xx_hal_tim_ex.c ****   ==============================================================================
  19:Drivers/STM32F3xx_HAL_Driver/Src/stm32f3xx_hal_tim_ex.c ****                       ##### TIMER Extended features #####
  20:Drivers/STM32F3xx_HAL_Driver/Src/stm32f3xx_hal_tim_ex.c ****   ==============================================================================
  21:Drivers/STM32F3xx_HAL_Driver/Src/stm32f3xx_hal_tim_ex.c ****   [..] 
  22:Drivers/STM32F3xx_HAL_Driver/Src/stm32f3xx_hal_tim_ex.c ****     The Timer Extended features include: 
  23:Drivers/STM32F3xx_HAL_Driver/Src/stm32f3xx_hal_tim_ex.c ****     (#) Complementary outputs with programmable dead-time for :
  24:Drivers/STM32F3xx_HAL_Driver/Src/stm32f3xx_hal_tim_ex.c ****         (++) Output Compare
  25:Drivers/STM32F3xx_HAL_Driver/Src/stm32f3xx_hal_tim_ex.c ****         (++) PWM generation (Edge and Center-aligned Mode)
  26:Drivers/STM32F3xx_HAL_Driver/Src/stm32f3xx_hal_tim_ex.c ****         (++) One-pulse mode output
  27:Drivers/STM32F3xx_HAL_Driver/Src/stm32f3xx_hal_tim_ex.c ****     (#) Synchronization circuit to control the timer with external signals and to 
  28:Drivers/STM32F3xx_HAL_Driver/Src/stm32f3xx_hal_tim_ex.c ****         interconnect several timers together.
  29:Drivers/STM32F3xx_HAL_Driver/Src/stm32f3xx_hal_tim_ex.c ****     (#) Break input to put the timer output signals in reset state or in a known state.
  30:Drivers/STM32F3xx_HAL_Driver/Src/stm32f3xx_hal_tim_ex.c ****     (#) Supports incremental (quadrature) encoder and hall-sensor circuitry for 
ARM GAS  /tmp/ccRzvoJq.s 			page 2


  31:Drivers/STM32F3xx_HAL_Driver/Src/stm32f3xx_hal_tim_ex.c ****         positioning purposes                
  32:Drivers/STM32F3xx_HAL_Driver/Src/stm32f3xx_hal_tim_ex.c **** 
  33:Drivers/STM32F3xx_HAL_Driver/Src/stm32f3xx_hal_tim_ex.c ****             ##### How to use this driver #####
  34:Drivers/STM32F3xx_HAL_Driver/Src/stm32f3xx_hal_tim_ex.c ****   ==============================================================================
  35:Drivers/STM32F3xx_HAL_Driver/Src/stm32f3xx_hal_tim_ex.c ****     [..]
  36:Drivers/STM32F3xx_HAL_Driver/Src/stm32f3xx_hal_tim_ex.c ****      (#) Initialize the TIM low level resources by implementing the following functions 
  37:Drivers/STM32F3xx_HAL_Driver/Src/stm32f3xx_hal_tim_ex.c ****          depending from feature used :
  38:Drivers/STM32F3xx_HAL_Driver/Src/stm32f3xx_hal_tim_ex.c ****            (++) Complementary Output Compare : HAL_TIM_OC_MspInit()
  39:Drivers/STM32F3xx_HAL_Driver/Src/stm32f3xx_hal_tim_ex.c ****            (++) Complementary PWM generation : HAL_TIM_PWM_MspInit()
  40:Drivers/STM32F3xx_HAL_Driver/Src/stm32f3xx_hal_tim_ex.c ****            (++) Complementary One-pulse mode output : HAL_TIM_OnePulse_MspInit()
  41:Drivers/STM32F3xx_HAL_Driver/Src/stm32f3xx_hal_tim_ex.c ****            (++) Hall Sensor output : HAL_TIM_HallSensor_MspInit()
  42:Drivers/STM32F3xx_HAL_Driver/Src/stm32f3xx_hal_tim_ex.c ****            
  43:Drivers/STM32F3xx_HAL_Driver/Src/stm32f3xx_hal_tim_ex.c ****      (#) Initialize the TIM low level resources :
  44:Drivers/STM32F3xx_HAL_Driver/Src/stm32f3xx_hal_tim_ex.c ****         (##) Enable the TIM interface clock using __HAL_RCC_TIMx_CLK_ENABLE  (); 
  45:Drivers/STM32F3xx_HAL_Driver/Src/stm32f3xx_hal_tim_ex.c ****         (##) TIM pins configuration
  46:Drivers/STM32F3xx_HAL_Driver/Src/stm32f3xx_hal_tim_ex.c ****             (+++) Enable the clock for the TIM GPIOs using the following function:
  47:Drivers/STM32F3xx_HAL_Driver/Src/stm32f3xx_hal_tim_ex.c ****               __HAL_RCC_GPIOx_CLK_ENABLE();   
  48:Drivers/STM32F3xx_HAL_Driver/Src/stm32f3xx_hal_tim_ex.c ****             (+++) Configure these TIM pins in Alternate function mode using HAL_GPIO_Init();  
  49:Drivers/STM32F3xx_HAL_Driver/Src/stm32f3xx_hal_tim_ex.c **** 
  50:Drivers/STM32F3xx_HAL_Driver/Src/stm32f3xx_hal_tim_ex.c ****      (#) The external Clock can be configured, if needed (the default clock is the 
  51:Drivers/STM32F3xx_HAL_Driver/Src/stm32f3xx_hal_tim_ex.c ****          internal clock from the APBx), using the following function:
  52:Drivers/STM32F3xx_HAL_Driver/Src/stm32f3xx_hal_tim_ex.c ****          HAL_TIM_ConfigClockSource, the clock configuration should be done before 
  53:Drivers/STM32F3xx_HAL_Driver/Src/stm32f3xx_hal_tim_ex.c ****          any start function.
  54:Drivers/STM32F3xx_HAL_Driver/Src/stm32f3xx_hal_tim_ex.c ****   
  55:Drivers/STM32F3xx_HAL_Driver/Src/stm32f3xx_hal_tim_ex.c ****      (#) Configure the TIM in the desired functioning mode using one of the 
  56:Drivers/STM32F3xx_HAL_Driver/Src/stm32f3xx_hal_tim_ex.c ****          initialization function of this driver:
  57:Drivers/STM32F3xx_HAL_Driver/Src/stm32f3xx_hal_tim_ex.c ****           (++) HAL_TIMEx_HallSensor_Init and HAL_TIMEx_ConfigCommutationEvent: to use the 
  58:Drivers/STM32F3xx_HAL_Driver/Src/stm32f3xx_hal_tim_ex.c ****               Timer Hall Sensor Interface and the commutation event with the corresponding 
  59:Drivers/STM32F3xx_HAL_Driver/Src/stm32f3xx_hal_tim_ex.c ****               Interrupt and DMA request if needed (Note that One Timer is used to interface 
  60:Drivers/STM32F3xx_HAL_Driver/Src/stm32f3xx_hal_tim_ex.c ****              with the Hall sensor Interface and another Timer should be used to use 
  61:Drivers/STM32F3xx_HAL_Driver/Src/stm32f3xx_hal_tim_ex.c ****              the commutation event).
  62:Drivers/STM32F3xx_HAL_Driver/Src/stm32f3xx_hal_tim_ex.c **** 
  63:Drivers/STM32F3xx_HAL_Driver/Src/stm32f3xx_hal_tim_ex.c ****      (#) Activate the TIM peripheral using one of the start functions: 
  64:Drivers/STM32F3xx_HAL_Driver/Src/stm32f3xx_hal_tim_ex.c ****            (++) Complementary Output Compare : HAL_TIMEx_OCN_Start(), HAL_TIMEx_OCN_Start_DMA(), HA
  65:Drivers/STM32F3xx_HAL_Driver/Src/stm32f3xx_hal_tim_ex.c ****            (++) Complementary PWM generation : HAL_TIMEx_PWMN_Start(), HAL_TIMEx_PWMN_Start_DMA(), 
  66:Drivers/STM32F3xx_HAL_Driver/Src/stm32f3xx_hal_tim_ex.c ****            (++) Complementary One-pulse mode output : HAL_TIMEx_OnePulseN_Start(), HAL_TIMEx_OnePul
  67:Drivers/STM32F3xx_HAL_Driver/Src/stm32f3xx_hal_tim_ex.c ****            (++) Hall Sensor output : HAL_TIMEx_HallSensor_Start(), HAL_TIMEx_HallSensor_Start_DMA()
  68:Drivers/STM32F3xx_HAL_Driver/Src/stm32f3xx_hal_tim_ex.c **** 
  69:Drivers/STM32F3xx_HAL_Driver/Src/stm32f3xx_hal_tim_ex.c ****   
  70:Drivers/STM32F3xx_HAL_Driver/Src/stm32f3xx_hal_tim_ex.c ****   @endverbatim
  71:Drivers/STM32F3xx_HAL_Driver/Src/stm32f3xx_hal_tim_ex.c ****   ******************************************************************************
  72:Drivers/STM32F3xx_HAL_Driver/Src/stm32f3xx_hal_tim_ex.c ****   * @attention
  73:Drivers/STM32F3xx_HAL_Driver/Src/stm32f3xx_hal_tim_ex.c ****   *
  74:Drivers/STM32F3xx_HAL_Driver/Src/stm32f3xx_hal_tim_ex.c ****   * <h2><center>&copy; COPYRIGHT(c) 2016 STMicroelectronics</center></h2>
  75:Drivers/STM32F3xx_HAL_Driver/Src/stm32f3xx_hal_tim_ex.c ****   *
  76:Drivers/STM32F3xx_HAL_Driver/Src/stm32f3xx_hal_tim_ex.c ****   * Redistribution and use in source and binary forms, with or without modification,
  77:Drivers/STM32F3xx_HAL_Driver/Src/stm32f3xx_hal_tim_ex.c ****   * are permitted provided that the following conditions are met:
  78:Drivers/STM32F3xx_HAL_Driver/Src/stm32f3xx_hal_tim_ex.c ****   *   1. Redistributions of source code must retain the above copyright notice,
  79:Drivers/STM32F3xx_HAL_Driver/Src/stm32f3xx_hal_tim_ex.c ****   *      this list of conditions and the following disclaimer.
  80:Drivers/STM32F3xx_HAL_Driver/Src/stm32f3xx_hal_tim_ex.c ****   *   2. Redistributions in binary form must reproduce the above copyright notice,
  81:Drivers/STM32F3xx_HAL_Driver/Src/stm32f3xx_hal_tim_ex.c ****   *      this list of conditions and the following disclaimer in the documentation
  82:Drivers/STM32F3xx_HAL_Driver/Src/stm32f3xx_hal_tim_ex.c ****   *      and/or other materials provided with the distribution.
  83:Drivers/STM32F3xx_HAL_Driver/Src/stm32f3xx_hal_tim_ex.c ****   *   3. Neither the name of STMicroelectronics nor the names of its contributors
  84:Drivers/STM32F3xx_HAL_Driver/Src/stm32f3xx_hal_tim_ex.c ****   *      may be used to endorse or promote products derived from this software
  85:Drivers/STM32F3xx_HAL_Driver/Src/stm32f3xx_hal_tim_ex.c ****   *      without specific prior written permission.
  86:Drivers/STM32F3xx_HAL_Driver/Src/stm32f3xx_hal_tim_ex.c ****   *
  87:Drivers/STM32F3xx_HAL_Driver/Src/stm32f3xx_hal_tim_ex.c ****   * THIS SOFTWARE IS PROVIDED BY THE COPYRIGHT HOLDERS AND CONTRIBUTORS "AS IS"
ARM GAS  /tmp/ccRzvoJq.s 			page 3


  88:Drivers/STM32F3xx_HAL_Driver/Src/stm32f3xx_hal_tim_ex.c ****   * AND ANY EXPRESS OR IMPLIED WARRANTIES, INCLUDING, BUT NOT LIMITED TO, THE
  89:Drivers/STM32F3xx_HAL_Driver/Src/stm32f3xx_hal_tim_ex.c ****   * IMPLIED WARRANTIES OF MERCHANTABILITY AND FITNESS FOR A PARTICULAR PURPOSE ARE
  90:Drivers/STM32F3xx_HAL_Driver/Src/stm32f3xx_hal_tim_ex.c ****   * DISCLAIMED. IN NO EVENT SHALL THE COPYRIGHT HOLDER OR CONTRIBUTORS BE LIABLE
  91:Drivers/STM32F3xx_HAL_Driver/Src/stm32f3xx_hal_tim_ex.c ****   * FOR ANY DIRECT, INDIRECT, INCIDENTAL, SPECIAL, EXEMPLARY, OR CONSEQUENTIAL
  92:Drivers/STM32F3xx_HAL_Driver/Src/stm32f3xx_hal_tim_ex.c ****   * DAMAGES (INCLUDING, BUT NOT LIMITED TO, PROCUREMENT OF SUBSTITUTE GOODS OR
  93:Drivers/STM32F3xx_HAL_Driver/Src/stm32f3xx_hal_tim_ex.c ****   * SERVICES; LOSS OF USE, DATA, OR PROFITS; OR BUSINESS INTERRUPTION) HOWEVER
  94:Drivers/STM32F3xx_HAL_Driver/Src/stm32f3xx_hal_tim_ex.c ****   * CAUSED AND ON ANY THEORY OF LIABILITY, WHETHER IN CONTRACT, STRICT LIABILITY,
  95:Drivers/STM32F3xx_HAL_Driver/Src/stm32f3xx_hal_tim_ex.c ****   * OR TORT (INCLUDING NEGLIGENCE OR OTHERWISE) ARISING IN ANY WAY OUT OF THE USE
  96:Drivers/STM32F3xx_HAL_Driver/Src/stm32f3xx_hal_tim_ex.c ****   * OF THIS SOFTWARE, EVEN IF ADVISED OF THE POSSIBILITY OF SUCH DAMAGE.
  97:Drivers/STM32F3xx_HAL_Driver/Src/stm32f3xx_hal_tim_ex.c ****   *
  98:Drivers/STM32F3xx_HAL_Driver/Src/stm32f3xx_hal_tim_ex.c ****   ******************************************************************************
  99:Drivers/STM32F3xx_HAL_Driver/Src/stm32f3xx_hal_tim_ex.c **** */ 
 100:Drivers/STM32F3xx_HAL_Driver/Src/stm32f3xx_hal_tim_ex.c **** 
 101:Drivers/STM32F3xx_HAL_Driver/Src/stm32f3xx_hal_tim_ex.c **** /* Includes ------------------------------------------------------------------*/
 102:Drivers/STM32F3xx_HAL_Driver/Src/stm32f3xx_hal_tim_ex.c **** #include "stm32f3xx_hal.h"
 103:Drivers/STM32F3xx_HAL_Driver/Src/stm32f3xx_hal_tim_ex.c **** 
 104:Drivers/STM32F3xx_HAL_Driver/Src/stm32f3xx_hal_tim_ex.c **** /** @addtogroup STM32F3xx_HAL_Driver
 105:Drivers/STM32F3xx_HAL_Driver/Src/stm32f3xx_hal_tim_ex.c ****   * @{
 106:Drivers/STM32F3xx_HAL_Driver/Src/stm32f3xx_hal_tim_ex.c ****   */
 107:Drivers/STM32F3xx_HAL_Driver/Src/stm32f3xx_hal_tim_ex.c **** 
 108:Drivers/STM32F3xx_HAL_Driver/Src/stm32f3xx_hal_tim_ex.c **** /** @defgroup TIMEx TIMEx
 109:Drivers/STM32F3xx_HAL_Driver/Src/stm32f3xx_hal_tim_ex.c ****   * @brief TIM Extended HAL module driver
 110:Drivers/STM32F3xx_HAL_Driver/Src/stm32f3xx_hal_tim_ex.c ****   * @{
 111:Drivers/STM32F3xx_HAL_Driver/Src/stm32f3xx_hal_tim_ex.c ****   */
 112:Drivers/STM32F3xx_HAL_Driver/Src/stm32f3xx_hal_tim_ex.c **** 
 113:Drivers/STM32F3xx_HAL_Driver/Src/stm32f3xx_hal_tim_ex.c **** #ifdef HAL_TIM_MODULE_ENABLED
 114:Drivers/STM32F3xx_HAL_Driver/Src/stm32f3xx_hal_tim_ex.c **** 
 115:Drivers/STM32F3xx_HAL_Driver/Src/stm32f3xx_hal_tim_ex.c **** /* Private typedef -----------------------------------------------------------*/
 116:Drivers/STM32F3xx_HAL_Driver/Src/stm32f3xx_hal_tim_ex.c **** /* Private define ------------------------------------------------------------*/
 117:Drivers/STM32F3xx_HAL_Driver/Src/stm32f3xx_hal_tim_ex.c **** #if defined(STM32F302xE) || defined(STM32F303xE) || defined(STM32F398xx) || \
 118:Drivers/STM32F3xx_HAL_Driver/Src/stm32f3xx_hal_tim_ex.c ****     defined(STM32F302xC) || defined(STM32F303xC) || defined(STM32F358xx) || \
 119:Drivers/STM32F3xx_HAL_Driver/Src/stm32f3xx_hal_tim_ex.c ****     defined(STM32F303x8) || defined(STM32F334x8) || defined(STM32F328xx) || \
 120:Drivers/STM32F3xx_HAL_Driver/Src/stm32f3xx_hal_tim_ex.c ****     defined(STM32F301x8) || defined(STM32F302x8) || defined(STM32F318xx)
 121:Drivers/STM32F3xx_HAL_Driver/Src/stm32f3xx_hal_tim_ex.c ****       
 122:Drivers/STM32F3xx_HAL_Driver/Src/stm32f3xx_hal_tim_ex.c **** #define BDTR_BKF_SHIFT (16)
 123:Drivers/STM32F3xx_HAL_Driver/Src/stm32f3xx_hal_tim_ex.c **** #define BDTR_BK2F_SHIFT (20)
 124:Drivers/STM32F3xx_HAL_Driver/Src/stm32f3xx_hal_tim_ex.c **** #endif /* STM32F302xE || STM32F303xE || STM32F398xx || */
 125:Drivers/STM32F3xx_HAL_Driver/Src/stm32f3xx_hal_tim_ex.c ****        /* STM32F302xC || STM32F303xC || STM32F358xx || */
 126:Drivers/STM32F3xx_HAL_Driver/Src/stm32f3xx_hal_tim_ex.c ****        /* STM32F303x8 || STM32F334x8 || STM32F328xx || */
 127:Drivers/STM32F3xx_HAL_Driver/Src/stm32f3xx_hal_tim_ex.c ****        /* STM32F301x8 || STM32F302x8 || STM32F318xx    */
 128:Drivers/STM32F3xx_HAL_Driver/Src/stm32f3xx_hal_tim_ex.c ****       
 129:Drivers/STM32F3xx_HAL_Driver/Src/stm32f3xx_hal_tim_ex.c **** /* Private macro -------------------------------------------------------------*/
 130:Drivers/STM32F3xx_HAL_Driver/Src/stm32f3xx_hal_tim_ex.c **** /* Private variables ---------------------------------------------------------*/
 131:Drivers/STM32F3xx_HAL_Driver/Src/stm32f3xx_hal_tim_ex.c **** /* Private function prototypes -----------------------------------------------*/
 132:Drivers/STM32F3xx_HAL_Driver/Src/stm32f3xx_hal_tim_ex.c **** 
 133:Drivers/STM32F3xx_HAL_Driver/Src/stm32f3xx_hal_tim_ex.c **** /** @defgroup TIMEx_Private_Functions TIMEx Private Functions
 134:Drivers/STM32F3xx_HAL_Driver/Src/stm32f3xx_hal_tim_ex.c ****   * @{
 135:Drivers/STM32F3xx_HAL_Driver/Src/stm32f3xx_hal_tim_ex.c ****   */
 136:Drivers/STM32F3xx_HAL_Driver/Src/stm32f3xx_hal_tim_ex.c **** static void TIM_CCxNChannelCmd(TIM_TypeDef* TIMx, uint32_t Channel, uint32_t ChannelNState); 
 137:Drivers/STM32F3xx_HAL_Driver/Src/stm32f3xx_hal_tim_ex.c ****    
 138:Drivers/STM32F3xx_HAL_Driver/Src/stm32f3xx_hal_tim_ex.c **** #if defined(STM32F302xE) || defined(STM32F303xE) || defined(STM32F398xx) || \
 139:Drivers/STM32F3xx_HAL_Driver/Src/stm32f3xx_hal_tim_ex.c ****     defined(STM32F302xC) || defined(STM32F303xC) || defined(STM32F358xx) || \
 140:Drivers/STM32F3xx_HAL_Driver/Src/stm32f3xx_hal_tim_ex.c ****     defined(STM32F303x8) || defined(STM32F334x8) || defined(STM32F328xx) || \
 141:Drivers/STM32F3xx_HAL_Driver/Src/stm32f3xx_hal_tim_ex.c ****     defined(STM32F301x8) || defined(STM32F302x8) || defined(STM32F318xx)
 142:Drivers/STM32F3xx_HAL_Driver/Src/stm32f3xx_hal_tim_ex.c **** static void TIM_OC5_SetConfig(TIM_TypeDef *TIMx,
 143:Drivers/STM32F3xx_HAL_Driver/Src/stm32f3xx_hal_tim_ex.c ****                               TIM_OC_InitTypeDef *OC_Config);
 144:Drivers/STM32F3xx_HAL_Driver/Src/stm32f3xx_hal_tim_ex.c **** 
ARM GAS  /tmp/ccRzvoJq.s 			page 4


 145:Drivers/STM32F3xx_HAL_Driver/Src/stm32f3xx_hal_tim_ex.c **** static void TIM_OC6_SetConfig(TIM_TypeDef *TIMx, 
 146:Drivers/STM32F3xx_HAL_Driver/Src/stm32f3xx_hal_tim_ex.c ****                               TIM_OC_InitTypeDef *OC_Config);
 147:Drivers/STM32F3xx_HAL_Driver/Src/stm32f3xx_hal_tim_ex.c **** #endif /* STM32F302xE || STM32F303xE || STM32F398xx || */
 148:Drivers/STM32F3xx_HAL_Driver/Src/stm32f3xx_hal_tim_ex.c ****        /* STM32F302xC || STM32F303xC || STM32F358xx || */
 149:Drivers/STM32F3xx_HAL_Driver/Src/stm32f3xx_hal_tim_ex.c ****        /* STM32F303x8 || STM32F334x8 || STM32F328xx || */
 150:Drivers/STM32F3xx_HAL_Driver/Src/stm32f3xx_hal_tim_ex.c ****        /* STM32F301x8 || STM32F302x8 || STM32F318xx    */
 151:Drivers/STM32F3xx_HAL_Driver/Src/stm32f3xx_hal_tim_ex.c **** 
 152:Drivers/STM32F3xx_HAL_Driver/Src/stm32f3xx_hal_tim_ex.c **** /**
 153:Drivers/STM32F3xx_HAL_Driver/Src/stm32f3xx_hal_tim_ex.c ****   * @}
 154:Drivers/STM32F3xx_HAL_Driver/Src/stm32f3xx_hal_tim_ex.c ****   */
 155:Drivers/STM32F3xx_HAL_Driver/Src/stm32f3xx_hal_tim_ex.c **** 
 156:Drivers/STM32F3xx_HAL_Driver/Src/stm32f3xx_hal_tim_ex.c **** /* Exported functions ---------------------------------------------------------*/
 157:Drivers/STM32F3xx_HAL_Driver/Src/stm32f3xx_hal_tim_ex.c **** 
 158:Drivers/STM32F3xx_HAL_Driver/Src/stm32f3xx_hal_tim_ex.c **** /** @defgroup TIMEx_Exported_Functions TIMEx Exported Functions
 159:Drivers/STM32F3xx_HAL_Driver/Src/stm32f3xx_hal_tim_ex.c ****   * @{
 160:Drivers/STM32F3xx_HAL_Driver/Src/stm32f3xx_hal_tim_ex.c ****   */
 161:Drivers/STM32F3xx_HAL_Driver/Src/stm32f3xx_hal_tim_ex.c **** 
 162:Drivers/STM32F3xx_HAL_Driver/Src/stm32f3xx_hal_tim_ex.c **** /** @defgroup TIMEx_Exported_Functions_Group1 Timer Hall Sensor functions 
 163:Drivers/STM32F3xx_HAL_Driver/Src/stm32f3xx_hal_tim_ex.c ****   * @brief    Timer Hall Sensor functions
 164:Drivers/STM32F3xx_HAL_Driver/Src/stm32f3xx_hal_tim_ex.c ****   *
 165:Drivers/STM32F3xx_HAL_Driver/Src/stm32f3xx_hal_tim_ex.c **** @verbatim    
 166:Drivers/STM32F3xx_HAL_Driver/Src/stm32f3xx_hal_tim_ex.c ****   ==============================================================================
 167:Drivers/STM32F3xx_HAL_Driver/Src/stm32f3xx_hal_tim_ex.c ****                       ##### Timer Hall Sensor functions #####
 168:Drivers/STM32F3xx_HAL_Driver/Src/stm32f3xx_hal_tim_ex.c ****   ==============================================================================
 169:Drivers/STM32F3xx_HAL_Driver/Src/stm32f3xx_hal_tim_ex.c ****   [..]  
 170:Drivers/STM32F3xx_HAL_Driver/Src/stm32f3xx_hal_tim_ex.c ****     This section provides functions allowing to:
 171:Drivers/STM32F3xx_HAL_Driver/Src/stm32f3xx_hal_tim_ex.c ****     (+) Initialize and configure TIM HAL Sensor. 
 172:Drivers/STM32F3xx_HAL_Driver/Src/stm32f3xx_hal_tim_ex.c ****     (+) De-initialize TIM HAL Sensor.
 173:Drivers/STM32F3xx_HAL_Driver/Src/stm32f3xx_hal_tim_ex.c ****     (+) Start the Hall Sensor Interface.
 174:Drivers/STM32F3xx_HAL_Driver/Src/stm32f3xx_hal_tim_ex.c ****     (+) Stop the Hall Sensor Interface.
 175:Drivers/STM32F3xx_HAL_Driver/Src/stm32f3xx_hal_tim_ex.c ****     (+) Start the Hall Sensor Interface and enable interrupts.
 176:Drivers/STM32F3xx_HAL_Driver/Src/stm32f3xx_hal_tim_ex.c ****     (+) Stop the Hall Sensor Interface and disable interrupts.
 177:Drivers/STM32F3xx_HAL_Driver/Src/stm32f3xx_hal_tim_ex.c ****     (+) Start the Hall Sensor Interface and enable DMA transfers.
 178:Drivers/STM32F3xx_HAL_Driver/Src/stm32f3xx_hal_tim_ex.c ****     (+) Stop the Hall Sensor Interface and disable DMA transfers.
 179:Drivers/STM32F3xx_HAL_Driver/Src/stm32f3xx_hal_tim_ex.c ****  
 180:Drivers/STM32F3xx_HAL_Driver/Src/stm32f3xx_hal_tim_ex.c **** @endverbatim
 181:Drivers/STM32F3xx_HAL_Driver/Src/stm32f3xx_hal_tim_ex.c ****   * @{
 182:Drivers/STM32F3xx_HAL_Driver/Src/stm32f3xx_hal_tim_ex.c ****   */
 183:Drivers/STM32F3xx_HAL_Driver/Src/stm32f3xx_hal_tim_ex.c **** /**
 184:Drivers/STM32F3xx_HAL_Driver/Src/stm32f3xx_hal_tim_ex.c ****   * @brief  Initializes the TIM Hall Sensor Interface and create the associated handle.
 185:Drivers/STM32F3xx_HAL_Driver/Src/stm32f3xx_hal_tim_ex.c ****   * @param  htim: TIM Encoder Interface handle
 186:Drivers/STM32F3xx_HAL_Driver/Src/stm32f3xx_hal_tim_ex.c ****   * @param  sConfig: TIM Hall Sensor configuration structure
 187:Drivers/STM32F3xx_HAL_Driver/Src/stm32f3xx_hal_tim_ex.c ****   * @retval HAL status
 188:Drivers/STM32F3xx_HAL_Driver/Src/stm32f3xx_hal_tim_ex.c ****   */
 189:Drivers/STM32F3xx_HAL_Driver/Src/stm32f3xx_hal_tim_ex.c **** HAL_StatusTypeDef HAL_TIMEx_HallSensor_Init(TIM_HandleTypeDef *htim, TIM_HallSensor_InitTypeDef* sC
 190:Drivers/STM32F3xx_HAL_Driver/Src/stm32f3xx_hal_tim_ex.c **** {
  29              		.loc 1 190 0
  30              		.cfi_startproc
  31              		@ args = 0, pretend = 0, frame = 40
  32              		@ frame_needed = 1, uses_anonymous_args = 0
  33 0000 80B5     		push	{r7, lr}
  34              	.LCFI0:
  35              		.cfi_def_cfa_offset 8
  36              		.cfi_offset 7, -8
  37              		.cfi_offset 14, -4
  38 0002 8AB0     		sub	sp, sp, #40
  39              	.LCFI1:
ARM GAS  /tmp/ccRzvoJq.s 			page 5


  40              		.cfi_def_cfa_offset 48
  41 0004 00AF     		add	r7, sp, #0
  42              	.LCFI2:
  43              		.cfi_def_cfa_register 7
  44 0006 7860     		str	r0, [r7, #4]
  45 0008 3960     		str	r1, [r7]
 191:Drivers/STM32F3xx_HAL_Driver/Src/stm32f3xx_hal_tim_ex.c ****   TIM_OC_InitTypeDef OC_Config;
 192:Drivers/STM32F3xx_HAL_Driver/Src/stm32f3xx_hal_tim_ex.c ****     
 193:Drivers/STM32F3xx_HAL_Driver/Src/stm32f3xx_hal_tim_ex.c ****   /* Check the TIM handle allocation */
 194:Drivers/STM32F3xx_HAL_Driver/Src/stm32f3xx_hal_tim_ex.c ****   if(htim == NULL)
  46              		.loc 1 194 0
  47 000a 7B68     		ldr	r3, [r7, #4]
  48 000c 002B     		cmp	r3, #0
  49 000e 01D1     		bne	.L2
 195:Drivers/STM32F3xx_HAL_Driver/Src/stm32f3xx_hal_tim_ex.c ****   {
 196:Drivers/STM32F3xx_HAL_Driver/Src/stm32f3xx_hal_tim_ex.c ****     return HAL_ERROR;
  50              		.loc 1 196 0
  51 0010 0123     		movs	r3, #1
  52 0012 8AE0     		b	.L5
  53              	.L2:
 197:Drivers/STM32F3xx_HAL_Driver/Src/stm32f3xx_hal_tim_ex.c ****   }
 198:Drivers/STM32F3xx_HAL_Driver/Src/stm32f3xx_hal_tim_ex.c ****   
 199:Drivers/STM32F3xx_HAL_Driver/Src/stm32f3xx_hal_tim_ex.c ****   assert_param(IS_TIM_HALL_INTERFACE_INSTANCE(htim->Instance));
 200:Drivers/STM32F3xx_HAL_Driver/Src/stm32f3xx_hal_tim_ex.c ****   assert_param(IS_TIM_COUNTER_MODE(htim->Init.CounterMode));
 201:Drivers/STM32F3xx_HAL_Driver/Src/stm32f3xx_hal_tim_ex.c ****   assert_param(IS_TIM_CLOCKDIVISION_DIV(htim->Init.ClockDivision));
 202:Drivers/STM32F3xx_HAL_Driver/Src/stm32f3xx_hal_tim_ex.c ****   assert_param(IS_TIM_IC_POLARITY(sConfig->IC1Polarity));
 203:Drivers/STM32F3xx_HAL_Driver/Src/stm32f3xx_hal_tim_ex.c ****   assert_param(IS_TIM_IC_PRESCALER(sConfig->IC1Prescaler));
 204:Drivers/STM32F3xx_HAL_Driver/Src/stm32f3xx_hal_tim_ex.c ****   assert_param(IS_TIM_IC_FILTER(sConfig->IC1Filter));
 205:Drivers/STM32F3xx_HAL_Driver/Src/stm32f3xx_hal_tim_ex.c **** 
 206:Drivers/STM32F3xx_HAL_Driver/Src/stm32f3xx_hal_tim_ex.c ****   if(htim->State == HAL_TIM_STATE_RESET)
  54              		.loc 1 206 0
  55 0014 7B68     		ldr	r3, [r7, #4]
  56 0016 93F83930 		ldrb	r3, [r3, #57]
  57 001a DBB2     		uxtb	r3, r3
  58 001c 002B     		cmp	r3, #0
  59 001e 06D1     		bne	.L4
 207:Drivers/STM32F3xx_HAL_Driver/Src/stm32f3xx_hal_tim_ex.c ****   {
 208:Drivers/STM32F3xx_HAL_Driver/Src/stm32f3xx_hal_tim_ex.c ****     /* Allocate lock resource and initialize it */
 209:Drivers/STM32F3xx_HAL_Driver/Src/stm32f3xx_hal_tim_ex.c ****     htim->Lock = HAL_UNLOCKED;
  60              		.loc 1 209 0
  61 0020 7B68     		ldr	r3, [r7, #4]
  62 0022 0022     		movs	r2, #0
  63 0024 83F83820 		strb	r2, [r3, #56]
 210:Drivers/STM32F3xx_HAL_Driver/Src/stm32f3xx_hal_tim_ex.c **** 
 211:Drivers/STM32F3xx_HAL_Driver/Src/stm32f3xx_hal_tim_ex.c ****     /* Init the low level hardware : GPIO, CLOCK, NVIC and DMA */
 212:Drivers/STM32F3xx_HAL_Driver/Src/stm32f3xx_hal_tim_ex.c ****     HAL_TIMEx_HallSensor_MspInit(htim);
  64              		.loc 1 212 0
  65 0028 7868     		ldr	r0, [r7, #4]
  66 002a FFF7FEFF 		bl	HAL_TIMEx_HallSensor_MspInit
  67              	.L4:
 213:Drivers/STM32F3xx_HAL_Driver/Src/stm32f3xx_hal_tim_ex.c ****   }
 214:Drivers/STM32F3xx_HAL_Driver/Src/stm32f3xx_hal_tim_ex.c **** 
 215:Drivers/STM32F3xx_HAL_Driver/Src/stm32f3xx_hal_tim_ex.c ****   /* Set the TIM state */
 216:Drivers/STM32F3xx_HAL_Driver/Src/stm32f3xx_hal_tim_ex.c ****   htim->State = HAL_TIM_STATE_BUSY;
  68              		.loc 1 216 0
  69 002e 7B68     		ldr	r3, [r7, #4]
  70 0030 0222     		movs	r2, #2
ARM GAS  /tmp/ccRzvoJq.s 			page 6


  71 0032 83F83920 		strb	r2, [r3, #57]
 217:Drivers/STM32F3xx_HAL_Driver/Src/stm32f3xx_hal_tim_ex.c ****   
 218:Drivers/STM32F3xx_HAL_Driver/Src/stm32f3xx_hal_tim_ex.c ****   /* Configure the Time base in the Encoder Mode */
 219:Drivers/STM32F3xx_HAL_Driver/Src/stm32f3xx_hal_tim_ex.c ****   TIM_Base_SetConfig(htim->Instance, &htim->Init);
  72              		.loc 1 219 0
  73 0036 7B68     		ldr	r3, [r7, #4]
  74 0038 1A68     		ldr	r2, [r3]
  75 003a 7B68     		ldr	r3, [r7, #4]
  76 003c 0433     		adds	r3, r3, #4
  77 003e 1046     		mov	r0, r2
  78 0040 1946     		mov	r1, r3
  79 0042 FFF7FEFF 		bl	TIM_Base_SetConfig
 220:Drivers/STM32F3xx_HAL_Driver/Src/stm32f3xx_hal_tim_ex.c ****   
 221:Drivers/STM32F3xx_HAL_Driver/Src/stm32f3xx_hal_tim_ex.c ****   /* Configure the Channel 1 as Input Channel to interface with the three Outputs of the  Hall sens
 222:Drivers/STM32F3xx_HAL_Driver/Src/stm32f3xx_hal_tim_ex.c ****   TIM_TI1_SetConfig(htim->Instance, sConfig->IC1Polarity, TIM_ICSELECTION_TRC, sConfig->IC1Filter);
  80              		.loc 1 222 0
  81 0046 7B68     		ldr	r3, [r7, #4]
  82 0048 1968     		ldr	r1, [r3]
  83 004a 3B68     		ldr	r3, [r7]
  84 004c 1A68     		ldr	r2, [r3]
  85 004e 3B68     		ldr	r3, [r7]
  86 0050 9B68     		ldr	r3, [r3, #8]
  87 0052 0846     		mov	r0, r1
  88 0054 1146     		mov	r1, r2
  89 0056 0322     		movs	r2, #3
  90 0058 FFF7FEFF 		bl	TIM_TI1_SetConfig
 223:Drivers/STM32F3xx_HAL_Driver/Src/stm32f3xx_hal_tim_ex.c ****   
 224:Drivers/STM32F3xx_HAL_Driver/Src/stm32f3xx_hal_tim_ex.c ****   /* Reset the IC1PSC Bits */
 225:Drivers/STM32F3xx_HAL_Driver/Src/stm32f3xx_hal_tim_ex.c ****   htim->Instance->CCMR1 &= ~TIM_CCMR1_IC1PSC;
  91              		.loc 1 225 0
  92 005c 7B68     		ldr	r3, [r7, #4]
  93 005e 1B68     		ldr	r3, [r3]
  94 0060 7A68     		ldr	r2, [r7, #4]
  95 0062 1268     		ldr	r2, [r2]
  96 0064 9269     		ldr	r2, [r2, #24]
  97 0066 22F00C02 		bic	r2, r2, #12
  98 006a 9A61     		str	r2, [r3, #24]
 226:Drivers/STM32F3xx_HAL_Driver/Src/stm32f3xx_hal_tim_ex.c ****   /* Set the IC1PSC value */
 227:Drivers/STM32F3xx_HAL_Driver/Src/stm32f3xx_hal_tim_ex.c ****   htim->Instance->CCMR1 |= sConfig->IC1Prescaler;
  99              		.loc 1 227 0
 100 006c 7B68     		ldr	r3, [r7, #4]
 101 006e 1B68     		ldr	r3, [r3]
 102 0070 7A68     		ldr	r2, [r7, #4]
 103 0072 1268     		ldr	r2, [r2]
 104 0074 9169     		ldr	r1, [r2, #24]
 105 0076 3A68     		ldr	r2, [r7]
 106 0078 5268     		ldr	r2, [r2, #4]
 107 007a 0A43     		orrs	r2, r2, r1
 108 007c 9A61     		str	r2, [r3, #24]
 228:Drivers/STM32F3xx_HAL_Driver/Src/stm32f3xx_hal_tim_ex.c ****   
 229:Drivers/STM32F3xx_HAL_Driver/Src/stm32f3xx_hal_tim_ex.c ****   /* Enable the Hall sensor interface (XOR function of the three inputs) */
 230:Drivers/STM32F3xx_HAL_Driver/Src/stm32f3xx_hal_tim_ex.c ****   htim->Instance->CR2 |= TIM_CR2_TI1S;
 109              		.loc 1 230 0
 110 007e 7B68     		ldr	r3, [r7, #4]
 111 0080 1B68     		ldr	r3, [r3]
 112 0082 7A68     		ldr	r2, [r7, #4]
 113 0084 1268     		ldr	r2, [r2]
ARM GAS  /tmp/ccRzvoJq.s 			page 7


 114 0086 5268     		ldr	r2, [r2, #4]
 115 0088 42F08002 		orr	r2, r2, #128
 116 008c 5A60     		str	r2, [r3, #4]
 231:Drivers/STM32F3xx_HAL_Driver/Src/stm32f3xx_hal_tim_ex.c ****   
 232:Drivers/STM32F3xx_HAL_Driver/Src/stm32f3xx_hal_tim_ex.c ****   /* Select the TIM_TS_TI1F_ED signal as Input trigger for the TIM */
 233:Drivers/STM32F3xx_HAL_Driver/Src/stm32f3xx_hal_tim_ex.c ****   htim->Instance->SMCR &= ~TIM_SMCR_TS;
 117              		.loc 1 233 0
 118 008e 7B68     		ldr	r3, [r7, #4]
 119 0090 1B68     		ldr	r3, [r3]
 120 0092 7A68     		ldr	r2, [r7, #4]
 121 0094 1268     		ldr	r2, [r2]
 122 0096 9268     		ldr	r2, [r2, #8]
 123 0098 22F07002 		bic	r2, r2, #112
 124 009c 9A60     		str	r2, [r3, #8]
 234:Drivers/STM32F3xx_HAL_Driver/Src/stm32f3xx_hal_tim_ex.c ****   htim->Instance->SMCR |= TIM_TS_TI1F_ED;
 125              		.loc 1 234 0
 126 009e 7B68     		ldr	r3, [r7, #4]
 127 00a0 1B68     		ldr	r3, [r3]
 128 00a2 7A68     		ldr	r2, [r7, #4]
 129 00a4 1268     		ldr	r2, [r2]
 130 00a6 9268     		ldr	r2, [r2, #8]
 131 00a8 42F04002 		orr	r2, r2, #64
 132 00ac 9A60     		str	r2, [r3, #8]
 235:Drivers/STM32F3xx_HAL_Driver/Src/stm32f3xx_hal_tim_ex.c ****   
 236:Drivers/STM32F3xx_HAL_Driver/Src/stm32f3xx_hal_tim_ex.c ****   /* Use the TIM_TS_TI1F_ED signal to reset the TIM counter each edge detection */  
 237:Drivers/STM32F3xx_HAL_Driver/Src/stm32f3xx_hal_tim_ex.c ****   htim->Instance->SMCR &= ~TIM_SMCR_SMS;
 133              		.loc 1 237 0
 134 00ae 7B68     		ldr	r3, [r7, #4]
 135 00b0 1A68     		ldr	r2, [r3]
 136 00b2 7B68     		ldr	r3, [r7, #4]
 137 00b4 1B68     		ldr	r3, [r3]
 138 00b6 9B68     		ldr	r3, [r3, #8]
 139 00b8 23F48033 		bic	r3, r3, #65536
 140 00bc 23F00703 		bic	r3, r3, #7
 141 00c0 9360     		str	r3, [r2, #8]
 238:Drivers/STM32F3xx_HAL_Driver/Src/stm32f3xx_hal_tim_ex.c ****   htim->Instance->SMCR |= TIM_SLAVEMODE_RESET;
 142              		.loc 1 238 0
 143 00c2 7B68     		ldr	r3, [r7, #4]
 144 00c4 1B68     		ldr	r3, [r3]
 145 00c6 7A68     		ldr	r2, [r7, #4]
 146 00c8 1268     		ldr	r2, [r2]
 147 00ca 9268     		ldr	r2, [r2, #8]
 148 00cc 42F00402 		orr	r2, r2, #4
 149 00d0 9A60     		str	r2, [r3, #8]
 239:Drivers/STM32F3xx_HAL_Driver/Src/stm32f3xx_hal_tim_ex.c ****   
 240:Drivers/STM32F3xx_HAL_Driver/Src/stm32f3xx_hal_tim_ex.c ****   /* Program channel 2 in PWM 2 mode with the desired Commutation_Delay*/
 241:Drivers/STM32F3xx_HAL_Driver/Src/stm32f3xx_hal_tim_ex.c ****   OC_Config.OCFastMode = TIM_OCFAST_DISABLE;
 150              		.loc 1 241 0
 151 00d2 0023     		movs	r3, #0
 152 00d4 FB61     		str	r3, [r7, #28]
 242:Drivers/STM32F3xx_HAL_Driver/Src/stm32f3xx_hal_tim_ex.c ****   OC_Config.OCIdleState = TIM_OCIDLESTATE_RESET;
 153              		.loc 1 242 0
 154 00d6 0023     		movs	r3, #0
 155 00d8 3B62     		str	r3, [r7, #32]
 243:Drivers/STM32F3xx_HAL_Driver/Src/stm32f3xx_hal_tim_ex.c ****   OC_Config.OCMode = TIM_OCMODE_PWM2;
 156              		.loc 1 243 0
 157 00da 7023     		movs	r3, #112
ARM GAS  /tmp/ccRzvoJq.s 			page 8


 158 00dc FB60     		str	r3, [r7, #12]
 244:Drivers/STM32F3xx_HAL_Driver/Src/stm32f3xx_hal_tim_ex.c ****   OC_Config.OCNIdleState = TIM_OCNIDLESTATE_RESET;
 159              		.loc 1 244 0
 160 00de 0023     		movs	r3, #0
 161 00e0 7B62     		str	r3, [r7, #36]
 245:Drivers/STM32F3xx_HAL_Driver/Src/stm32f3xx_hal_tim_ex.c ****   OC_Config.OCNPolarity = TIM_OCNPOLARITY_HIGH;
 162              		.loc 1 245 0
 163 00e2 0023     		movs	r3, #0
 164 00e4 BB61     		str	r3, [r7, #24]
 246:Drivers/STM32F3xx_HAL_Driver/Src/stm32f3xx_hal_tim_ex.c ****   OC_Config.OCPolarity = TIM_OCPOLARITY_HIGH;
 165              		.loc 1 246 0
 166 00e6 0023     		movs	r3, #0
 167 00e8 7B61     		str	r3, [r7, #20]
 247:Drivers/STM32F3xx_HAL_Driver/Src/stm32f3xx_hal_tim_ex.c ****   OC_Config.Pulse = sConfig->Commutation_Delay; 
 168              		.loc 1 247 0
 169 00ea 3B68     		ldr	r3, [r7]
 170 00ec DB68     		ldr	r3, [r3, #12]
 171 00ee 3B61     		str	r3, [r7, #16]
 248:Drivers/STM32F3xx_HAL_Driver/Src/stm32f3xx_hal_tim_ex.c ****     
 249:Drivers/STM32F3xx_HAL_Driver/Src/stm32f3xx_hal_tim_ex.c ****   TIM_OC2_SetConfig(htim->Instance, &OC_Config);
 172              		.loc 1 249 0
 173 00f0 7B68     		ldr	r3, [r7, #4]
 174 00f2 1A68     		ldr	r2, [r3]
 175 00f4 07F10C03 		add	r3, r7, #12
 176 00f8 1046     		mov	r0, r2
 177 00fa 1946     		mov	r1, r3
 178 00fc FFF7FEFF 		bl	TIM_OC2_SetConfig
 250:Drivers/STM32F3xx_HAL_Driver/Src/stm32f3xx_hal_tim_ex.c ****   
 251:Drivers/STM32F3xx_HAL_Driver/Src/stm32f3xx_hal_tim_ex.c ****   /* Select OC2REF as trigger output on TRGO: write the MMS bits in the TIMx_CR2
 252:Drivers/STM32F3xx_HAL_Driver/Src/stm32f3xx_hal_tim_ex.c ****     register to 101 */
 253:Drivers/STM32F3xx_HAL_Driver/Src/stm32f3xx_hal_tim_ex.c ****   htim->Instance->CR2 &= ~TIM_CR2_MMS;
 179              		.loc 1 253 0
 180 0100 7B68     		ldr	r3, [r7, #4]
 181 0102 1B68     		ldr	r3, [r3]
 182 0104 7A68     		ldr	r2, [r7, #4]
 183 0106 1268     		ldr	r2, [r2]
 184 0108 5268     		ldr	r2, [r2, #4]
 185 010a 22F07002 		bic	r2, r2, #112
 186 010e 5A60     		str	r2, [r3, #4]
 254:Drivers/STM32F3xx_HAL_Driver/Src/stm32f3xx_hal_tim_ex.c ****   htim->Instance->CR2 |= TIM_TRGO_OC2REF; 
 187              		.loc 1 254 0
 188 0110 7B68     		ldr	r3, [r7, #4]
 189 0112 1B68     		ldr	r3, [r3]
 190 0114 7A68     		ldr	r2, [r7, #4]
 191 0116 1268     		ldr	r2, [r2]
 192 0118 5268     		ldr	r2, [r2, #4]
 193 011a 42F05002 		orr	r2, r2, #80
 194 011e 5A60     		str	r2, [r3, #4]
 255:Drivers/STM32F3xx_HAL_Driver/Src/stm32f3xx_hal_tim_ex.c ****   
 256:Drivers/STM32F3xx_HAL_Driver/Src/stm32f3xx_hal_tim_ex.c ****   /* Initialize the TIM state*/
 257:Drivers/STM32F3xx_HAL_Driver/Src/stm32f3xx_hal_tim_ex.c ****   htim->State= HAL_TIM_STATE_READY;
 195              		.loc 1 257 0
 196 0120 7B68     		ldr	r3, [r7, #4]
 197 0122 0122     		movs	r2, #1
 198 0124 83F83920 		strb	r2, [r3, #57]
 258:Drivers/STM32F3xx_HAL_Driver/Src/stm32f3xx_hal_tim_ex.c **** 
 259:Drivers/STM32F3xx_HAL_Driver/Src/stm32f3xx_hal_tim_ex.c ****   return HAL_OK;
ARM GAS  /tmp/ccRzvoJq.s 			page 9


 199              		.loc 1 259 0
 200 0128 0023     		movs	r3, #0
 201              	.L5:
 260:Drivers/STM32F3xx_HAL_Driver/Src/stm32f3xx_hal_tim_ex.c **** }
 202              		.loc 1 260 0
 203 012a 1846     		mov	r0, r3
 204 012c 2837     		adds	r7, r7, #40
 205 012e BD46     		mov	sp, r7
 206              		@ sp needed
 207 0130 80BD     		pop	{r7, pc}
 208              		.cfi_endproc
 209              	.LFE125:
 211 0132 00BF     		.section	.text.HAL_TIMEx_HallSensor_DeInit,"ax",%progbits
 212              		.align	2
 213              		.global	HAL_TIMEx_HallSensor_DeInit
 214              		.thumb
 215              		.thumb_func
 217              	HAL_TIMEx_HallSensor_DeInit:
 218              	.LFB126:
 261:Drivers/STM32F3xx_HAL_Driver/Src/stm32f3xx_hal_tim_ex.c **** 
 262:Drivers/STM32F3xx_HAL_Driver/Src/stm32f3xx_hal_tim_ex.c **** /**
 263:Drivers/STM32F3xx_HAL_Driver/Src/stm32f3xx_hal_tim_ex.c ****   * @brief  DeInitializes the TIM Hall Sensor interface  
 264:Drivers/STM32F3xx_HAL_Driver/Src/stm32f3xx_hal_tim_ex.c ****   * @param  htim: TIM Hall Sensor handle
 265:Drivers/STM32F3xx_HAL_Driver/Src/stm32f3xx_hal_tim_ex.c ****   * @retval HAL status
 266:Drivers/STM32F3xx_HAL_Driver/Src/stm32f3xx_hal_tim_ex.c ****   */
 267:Drivers/STM32F3xx_HAL_Driver/Src/stm32f3xx_hal_tim_ex.c **** HAL_StatusTypeDef HAL_TIMEx_HallSensor_DeInit(TIM_HandleTypeDef *htim)
 268:Drivers/STM32F3xx_HAL_Driver/Src/stm32f3xx_hal_tim_ex.c **** {
 219              		.loc 1 268 0
 220              		.cfi_startproc
 221              		@ args = 0, pretend = 0, frame = 8
 222              		@ frame_needed = 1, uses_anonymous_args = 0
 223 0000 80B5     		push	{r7, lr}
 224              	.LCFI3:
 225              		.cfi_def_cfa_offset 8
 226              		.cfi_offset 7, -8
 227              		.cfi_offset 14, -4
 228 0002 82B0     		sub	sp, sp, #8
 229              	.LCFI4:
 230              		.cfi_def_cfa_offset 16
 231 0004 00AF     		add	r7, sp, #0
 232              	.LCFI5:
 233              		.cfi_def_cfa_register 7
 234 0006 7860     		str	r0, [r7, #4]
 269:Drivers/STM32F3xx_HAL_Driver/Src/stm32f3xx_hal_tim_ex.c ****   /* Check the parameters */
 270:Drivers/STM32F3xx_HAL_Driver/Src/stm32f3xx_hal_tim_ex.c ****   assert_param(IS_TIM_INSTANCE(htim->Instance));
 271:Drivers/STM32F3xx_HAL_Driver/Src/stm32f3xx_hal_tim_ex.c **** 
 272:Drivers/STM32F3xx_HAL_Driver/Src/stm32f3xx_hal_tim_ex.c ****   htim->State = HAL_TIM_STATE_BUSY;
 235              		.loc 1 272 0
 236 0008 7B68     		ldr	r3, [r7, #4]
 237 000a 0222     		movs	r2, #2
 238 000c 83F83920 		strb	r2, [r3, #57]
 273:Drivers/STM32F3xx_HAL_Driver/Src/stm32f3xx_hal_tim_ex.c ****   
 274:Drivers/STM32F3xx_HAL_Driver/Src/stm32f3xx_hal_tim_ex.c ****   /* Disable the TIM Peripheral Clock */
 275:Drivers/STM32F3xx_HAL_Driver/Src/stm32f3xx_hal_tim_ex.c ****   __HAL_TIM_DISABLE(htim);
 239              		.loc 1 275 0
 240 0010 7B68     		ldr	r3, [r7, #4]
 241 0012 1B68     		ldr	r3, [r3]
ARM GAS  /tmp/ccRzvoJq.s 			page 10


 242 0014 1A6A     		ldr	r2, [r3, #32]
 243 0016 41F21113 		movw	r3, #4369
 244 001a 1340     		ands	r3, r3, r2
 245 001c 002B     		cmp	r3, #0
 246 001e 0FD1     		bne	.L7
 247              		.loc 1 275 0 is_stmt 0 discriminator 1
 248 0020 7B68     		ldr	r3, [r7, #4]
 249 0022 1B68     		ldr	r3, [r3]
 250 0024 1A6A     		ldr	r2, [r3, #32]
 251 0026 40F24443 		movw	r3, #1092
 252 002a 1340     		ands	r3, r3, r2
 253 002c 002B     		cmp	r3, #0
 254 002e 07D1     		bne	.L7
 255 0030 7B68     		ldr	r3, [r7, #4]
 256 0032 1B68     		ldr	r3, [r3]
 257 0034 7A68     		ldr	r2, [r7, #4]
 258 0036 1268     		ldr	r2, [r2]
 259 0038 1268     		ldr	r2, [r2]
 260 003a 22F00102 		bic	r2, r2, #1
 261 003e 1A60     		str	r2, [r3]
 262              	.L7:
 276:Drivers/STM32F3xx_HAL_Driver/Src/stm32f3xx_hal_tim_ex.c ****     
 277:Drivers/STM32F3xx_HAL_Driver/Src/stm32f3xx_hal_tim_ex.c ****   /* DeInit the low level hardware: GPIO, CLOCK, NVIC */
 278:Drivers/STM32F3xx_HAL_Driver/Src/stm32f3xx_hal_tim_ex.c ****   HAL_TIMEx_HallSensor_MspDeInit(htim);
 263              		.loc 1 278 0 is_stmt 1
 264 0040 7868     		ldr	r0, [r7, #4]
 265 0042 FFF7FEFF 		bl	HAL_TIMEx_HallSensor_MspDeInit
 279:Drivers/STM32F3xx_HAL_Driver/Src/stm32f3xx_hal_tim_ex.c ****     
 280:Drivers/STM32F3xx_HAL_Driver/Src/stm32f3xx_hal_tim_ex.c ****   /* Change TIM state */  
 281:Drivers/STM32F3xx_HAL_Driver/Src/stm32f3xx_hal_tim_ex.c ****   htim->State = HAL_TIM_STATE_RESET; 
 266              		.loc 1 281 0
 267 0046 7B68     		ldr	r3, [r7, #4]
 268 0048 0022     		movs	r2, #0
 269 004a 83F83920 		strb	r2, [r3, #57]
 282:Drivers/STM32F3xx_HAL_Driver/Src/stm32f3xx_hal_tim_ex.c ****   
 283:Drivers/STM32F3xx_HAL_Driver/Src/stm32f3xx_hal_tim_ex.c ****   /* Release Lock */
 284:Drivers/STM32F3xx_HAL_Driver/Src/stm32f3xx_hal_tim_ex.c ****   __HAL_UNLOCK(htim);
 270              		.loc 1 284 0
 271 004e 7B68     		ldr	r3, [r7, #4]
 272 0050 0022     		movs	r2, #0
 273 0052 83F83820 		strb	r2, [r3, #56]
 285:Drivers/STM32F3xx_HAL_Driver/Src/stm32f3xx_hal_tim_ex.c **** 
 286:Drivers/STM32F3xx_HAL_Driver/Src/stm32f3xx_hal_tim_ex.c ****   return HAL_OK;
 274              		.loc 1 286 0
 275 0056 0023     		movs	r3, #0
 287:Drivers/STM32F3xx_HAL_Driver/Src/stm32f3xx_hal_tim_ex.c **** }
 276              		.loc 1 287 0
 277 0058 1846     		mov	r0, r3
 278 005a 0837     		adds	r7, r7, #8
 279 005c BD46     		mov	sp, r7
 280              		@ sp needed
 281 005e 80BD     		pop	{r7, pc}
 282              		.cfi_endproc
 283              	.LFE126:
 285              		.section	.text.HAL_TIMEx_HallSensor_MspInit,"ax",%progbits
 286              		.align	2
 287              		.weak	HAL_TIMEx_HallSensor_MspInit
ARM GAS  /tmp/ccRzvoJq.s 			page 11


 288              		.thumb
 289              		.thumb_func
 291              	HAL_TIMEx_HallSensor_MspInit:
 292              	.LFB127:
 288:Drivers/STM32F3xx_HAL_Driver/Src/stm32f3xx_hal_tim_ex.c **** 
 289:Drivers/STM32F3xx_HAL_Driver/Src/stm32f3xx_hal_tim_ex.c **** /**
 290:Drivers/STM32F3xx_HAL_Driver/Src/stm32f3xx_hal_tim_ex.c ****   * @brief  Initializes the TIM Hall Sensor MSP.
 291:Drivers/STM32F3xx_HAL_Driver/Src/stm32f3xx_hal_tim_ex.c ****   * @param  htim: TIM handle
 292:Drivers/STM32F3xx_HAL_Driver/Src/stm32f3xx_hal_tim_ex.c ****   * @retval None
 293:Drivers/STM32F3xx_HAL_Driver/Src/stm32f3xx_hal_tim_ex.c ****   */
 294:Drivers/STM32F3xx_HAL_Driver/Src/stm32f3xx_hal_tim_ex.c **** __weak void HAL_TIMEx_HallSensor_MspInit(TIM_HandleTypeDef *htim)
 295:Drivers/STM32F3xx_HAL_Driver/Src/stm32f3xx_hal_tim_ex.c **** {
 293              		.loc 1 295 0
 294              		.cfi_startproc
 295              		@ args = 0, pretend = 0, frame = 8
 296              		@ frame_needed = 1, uses_anonymous_args = 0
 297              		@ link register save eliminated.
 298 0000 80B4     		push	{r7}
 299              	.LCFI6:
 300              		.cfi_def_cfa_offset 4
 301              		.cfi_offset 7, -4
 302 0002 83B0     		sub	sp, sp, #12
 303              	.LCFI7:
 304              		.cfi_def_cfa_offset 16
 305 0004 00AF     		add	r7, sp, #0
 306              	.LCFI8:
 307              		.cfi_def_cfa_register 7
 308 0006 7860     		str	r0, [r7, #4]
 296:Drivers/STM32F3xx_HAL_Driver/Src/stm32f3xx_hal_tim_ex.c ****   /* Prevent unused argument(s) compilation warning */
 297:Drivers/STM32F3xx_HAL_Driver/Src/stm32f3xx_hal_tim_ex.c ****   UNUSED(htim);
 298:Drivers/STM32F3xx_HAL_Driver/Src/stm32f3xx_hal_tim_ex.c **** 
 299:Drivers/STM32F3xx_HAL_Driver/Src/stm32f3xx_hal_tim_ex.c ****   /* NOTE : This function Should not be modified, when the callback is needed,
 300:Drivers/STM32F3xx_HAL_Driver/Src/stm32f3xx_hal_tim_ex.c ****             the HAL_TIMEx_HallSensor_MspInit could be implemented in the user file
 301:Drivers/STM32F3xx_HAL_Driver/Src/stm32f3xx_hal_tim_ex.c ****    */
 302:Drivers/STM32F3xx_HAL_Driver/Src/stm32f3xx_hal_tim_ex.c **** }
 309              		.loc 1 302 0
 310 0008 0C37     		adds	r7, r7, #12
 311 000a BD46     		mov	sp, r7
 312              		@ sp needed
 313 000c 5DF8047B 		ldr	r7, [sp], #4
 314 0010 7047     		bx	lr
 315              		.cfi_endproc
 316              	.LFE127:
 318 0012 00BF     		.section	.text.HAL_TIMEx_HallSensor_MspDeInit,"ax",%progbits
 319              		.align	2
 320              		.weak	HAL_TIMEx_HallSensor_MspDeInit
 321              		.thumb
 322              		.thumb_func
 324              	HAL_TIMEx_HallSensor_MspDeInit:
 325              	.LFB128:
 303:Drivers/STM32F3xx_HAL_Driver/Src/stm32f3xx_hal_tim_ex.c **** 
 304:Drivers/STM32F3xx_HAL_Driver/Src/stm32f3xx_hal_tim_ex.c **** /**
 305:Drivers/STM32F3xx_HAL_Driver/Src/stm32f3xx_hal_tim_ex.c ****   * @brief  DeInitializes TIM Hall Sensor MSP.
 306:Drivers/STM32F3xx_HAL_Driver/Src/stm32f3xx_hal_tim_ex.c ****   * @param  htim: TIM handle
 307:Drivers/STM32F3xx_HAL_Driver/Src/stm32f3xx_hal_tim_ex.c ****   * @retval None
 308:Drivers/STM32F3xx_HAL_Driver/Src/stm32f3xx_hal_tim_ex.c ****   */
 309:Drivers/STM32F3xx_HAL_Driver/Src/stm32f3xx_hal_tim_ex.c **** __weak void HAL_TIMEx_HallSensor_MspDeInit(TIM_HandleTypeDef *htim)
ARM GAS  /tmp/ccRzvoJq.s 			page 12


 310:Drivers/STM32F3xx_HAL_Driver/Src/stm32f3xx_hal_tim_ex.c **** {
 326              		.loc 1 310 0
 327              		.cfi_startproc
 328              		@ args = 0, pretend = 0, frame = 8
 329              		@ frame_needed = 1, uses_anonymous_args = 0
 330              		@ link register save eliminated.
 331 0000 80B4     		push	{r7}
 332              	.LCFI9:
 333              		.cfi_def_cfa_offset 4
 334              		.cfi_offset 7, -4
 335 0002 83B0     		sub	sp, sp, #12
 336              	.LCFI10:
 337              		.cfi_def_cfa_offset 16
 338 0004 00AF     		add	r7, sp, #0
 339              	.LCFI11:
 340              		.cfi_def_cfa_register 7
 341 0006 7860     		str	r0, [r7, #4]
 311:Drivers/STM32F3xx_HAL_Driver/Src/stm32f3xx_hal_tim_ex.c ****   /* Prevent unused argument(s) compilation warning */
 312:Drivers/STM32F3xx_HAL_Driver/Src/stm32f3xx_hal_tim_ex.c ****   UNUSED(htim);
 313:Drivers/STM32F3xx_HAL_Driver/Src/stm32f3xx_hal_tim_ex.c **** 
 314:Drivers/STM32F3xx_HAL_Driver/Src/stm32f3xx_hal_tim_ex.c ****   /* NOTE : This function Should not be modified, when the callback is needed,
 315:Drivers/STM32F3xx_HAL_Driver/Src/stm32f3xx_hal_tim_ex.c ****             the HAL_TIMEx_HallSensor_MspDeInit could be implemented in the user file
 316:Drivers/STM32F3xx_HAL_Driver/Src/stm32f3xx_hal_tim_ex.c ****    */
 317:Drivers/STM32F3xx_HAL_Driver/Src/stm32f3xx_hal_tim_ex.c **** }
 342              		.loc 1 317 0
 343 0008 0C37     		adds	r7, r7, #12
 344 000a BD46     		mov	sp, r7
 345              		@ sp needed
 346 000c 5DF8047B 		ldr	r7, [sp], #4
 347 0010 7047     		bx	lr
 348              		.cfi_endproc
 349              	.LFE128:
 351 0012 00BF     		.section	.text.HAL_TIMEx_HallSensor_Start,"ax",%progbits
 352              		.align	2
 353              		.global	HAL_TIMEx_HallSensor_Start
 354              		.thumb
 355              		.thumb_func
 357              	HAL_TIMEx_HallSensor_Start:
 358              	.LFB129:
 318:Drivers/STM32F3xx_HAL_Driver/Src/stm32f3xx_hal_tim_ex.c **** 
 319:Drivers/STM32F3xx_HAL_Driver/Src/stm32f3xx_hal_tim_ex.c **** /**
 320:Drivers/STM32F3xx_HAL_Driver/Src/stm32f3xx_hal_tim_ex.c ****   * @brief  Starts the TIM Hall Sensor Interface.
 321:Drivers/STM32F3xx_HAL_Driver/Src/stm32f3xx_hal_tim_ex.c ****   * @param  htim: TIM Hall Sensor handle
 322:Drivers/STM32F3xx_HAL_Driver/Src/stm32f3xx_hal_tim_ex.c ****   * @retval HAL status
 323:Drivers/STM32F3xx_HAL_Driver/Src/stm32f3xx_hal_tim_ex.c ****   */
 324:Drivers/STM32F3xx_HAL_Driver/Src/stm32f3xx_hal_tim_ex.c **** HAL_StatusTypeDef HAL_TIMEx_HallSensor_Start(TIM_HandleTypeDef *htim)
 325:Drivers/STM32F3xx_HAL_Driver/Src/stm32f3xx_hal_tim_ex.c **** {
 359              		.loc 1 325 0
 360              		.cfi_startproc
 361              		@ args = 0, pretend = 0, frame = 8
 362              		@ frame_needed = 1, uses_anonymous_args = 0
 363 0000 80B5     		push	{r7, lr}
 364              	.LCFI12:
 365              		.cfi_def_cfa_offset 8
 366              		.cfi_offset 7, -8
 367              		.cfi_offset 14, -4
 368 0002 82B0     		sub	sp, sp, #8
ARM GAS  /tmp/ccRzvoJq.s 			page 13


 369              	.LCFI13:
 370              		.cfi_def_cfa_offset 16
 371 0004 00AF     		add	r7, sp, #0
 372              	.LCFI14:
 373              		.cfi_def_cfa_register 7
 374 0006 7860     		str	r0, [r7, #4]
 326:Drivers/STM32F3xx_HAL_Driver/Src/stm32f3xx_hal_tim_ex.c ****   /* Check the parameters */
 327:Drivers/STM32F3xx_HAL_Driver/Src/stm32f3xx_hal_tim_ex.c ****   assert_param(IS_TIM_HALL_INTERFACE_INSTANCE(htim->Instance));
 328:Drivers/STM32F3xx_HAL_Driver/Src/stm32f3xx_hal_tim_ex.c ****   
 329:Drivers/STM32F3xx_HAL_Driver/Src/stm32f3xx_hal_tim_ex.c ****   /* Enable the Input Capture channel 1
 330:Drivers/STM32F3xx_HAL_Driver/Src/stm32f3xx_hal_tim_ex.c ****     (in the Hall Sensor Interface the three possible channels that can be used are TIM_CHANNEL_1, T
 331:Drivers/STM32F3xx_HAL_Driver/Src/stm32f3xx_hal_tim_ex.c ****   TIM_CCxChannelCmd(htim->Instance, TIM_CHANNEL_1, TIM_CCx_ENABLE); 
 375              		.loc 1 331 0
 376 0008 7B68     		ldr	r3, [r7, #4]
 377 000a 1B68     		ldr	r3, [r3]
 378 000c 1846     		mov	r0, r3
 379 000e 0021     		movs	r1, #0
 380 0010 0122     		movs	r2, #1
 381 0012 FFF7FEFF 		bl	TIM_CCxChannelCmd
 332:Drivers/STM32F3xx_HAL_Driver/Src/stm32f3xx_hal_tim_ex.c ****   
 333:Drivers/STM32F3xx_HAL_Driver/Src/stm32f3xx_hal_tim_ex.c ****   /* Enable the Peripheral */
 334:Drivers/STM32F3xx_HAL_Driver/Src/stm32f3xx_hal_tim_ex.c ****   __HAL_TIM_ENABLE(htim);
 382              		.loc 1 334 0
 383 0016 7B68     		ldr	r3, [r7, #4]
 384 0018 1B68     		ldr	r3, [r3]
 385 001a 7A68     		ldr	r2, [r7, #4]
 386 001c 1268     		ldr	r2, [r2]
 387 001e 1268     		ldr	r2, [r2]
 388 0020 42F00102 		orr	r2, r2, #1
 389 0024 1A60     		str	r2, [r3]
 335:Drivers/STM32F3xx_HAL_Driver/Src/stm32f3xx_hal_tim_ex.c ****   
 336:Drivers/STM32F3xx_HAL_Driver/Src/stm32f3xx_hal_tim_ex.c ****   /* Return function status */
 337:Drivers/STM32F3xx_HAL_Driver/Src/stm32f3xx_hal_tim_ex.c ****   return HAL_OK;
 390              		.loc 1 337 0
 391 0026 0023     		movs	r3, #0
 338:Drivers/STM32F3xx_HAL_Driver/Src/stm32f3xx_hal_tim_ex.c **** }
 392              		.loc 1 338 0
 393 0028 1846     		mov	r0, r3
 394 002a 0837     		adds	r7, r7, #8
 395 002c BD46     		mov	sp, r7
 396              		@ sp needed
 397 002e 80BD     		pop	{r7, pc}
 398              		.cfi_endproc
 399              	.LFE129:
 401              		.section	.text.HAL_TIMEx_HallSensor_Stop,"ax",%progbits
 402              		.align	2
 403              		.global	HAL_TIMEx_HallSensor_Stop
 404              		.thumb
 405              		.thumb_func
 407              	HAL_TIMEx_HallSensor_Stop:
 408              	.LFB130:
 339:Drivers/STM32F3xx_HAL_Driver/Src/stm32f3xx_hal_tim_ex.c **** 
 340:Drivers/STM32F3xx_HAL_Driver/Src/stm32f3xx_hal_tim_ex.c **** /**
 341:Drivers/STM32F3xx_HAL_Driver/Src/stm32f3xx_hal_tim_ex.c ****   * @brief  Stops the TIM Hall sensor Interface.
 342:Drivers/STM32F3xx_HAL_Driver/Src/stm32f3xx_hal_tim_ex.c ****   * @param  htim: TIM Hall Sensor handle
 343:Drivers/STM32F3xx_HAL_Driver/Src/stm32f3xx_hal_tim_ex.c ****   * @retval HAL status
 344:Drivers/STM32F3xx_HAL_Driver/Src/stm32f3xx_hal_tim_ex.c ****   */
ARM GAS  /tmp/ccRzvoJq.s 			page 14


 345:Drivers/STM32F3xx_HAL_Driver/Src/stm32f3xx_hal_tim_ex.c **** HAL_StatusTypeDef HAL_TIMEx_HallSensor_Stop(TIM_HandleTypeDef *htim)
 346:Drivers/STM32F3xx_HAL_Driver/Src/stm32f3xx_hal_tim_ex.c **** {
 409              		.loc 1 346 0
 410              		.cfi_startproc
 411              		@ args = 0, pretend = 0, frame = 8
 412              		@ frame_needed = 1, uses_anonymous_args = 0
 413 0000 80B5     		push	{r7, lr}
 414              	.LCFI15:
 415              		.cfi_def_cfa_offset 8
 416              		.cfi_offset 7, -8
 417              		.cfi_offset 14, -4
 418 0002 82B0     		sub	sp, sp, #8
 419              	.LCFI16:
 420              		.cfi_def_cfa_offset 16
 421 0004 00AF     		add	r7, sp, #0
 422              	.LCFI17:
 423              		.cfi_def_cfa_register 7
 424 0006 7860     		str	r0, [r7, #4]
 347:Drivers/STM32F3xx_HAL_Driver/Src/stm32f3xx_hal_tim_ex.c ****   /* Check the parameters */
 348:Drivers/STM32F3xx_HAL_Driver/Src/stm32f3xx_hal_tim_ex.c ****   assert_param(IS_TIM_HALL_INTERFACE_INSTANCE(htim->Instance));
 349:Drivers/STM32F3xx_HAL_Driver/Src/stm32f3xx_hal_tim_ex.c ****   
 350:Drivers/STM32F3xx_HAL_Driver/Src/stm32f3xx_hal_tim_ex.c ****   /* Disable the Input Capture channels 1, 2 and 3
 351:Drivers/STM32F3xx_HAL_Driver/Src/stm32f3xx_hal_tim_ex.c ****     (in the Hall Sensor Interface the three possible channels that can be used are TIM_CHANNEL_1, T
 352:Drivers/STM32F3xx_HAL_Driver/Src/stm32f3xx_hal_tim_ex.c ****   TIM_CCxChannelCmd(htim->Instance, TIM_CHANNEL_1, TIM_CCx_DISABLE); 
 425              		.loc 1 352 0
 426 0008 7B68     		ldr	r3, [r7, #4]
 427 000a 1B68     		ldr	r3, [r3]
 428 000c 1846     		mov	r0, r3
 429 000e 0021     		movs	r1, #0
 430 0010 0022     		movs	r2, #0
 431 0012 FFF7FEFF 		bl	TIM_CCxChannelCmd
 353:Drivers/STM32F3xx_HAL_Driver/Src/stm32f3xx_hal_tim_ex.c **** 
 354:Drivers/STM32F3xx_HAL_Driver/Src/stm32f3xx_hal_tim_ex.c ****   /* Disable the Peripheral */
 355:Drivers/STM32F3xx_HAL_Driver/Src/stm32f3xx_hal_tim_ex.c ****   __HAL_TIM_DISABLE(htim);
 432              		.loc 1 355 0
 433 0016 7B68     		ldr	r3, [r7, #4]
 434 0018 1B68     		ldr	r3, [r3]
 435 001a 1A6A     		ldr	r2, [r3, #32]
 436 001c 41F21113 		movw	r3, #4369
 437 0020 1340     		ands	r3, r3, r2
 438 0022 002B     		cmp	r3, #0
 439 0024 0FD1     		bne	.L14
 440              		.loc 1 355 0 is_stmt 0 discriminator 1
 441 0026 7B68     		ldr	r3, [r7, #4]
 442 0028 1B68     		ldr	r3, [r3]
 443 002a 1A6A     		ldr	r2, [r3, #32]
 444 002c 40F24443 		movw	r3, #1092
 445 0030 1340     		ands	r3, r3, r2
 446 0032 002B     		cmp	r3, #0
 447 0034 07D1     		bne	.L14
 448 0036 7B68     		ldr	r3, [r7, #4]
 449 0038 1B68     		ldr	r3, [r3]
 450 003a 7A68     		ldr	r2, [r7, #4]
 451 003c 1268     		ldr	r2, [r2]
 452 003e 1268     		ldr	r2, [r2]
 453 0040 22F00102 		bic	r2, r2, #1
 454 0044 1A60     		str	r2, [r3]
ARM GAS  /tmp/ccRzvoJq.s 			page 15


 455              	.L14:
 356:Drivers/STM32F3xx_HAL_Driver/Src/stm32f3xx_hal_tim_ex.c ****   
 357:Drivers/STM32F3xx_HAL_Driver/Src/stm32f3xx_hal_tim_ex.c ****   /* Return function status */
 358:Drivers/STM32F3xx_HAL_Driver/Src/stm32f3xx_hal_tim_ex.c ****   return HAL_OK;
 456              		.loc 1 358 0 is_stmt 1
 457 0046 0023     		movs	r3, #0
 359:Drivers/STM32F3xx_HAL_Driver/Src/stm32f3xx_hal_tim_ex.c **** }
 458              		.loc 1 359 0
 459 0048 1846     		mov	r0, r3
 460 004a 0837     		adds	r7, r7, #8
 461 004c BD46     		mov	sp, r7
 462              		@ sp needed
 463 004e 80BD     		pop	{r7, pc}
 464              		.cfi_endproc
 465              	.LFE130:
 467              		.section	.text.HAL_TIMEx_HallSensor_Start_IT,"ax",%progbits
 468              		.align	2
 469              		.global	HAL_TIMEx_HallSensor_Start_IT
 470              		.thumb
 471              		.thumb_func
 473              	HAL_TIMEx_HallSensor_Start_IT:
 474              	.LFB131:
 360:Drivers/STM32F3xx_HAL_Driver/Src/stm32f3xx_hal_tim_ex.c **** 
 361:Drivers/STM32F3xx_HAL_Driver/Src/stm32f3xx_hal_tim_ex.c **** /**
 362:Drivers/STM32F3xx_HAL_Driver/Src/stm32f3xx_hal_tim_ex.c ****   * @brief  Starts the TIM Hall Sensor Interface in interrupt mode.
 363:Drivers/STM32F3xx_HAL_Driver/Src/stm32f3xx_hal_tim_ex.c ****   * @param  htim: TIM Hall Sensor handle
 364:Drivers/STM32F3xx_HAL_Driver/Src/stm32f3xx_hal_tim_ex.c ****   * @retval HAL status
 365:Drivers/STM32F3xx_HAL_Driver/Src/stm32f3xx_hal_tim_ex.c ****   */
 366:Drivers/STM32F3xx_HAL_Driver/Src/stm32f3xx_hal_tim_ex.c **** HAL_StatusTypeDef HAL_TIMEx_HallSensor_Start_IT(TIM_HandleTypeDef *htim)
 367:Drivers/STM32F3xx_HAL_Driver/Src/stm32f3xx_hal_tim_ex.c **** { 
 475              		.loc 1 367 0
 476              		.cfi_startproc
 477              		@ args = 0, pretend = 0, frame = 8
 478              		@ frame_needed = 1, uses_anonymous_args = 0
 479 0000 80B5     		push	{r7, lr}
 480              	.LCFI18:
 481              		.cfi_def_cfa_offset 8
 482              		.cfi_offset 7, -8
 483              		.cfi_offset 14, -4
 484 0002 82B0     		sub	sp, sp, #8
 485              	.LCFI19:
 486              		.cfi_def_cfa_offset 16
 487 0004 00AF     		add	r7, sp, #0
 488              	.LCFI20:
 489              		.cfi_def_cfa_register 7
 490 0006 7860     		str	r0, [r7, #4]
 368:Drivers/STM32F3xx_HAL_Driver/Src/stm32f3xx_hal_tim_ex.c ****   /* Check the parameters */
 369:Drivers/STM32F3xx_HAL_Driver/Src/stm32f3xx_hal_tim_ex.c ****   assert_param(IS_TIM_HALL_INTERFACE_INSTANCE(htim->Instance));
 370:Drivers/STM32F3xx_HAL_Driver/Src/stm32f3xx_hal_tim_ex.c ****   
 371:Drivers/STM32F3xx_HAL_Driver/Src/stm32f3xx_hal_tim_ex.c ****   /* Enable the capture compare Interrupts 1 event */
 372:Drivers/STM32F3xx_HAL_Driver/Src/stm32f3xx_hal_tim_ex.c ****   __HAL_TIM_ENABLE_IT(htim, TIM_IT_CC1);
 491              		.loc 1 372 0
 492 0008 7B68     		ldr	r3, [r7, #4]
 493 000a 1B68     		ldr	r3, [r3]
 494 000c 7A68     		ldr	r2, [r7, #4]
 495 000e 1268     		ldr	r2, [r2]
 496 0010 D268     		ldr	r2, [r2, #12]
ARM GAS  /tmp/ccRzvoJq.s 			page 16


 497 0012 42F00202 		orr	r2, r2, #2
 498 0016 DA60     		str	r2, [r3, #12]
 373:Drivers/STM32F3xx_HAL_Driver/Src/stm32f3xx_hal_tim_ex.c ****   
 374:Drivers/STM32F3xx_HAL_Driver/Src/stm32f3xx_hal_tim_ex.c ****   /* Enable the Input Capture channel 1
 375:Drivers/STM32F3xx_HAL_Driver/Src/stm32f3xx_hal_tim_ex.c ****     (in the Hall Sensor Interface the three possible channels that can be used are TIM_CHANNEL_1, T
 376:Drivers/STM32F3xx_HAL_Driver/Src/stm32f3xx_hal_tim_ex.c ****   TIM_CCxChannelCmd(htim->Instance, TIM_CHANNEL_1, TIM_CCx_ENABLE);  
 499              		.loc 1 376 0
 500 0018 7B68     		ldr	r3, [r7, #4]
 501 001a 1B68     		ldr	r3, [r3]
 502 001c 1846     		mov	r0, r3
 503 001e 0021     		movs	r1, #0
 504 0020 0122     		movs	r2, #1
 505 0022 FFF7FEFF 		bl	TIM_CCxChannelCmd
 377:Drivers/STM32F3xx_HAL_Driver/Src/stm32f3xx_hal_tim_ex.c ****   
 378:Drivers/STM32F3xx_HAL_Driver/Src/stm32f3xx_hal_tim_ex.c ****   /* Enable the Peripheral */
 379:Drivers/STM32F3xx_HAL_Driver/Src/stm32f3xx_hal_tim_ex.c ****   __HAL_TIM_ENABLE(htim);
 506              		.loc 1 379 0
 507 0026 7B68     		ldr	r3, [r7, #4]
 508 0028 1B68     		ldr	r3, [r3]
 509 002a 7A68     		ldr	r2, [r7, #4]
 510 002c 1268     		ldr	r2, [r2]
 511 002e 1268     		ldr	r2, [r2]
 512 0030 42F00102 		orr	r2, r2, #1
 513 0034 1A60     		str	r2, [r3]
 380:Drivers/STM32F3xx_HAL_Driver/Src/stm32f3xx_hal_tim_ex.c ****   
 381:Drivers/STM32F3xx_HAL_Driver/Src/stm32f3xx_hal_tim_ex.c ****   /* Return function status */
 382:Drivers/STM32F3xx_HAL_Driver/Src/stm32f3xx_hal_tim_ex.c ****   return HAL_OK;
 514              		.loc 1 382 0
 515 0036 0023     		movs	r3, #0
 383:Drivers/STM32F3xx_HAL_Driver/Src/stm32f3xx_hal_tim_ex.c **** }
 516              		.loc 1 383 0
 517 0038 1846     		mov	r0, r3
 518 003a 0837     		adds	r7, r7, #8
 519 003c BD46     		mov	sp, r7
 520              		@ sp needed
 521 003e 80BD     		pop	{r7, pc}
 522              		.cfi_endproc
 523              	.LFE131:
 525              		.section	.text.HAL_TIMEx_HallSensor_Stop_IT,"ax",%progbits
 526              		.align	2
 527              		.global	HAL_TIMEx_HallSensor_Stop_IT
 528              		.thumb
 529              		.thumb_func
 531              	HAL_TIMEx_HallSensor_Stop_IT:
 532              	.LFB132:
 384:Drivers/STM32F3xx_HAL_Driver/Src/stm32f3xx_hal_tim_ex.c **** 
 385:Drivers/STM32F3xx_HAL_Driver/Src/stm32f3xx_hal_tim_ex.c **** /**
 386:Drivers/STM32F3xx_HAL_Driver/Src/stm32f3xx_hal_tim_ex.c ****   * @brief  Stops the TIM Hall Sensor Interface in interrupt mode.
 387:Drivers/STM32F3xx_HAL_Driver/Src/stm32f3xx_hal_tim_ex.c ****   * @param  htim: TIM handle
 388:Drivers/STM32F3xx_HAL_Driver/Src/stm32f3xx_hal_tim_ex.c ****   * @retval HAL status
 389:Drivers/STM32F3xx_HAL_Driver/Src/stm32f3xx_hal_tim_ex.c ****   */
 390:Drivers/STM32F3xx_HAL_Driver/Src/stm32f3xx_hal_tim_ex.c **** HAL_StatusTypeDef HAL_TIMEx_HallSensor_Stop_IT(TIM_HandleTypeDef *htim)
 391:Drivers/STM32F3xx_HAL_Driver/Src/stm32f3xx_hal_tim_ex.c **** {
 533              		.loc 1 391 0
 534              		.cfi_startproc
 535              		@ args = 0, pretend = 0, frame = 8
 536              		@ frame_needed = 1, uses_anonymous_args = 0
ARM GAS  /tmp/ccRzvoJq.s 			page 17


 537 0000 80B5     		push	{r7, lr}
 538              	.LCFI21:
 539              		.cfi_def_cfa_offset 8
 540              		.cfi_offset 7, -8
 541              		.cfi_offset 14, -4
 542 0002 82B0     		sub	sp, sp, #8
 543              	.LCFI22:
 544              		.cfi_def_cfa_offset 16
 545 0004 00AF     		add	r7, sp, #0
 546              	.LCFI23:
 547              		.cfi_def_cfa_register 7
 548 0006 7860     		str	r0, [r7, #4]
 392:Drivers/STM32F3xx_HAL_Driver/Src/stm32f3xx_hal_tim_ex.c ****   /* Check the parameters */
 393:Drivers/STM32F3xx_HAL_Driver/Src/stm32f3xx_hal_tim_ex.c ****   assert_param(IS_TIM_HALL_INTERFACE_INSTANCE(htim->Instance));
 394:Drivers/STM32F3xx_HAL_Driver/Src/stm32f3xx_hal_tim_ex.c ****   
 395:Drivers/STM32F3xx_HAL_Driver/Src/stm32f3xx_hal_tim_ex.c ****   /* Disable the Input Capture channel 1
 396:Drivers/STM32F3xx_HAL_Driver/Src/stm32f3xx_hal_tim_ex.c ****     (in the Hall Sensor Interface the three possible channels that can be used are TIM_CHANNEL_1, T
 397:Drivers/STM32F3xx_HAL_Driver/Src/stm32f3xx_hal_tim_ex.c ****   TIM_CCxChannelCmd(htim->Instance, TIM_CHANNEL_1, TIM_CCx_DISABLE); 
 549              		.loc 1 397 0
 550 0008 7B68     		ldr	r3, [r7, #4]
 551 000a 1B68     		ldr	r3, [r3]
 552 000c 1846     		mov	r0, r3
 553 000e 0021     		movs	r1, #0
 554 0010 0022     		movs	r2, #0
 555 0012 FFF7FEFF 		bl	TIM_CCxChannelCmd
 398:Drivers/STM32F3xx_HAL_Driver/Src/stm32f3xx_hal_tim_ex.c ****   
 399:Drivers/STM32F3xx_HAL_Driver/Src/stm32f3xx_hal_tim_ex.c ****   /* Disable the capture compare Interrupts event */
 400:Drivers/STM32F3xx_HAL_Driver/Src/stm32f3xx_hal_tim_ex.c ****   __HAL_TIM_DISABLE_IT(htim, TIM_IT_CC1);
 556              		.loc 1 400 0
 557 0016 7B68     		ldr	r3, [r7, #4]
 558 0018 1B68     		ldr	r3, [r3]
 559 001a 7A68     		ldr	r2, [r7, #4]
 560 001c 1268     		ldr	r2, [r2]
 561 001e D268     		ldr	r2, [r2, #12]
 562 0020 22F00202 		bic	r2, r2, #2
 563 0024 DA60     		str	r2, [r3, #12]
 401:Drivers/STM32F3xx_HAL_Driver/Src/stm32f3xx_hal_tim_ex.c ****   
 402:Drivers/STM32F3xx_HAL_Driver/Src/stm32f3xx_hal_tim_ex.c ****   /* Disable the Peripheral */
 403:Drivers/STM32F3xx_HAL_Driver/Src/stm32f3xx_hal_tim_ex.c ****   __HAL_TIM_DISABLE(htim);
 564              		.loc 1 403 0
 565 0026 7B68     		ldr	r3, [r7, #4]
 566 0028 1B68     		ldr	r3, [r3]
 567 002a 1A6A     		ldr	r2, [r3, #32]
 568 002c 41F21113 		movw	r3, #4369
 569 0030 1340     		ands	r3, r3, r2
 570 0032 002B     		cmp	r3, #0
 571 0034 0FD1     		bne	.L19
 572              		.loc 1 403 0 is_stmt 0 discriminator 1
 573 0036 7B68     		ldr	r3, [r7, #4]
 574 0038 1B68     		ldr	r3, [r3]
 575 003a 1A6A     		ldr	r2, [r3, #32]
 576 003c 40F24443 		movw	r3, #1092
 577 0040 1340     		ands	r3, r3, r2
 578 0042 002B     		cmp	r3, #0
 579 0044 07D1     		bne	.L19
 580 0046 7B68     		ldr	r3, [r7, #4]
 581 0048 1B68     		ldr	r3, [r3]
ARM GAS  /tmp/ccRzvoJq.s 			page 18


 582 004a 7A68     		ldr	r2, [r7, #4]
 583 004c 1268     		ldr	r2, [r2]
 584 004e 1268     		ldr	r2, [r2]
 585 0050 22F00102 		bic	r2, r2, #1
 586 0054 1A60     		str	r2, [r3]
 587              	.L19:
 404:Drivers/STM32F3xx_HAL_Driver/Src/stm32f3xx_hal_tim_ex.c ****   
 405:Drivers/STM32F3xx_HAL_Driver/Src/stm32f3xx_hal_tim_ex.c ****   /* Return function status */
 406:Drivers/STM32F3xx_HAL_Driver/Src/stm32f3xx_hal_tim_ex.c ****   return HAL_OK;
 588              		.loc 1 406 0 is_stmt 1
 589 0056 0023     		movs	r3, #0
 407:Drivers/STM32F3xx_HAL_Driver/Src/stm32f3xx_hal_tim_ex.c **** }
 590              		.loc 1 407 0
 591 0058 1846     		mov	r0, r3
 592 005a 0837     		adds	r7, r7, #8
 593 005c BD46     		mov	sp, r7
 594              		@ sp needed
 595 005e 80BD     		pop	{r7, pc}
 596              		.cfi_endproc
 597              	.LFE132:
 599              		.section	.text.HAL_TIMEx_HallSensor_Start_DMA,"ax",%progbits
 600              		.align	2
 601              		.global	HAL_TIMEx_HallSensor_Start_DMA
 602              		.thumb
 603              		.thumb_func
 605              	HAL_TIMEx_HallSensor_Start_DMA:
 606              	.LFB133:
 408:Drivers/STM32F3xx_HAL_Driver/Src/stm32f3xx_hal_tim_ex.c **** 
 409:Drivers/STM32F3xx_HAL_Driver/Src/stm32f3xx_hal_tim_ex.c **** /**
 410:Drivers/STM32F3xx_HAL_Driver/Src/stm32f3xx_hal_tim_ex.c ****   * @brief  Starts the TIM Hall Sensor Interface in DMA mode.
 411:Drivers/STM32F3xx_HAL_Driver/Src/stm32f3xx_hal_tim_ex.c ****   * @param  htim: TIM Hall Sensor handle
 412:Drivers/STM32F3xx_HAL_Driver/Src/stm32f3xx_hal_tim_ex.c ****   * @param  pData: The destination Buffer address.
 413:Drivers/STM32F3xx_HAL_Driver/Src/stm32f3xx_hal_tim_ex.c ****   * @param  Length: The length of data to be transferred from TIM peripheral to memory.
 414:Drivers/STM32F3xx_HAL_Driver/Src/stm32f3xx_hal_tim_ex.c ****   * @retval HAL status
 415:Drivers/STM32F3xx_HAL_Driver/Src/stm32f3xx_hal_tim_ex.c ****   */
 416:Drivers/STM32F3xx_HAL_Driver/Src/stm32f3xx_hal_tim_ex.c **** HAL_StatusTypeDef HAL_TIMEx_HallSensor_Start_DMA(TIM_HandleTypeDef *htim, uint32_t *pData, uint16_t
 417:Drivers/STM32F3xx_HAL_Driver/Src/stm32f3xx_hal_tim_ex.c **** {
 607              		.loc 1 417 0
 608              		.cfi_startproc
 609              		@ args = 0, pretend = 0, frame = 16
 610              		@ frame_needed = 1, uses_anonymous_args = 0
 611 0000 80B5     		push	{r7, lr}
 612              	.LCFI24:
 613              		.cfi_def_cfa_offset 8
 614              		.cfi_offset 7, -8
 615              		.cfi_offset 14, -4
 616 0002 84B0     		sub	sp, sp, #16
 617              	.LCFI25:
 618              		.cfi_def_cfa_offset 24
 619 0004 00AF     		add	r7, sp, #0
 620              	.LCFI26:
 621              		.cfi_def_cfa_register 7
 622 0006 F860     		str	r0, [r7, #12]
 623 0008 B960     		str	r1, [r7, #8]
 624 000a 1346     		mov	r3, r2
 625 000c FB80     		strh	r3, [r7, #6]	@ movhi
 418:Drivers/STM32F3xx_HAL_Driver/Src/stm32f3xx_hal_tim_ex.c ****   /* Check the parameters */
ARM GAS  /tmp/ccRzvoJq.s 			page 19


 419:Drivers/STM32F3xx_HAL_Driver/Src/stm32f3xx_hal_tim_ex.c ****   assert_param(IS_TIM_HALL_INTERFACE_INSTANCE(htim->Instance));
 420:Drivers/STM32F3xx_HAL_Driver/Src/stm32f3xx_hal_tim_ex.c ****   
 421:Drivers/STM32F3xx_HAL_Driver/Src/stm32f3xx_hal_tim_ex.c ****    if((htim->State == HAL_TIM_STATE_BUSY))
 626              		.loc 1 421 0
 627 000e FB68     		ldr	r3, [r7, #12]
 628 0010 93F83930 		ldrb	r3, [r3, #57]
 629 0014 DBB2     		uxtb	r3, r3
 630 0016 022B     		cmp	r3, #2
 631 0018 01D1     		bne	.L22
 422:Drivers/STM32F3xx_HAL_Driver/Src/stm32f3xx_hal_tim_ex.c ****   {
 423:Drivers/STM32F3xx_HAL_Driver/Src/stm32f3xx_hal_tim_ex.c ****      return HAL_BUSY;
 632              		.loc 1 423 0
 633 001a 0223     		movs	r3, #2
 634 001c 3BE0     		b	.L23
 635              	.L22:
 424:Drivers/STM32F3xx_HAL_Driver/Src/stm32f3xx_hal_tim_ex.c ****   }
 425:Drivers/STM32F3xx_HAL_Driver/Src/stm32f3xx_hal_tim_ex.c ****   else if((htim->State == HAL_TIM_STATE_READY))
 636              		.loc 1 425 0
 637 001e FB68     		ldr	r3, [r7, #12]
 638 0020 93F83930 		ldrb	r3, [r3, #57]
 639 0024 DBB2     		uxtb	r3, r3
 640 0026 012B     		cmp	r3, #1
 641 0028 0BD1     		bne	.L24
 426:Drivers/STM32F3xx_HAL_Driver/Src/stm32f3xx_hal_tim_ex.c ****   {
 427:Drivers/STM32F3xx_HAL_Driver/Src/stm32f3xx_hal_tim_ex.c ****     if(((uint32_t)pData == 0 ) && (Length > 0)) 
 642              		.loc 1 427 0
 643 002a BB68     		ldr	r3, [r7, #8]
 644 002c 002B     		cmp	r3, #0
 645 002e 04D1     		bne	.L25
 646              		.loc 1 427 0 is_stmt 0 discriminator 1
 647 0030 FB88     		ldrh	r3, [r7, #6]
 648 0032 002B     		cmp	r3, #0
 649 0034 01D0     		beq	.L25
 428:Drivers/STM32F3xx_HAL_Driver/Src/stm32f3xx_hal_tim_ex.c ****     {
 429:Drivers/STM32F3xx_HAL_Driver/Src/stm32f3xx_hal_tim_ex.c ****       return HAL_ERROR;                                    
 650              		.loc 1 429 0 is_stmt 1
 651 0036 0123     		movs	r3, #1
 652 0038 2DE0     		b	.L23
 653              	.L25:
 430:Drivers/STM32F3xx_HAL_Driver/Src/stm32f3xx_hal_tim_ex.c ****     }
 431:Drivers/STM32F3xx_HAL_Driver/Src/stm32f3xx_hal_tim_ex.c ****     else
 432:Drivers/STM32F3xx_HAL_Driver/Src/stm32f3xx_hal_tim_ex.c ****     {
 433:Drivers/STM32F3xx_HAL_Driver/Src/stm32f3xx_hal_tim_ex.c ****       htim->State = HAL_TIM_STATE_BUSY;
 654              		.loc 1 433 0
 655 003a FB68     		ldr	r3, [r7, #12]
 656 003c 0222     		movs	r2, #2
 657 003e 83F83920 		strb	r2, [r3, #57]
 658              	.L24:
 434:Drivers/STM32F3xx_HAL_Driver/Src/stm32f3xx_hal_tim_ex.c ****     }
 435:Drivers/STM32F3xx_HAL_Driver/Src/stm32f3xx_hal_tim_ex.c ****   }
 436:Drivers/STM32F3xx_HAL_Driver/Src/stm32f3xx_hal_tim_ex.c ****   /* Enable the Input Capture channel 1
 437:Drivers/STM32F3xx_HAL_Driver/Src/stm32f3xx_hal_tim_ex.c ****     (in the Hall Sensor Interface the three possible channels that can be used are TIM_CHANNEL_1, T
 438:Drivers/STM32F3xx_HAL_Driver/Src/stm32f3xx_hal_tim_ex.c ****   TIM_CCxChannelCmd(htim->Instance, TIM_CHANNEL_1, TIM_CCx_ENABLE); 
 659              		.loc 1 438 0
 660 0042 FB68     		ldr	r3, [r7, #12]
 661 0044 1B68     		ldr	r3, [r3]
 662 0046 1846     		mov	r0, r3
ARM GAS  /tmp/ccRzvoJq.s 			page 20


 663 0048 0021     		movs	r1, #0
 664 004a 0122     		movs	r2, #1
 665 004c FFF7FEFF 		bl	TIM_CCxChannelCmd
 439:Drivers/STM32F3xx_HAL_Driver/Src/stm32f3xx_hal_tim_ex.c ****   
 440:Drivers/STM32F3xx_HAL_Driver/Src/stm32f3xx_hal_tim_ex.c ****   /* Set the DMA Input Capture 1 Callback */
 441:Drivers/STM32F3xx_HAL_Driver/Src/stm32f3xx_hal_tim_ex.c ****   htim->hdma[TIM_DMA_ID_CC1]->XferCpltCallback = TIM_DMACaptureCplt;     
 666              		.loc 1 441 0
 667 0050 FB68     		ldr	r3, [r7, #12]
 668 0052 1B6A     		ldr	r3, [r3, #32]
 669 0054 124A     		ldr	r2, .L26
 670 0056 9A62     		str	r2, [r3, #40]
 442:Drivers/STM32F3xx_HAL_Driver/Src/stm32f3xx_hal_tim_ex.c ****   /* Set the DMA error callback */
 443:Drivers/STM32F3xx_HAL_Driver/Src/stm32f3xx_hal_tim_ex.c ****   htim->hdma[TIM_DMA_ID_CC1]->XferErrorCallback = TIM_DMAError ;
 671              		.loc 1 443 0
 672 0058 FB68     		ldr	r3, [r7, #12]
 673 005a 1B6A     		ldr	r3, [r3, #32]
 674 005c 114A     		ldr	r2, .L26+4
 675 005e 1A63     		str	r2, [r3, #48]
 444:Drivers/STM32F3xx_HAL_Driver/Src/stm32f3xx_hal_tim_ex.c ****   
 445:Drivers/STM32F3xx_HAL_Driver/Src/stm32f3xx_hal_tim_ex.c ****   /* Enable the DMA channel for Capture 1*/
 446:Drivers/STM32F3xx_HAL_Driver/Src/stm32f3xx_hal_tim_ex.c ****   HAL_DMA_Start_IT(htim->hdma[TIM_DMA_ID_CC1], (uint32_t)&htim->Instance->CCR1, (uint32_t)pData, Le
 676              		.loc 1 446 0
 677 0060 FB68     		ldr	r3, [r7, #12]
 678 0062 186A     		ldr	r0, [r3, #32]
 679 0064 FB68     		ldr	r3, [r7, #12]
 680 0066 1B68     		ldr	r3, [r3]
 681 0068 3433     		adds	r3, r3, #52
 682 006a 1946     		mov	r1, r3
 683 006c BA68     		ldr	r2, [r7, #8]
 684 006e FB88     		ldrh	r3, [r7, #6]
 685 0070 FFF7FEFF 		bl	HAL_DMA_Start_IT
 447:Drivers/STM32F3xx_HAL_Driver/Src/stm32f3xx_hal_tim_ex.c ****   
 448:Drivers/STM32F3xx_HAL_Driver/Src/stm32f3xx_hal_tim_ex.c ****   /* Enable the capture compare 1 Interrupt */
 449:Drivers/STM32F3xx_HAL_Driver/Src/stm32f3xx_hal_tim_ex.c ****   __HAL_TIM_ENABLE_DMA(htim, TIM_DMA_CC1);
 686              		.loc 1 449 0
 687 0074 FB68     		ldr	r3, [r7, #12]
 688 0076 1B68     		ldr	r3, [r3]
 689 0078 FA68     		ldr	r2, [r7, #12]
 690 007a 1268     		ldr	r2, [r2]
 691 007c D268     		ldr	r2, [r2, #12]
 692 007e 42F40072 		orr	r2, r2, #512
 693 0082 DA60     		str	r2, [r3, #12]
 450:Drivers/STM32F3xx_HAL_Driver/Src/stm32f3xx_hal_tim_ex.c ****  
 451:Drivers/STM32F3xx_HAL_Driver/Src/stm32f3xx_hal_tim_ex.c ****   /* Enable the Peripheral */
 452:Drivers/STM32F3xx_HAL_Driver/Src/stm32f3xx_hal_tim_ex.c ****   __HAL_TIM_ENABLE(htim);
 694              		.loc 1 452 0
 695 0084 FB68     		ldr	r3, [r7, #12]
 696 0086 1B68     		ldr	r3, [r3]
 697 0088 FA68     		ldr	r2, [r7, #12]
 698 008a 1268     		ldr	r2, [r2]
 699 008c 1268     		ldr	r2, [r2]
 700 008e 42F00102 		orr	r2, r2, #1
 701 0092 1A60     		str	r2, [r3]
 453:Drivers/STM32F3xx_HAL_Driver/Src/stm32f3xx_hal_tim_ex.c ****   
 454:Drivers/STM32F3xx_HAL_Driver/Src/stm32f3xx_hal_tim_ex.c ****   /* Return function status */
 455:Drivers/STM32F3xx_HAL_Driver/Src/stm32f3xx_hal_tim_ex.c ****   return HAL_OK;
 702              		.loc 1 455 0
ARM GAS  /tmp/ccRzvoJq.s 			page 21


 703 0094 0023     		movs	r3, #0
 704              	.L23:
 456:Drivers/STM32F3xx_HAL_Driver/Src/stm32f3xx_hal_tim_ex.c **** }
 705              		.loc 1 456 0
 706 0096 1846     		mov	r0, r3
 707 0098 1037     		adds	r7, r7, #16
 708 009a BD46     		mov	sp, r7
 709              		@ sp needed
 710 009c 80BD     		pop	{r7, pc}
 711              	.L27:
 712 009e 00BF     		.align	2
 713              	.L26:
 714 00a0 00000000 		.word	TIM_DMACaptureCplt
 715 00a4 00000000 		.word	TIM_DMAError
 716              		.cfi_endproc
 717              	.LFE133:
 719              		.section	.text.HAL_TIMEx_HallSensor_Stop_DMA,"ax",%progbits
 720              		.align	2
 721              		.global	HAL_TIMEx_HallSensor_Stop_DMA
 722              		.thumb
 723              		.thumb_func
 725              	HAL_TIMEx_HallSensor_Stop_DMA:
 726              	.LFB134:
 457:Drivers/STM32F3xx_HAL_Driver/Src/stm32f3xx_hal_tim_ex.c **** 
 458:Drivers/STM32F3xx_HAL_Driver/Src/stm32f3xx_hal_tim_ex.c **** /**
 459:Drivers/STM32F3xx_HAL_Driver/Src/stm32f3xx_hal_tim_ex.c ****   * @brief  Stops the TIM Hall Sensor Interface in DMA mode.
 460:Drivers/STM32F3xx_HAL_Driver/Src/stm32f3xx_hal_tim_ex.c ****   * @param  htim: TIM handle
 461:Drivers/STM32F3xx_HAL_Driver/Src/stm32f3xx_hal_tim_ex.c ****   * @retval HAL status
 462:Drivers/STM32F3xx_HAL_Driver/Src/stm32f3xx_hal_tim_ex.c ****   */
 463:Drivers/STM32F3xx_HAL_Driver/Src/stm32f3xx_hal_tim_ex.c **** HAL_StatusTypeDef HAL_TIMEx_HallSensor_Stop_DMA(TIM_HandleTypeDef *htim)
 464:Drivers/STM32F3xx_HAL_Driver/Src/stm32f3xx_hal_tim_ex.c **** {
 727              		.loc 1 464 0
 728              		.cfi_startproc
 729              		@ args = 0, pretend = 0, frame = 8
 730              		@ frame_needed = 1, uses_anonymous_args = 0
 731 0000 80B5     		push	{r7, lr}
 732              	.LCFI27:
 733              		.cfi_def_cfa_offset 8
 734              		.cfi_offset 7, -8
 735              		.cfi_offset 14, -4
 736 0002 82B0     		sub	sp, sp, #8
 737              	.LCFI28:
 738              		.cfi_def_cfa_offset 16
 739 0004 00AF     		add	r7, sp, #0
 740              	.LCFI29:
 741              		.cfi_def_cfa_register 7
 742 0006 7860     		str	r0, [r7, #4]
 465:Drivers/STM32F3xx_HAL_Driver/Src/stm32f3xx_hal_tim_ex.c ****   /* Check the parameters */
 466:Drivers/STM32F3xx_HAL_Driver/Src/stm32f3xx_hal_tim_ex.c ****   assert_param(IS_TIM_HALL_INTERFACE_INSTANCE(htim->Instance));
 467:Drivers/STM32F3xx_HAL_Driver/Src/stm32f3xx_hal_tim_ex.c ****   
 468:Drivers/STM32F3xx_HAL_Driver/Src/stm32f3xx_hal_tim_ex.c ****   /* Disable the Input Capture channel 1
 469:Drivers/STM32F3xx_HAL_Driver/Src/stm32f3xx_hal_tim_ex.c ****     (in the Hall Sensor Interface the three possible channels that can be used are TIM_CHANNEL_1, T
 470:Drivers/STM32F3xx_HAL_Driver/Src/stm32f3xx_hal_tim_ex.c ****   TIM_CCxChannelCmd(htim->Instance, TIM_CHANNEL_1, TIM_CCx_DISABLE); 
 743              		.loc 1 470 0
 744 0008 7B68     		ldr	r3, [r7, #4]
 745 000a 1B68     		ldr	r3, [r3]
 746 000c 1846     		mov	r0, r3
ARM GAS  /tmp/ccRzvoJq.s 			page 22


 747 000e 0021     		movs	r1, #0
 748 0010 0022     		movs	r2, #0
 749 0012 FFF7FEFF 		bl	TIM_CCxChannelCmd
 471:Drivers/STM32F3xx_HAL_Driver/Src/stm32f3xx_hal_tim_ex.c ****  
 472:Drivers/STM32F3xx_HAL_Driver/Src/stm32f3xx_hal_tim_ex.c ****   
 473:Drivers/STM32F3xx_HAL_Driver/Src/stm32f3xx_hal_tim_ex.c ****   /* Disable the capture compare Interrupts 1 event */
 474:Drivers/STM32F3xx_HAL_Driver/Src/stm32f3xx_hal_tim_ex.c ****   __HAL_TIM_DISABLE_DMA(htim, TIM_DMA_CC1);
 750              		.loc 1 474 0
 751 0016 7B68     		ldr	r3, [r7, #4]
 752 0018 1B68     		ldr	r3, [r3]
 753 001a 7A68     		ldr	r2, [r7, #4]
 754 001c 1268     		ldr	r2, [r2]
 755 001e D268     		ldr	r2, [r2, #12]
 756 0020 22F40072 		bic	r2, r2, #512
 757 0024 DA60     		str	r2, [r3, #12]
 475:Drivers/STM32F3xx_HAL_Driver/Src/stm32f3xx_hal_tim_ex.c ****  
 476:Drivers/STM32F3xx_HAL_Driver/Src/stm32f3xx_hal_tim_ex.c ****   /* Disable the Peripheral */
 477:Drivers/STM32F3xx_HAL_Driver/Src/stm32f3xx_hal_tim_ex.c ****   __HAL_TIM_DISABLE(htim);
 758              		.loc 1 477 0
 759 0026 7B68     		ldr	r3, [r7, #4]
 760 0028 1B68     		ldr	r3, [r3]
 761 002a 1A6A     		ldr	r2, [r3, #32]
 762 002c 41F21113 		movw	r3, #4369
 763 0030 1340     		ands	r3, r3, r2
 764 0032 002B     		cmp	r3, #0
 765 0034 0FD1     		bne	.L29
 766              		.loc 1 477 0 is_stmt 0 discriminator 1
 767 0036 7B68     		ldr	r3, [r7, #4]
 768 0038 1B68     		ldr	r3, [r3]
 769 003a 1A6A     		ldr	r2, [r3, #32]
 770 003c 40F24443 		movw	r3, #1092
 771 0040 1340     		ands	r3, r3, r2
 772 0042 002B     		cmp	r3, #0
 773 0044 07D1     		bne	.L29
 774 0046 7B68     		ldr	r3, [r7, #4]
 775 0048 1B68     		ldr	r3, [r3]
 776 004a 7A68     		ldr	r2, [r7, #4]
 777 004c 1268     		ldr	r2, [r2]
 778 004e 1268     		ldr	r2, [r2]
 779 0050 22F00102 		bic	r2, r2, #1
 780 0054 1A60     		str	r2, [r3]
 781              	.L29:
 478:Drivers/STM32F3xx_HAL_Driver/Src/stm32f3xx_hal_tim_ex.c ****   
 479:Drivers/STM32F3xx_HAL_Driver/Src/stm32f3xx_hal_tim_ex.c ****   /* Return function status */
 480:Drivers/STM32F3xx_HAL_Driver/Src/stm32f3xx_hal_tim_ex.c ****   return HAL_OK;
 782              		.loc 1 480 0 is_stmt 1
 783 0056 0023     		movs	r3, #0
 481:Drivers/STM32F3xx_HAL_Driver/Src/stm32f3xx_hal_tim_ex.c **** }
 784              		.loc 1 481 0
 785 0058 1846     		mov	r0, r3
 786 005a 0837     		adds	r7, r7, #8
 787 005c BD46     		mov	sp, r7
 788              		@ sp needed
 789 005e 80BD     		pop	{r7, pc}
 790              		.cfi_endproc
 791              	.LFE134:
 793              		.section	.text.HAL_TIMEx_OCN_Start,"ax",%progbits
ARM GAS  /tmp/ccRzvoJq.s 			page 23


 794              		.align	2
 795              		.global	HAL_TIMEx_OCN_Start
 796              		.thumb
 797              		.thumb_func
 799              	HAL_TIMEx_OCN_Start:
 800              	.LFB135:
 482:Drivers/STM32F3xx_HAL_Driver/Src/stm32f3xx_hal_tim_ex.c **** 
 483:Drivers/STM32F3xx_HAL_Driver/Src/stm32f3xx_hal_tim_ex.c **** /**
 484:Drivers/STM32F3xx_HAL_Driver/Src/stm32f3xx_hal_tim_ex.c ****   * @}
 485:Drivers/STM32F3xx_HAL_Driver/Src/stm32f3xx_hal_tim_ex.c ****   */
 486:Drivers/STM32F3xx_HAL_Driver/Src/stm32f3xx_hal_tim_ex.c ****   
 487:Drivers/STM32F3xx_HAL_Driver/Src/stm32f3xx_hal_tim_ex.c **** /** @defgroup TIMEx_Exported_Functions_Group2 Timer Complementary Output Compare functions
 488:Drivers/STM32F3xx_HAL_Driver/Src/stm32f3xx_hal_tim_ex.c ****   *  @brief   Timer Complementary Output Compare functions
 489:Drivers/STM32F3xx_HAL_Driver/Src/stm32f3xx_hal_tim_ex.c ****   *
 490:Drivers/STM32F3xx_HAL_Driver/Src/stm32f3xx_hal_tim_ex.c **** @verbatim   
 491:Drivers/STM32F3xx_HAL_Driver/Src/stm32f3xx_hal_tim_ex.c ****   ==============================================================================
 492:Drivers/STM32F3xx_HAL_Driver/Src/stm32f3xx_hal_tim_ex.c ****               ##### Timer Complementary Output Compare functions #####
 493:Drivers/STM32F3xx_HAL_Driver/Src/stm32f3xx_hal_tim_ex.c ****   ==============================================================================  
 494:Drivers/STM32F3xx_HAL_Driver/Src/stm32f3xx_hal_tim_ex.c ****   [..]  
 495:Drivers/STM32F3xx_HAL_Driver/Src/stm32f3xx_hal_tim_ex.c ****     This section provides functions allowing to:
 496:Drivers/STM32F3xx_HAL_Driver/Src/stm32f3xx_hal_tim_ex.c ****     (+) Start the Complementary Output Compare.
 497:Drivers/STM32F3xx_HAL_Driver/Src/stm32f3xx_hal_tim_ex.c ****     (+) Stop the Complementary Output Compare.
 498:Drivers/STM32F3xx_HAL_Driver/Src/stm32f3xx_hal_tim_ex.c ****     (+) Start the Complementary Output Compare and enable interrupts.
 499:Drivers/STM32F3xx_HAL_Driver/Src/stm32f3xx_hal_tim_ex.c ****     (+) Stop the Complementary Output Compare and disable interrupts.
 500:Drivers/STM32F3xx_HAL_Driver/Src/stm32f3xx_hal_tim_ex.c ****     (+) Start the Complementary Output Compare and enable DMA transfers.
 501:Drivers/STM32F3xx_HAL_Driver/Src/stm32f3xx_hal_tim_ex.c ****     (+) Stop the Complementary Output Compare and disable DMA transfers.
 502:Drivers/STM32F3xx_HAL_Driver/Src/stm32f3xx_hal_tim_ex.c ****                
 503:Drivers/STM32F3xx_HAL_Driver/Src/stm32f3xx_hal_tim_ex.c **** @endverbatim
 504:Drivers/STM32F3xx_HAL_Driver/Src/stm32f3xx_hal_tim_ex.c ****   * @{
 505:Drivers/STM32F3xx_HAL_Driver/Src/stm32f3xx_hal_tim_ex.c ****   */
 506:Drivers/STM32F3xx_HAL_Driver/Src/stm32f3xx_hal_tim_ex.c ****   
 507:Drivers/STM32F3xx_HAL_Driver/Src/stm32f3xx_hal_tim_ex.c **** /**
 508:Drivers/STM32F3xx_HAL_Driver/Src/stm32f3xx_hal_tim_ex.c ****   * @brief  Starts the TIM Output Compare signal generation on the complementary
 509:Drivers/STM32F3xx_HAL_Driver/Src/stm32f3xx_hal_tim_ex.c ****   *         output.
 510:Drivers/STM32F3xx_HAL_Driver/Src/stm32f3xx_hal_tim_ex.c ****   * @param  htim: TIM Output Compare handle  
 511:Drivers/STM32F3xx_HAL_Driver/Src/stm32f3xx_hal_tim_ex.c ****   * @param  Channel: TIM Channel to be enabled
 512:Drivers/STM32F3xx_HAL_Driver/Src/stm32f3xx_hal_tim_ex.c ****   *          This parameter can be one of the following values:
 513:Drivers/STM32F3xx_HAL_Driver/Src/stm32f3xx_hal_tim_ex.c ****   *            @arg TIM_CHANNEL_1: TIM Channel 1 selected
 514:Drivers/STM32F3xx_HAL_Driver/Src/stm32f3xx_hal_tim_ex.c ****   *            @arg TIM_CHANNEL_2: TIM Channel 2 selected
 515:Drivers/STM32F3xx_HAL_Driver/Src/stm32f3xx_hal_tim_ex.c ****   *            @arg TIM_CHANNEL_3: TIM Channel 3 selected
 516:Drivers/STM32F3xx_HAL_Driver/Src/stm32f3xx_hal_tim_ex.c ****   *            @arg TIM_CHANNEL_4: TIM Channel 4 selected
 517:Drivers/STM32F3xx_HAL_Driver/Src/stm32f3xx_hal_tim_ex.c ****   * @retval HAL status
 518:Drivers/STM32F3xx_HAL_Driver/Src/stm32f3xx_hal_tim_ex.c ****   */
 519:Drivers/STM32F3xx_HAL_Driver/Src/stm32f3xx_hal_tim_ex.c **** HAL_StatusTypeDef HAL_TIMEx_OCN_Start(TIM_HandleTypeDef *htim, uint32_t Channel)
 520:Drivers/STM32F3xx_HAL_Driver/Src/stm32f3xx_hal_tim_ex.c **** {
 801              		.loc 1 520 0
 802              		.cfi_startproc
 803              		@ args = 0, pretend = 0, frame = 8
 804              		@ frame_needed = 1, uses_anonymous_args = 0
 805 0000 80B5     		push	{r7, lr}
 806              	.LCFI30:
 807              		.cfi_def_cfa_offset 8
 808              		.cfi_offset 7, -8
 809              		.cfi_offset 14, -4
 810 0002 82B0     		sub	sp, sp, #8
 811              	.LCFI31:
 812              		.cfi_def_cfa_offset 16
ARM GAS  /tmp/ccRzvoJq.s 			page 24


 813 0004 00AF     		add	r7, sp, #0
 814              	.LCFI32:
 815              		.cfi_def_cfa_register 7
 816 0006 7860     		str	r0, [r7, #4]
 817 0008 3960     		str	r1, [r7]
 521:Drivers/STM32F3xx_HAL_Driver/Src/stm32f3xx_hal_tim_ex.c ****   /* Check the parameters */
 522:Drivers/STM32F3xx_HAL_Driver/Src/stm32f3xx_hal_tim_ex.c ****   assert_param(IS_TIM_CCXN_INSTANCE(htim->Instance, Channel)); 
 523:Drivers/STM32F3xx_HAL_Driver/Src/stm32f3xx_hal_tim_ex.c ****   
 524:Drivers/STM32F3xx_HAL_Driver/Src/stm32f3xx_hal_tim_ex.c ****      /* Enable the Capture compare channel N */
 525:Drivers/STM32F3xx_HAL_Driver/Src/stm32f3xx_hal_tim_ex.c ****      TIM_CCxNChannelCmd(htim->Instance, Channel, TIM_CCxN_ENABLE);
 818              		.loc 1 525 0
 819 000a 7B68     		ldr	r3, [r7, #4]
 820 000c 1B68     		ldr	r3, [r3]
 821 000e 1846     		mov	r0, r3
 822 0010 3968     		ldr	r1, [r7]
 823 0012 0422     		movs	r2, #4
 824 0014 FFF7FEFF 		bl	TIM_CCxNChannelCmd
 526:Drivers/STM32F3xx_HAL_Driver/Src/stm32f3xx_hal_tim_ex.c ****     
 527:Drivers/STM32F3xx_HAL_Driver/Src/stm32f3xx_hal_tim_ex.c ****   /* Enable the Main Ouput */
 528:Drivers/STM32F3xx_HAL_Driver/Src/stm32f3xx_hal_tim_ex.c ****     __HAL_TIM_MOE_ENABLE(htim);
 825              		.loc 1 528 0
 826 0018 7B68     		ldr	r3, [r7, #4]
 827 001a 1B68     		ldr	r3, [r3]
 828 001c 7A68     		ldr	r2, [r7, #4]
 829 001e 1268     		ldr	r2, [r2]
 830 0020 526C     		ldr	r2, [r2, #68]
 831 0022 42F40042 		orr	r2, r2, #32768
 832 0026 5A64     		str	r2, [r3, #68]
 529:Drivers/STM32F3xx_HAL_Driver/Src/stm32f3xx_hal_tim_ex.c **** 
 530:Drivers/STM32F3xx_HAL_Driver/Src/stm32f3xx_hal_tim_ex.c ****   /* Enable the Peripheral */
 531:Drivers/STM32F3xx_HAL_Driver/Src/stm32f3xx_hal_tim_ex.c ****   __HAL_TIM_ENABLE(htim);
 833              		.loc 1 531 0
 834 0028 7B68     		ldr	r3, [r7, #4]
 835 002a 1B68     		ldr	r3, [r3]
 836 002c 7A68     		ldr	r2, [r7, #4]
 837 002e 1268     		ldr	r2, [r2]
 838 0030 1268     		ldr	r2, [r2]
 839 0032 42F00102 		orr	r2, r2, #1
 840 0036 1A60     		str	r2, [r3]
 532:Drivers/STM32F3xx_HAL_Driver/Src/stm32f3xx_hal_tim_ex.c ****   
 533:Drivers/STM32F3xx_HAL_Driver/Src/stm32f3xx_hal_tim_ex.c ****   /* Return function status */
 534:Drivers/STM32F3xx_HAL_Driver/Src/stm32f3xx_hal_tim_ex.c ****   return HAL_OK;
 841              		.loc 1 534 0
 842 0038 0023     		movs	r3, #0
 535:Drivers/STM32F3xx_HAL_Driver/Src/stm32f3xx_hal_tim_ex.c **** } 
 843              		.loc 1 535 0
 844 003a 1846     		mov	r0, r3
 845 003c 0837     		adds	r7, r7, #8
 846 003e BD46     		mov	sp, r7
 847              		@ sp needed
 848 0040 80BD     		pop	{r7, pc}
 849              		.cfi_endproc
 850              	.LFE135:
 852 0042 00BF     		.section	.text.HAL_TIMEx_OCN_Stop,"ax",%progbits
 853              		.align	2
 854              		.global	HAL_TIMEx_OCN_Stop
 855              		.thumb
ARM GAS  /tmp/ccRzvoJq.s 			page 25


 856              		.thumb_func
 858              	HAL_TIMEx_OCN_Stop:
 859              	.LFB136:
 536:Drivers/STM32F3xx_HAL_Driver/Src/stm32f3xx_hal_tim_ex.c **** 
 537:Drivers/STM32F3xx_HAL_Driver/Src/stm32f3xx_hal_tim_ex.c **** /**
 538:Drivers/STM32F3xx_HAL_Driver/Src/stm32f3xx_hal_tim_ex.c ****   * @brief  Stops the TIM Output Compare signal generation on the complementary
 539:Drivers/STM32F3xx_HAL_Driver/Src/stm32f3xx_hal_tim_ex.c ****   *         output.
 540:Drivers/STM32F3xx_HAL_Driver/Src/stm32f3xx_hal_tim_ex.c ****   * @param  htim: TIM handle
 541:Drivers/STM32F3xx_HAL_Driver/Src/stm32f3xx_hal_tim_ex.c ****   * @param  Channel: TIM Channel to be disabled
 542:Drivers/STM32F3xx_HAL_Driver/Src/stm32f3xx_hal_tim_ex.c ****   *          This parameter can be one of the following values:
 543:Drivers/STM32F3xx_HAL_Driver/Src/stm32f3xx_hal_tim_ex.c ****   *            @arg TIM_CHANNEL_1: TIM Channel 1 selected
 544:Drivers/STM32F3xx_HAL_Driver/Src/stm32f3xx_hal_tim_ex.c ****   *            @arg TIM_CHANNEL_2: TIM Channel 2 selected
 545:Drivers/STM32F3xx_HAL_Driver/Src/stm32f3xx_hal_tim_ex.c ****   *            @arg TIM_CHANNEL_3: TIM Channel 3 selected
 546:Drivers/STM32F3xx_HAL_Driver/Src/stm32f3xx_hal_tim_ex.c ****   *            @arg TIM_CHANNEL_4: TIM Channel 4 selected
 547:Drivers/STM32F3xx_HAL_Driver/Src/stm32f3xx_hal_tim_ex.c ****   * @retval HAL status
 548:Drivers/STM32F3xx_HAL_Driver/Src/stm32f3xx_hal_tim_ex.c ****   */
 549:Drivers/STM32F3xx_HAL_Driver/Src/stm32f3xx_hal_tim_ex.c **** HAL_StatusTypeDef HAL_TIMEx_OCN_Stop(TIM_HandleTypeDef *htim, uint32_t Channel)
 550:Drivers/STM32F3xx_HAL_Driver/Src/stm32f3xx_hal_tim_ex.c **** { 
 860              		.loc 1 550 0
 861              		.cfi_startproc
 862              		@ args = 0, pretend = 0, frame = 8
 863              		@ frame_needed = 1, uses_anonymous_args = 0
 864 0000 80B5     		push	{r7, lr}
 865              	.LCFI33:
 866              		.cfi_def_cfa_offset 8
 867              		.cfi_offset 7, -8
 868              		.cfi_offset 14, -4
 869 0002 82B0     		sub	sp, sp, #8
 870              	.LCFI34:
 871              		.cfi_def_cfa_offset 16
 872 0004 00AF     		add	r7, sp, #0
 873              	.LCFI35:
 874              		.cfi_def_cfa_register 7
 875 0006 7860     		str	r0, [r7, #4]
 876 0008 3960     		str	r1, [r7]
 551:Drivers/STM32F3xx_HAL_Driver/Src/stm32f3xx_hal_tim_ex.c ****   /* Check the parameters */
 552:Drivers/STM32F3xx_HAL_Driver/Src/stm32f3xx_hal_tim_ex.c ****   assert_param(IS_TIM_CCXN_INSTANCE(htim->Instance, Channel)); 
 553:Drivers/STM32F3xx_HAL_Driver/Src/stm32f3xx_hal_tim_ex.c ****   
 554:Drivers/STM32F3xx_HAL_Driver/Src/stm32f3xx_hal_tim_ex.c ****     /* Disable the Capture compare channel N */
 555:Drivers/STM32F3xx_HAL_Driver/Src/stm32f3xx_hal_tim_ex.c ****   TIM_CCxNChannelCmd(htim->Instance, Channel, TIM_CCxN_DISABLE);
 877              		.loc 1 555 0
 878 000a 7B68     		ldr	r3, [r7, #4]
 879 000c 1B68     		ldr	r3, [r3]
 880 000e 1846     		mov	r0, r3
 881 0010 3968     		ldr	r1, [r7]
 882 0012 0022     		movs	r2, #0
 883 0014 FFF7FEFF 		bl	TIM_CCxNChannelCmd
 556:Drivers/STM32F3xx_HAL_Driver/Src/stm32f3xx_hal_tim_ex.c ****     
 557:Drivers/STM32F3xx_HAL_Driver/Src/stm32f3xx_hal_tim_ex.c ****   /* Disable the Main Ouput */
 558:Drivers/STM32F3xx_HAL_Driver/Src/stm32f3xx_hal_tim_ex.c ****     __HAL_TIM_MOE_DISABLE(htim);
 884              		.loc 1 558 0
 885 0018 7B68     		ldr	r3, [r7, #4]
 886 001a 1B68     		ldr	r3, [r3]
 887 001c 1A6A     		ldr	r2, [r3, #32]
 888 001e 41F21113 		movw	r3, #4369
 889 0022 1340     		ands	r3, r3, r2
 890 0024 002B     		cmp	r3, #0
ARM GAS  /tmp/ccRzvoJq.s 			page 26


 891 0026 0FD1     		bne	.L34
 892              		.loc 1 558 0 is_stmt 0 discriminator 1
 893 0028 7B68     		ldr	r3, [r7, #4]
 894 002a 1B68     		ldr	r3, [r3]
 895 002c 1A6A     		ldr	r2, [r3, #32]
 896 002e 40F24443 		movw	r3, #1092
 897 0032 1340     		ands	r3, r3, r2
 898 0034 002B     		cmp	r3, #0
 899 0036 07D1     		bne	.L34
 900 0038 7B68     		ldr	r3, [r7, #4]
 901 003a 1B68     		ldr	r3, [r3]
 902 003c 7A68     		ldr	r2, [r7, #4]
 903 003e 1268     		ldr	r2, [r2]
 904 0040 526C     		ldr	r2, [r2, #68]
 905 0042 22F40042 		bic	r2, r2, #32768
 906 0046 5A64     		str	r2, [r3, #68]
 907              	.L34:
 559:Drivers/STM32F3xx_HAL_Driver/Src/stm32f3xx_hal_tim_ex.c **** 
 560:Drivers/STM32F3xx_HAL_Driver/Src/stm32f3xx_hal_tim_ex.c ****   /* Disable the Peripheral */
 561:Drivers/STM32F3xx_HAL_Driver/Src/stm32f3xx_hal_tim_ex.c ****   __HAL_TIM_DISABLE(htim);
 908              		.loc 1 561 0 is_stmt 1
 909 0048 7B68     		ldr	r3, [r7, #4]
 910 004a 1B68     		ldr	r3, [r3]
 911 004c 1A6A     		ldr	r2, [r3, #32]
 912 004e 41F21113 		movw	r3, #4369
 913 0052 1340     		ands	r3, r3, r2
 914 0054 002B     		cmp	r3, #0
 915 0056 0FD1     		bne	.L35
 916              		.loc 1 561 0 is_stmt 0 discriminator 1
 917 0058 7B68     		ldr	r3, [r7, #4]
 918 005a 1B68     		ldr	r3, [r3]
 919 005c 1A6A     		ldr	r2, [r3, #32]
 920 005e 40F24443 		movw	r3, #1092
 921 0062 1340     		ands	r3, r3, r2
 922 0064 002B     		cmp	r3, #0
 923 0066 07D1     		bne	.L35
 924 0068 7B68     		ldr	r3, [r7, #4]
 925 006a 1B68     		ldr	r3, [r3]
 926 006c 7A68     		ldr	r2, [r7, #4]
 927 006e 1268     		ldr	r2, [r2]
 928 0070 1268     		ldr	r2, [r2]
 929 0072 22F00102 		bic	r2, r2, #1
 930 0076 1A60     		str	r2, [r3]
 931              	.L35:
 562:Drivers/STM32F3xx_HAL_Driver/Src/stm32f3xx_hal_tim_ex.c ****   
 563:Drivers/STM32F3xx_HAL_Driver/Src/stm32f3xx_hal_tim_ex.c ****   /* Return function status */
 564:Drivers/STM32F3xx_HAL_Driver/Src/stm32f3xx_hal_tim_ex.c ****   return HAL_OK;
 932              		.loc 1 564 0 is_stmt 1
 933 0078 0023     		movs	r3, #0
 565:Drivers/STM32F3xx_HAL_Driver/Src/stm32f3xx_hal_tim_ex.c **** } 
 934              		.loc 1 565 0
 935 007a 1846     		mov	r0, r3
 936 007c 0837     		adds	r7, r7, #8
 937 007e BD46     		mov	sp, r7
 938              		@ sp needed
 939 0080 80BD     		pop	{r7, pc}
 940              		.cfi_endproc
ARM GAS  /tmp/ccRzvoJq.s 			page 27


 941              	.LFE136:
 943 0082 00BF     		.section	.text.HAL_TIMEx_OCN_Start_IT,"ax",%progbits
 944              		.align	2
 945              		.global	HAL_TIMEx_OCN_Start_IT
 946              		.thumb
 947              		.thumb_func
 949              	HAL_TIMEx_OCN_Start_IT:
 950              	.LFB137:
 566:Drivers/STM32F3xx_HAL_Driver/Src/stm32f3xx_hal_tim_ex.c **** 
 567:Drivers/STM32F3xx_HAL_Driver/Src/stm32f3xx_hal_tim_ex.c **** /**
 568:Drivers/STM32F3xx_HAL_Driver/Src/stm32f3xx_hal_tim_ex.c ****   * @brief  Starts the TIM Output Compare signal generation in interrupt mode 
 569:Drivers/STM32F3xx_HAL_Driver/Src/stm32f3xx_hal_tim_ex.c ****   *         on the complementary output.
 570:Drivers/STM32F3xx_HAL_Driver/Src/stm32f3xx_hal_tim_ex.c ****   * @param  htim: TIM OC handle
 571:Drivers/STM32F3xx_HAL_Driver/Src/stm32f3xx_hal_tim_ex.c ****   * @param  Channel: TIM Channel to be enabled
 572:Drivers/STM32F3xx_HAL_Driver/Src/stm32f3xx_hal_tim_ex.c ****   *          This parameter can be one of the following values:
 573:Drivers/STM32F3xx_HAL_Driver/Src/stm32f3xx_hal_tim_ex.c ****   *            @arg TIM_CHANNEL_1: TIM Channel 1 selected
 574:Drivers/STM32F3xx_HAL_Driver/Src/stm32f3xx_hal_tim_ex.c ****   *            @arg TIM_CHANNEL_2: TIM Channel 2 selected
 575:Drivers/STM32F3xx_HAL_Driver/Src/stm32f3xx_hal_tim_ex.c ****   *            @arg TIM_CHANNEL_3: TIM Channel 3 selected
 576:Drivers/STM32F3xx_HAL_Driver/Src/stm32f3xx_hal_tim_ex.c ****   *            @arg TIM_CHANNEL_4: TIM Channel 4 selected
 577:Drivers/STM32F3xx_HAL_Driver/Src/stm32f3xx_hal_tim_ex.c ****   * @retval HAL status
 578:Drivers/STM32F3xx_HAL_Driver/Src/stm32f3xx_hal_tim_ex.c ****   */
 579:Drivers/STM32F3xx_HAL_Driver/Src/stm32f3xx_hal_tim_ex.c **** HAL_StatusTypeDef HAL_TIMEx_OCN_Start_IT(TIM_HandleTypeDef *htim, uint32_t Channel)
 580:Drivers/STM32F3xx_HAL_Driver/Src/stm32f3xx_hal_tim_ex.c **** {
 951              		.loc 1 580 0
 952              		.cfi_startproc
 953              		@ args = 0, pretend = 0, frame = 8
 954              		@ frame_needed = 1, uses_anonymous_args = 0
 955 0000 80B5     		push	{r7, lr}
 956              	.LCFI36:
 957              		.cfi_def_cfa_offset 8
 958              		.cfi_offset 7, -8
 959              		.cfi_offset 14, -4
 960 0002 82B0     		sub	sp, sp, #8
 961              	.LCFI37:
 962              		.cfi_def_cfa_offset 16
 963 0004 00AF     		add	r7, sp, #0
 964              	.LCFI38:
 965              		.cfi_def_cfa_register 7
 966 0006 7860     		str	r0, [r7, #4]
 967 0008 3960     		str	r1, [r7]
 581:Drivers/STM32F3xx_HAL_Driver/Src/stm32f3xx_hal_tim_ex.c ****   /* Check the parameters */
 582:Drivers/STM32F3xx_HAL_Driver/Src/stm32f3xx_hal_tim_ex.c ****   assert_param(IS_TIM_CCXN_INSTANCE(htim->Instance, Channel)); 
 583:Drivers/STM32F3xx_HAL_Driver/Src/stm32f3xx_hal_tim_ex.c ****   
 584:Drivers/STM32F3xx_HAL_Driver/Src/stm32f3xx_hal_tim_ex.c ****   switch (Channel)
 968              		.loc 1 584 0
 969 000a 3B68     		ldr	r3, [r7]
 970 000c 0C2B     		cmp	r3, #12
 971 000e 41D8     		bhi	.L46
 972 0010 01A2     		adr	r2, .L40
 973 0012 52F823F0 		ldr	pc, [r2, r3, lsl #2]
 974 0016 00BF     		.p2align 2
 975              	.L40:
 976 0018 4D000000 		.word	.L39+1
 977 001c 95000000 		.word	.L46+1
 978 0020 95000000 		.word	.L46+1
 979 0024 95000000 		.word	.L46+1
 980 0028 5F000000 		.word	.L41+1
ARM GAS  /tmp/ccRzvoJq.s 			page 28


 981 002c 95000000 		.word	.L46+1
 982 0030 95000000 		.word	.L46+1
 983 0034 95000000 		.word	.L46+1
 984 0038 71000000 		.word	.L42+1
 985 003c 95000000 		.word	.L46+1
 986 0040 95000000 		.word	.L46+1
 987 0044 95000000 		.word	.L46+1
 988 0048 83000000 		.word	.L43+1
 989              		.p2align 1
 990              	.L39:
 585:Drivers/STM32F3xx_HAL_Driver/Src/stm32f3xx_hal_tim_ex.c ****   {
 586:Drivers/STM32F3xx_HAL_Driver/Src/stm32f3xx_hal_tim_ex.c ****     case TIM_CHANNEL_1:
 587:Drivers/STM32F3xx_HAL_Driver/Src/stm32f3xx_hal_tim_ex.c ****     {       
 588:Drivers/STM32F3xx_HAL_Driver/Src/stm32f3xx_hal_tim_ex.c ****       /* Enable the TIM Output Compare interrupt */
 589:Drivers/STM32F3xx_HAL_Driver/Src/stm32f3xx_hal_tim_ex.c ****       __HAL_TIM_ENABLE_IT(htim, TIM_IT_CC1);
 991              		.loc 1 589 0
 992 004c 7B68     		ldr	r3, [r7, #4]
 993 004e 1B68     		ldr	r3, [r3]
 994 0050 7A68     		ldr	r2, [r7, #4]
 995 0052 1268     		ldr	r2, [r2]
 996 0054 D268     		ldr	r2, [r2, #12]
 997 0056 42F00202 		orr	r2, r2, #2
 998 005a DA60     		str	r2, [r3, #12]
 590:Drivers/STM32F3xx_HAL_Driver/Src/stm32f3xx_hal_tim_ex.c ****     }
 591:Drivers/STM32F3xx_HAL_Driver/Src/stm32f3xx_hal_tim_ex.c ****     break;
 999              		.loc 1 591 0
 1000 005c 1BE0     		b	.L44
 1001              	.L41:
 592:Drivers/STM32F3xx_HAL_Driver/Src/stm32f3xx_hal_tim_ex.c ****     
 593:Drivers/STM32F3xx_HAL_Driver/Src/stm32f3xx_hal_tim_ex.c ****     case TIM_CHANNEL_2:
 594:Drivers/STM32F3xx_HAL_Driver/Src/stm32f3xx_hal_tim_ex.c ****     {
 595:Drivers/STM32F3xx_HAL_Driver/Src/stm32f3xx_hal_tim_ex.c ****       /* Enable the TIM Output Compare interrupt */
 596:Drivers/STM32F3xx_HAL_Driver/Src/stm32f3xx_hal_tim_ex.c ****       __HAL_TIM_ENABLE_IT(htim, TIM_IT_CC2);
 1002              		.loc 1 596 0
 1003 005e 7B68     		ldr	r3, [r7, #4]
 1004 0060 1B68     		ldr	r3, [r3]
 1005 0062 7A68     		ldr	r2, [r7, #4]
 1006 0064 1268     		ldr	r2, [r2]
 1007 0066 D268     		ldr	r2, [r2, #12]
 1008 0068 42F00402 		orr	r2, r2, #4
 1009 006c DA60     		str	r2, [r3, #12]
 597:Drivers/STM32F3xx_HAL_Driver/Src/stm32f3xx_hal_tim_ex.c ****     }
 598:Drivers/STM32F3xx_HAL_Driver/Src/stm32f3xx_hal_tim_ex.c ****     break;
 1010              		.loc 1 598 0
 1011 006e 12E0     		b	.L44
 1012              	.L42:
 599:Drivers/STM32F3xx_HAL_Driver/Src/stm32f3xx_hal_tim_ex.c ****     
 600:Drivers/STM32F3xx_HAL_Driver/Src/stm32f3xx_hal_tim_ex.c ****     case TIM_CHANNEL_3:
 601:Drivers/STM32F3xx_HAL_Driver/Src/stm32f3xx_hal_tim_ex.c ****     {
 602:Drivers/STM32F3xx_HAL_Driver/Src/stm32f3xx_hal_tim_ex.c ****       /* Enable the TIM Output Compare interrupt */
 603:Drivers/STM32F3xx_HAL_Driver/Src/stm32f3xx_hal_tim_ex.c ****       __HAL_TIM_ENABLE_IT(htim, TIM_IT_CC3);
 1013              		.loc 1 603 0
 1014 0070 7B68     		ldr	r3, [r7, #4]
 1015 0072 1B68     		ldr	r3, [r3]
 1016 0074 7A68     		ldr	r2, [r7, #4]
 1017 0076 1268     		ldr	r2, [r2]
 1018 0078 D268     		ldr	r2, [r2, #12]
ARM GAS  /tmp/ccRzvoJq.s 			page 29


 1019 007a 42F00802 		orr	r2, r2, #8
 1020 007e DA60     		str	r2, [r3, #12]
 604:Drivers/STM32F3xx_HAL_Driver/Src/stm32f3xx_hal_tim_ex.c ****     }
 605:Drivers/STM32F3xx_HAL_Driver/Src/stm32f3xx_hal_tim_ex.c ****     break;
 1021              		.loc 1 605 0
 1022 0080 09E0     		b	.L44
 1023              	.L43:
 606:Drivers/STM32F3xx_HAL_Driver/Src/stm32f3xx_hal_tim_ex.c ****     
 607:Drivers/STM32F3xx_HAL_Driver/Src/stm32f3xx_hal_tim_ex.c ****     case TIM_CHANNEL_4:
 608:Drivers/STM32F3xx_HAL_Driver/Src/stm32f3xx_hal_tim_ex.c ****     {
 609:Drivers/STM32F3xx_HAL_Driver/Src/stm32f3xx_hal_tim_ex.c ****       /* Enable the TIM Output Compare interrupt */
 610:Drivers/STM32F3xx_HAL_Driver/Src/stm32f3xx_hal_tim_ex.c ****       __HAL_TIM_ENABLE_IT(htim, TIM_IT_CC4);
 1024              		.loc 1 610 0
 1025 0082 7B68     		ldr	r3, [r7, #4]
 1026 0084 1B68     		ldr	r3, [r3]
 1027 0086 7A68     		ldr	r2, [r7, #4]
 1028 0088 1268     		ldr	r2, [r2]
 1029 008a D268     		ldr	r2, [r2, #12]
 1030 008c 42F01002 		orr	r2, r2, #16
 1031 0090 DA60     		str	r2, [r3, #12]
 611:Drivers/STM32F3xx_HAL_Driver/Src/stm32f3xx_hal_tim_ex.c ****     }
 612:Drivers/STM32F3xx_HAL_Driver/Src/stm32f3xx_hal_tim_ex.c ****     break;
 1032              		.loc 1 612 0
 1033 0092 00E0     		b	.L44
 1034              	.L46:
 613:Drivers/STM32F3xx_HAL_Driver/Src/stm32f3xx_hal_tim_ex.c ****     
 614:Drivers/STM32F3xx_HAL_Driver/Src/stm32f3xx_hal_tim_ex.c ****     default:
 615:Drivers/STM32F3xx_HAL_Driver/Src/stm32f3xx_hal_tim_ex.c ****     break;
 1035              		.loc 1 615 0
 1036 0094 00BF     		nop
 1037              	.L44:
 616:Drivers/STM32F3xx_HAL_Driver/Src/stm32f3xx_hal_tim_ex.c ****   } 
 617:Drivers/STM32F3xx_HAL_Driver/Src/stm32f3xx_hal_tim_ex.c ****   
 618:Drivers/STM32F3xx_HAL_Driver/Src/stm32f3xx_hal_tim_ex.c ****   /* Enable the TIM Break interrupt */
 619:Drivers/STM32F3xx_HAL_Driver/Src/stm32f3xx_hal_tim_ex.c ****   __HAL_TIM_ENABLE_IT(htim, TIM_IT_BREAK);
 1038              		.loc 1 619 0
 1039 0096 7B68     		ldr	r3, [r7, #4]
 1040 0098 1B68     		ldr	r3, [r3]
 1041 009a 7A68     		ldr	r2, [r7, #4]
 1042 009c 1268     		ldr	r2, [r2]
 1043 009e D268     		ldr	r2, [r2, #12]
 1044 00a0 42F08002 		orr	r2, r2, #128
 1045 00a4 DA60     		str	r2, [r3, #12]
 620:Drivers/STM32F3xx_HAL_Driver/Src/stm32f3xx_hal_tim_ex.c ****   
 621:Drivers/STM32F3xx_HAL_Driver/Src/stm32f3xx_hal_tim_ex.c ****   /* Enable the Capture compare channel N */
 622:Drivers/STM32F3xx_HAL_Driver/Src/stm32f3xx_hal_tim_ex.c ****   TIM_CCxNChannelCmd(htim->Instance, Channel, TIM_CCxN_ENABLE);
 1046              		.loc 1 622 0
 1047 00a6 7B68     		ldr	r3, [r7, #4]
 1048 00a8 1B68     		ldr	r3, [r3]
 1049 00aa 1846     		mov	r0, r3
 1050 00ac 3968     		ldr	r1, [r7]
 1051 00ae 0422     		movs	r2, #4
 1052 00b0 FFF7FEFF 		bl	TIM_CCxNChannelCmd
 623:Drivers/STM32F3xx_HAL_Driver/Src/stm32f3xx_hal_tim_ex.c ****   
 624:Drivers/STM32F3xx_HAL_Driver/Src/stm32f3xx_hal_tim_ex.c ****   /* Enable the Main Ouput */
 625:Drivers/STM32F3xx_HAL_Driver/Src/stm32f3xx_hal_tim_ex.c ****     __HAL_TIM_MOE_ENABLE(htim);
 1053              		.loc 1 625 0
ARM GAS  /tmp/ccRzvoJq.s 			page 30


 1054 00b4 7B68     		ldr	r3, [r7, #4]
 1055 00b6 1B68     		ldr	r3, [r3]
 1056 00b8 7A68     		ldr	r2, [r7, #4]
 1057 00ba 1268     		ldr	r2, [r2]
 1058 00bc 526C     		ldr	r2, [r2, #68]
 1059 00be 42F40042 		orr	r2, r2, #32768
 1060 00c2 5A64     		str	r2, [r3, #68]
 626:Drivers/STM32F3xx_HAL_Driver/Src/stm32f3xx_hal_tim_ex.c **** 
 627:Drivers/STM32F3xx_HAL_Driver/Src/stm32f3xx_hal_tim_ex.c ****   /* Enable the Peripheral */
 628:Drivers/STM32F3xx_HAL_Driver/Src/stm32f3xx_hal_tim_ex.c ****   __HAL_TIM_ENABLE(htim);
 1061              		.loc 1 628 0
 1062 00c4 7B68     		ldr	r3, [r7, #4]
 1063 00c6 1B68     		ldr	r3, [r3]
 1064 00c8 7A68     		ldr	r2, [r7, #4]
 1065 00ca 1268     		ldr	r2, [r2]
 1066 00cc 1268     		ldr	r2, [r2]
 1067 00ce 42F00102 		orr	r2, r2, #1
 1068 00d2 1A60     		str	r2, [r3]
 629:Drivers/STM32F3xx_HAL_Driver/Src/stm32f3xx_hal_tim_ex.c ****   
 630:Drivers/STM32F3xx_HAL_Driver/Src/stm32f3xx_hal_tim_ex.c ****   /* Return function status */
 631:Drivers/STM32F3xx_HAL_Driver/Src/stm32f3xx_hal_tim_ex.c ****   return HAL_OK;
 1069              		.loc 1 631 0
 1070 00d4 0023     		movs	r3, #0
 632:Drivers/STM32F3xx_HAL_Driver/Src/stm32f3xx_hal_tim_ex.c **** } 
 1071              		.loc 1 632 0
 1072 00d6 1846     		mov	r0, r3
 1073 00d8 0837     		adds	r7, r7, #8
 1074 00da BD46     		mov	sp, r7
 1075              		@ sp needed
 1076 00dc 80BD     		pop	{r7, pc}
 1077              		.cfi_endproc
 1078              	.LFE137:
 1080 00de 00BF     		.section	.text.HAL_TIMEx_OCN_Stop_IT,"ax",%progbits
 1081              		.align	2
 1082              		.global	HAL_TIMEx_OCN_Stop_IT
 1083              		.thumb
 1084              		.thumb_func
 1086              	HAL_TIMEx_OCN_Stop_IT:
 1087              	.LFB138:
 633:Drivers/STM32F3xx_HAL_Driver/Src/stm32f3xx_hal_tim_ex.c **** 
 634:Drivers/STM32F3xx_HAL_Driver/Src/stm32f3xx_hal_tim_ex.c **** /**
 635:Drivers/STM32F3xx_HAL_Driver/Src/stm32f3xx_hal_tim_ex.c ****   * @brief  Stops the TIM Output Compare signal generation in interrupt mode 
 636:Drivers/STM32F3xx_HAL_Driver/Src/stm32f3xx_hal_tim_ex.c ****   *         on the complementary output.
 637:Drivers/STM32F3xx_HAL_Driver/Src/stm32f3xx_hal_tim_ex.c ****   * @param  htim: TIM Output Compare handle
 638:Drivers/STM32F3xx_HAL_Driver/Src/stm32f3xx_hal_tim_ex.c ****   * @param  Channel: TIM Channel to be disabled
 639:Drivers/STM32F3xx_HAL_Driver/Src/stm32f3xx_hal_tim_ex.c ****   *          This parameter can be one of the following values:
 640:Drivers/STM32F3xx_HAL_Driver/Src/stm32f3xx_hal_tim_ex.c ****   *            @arg TIM_CHANNEL_1: TIM Channel 1 selected
 641:Drivers/STM32F3xx_HAL_Driver/Src/stm32f3xx_hal_tim_ex.c ****   *            @arg TIM_CHANNEL_2: TIM Channel 2 selected
 642:Drivers/STM32F3xx_HAL_Driver/Src/stm32f3xx_hal_tim_ex.c ****   *            @arg TIM_CHANNEL_3: TIM Channel 3 selected
 643:Drivers/STM32F3xx_HAL_Driver/Src/stm32f3xx_hal_tim_ex.c ****   *            @arg TIM_CHANNEL_4: TIM Channel 4 selected
 644:Drivers/STM32F3xx_HAL_Driver/Src/stm32f3xx_hal_tim_ex.c ****   * @retval HAL status
 645:Drivers/STM32F3xx_HAL_Driver/Src/stm32f3xx_hal_tim_ex.c ****   */
 646:Drivers/STM32F3xx_HAL_Driver/Src/stm32f3xx_hal_tim_ex.c **** HAL_StatusTypeDef HAL_TIMEx_OCN_Stop_IT(TIM_HandleTypeDef *htim, uint32_t Channel)
 647:Drivers/STM32F3xx_HAL_Driver/Src/stm32f3xx_hal_tim_ex.c **** {
 1088              		.loc 1 647 0
 1089              		.cfi_startproc
 1090              		@ args = 0, pretend = 0, frame = 16
ARM GAS  /tmp/ccRzvoJq.s 			page 31


 1091              		@ frame_needed = 1, uses_anonymous_args = 0
 1092 0000 80B5     		push	{r7, lr}
 1093              	.LCFI39:
 1094              		.cfi_def_cfa_offset 8
 1095              		.cfi_offset 7, -8
 1096              		.cfi_offset 14, -4
 1097 0002 84B0     		sub	sp, sp, #16
 1098              	.LCFI40:
 1099              		.cfi_def_cfa_offset 24
 1100 0004 00AF     		add	r7, sp, #0
 1101              	.LCFI41:
 1102              		.cfi_def_cfa_register 7
 1103 0006 7860     		str	r0, [r7, #4]
 1104 0008 3960     		str	r1, [r7]
 648:Drivers/STM32F3xx_HAL_Driver/Src/stm32f3xx_hal_tim_ex.c ****   uint32_t tmpccer = 0;
 1105              		.loc 1 648 0
 1106 000a 0023     		movs	r3, #0
 1107 000c FB60     		str	r3, [r7, #12]
 649:Drivers/STM32F3xx_HAL_Driver/Src/stm32f3xx_hal_tim_ex.c **** 
 650:Drivers/STM32F3xx_HAL_Driver/Src/stm32f3xx_hal_tim_ex.c ****   /* Check the parameters */
 651:Drivers/STM32F3xx_HAL_Driver/Src/stm32f3xx_hal_tim_ex.c ****   assert_param(IS_TIM_CCXN_INSTANCE(htim->Instance, Channel)); 
 652:Drivers/STM32F3xx_HAL_Driver/Src/stm32f3xx_hal_tim_ex.c ****   
 653:Drivers/STM32F3xx_HAL_Driver/Src/stm32f3xx_hal_tim_ex.c ****   switch (Channel)
 1108              		.loc 1 653 0
 1109 000e 3B68     		ldr	r3, [r7]
 1110 0010 0C2B     		cmp	r3, #12
 1111 0012 41D8     		bhi	.L59
 1112 0014 01A2     		adr	r2, .L50
 1113 0016 52F823F0 		ldr	pc, [r2, r3, lsl #2]
 1114 001a 00BF     		.p2align 2
 1115              	.L50:
 1116 001c 51000000 		.word	.L49+1
 1117 0020 99000000 		.word	.L59+1
 1118 0024 99000000 		.word	.L59+1
 1119 0028 99000000 		.word	.L59+1
 1120 002c 63000000 		.word	.L51+1
 1121 0030 99000000 		.word	.L59+1
 1122 0034 99000000 		.word	.L59+1
 1123 0038 99000000 		.word	.L59+1
 1124 003c 75000000 		.word	.L52+1
 1125 0040 99000000 		.word	.L59+1
 1126 0044 99000000 		.word	.L59+1
 1127 0048 99000000 		.word	.L59+1
 1128 004c 87000000 		.word	.L53+1
 1129              		.p2align 1
 1130              	.L49:
 654:Drivers/STM32F3xx_HAL_Driver/Src/stm32f3xx_hal_tim_ex.c ****   {
 655:Drivers/STM32F3xx_HAL_Driver/Src/stm32f3xx_hal_tim_ex.c ****     case TIM_CHANNEL_1:
 656:Drivers/STM32F3xx_HAL_Driver/Src/stm32f3xx_hal_tim_ex.c ****     {       
 657:Drivers/STM32F3xx_HAL_Driver/Src/stm32f3xx_hal_tim_ex.c ****       /* Disable the TIM Output Compare interrupt */
 658:Drivers/STM32F3xx_HAL_Driver/Src/stm32f3xx_hal_tim_ex.c ****       __HAL_TIM_DISABLE_IT(htim, TIM_IT_CC1);
 1131              		.loc 1 658 0
 1132 0050 7B68     		ldr	r3, [r7, #4]
 1133 0052 1B68     		ldr	r3, [r3]
 1134 0054 7A68     		ldr	r2, [r7, #4]
 1135 0056 1268     		ldr	r2, [r2]
 1136 0058 D268     		ldr	r2, [r2, #12]
ARM GAS  /tmp/ccRzvoJq.s 			page 32


 1137 005a 22F00202 		bic	r2, r2, #2
 1138 005e DA60     		str	r2, [r3, #12]
 659:Drivers/STM32F3xx_HAL_Driver/Src/stm32f3xx_hal_tim_ex.c ****     }
 660:Drivers/STM32F3xx_HAL_Driver/Src/stm32f3xx_hal_tim_ex.c ****     break;
 1139              		.loc 1 660 0
 1140 0060 1BE0     		b	.L54
 1141              	.L51:
 661:Drivers/STM32F3xx_HAL_Driver/Src/stm32f3xx_hal_tim_ex.c ****     
 662:Drivers/STM32F3xx_HAL_Driver/Src/stm32f3xx_hal_tim_ex.c ****     case TIM_CHANNEL_2:
 663:Drivers/STM32F3xx_HAL_Driver/Src/stm32f3xx_hal_tim_ex.c ****     {
 664:Drivers/STM32F3xx_HAL_Driver/Src/stm32f3xx_hal_tim_ex.c ****       /* Disable the TIM Output Compare interrupt */
 665:Drivers/STM32F3xx_HAL_Driver/Src/stm32f3xx_hal_tim_ex.c ****       __HAL_TIM_DISABLE_IT(htim, TIM_IT_CC2);
 1142              		.loc 1 665 0
 1143 0062 7B68     		ldr	r3, [r7, #4]
 1144 0064 1B68     		ldr	r3, [r3]
 1145 0066 7A68     		ldr	r2, [r7, #4]
 1146 0068 1268     		ldr	r2, [r2]
 1147 006a D268     		ldr	r2, [r2, #12]
 1148 006c 22F00402 		bic	r2, r2, #4
 1149 0070 DA60     		str	r2, [r3, #12]
 666:Drivers/STM32F3xx_HAL_Driver/Src/stm32f3xx_hal_tim_ex.c ****     }
 667:Drivers/STM32F3xx_HAL_Driver/Src/stm32f3xx_hal_tim_ex.c ****     break;
 1150              		.loc 1 667 0
 1151 0072 12E0     		b	.L54
 1152              	.L52:
 668:Drivers/STM32F3xx_HAL_Driver/Src/stm32f3xx_hal_tim_ex.c ****     
 669:Drivers/STM32F3xx_HAL_Driver/Src/stm32f3xx_hal_tim_ex.c ****     case TIM_CHANNEL_3:
 670:Drivers/STM32F3xx_HAL_Driver/Src/stm32f3xx_hal_tim_ex.c ****     {
 671:Drivers/STM32F3xx_HAL_Driver/Src/stm32f3xx_hal_tim_ex.c ****       /* Disable the TIM Output Compare interrupt */
 672:Drivers/STM32F3xx_HAL_Driver/Src/stm32f3xx_hal_tim_ex.c ****       __HAL_TIM_DISABLE_IT(htim, TIM_IT_CC3);
 1153              		.loc 1 672 0
 1154 0074 7B68     		ldr	r3, [r7, #4]
 1155 0076 1B68     		ldr	r3, [r3]
 1156 0078 7A68     		ldr	r2, [r7, #4]
 1157 007a 1268     		ldr	r2, [r2]
 1158 007c D268     		ldr	r2, [r2, #12]
 1159 007e 22F00802 		bic	r2, r2, #8
 1160 0082 DA60     		str	r2, [r3, #12]
 673:Drivers/STM32F3xx_HAL_Driver/Src/stm32f3xx_hal_tim_ex.c ****     }
 674:Drivers/STM32F3xx_HAL_Driver/Src/stm32f3xx_hal_tim_ex.c ****     break;
 1161              		.loc 1 674 0
 1162 0084 09E0     		b	.L54
 1163              	.L53:
 675:Drivers/STM32F3xx_HAL_Driver/Src/stm32f3xx_hal_tim_ex.c ****     
 676:Drivers/STM32F3xx_HAL_Driver/Src/stm32f3xx_hal_tim_ex.c ****     case TIM_CHANNEL_4:
 677:Drivers/STM32F3xx_HAL_Driver/Src/stm32f3xx_hal_tim_ex.c ****     {
 678:Drivers/STM32F3xx_HAL_Driver/Src/stm32f3xx_hal_tim_ex.c ****       /* Disable the TIM Output Compare interrupt */
 679:Drivers/STM32F3xx_HAL_Driver/Src/stm32f3xx_hal_tim_ex.c ****       __HAL_TIM_DISABLE_IT(htim, TIM_IT_CC4);
 1164              		.loc 1 679 0
 1165 0086 7B68     		ldr	r3, [r7, #4]
 1166 0088 1B68     		ldr	r3, [r3]
 1167 008a 7A68     		ldr	r2, [r7, #4]
 1168 008c 1268     		ldr	r2, [r2]
 1169 008e D268     		ldr	r2, [r2, #12]
 1170 0090 22F01002 		bic	r2, r2, #16
 1171 0094 DA60     		str	r2, [r3, #12]
 680:Drivers/STM32F3xx_HAL_Driver/Src/stm32f3xx_hal_tim_ex.c ****     }
ARM GAS  /tmp/ccRzvoJq.s 			page 33


 681:Drivers/STM32F3xx_HAL_Driver/Src/stm32f3xx_hal_tim_ex.c ****     break;
 1172              		.loc 1 681 0
 1173 0096 00E0     		b	.L54
 1174              	.L59:
 682:Drivers/STM32F3xx_HAL_Driver/Src/stm32f3xx_hal_tim_ex.c ****     
 683:Drivers/STM32F3xx_HAL_Driver/Src/stm32f3xx_hal_tim_ex.c ****     default:
 684:Drivers/STM32F3xx_HAL_Driver/Src/stm32f3xx_hal_tim_ex.c ****     break; 
 1175              		.loc 1 684 0
 1176 0098 00BF     		nop
 1177              	.L54:
 685:Drivers/STM32F3xx_HAL_Driver/Src/stm32f3xx_hal_tim_ex.c ****   }
 686:Drivers/STM32F3xx_HAL_Driver/Src/stm32f3xx_hal_tim_ex.c ****     
 687:Drivers/STM32F3xx_HAL_Driver/Src/stm32f3xx_hal_tim_ex.c ****   /* Disable the Capture compare channel N */
 688:Drivers/STM32F3xx_HAL_Driver/Src/stm32f3xx_hal_tim_ex.c ****   TIM_CCxNChannelCmd(htim->Instance, Channel, TIM_CCxN_DISABLE);
 1178              		.loc 1 688 0
 1179 009a 7B68     		ldr	r3, [r7, #4]
 1180 009c 1B68     		ldr	r3, [r3]
 1181 009e 1846     		mov	r0, r3
 1182 00a0 3968     		ldr	r1, [r7]
 1183 00a2 0022     		movs	r2, #0
 1184 00a4 FFF7FEFF 		bl	TIM_CCxNChannelCmd
 689:Drivers/STM32F3xx_HAL_Driver/Src/stm32f3xx_hal_tim_ex.c ****     
 690:Drivers/STM32F3xx_HAL_Driver/Src/stm32f3xx_hal_tim_ex.c ****   /* Disable the TIM Break interrupt (only if no more channel is active) */
 691:Drivers/STM32F3xx_HAL_Driver/Src/stm32f3xx_hal_tim_ex.c ****   tmpccer = htim->Instance->CCER;
 1185              		.loc 1 691 0
 1186 00a8 7B68     		ldr	r3, [r7, #4]
 1187 00aa 1B68     		ldr	r3, [r3]
 1188 00ac 1B6A     		ldr	r3, [r3, #32]
 1189 00ae FB60     		str	r3, [r7, #12]
 692:Drivers/STM32F3xx_HAL_Driver/Src/stm32f3xx_hal_tim_ex.c ****   if ((tmpccer & (TIM_CCER_CC1NE | TIM_CCER_CC2NE | TIM_CCER_CC3NE)) == RESET)
 1190              		.loc 1 692 0
 1191 00b0 FA68     		ldr	r2, [r7, #12]
 1192 00b2 40F24443 		movw	r3, #1092
 1193 00b6 1340     		ands	r3, r3, r2
 1194 00b8 002B     		cmp	r3, #0
 1195 00ba 07D1     		bne	.L55
 693:Drivers/STM32F3xx_HAL_Driver/Src/stm32f3xx_hal_tim_ex.c ****   {
 694:Drivers/STM32F3xx_HAL_Driver/Src/stm32f3xx_hal_tim_ex.c ****     __HAL_TIM_DISABLE_IT(htim, TIM_IT_BREAK);
 1196              		.loc 1 694 0
 1197 00bc 7B68     		ldr	r3, [r7, #4]
 1198 00be 1B68     		ldr	r3, [r3]
 1199 00c0 7A68     		ldr	r2, [r7, #4]
 1200 00c2 1268     		ldr	r2, [r2]
 1201 00c4 D268     		ldr	r2, [r2, #12]
 1202 00c6 22F08002 		bic	r2, r2, #128
 1203 00ca DA60     		str	r2, [r3, #12]
 1204              	.L55:
 695:Drivers/STM32F3xx_HAL_Driver/Src/stm32f3xx_hal_tim_ex.c ****   }
 696:Drivers/STM32F3xx_HAL_Driver/Src/stm32f3xx_hal_tim_ex.c **** 
 697:Drivers/STM32F3xx_HAL_Driver/Src/stm32f3xx_hal_tim_ex.c ****   /* Disable the Main Ouput */
 698:Drivers/STM32F3xx_HAL_Driver/Src/stm32f3xx_hal_tim_ex.c ****   __HAL_TIM_MOE_DISABLE(htim);
 1205              		.loc 1 698 0
 1206 00cc 7B68     		ldr	r3, [r7, #4]
 1207 00ce 1B68     		ldr	r3, [r3]
 1208 00d0 1A6A     		ldr	r2, [r3, #32]
 1209 00d2 41F21113 		movw	r3, #4369
 1210 00d6 1340     		ands	r3, r3, r2
ARM GAS  /tmp/ccRzvoJq.s 			page 34


 1211 00d8 002B     		cmp	r3, #0
 1212 00da 0FD1     		bne	.L56
 1213              		.loc 1 698 0 is_stmt 0 discriminator 1
 1214 00dc 7B68     		ldr	r3, [r7, #4]
 1215 00de 1B68     		ldr	r3, [r3]
 1216 00e0 1A6A     		ldr	r2, [r3, #32]
 1217 00e2 40F24443 		movw	r3, #1092
 1218 00e6 1340     		ands	r3, r3, r2
 1219 00e8 002B     		cmp	r3, #0
 1220 00ea 07D1     		bne	.L56
 1221 00ec 7B68     		ldr	r3, [r7, #4]
 1222 00ee 1B68     		ldr	r3, [r3]
 1223 00f0 7A68     		ldr	r2, [r7, #4]
 1224 00f2 1268     		ldr	r2, [r2]
 1225 00f4 526C     		ldr	r2, [r2, #68]
 1226 00f6 22F40042 		bic	r2, r2, #32768
 1227 00fa 5A64     		str	r2, [r3, #68]
 1228              	.L56:
 699:Drivers/STM32F3xx_HAL_Driver/Src/stm32f3xx_hal_tim_ex.c **** 
 700:Drivers/STM32F3xx_HAL_Driver/Src/stm32f3xx_hal_tim_ex.c ****   /* Disable the Peripheral */
 701:Drivers/STM32F3xx_HAL_Driver/Src/stm32f3xx_hal_tim_ex.c ****   __HAL_TIM_DISABLE(htim);
 1229              		.loc 1 701 0 is_stmt 1
 1230 00fc 7B68     		ldr	r3, [r7, #4]
 1231 00fe 1B68     		ldr	r3, [r3]
 1232 0100 1A6A     		ldr	r2, [r3, #32]
 1233 0102 41F21113 		movw	r3, #4369
 1234 0106 1340     		ands	r3, r3, r2
 1235 0108 002B     		cmp	r3, #0
 1236 010a 0FD1     		bne	.L57
 1237              		.loc 1 701 0 is_stmt 0 discriminator 1
 1238 010c 7B68     		ldr	r3, [r7, #4]
 1239 010e 1B68     		ldr	r3, [r3]
 1240 0110 1A6A     		ldr	r2, [r3, #32]
 1241 0112 40F24443 		movw	r3, #1092
 1242 0116 1340     		ands	r3, r3, r2
 1243 0118 002B     		cmp	r3, #0
 1244 011a 07D1     		bne	.L57
 1245 011c 7B68     		ldr	r3, [r7, #4]
 1246 011e 1B68     		ldr	r3, [r3]
 1247 0120 7A68     		ldr	r2, [r7, #4]
 1248 0122 1268     		ldr	r2, [r2]
 1249 0124 1268     		ldr	r2, [r2]
 1250 0126 22F00102 		bic	r2, r2, #1
 1251 012a 1A60     		str	r2, [r3]
 1252              	.L57:
 702:Drivers/STM32F3xx_HAL_Driver/Src/stm32f3xx_hal_tim_ex.c ****   
 703:Drivers/STM32F3xx_HAL_Driver/Src/stm32f3xx_hal_tim_ex.c ****   /* Return function status */
 704:Drivers/STM32F3xx_HAL_Driver/Src/stm32f3xx_hal_tim_ex.c ****   return HAL_OK;
 1253              		.loc 1 704 0 is_stmt 1
 1254 012c 0023     		movs	r3, #0
 705:Drivers/STM32F3xx_HAL_Driver/Src/stm32f3xx_hal_tim_ex.c **** } 
 1255              		.loc 1 705 0
 1256 012e 1846     		mov	r0, r3
 1257 0130 1037     		adds	r7, r7, #16
 1258 0132 BD46     		mov	sp, r7
 1259              		@ sp needed
 1260 0134 80BD     		pop	{r7, pc}
ARM GAS  /tmp/ccRzvoJq.s 			page 35


 1261              		.cfi_endproc
 1262              	.LFE138:
 1264 0136 00BF     		.section	.text.HAL_TIMEx_OCN_Start_DMA,"ax",%progbits
 1265              		.align	2
 1266              		.global	HAL_TIMEx_OCN_Start_DMA
 1267              		.thumb
 1268              		.thumb_func
 1270              	HAL_TIMEx_OCN_Start_DMA:
 1271              	.LFB139:
 706:Drivers/STM32F3xx_HAL_Driver/Src/stm32f3xx_hal_tim_ex.c **** 
 707:Drivers/STM32F3xx_HAL_Driver/Src/stm32f3xx_hal_tim_ex.c **** /**
 708:Drivers/STM32F3xx_HAL_Driver/Src/stm32f3xx_hal_tim_ex.c ****   * @brief  Starts the TIM Output Compare signal generation in DMA mode 
 709:Drivers/STM32F3xx_HAL_Driver/Src/stm32f3xx_hal_tim_ex.c ****   *         on the complementary output.
 710:Drivers/STM32F3xx_HAL_Driver/Src/stm32f3xx_hal_tim_ex.c ****   * @param  htim: TIM Output Compare handle
 711:Drivers/STM32F3xx_HAL_Driver/Src/stm32f3xx_hal_tim_ex.c ****   * @param  Channel: TIM Channel to be enabled
 712:Drivers/STM32F3xx_HAL_Driver/Src/stm32f3xx_hal_tim_ex.c ****   *          This parameter can be one of the following values:
 713:Drivers/STM32F3xx_HAL_Driver/Src/stm32f3xx_hal_tim_ex.c ****   *            @arg TIM_CHANNEL_1: TIM Channel 1 selected
 714:Drivers/STM32F3xx_HAL_Driver/Src/stm32f3xx_hal_tim_ex.c ****   *            @arg TIM_CHANNEL_2: TIM Channel 2 selected
 715:Drivers/STM32F3xx_HAL_Driver/Src/stm32f3xx_hal_tim_ex.c ****   *            @arg TIM_CHANNEL_3: TIM Channel 3 selected
 716:Drivers/STM32F3xx_HAL_Driver/Src/stm32f3xx_hal_tim_ex.c ****   *            @arg TIM_CHANNEL_4: TIM Channel 4 selected
 717:Drivers/STM32F3xx_HAL_Driver/Src/stm32f3xx_hal_tim_ex.c ****   * @param  pData: The source Buffer address.
 718:Drivers/STM32F3xx_HAL_Driver/Src/stm32f3xx_hal_tim_ex.c ****   * @param  Length: The length of data to be transferred from memory to TIM peripheral
 719:Drivers/STM32F3xx_HAL_Driver/Src/stm32f3xx_hal_tim_ex.c ****   * @retval HAL status
 720:Drivers/STM32F3xx_HAL_Driver/Src/stm32f3xx_hal_tim_ex.c ****   */
 721:Drivers/STM32F3xx_HAL_Driver/Src/stm32f3xx_hal_tim_ex.c **** HAL_StatusTypeDef HAL_TIMEx_OCN_Start_DMA(TIM_HandleTypeDef *htim, uint32_t Channel, uint32_t *pDat
 722:Drivers/STM32F3xx_HAL_Driver/Src/stm32f3xx_hal_tim_ex.c **** {
 1272              		.loc 1 722 0
 1273              		.cfi_startproc
 1274              		@ args = 0, pretend = 0, frame = 16
 1275              		@ frame_needed = 1, uses_anonymous_args = 0
 1276 0000 80B5     		push	{r7, lr}
 1277              	.LCFI42:
 1278              		.cfi_def_cfa_offset 8
 1279              		.cfi_offset 7, -8
 1280              		.cfi_offset 14, -4
 1281 0002 84B0     		sub	sp, sp, #16
 1282              	.LCFI43:
 1283              		.cfi_def_cfa_offset 24
 1284 0004 00AF     		add	r7, sp, #0
 1285              	.LCFI44:
 1286              		.cfi_def_cfa_register 7
 1287 0006 F860     		str	r0, [r7, #12]
 1288 0008 B960     		str	r1, [r7, #8]
 1289 000a 7A60     		str	r2, [r7, #4]
 1290 000c 7B80     		strh	r3, [r7, #2]	@ movhi
 723:Drivers/STM32F3xx_HAL_Driver/Src/stm32f3xx_hal_tim_ex.c ****   /* Check the parameters */
 724:Drivers/STM32F3xx_HAL_Driver/Src/stm32f3xx_hal_tim_ex.c ****   assert_param(IS_TIM_CCXN_INSTANCE(htim->Instance, Channel)); 
 725:Drivers/STM32F3xx_HAL_Driver/Src/stm32f3xx_hal_tim_ex.c ****   
 726:Drivers/STM32F3xx_HAL_Driver/Src/stm32f3xx_hal_tim_ex.c ****   if((htim->State == HAL_TIM_STATE_BUSY))
 1291              		.loc 1 726 0
 1292 000e FB68     		ldr	r3, [r7, #12]
 1293 0010 93F83930 		ldrb	r3, [r3, #57]
 1294 0014 DBB2     		uxtb	r3, r3
 1295 0016 022B     		cmp	r3, #2
 1296 0018 01D1     		bne	.L61
 727:Drivers/STM32F3xx_HAL_Driver/Src/stm32f3xx_hal_tim_ex.c ****   {
 728:Drivers/STM32F3xx_HAL_Driver/Src/stm32f3xx_hal_tim_ex.c ****      return HAL_BUSY;
ARM GAS  /tmp/ccRzvoJq.s 			page 36


 1297              		.loc 1 728 0
 1298 001a 0223     		movs	r3, #2
 1299 001c B7E0     		b	.L62
 1300              	.L61:
 729:Drivers/STM32F3xx_HAL_Driver/Src/stm32f3xx_hal_tim_ex.c ****   }
 730:Drivers/STM32F3xx_HAL_Driver/Src/stm32f3xx_hal_tim_ex.c ****   else if((htim->State == HAL_TIM_STATE_READY))
 1301              		.loc 1 730 0
 1302 001e FB68     		ldr	r3, [r7, #12]
 1303 0020 93F83930 		ldrb	r3, [r3, #57]
 1304 0024 DBB2     		uxtb	r3, r3
 1305 0026 012B     		cmp	r3, #1
 1306 0028 0BD1     		bne	.L63
 731:Drivers/STM32F3xx_HAL_Driver/Src/stm32f3xx_hal_tim_ex.c ****   {
 732:Drivers/STM32F3xx_HAL_Driver/Src/stm32f3xx_hal_tim_ex.c ****     if(((uint32_t)pData == 0 ) && (Length > 0)) 
 1307              		.loc 1 732 0
 1308 002a 7B68     		ldr	r3, [r7, #4]
 1309 002c 002B     		cmp	r3, #0
 1310 002e 04D1     		bne	.L64
 1311              		.loc 1 732 0 is_stmt 0 discriminator 1
 1312 0030 7B88     		ldrh	r3, [r7, #2]
 1313 0032 002B     		cmp	r3, #0
 1314 0034 01D0     		beq	.L64
 733:Drivers/STM32F3xx_HAL_Driver/Src/stm32f3xx_hal_tim_ex.c ****     {
 734:Drivers/STM32F3xx_HAL_Driver/Src/stm32f3xx_hal_tim_ex.c ****       return HAL_ERROR;                                    
 1315              		.loc 1 734 0 is_stmt 1
 1316 0036 0123     		movs	r3, #1
 1317 0038 A9E0     		b	.L62
 1318              	.L64:
 735:Drivers/STM32F3xx_HAL_Driver/Src/stm32f3xx_hal_tim_ex.c ****     }
 736:Drivers/STM32F3xx_HAL_Driver/Src/stm32f3xx_hal_tim_ex.c ****     else
 737:Drivers/STM32F3xx_HAL_Driver/Src/stm32f3xx_hal_tim_ex.c ****     {
 738:Drivers/STM32F3xx_HAL_Driver/Src/stm32f3xx_hal_tim_ex.c ****       htim->State = HAL_TIM_STATE_BUSY;
 1319              		.loc 1 738 0
 1320 003a FB68     		ldr	r3, [r7, #12]
 1321 003c 0222     		movs	r2, #2
 1322 003e 83F83920 		strb	r2, [r3, #57]
 1323              	.L63:
 739:Drivers/STM32F3xx_HAL_Driver/Src/stm32f3xx_hal_tim_ex.c ****     }
 740:Drivers/STM32F3xx_HAL_Driver/Src/stm32f3xx_hal_tim_ex.c ****   }    
 741:Drivers/STM32F3xx_HAL_Driver/Src/stm32f3xx_hal_tim_ex.c ****   switch (Channel)
 1324              		.loc 1 741 0
 1325 0042 BB68     		ldr	r3, [r7, #8]
 1326 0044 0C2B     		cmp	r3, #12
 1327 0046 00F28980 		bhi	.L72
 1328 004a 01A2     		adr	r2, .L67
 1329 004c 52F823F0 		ldr	pc, [r2, r3, lsl #2]
 1330              		.p2align 2
 1331              	.L67:
 1332 0050 85000000 		.word	.L66+1
 1333 0054 5D010000 		.word	.L72+1
 1334 0058 5D010000 		.word	.L72+1
 1335 005c 5D010000 		.word	.L72+1
 1336 0060 BB000000 		.word	.L68+1
 1337 0064 5D010000 		.word	.L72+1
 1338 0068 5D010000 		.word	.L72+1
 1339 006c 5D010000 		.word	.L72+1
 1340 0070 F1000000 		.word	.L69+1
ARM GAS  /tmp/ccRzvoJq.s 			page 37


 1341 0074 5D010000 		.word	.L72+1
 1342 0078 5D010000 		.word	.L72+1
 1343 007c 5D010000 		.word	.L72+1
 1344 0080 27010000 		.word	.L70+1
 1345              		.p2align 1
 1346              	.L66:
 742:Drivers/STM32F3xx_HAL_Driver/Src/stm32f3xx_hal_tim_ex.c ****   {
 743:Drivers/STM32F3xx_HAL_Driver/Src/stm32f3xx_hal_tim_ex.c ****     case TIM_CHANNEL_1:
 744:Drivers/STM32F3xx_HAL_Driver/Src/stm32f3xx_hal_tim_ex.c ****     {      
 745:Drivers/STM32F3xx_HAL_Driver/Src/stm32f3xx_hal_tim_ex.c ****       /* Set the DMA Period elapsed callback */
 746:Drivers/STM32F3xx_HAL_Driver/Src/stm32f3xx_hal_tim_ex.c ****       htim->hdma[TIM_DMA_ID_CC1]->XferCpltCallback = TIM_DMADelayPulseCplt;
 1347              		.loc 1 746 0
 1348 0084 FB68     		ldr	r3, [r7, #12]
 1349 0086 1B6A     		ldr	r3, [r3, #32]
 1350 0088 434A     		ldr	r2, .L73
 1351 008a 9A62     		str	r2, [r3, #40]
 747:Drivers/STM32F3xx_HAL_Driver/Src/stm32f3xx_hal_tim_ex.c ****      
 748:Drivers/STM32F3xx_HAL_Driver/Src/stm32f3xx_hal_tim_ex.c ****       /* Set the DMA error callback */
 749:Drivers/STM32F3xx_HAL_Driver/Src/stm32f3xx_hal_tim_ex.c ****       htim->hdma[TIM_DMA_ID_CC1]->XferErrorCallback = TIM_DMAError ;
 1352              		.loc 1 749 0
 1353 008c FB68     		ldr	r3, [r7, #12]
 1354 008e 1B6A     		ldr	r3, [r3, #32]
 1355 0090 424A     		ldr	r2, .L73+4
 1356 0092 1A63     		str	r2, [r3, #48]
 750:Drivers/STM32F3xx_HAL_Driver/Src/stm32f3xx_hal_tim_ex.c ****       
 751:Drivers/STM32F3xx_HAL_Driver/Src/stm32f3xx_hal_tim_ex.c ****       /* Enable the DMA channel */
 752:Drivers/STM32F3xx_HAL_Driver/Src/stm32f3xx_hal_tim_ex.c ****       HAL_DMA_Start_IT(htim->hdma[TIM_DMA_ID_CC1], (uint32_t)pData, (uint32_t)&htim->Instance->CCR1
 1357              		.loc 1 752 0
 1358 0094 FB68     		ldr	r3, [r7, #12]
 1359 0096 186A     		ldr	r0, [r3, #32]
 1360 0098 7968     		ldr	r1, [r7, #4]
 1361 009a FB68     		ldr	r3, [r7, #12]
 1362 009c 1B68     		ldr	r3, [r3]
 1363 009e 3433     		adds	r3, r3, #52
 1364 00a0 1A46     		mov	r2, r3
 1365 00a2 7B88     		ldrh	r3, [r7, #2]
 1366 00a4 FFF7FEFF 		bl	HAL_DMA_Start_IT
 753:Drivers/STM32F3xx_HAL_Driver/Src/stm32f3xx_hal_tim_ex.c ****       
 754:Drivers/STM32F3xx_HAL_Driver/Src/stm32f3xx_hal_tim_ex.c ****       /* Enable the TIM Output Compare DMA request */
 755:Drivers/STM32F3xx_HAL_Driver/Src/stm32f3xx_hal_tim_ex.c ****       __HAL_TIM_ENABLE_DMA(htim, TIM_DMA_CC1);
 1367              		.loc 1 755 0
 1368 00a8 FB68     		ldr	r3, [r7, #12]
 1369 00aa 1B68     		ldr	r3, [r3]
 1370 00ac FA68     		ldr	r2, [r7, #12]
 1371 00ae 1268     		ldr	r2, [r2]
 1372 00b0 D268     		ldr	r2, [r2, #12]
 1373 00b2 42F40072 		orr	r2, r2, #512
 1374 00b6 DA60     		str	r2, [r3, #12]
 756:Drivers/STM32F3xx_HAL_Driver/Src/stm32f3xx_hal_tim_ex.c ****     }
 757:Drivers/STM32F3xx_HAL_Driver/Src/stm32f3xx_hal_tim_ex.c ****     break;
 1375              		.loc 1 757 0
 1376 00b8 51E0     		b	.L71
 1377              	.L68:
 758:Drivers/STM32F3xx_HAL_Driver/Src/stm32f3xx_hal_tim_ex.c ****     
 759:Drivers/STM32F3xx_HAL_Driver/Src/stm32f3xx_hal_tim_ex.c ****     case TIM_CHANNEL_2:
 760:Drivers/STM32F3xx_HAL_Driver/Src/stm32f3xx_hal_tim_ex.c ****     {
 761:Drivers/STM32F3xx_HAL_Driver/Src/stm32f3xx_hal_tim_ex.c ****       /* Set the DMA Period elapsed callback */
ARM GAS  /tmp/ccRzvoJq.s 			page 38


 762:Drivers/STM32F3xx_HAL_Driver/Src/stm32f3xx_hal_tim_ex.c ****       htim->hdma[TIM_DMA_ID_CC2]->XferCpltCallback = TIM_DMADelayPulseCplt;
 1378              		.loc 1 762 0
 1379 00ba FB68     		ldr	r3, [r7, #12]
 1380 00bc 5B6A     		ldr	r3, [r3, #36]
 1381 00be 364A     		ldr	r2, .L73
 1382 00c0 9A62     		str	r2, [r3, #40]
 763:Drivers/STM32F3xx_HAL_Driver/Src/stm32f3xx_hal_tim_ex.c ****      
 764:Drivers/STM32F3xx_HAL_Driver/Src/stm32f3xx_hal_tim_ex.c ****       /* Set the DMA error callback */
 765:Drivers/STM32F3xx_HAL_Driver/Src/stm32f3xx_hal_tim_ex.c ****       htim->hdma[TIM_DMA_ID_CC2]->XferErrorCallback = TIM_DMAError ;
 1383              		.loc 1 765 0
 1384 00c2 FB68     		ldr	r3, [r7, #12]
 1385 00c4 5B6A     		ldr	r3, [r3, #36]
 1386 00c6 354A     		ldr	r2, .L73+4
 1387 00c8 1A63     		str	r2, [r3, #48]
 766:Drivers/STM32F3xx_HAL_Driver/Src/stm32f3xx_hal_tim_ex.c ****       
 767:Drivers/STM32F3xx_HAL_Driver/Src/stm32f3xx_hal_tim_ex.c ****       /* Enable the DMA channel */
 768:Drivers/STM32F3xx_HAL_Driver/Src/stm32f3xx_hal_tim_ex.c ****       HAL_DMA_Start_IT(htim->hdma[TIM_DMA_ID_CC2], (uint32_t)pData, (uint32_t)&htim->Instance->CCR2
 1388              		.loc 1 768 0
 1389 00ca FB68     		ldr	r3, [r7, #12]
 1390 00cc 586A     		ldr	r0, [r3, #36]
 1391 00ce 7968     		ldr	r1, [r7, #4]
 1392 00d0 FB68     		ldr	r3, [r7, #12]
 1393 00d2 1B68     		ldr	r3, [r3]
 1394 00d4 3833     		adds	r3, r3, #56
 1395 00d6 1A46     		mov	r2, r3
 1396 00d8 7B88     		ldrh	r3, [r7, #2]
 1397 00da FFF7FEFF 		bl	HAL_DMA_Start_IT
 769:Drivers/STM32F3xx_HAL_Driver/Src/stm32f3xx_hal_tim_ex.c ****       
 770:Drivers/STM32F3xx_HAL_Driver/Src/stm32f3xx_hal_tim_ex.c ****       /* Enable the TIM Output Compare DMA request */
 771:Drivers/STM32F3xx_HAL_Driver/Src/stm32f3xx_hal_tim_ex.c ****       __HAL_TIM_ENABLE_DMA(htim, TIM_DMA_CC2);
 1398              		.loc 1 771 0
 1399 00de FB68     		ldr	r3, [r7, #12]
 1400 00e0 1B68     		ldr	r3, [r3]
 1401 00e2 FA68     		ldr	r2, [r7, #12]
 1402 00e4 1268     		ldr	r2, [r2]
 1403 00e6 D268     		ldr	r2, [r2, #12]
 1404 00e8 42F48062 		orr	r2, r2, #1024
 1405 00ec DA60     		str	r2, [r3, #12]
 772:Drivers/STM32F3xx_HAL_Driver/Src/stm32f3xx_hal_tim_ex.c ****     }
 773:Drivers/STM32F3xx_HAL_Driver/Src/stm32f3xx_hal_tim_ex.c ****     break;
 1406              		.loc 1 773 0
 1407 00ee 36E0     		b	.L71
 1408              	.L69:
 774:Drivers/STM32F3xx_HAL_Driver/Src/stm32f3xx_hal_tim_ex.c ****     
 775:Drivers/STM32F3xx_HAL_Driver/Src/stm32f3xx_hal_tim_ex.c ****     case TIM_CHANNEL_3:
 776:Drivers/STM32F3xx_HAL_Driver/Src/stm32f3xx_hal_tim_ex.c **** {
 777:Drivers/STM32F3xx_HAL_Driver/Src/stm32f3xx_hal_tim_ex.c ****       /* Set the DMA Period elapsed callback */
 778:Drivers/STM32F3xx_HAL_Driver/Src/stm32f3xx_hal_tim_ex.c ****       htim->hdma[TIM_DMA_ID_CC3]->XferCpltCallback = TIM_DMADelayPulseCplt;
 1409              		.loc 1 778 0
 1410 00f0 FB68     		ldr	r3, [r7, #12]
 1411 00f2 9B6A     		ldr	r3, [r3, #40]
 1412 00f4 284A     		ldr	r2, .L73
 1413 00f6 9A62     		str	r2, [r3, #40]
 779:Drivers/STM32F3xx_HAL_Driver/Src/stm32f3xx_hal_tim_ex.c ****      
 780:Drivers/STM32F3xx_HAL_Driver/Src/stm32f3xx_hal_tim_ex.c ****       /* Set the DMA error callback */
 781:Drivers/STM32F3xx_HAL_Driver/Src/stm32f3xx_hal_tim_ex.c ****       htim->hdma[TIM_DMA_ID_CC3]->XferErrorCallback = TIM_DMAError ;
 1414              		.loc 1 781 0
ARM GAS  /tmp/ccRzvoJq.s 			page 39


 1415 00f8 FB68     		ldr	r3, [r7, #12]
 1416 00fa 9B6A     		ldr	r3, [r3, #40]
 1417 00fc 274A     		ldr	r2, .L73+4
 1418 00fe 1A63     		str	r2, [r3, #48]
 782:Drivers/STM32F3xx_HAL_Driver/Src/stm32f3xx_hal_tim_ex.c ****       
 783:Drivers/STM32F3xx_HAL_Driver/Src/stm32f3xx_hal_tim_ex.c ****       /* Enable the DMA channel */
 784:Drivers/STM32F3xx_HAL_Driver/Src/stm32f3xx_hal_tim_ex.c ****       HAL_DMA_Start_IT(htim->hdma[TIM_DMA_ID_CC3], (uint32_t)pData, (uint32_t)&htim->Instance->CCR3
 1419              		.loc 1 784 0
 1420 0100 FB68     		ldr	r3, [r7, #12]
 1421 0102 986A     		ldr	r0, [r3, #40]
 1422 0104 7968     		ldr	r1, [r7, #4]
 1423 0106 FB68     		ldr	r3, [r7, #12]
 1424 0108 1B68     		ldr	r3, [r3]
 1425 010a 3C33     		adds	r3, r3, #60
 1426 010c 1A46     		mov	r2, r3
 1427 010e 7B88     		ldrh	r3, [r7, #2]
 1428 0110 FFF7FEFF 		bl	HAL_DMA_Start_IT
 785:Drivers/STM32F3xx_HAL_Driver/Src/stm32f3xx_hal_tim_ex.c ****       
 786:Drivers/STM32F3xx_HAL_Driver/Src/stm32f3xx_hal_tim_ex.c ****       /* Enable the TIM Output Compare DMA request */
 787:Drivers/STM32F3xx_HAL_Driver/Src/stm32f3xx_hal_tim_ex.c ****       __HAL_TIM_ENABLE_DMA(htim, TIM_DMA_CC3);
 1429              		.loc 1 787 0
 1430 0114 FB68     		ldr	r3, [r7, #12]
 1431 0116 1B68     		ldr	r3, [r3]
 1432 0118 FA68     		ldr	r2, [r7, #12]
 1433 011a 1268     		ldr	r2, [r2]
 1434 011c D268     		ldr	r2, [r2, #12]
 1435 011e 42F40062 		orr	r2, r2, #2048
 1436 0122 DA60     		str	r2, [r3, #12]
 788:Drivers/STM32F3xx_HAL_Driver/Src/stm32f3xx_hal_tim_ex.c ****     }
 789:Drivers/STM32F3xx_HAL_Driver/Src/stm32f3xx_hal_tim_ex.c ****     break;
 1437              		.loc 1 789 0
 1438 0124 1BE0     		b	.L71
 1439              	.L70:
 790:Drivers/STM32F3xx_HAL_Driver/Src/stm32f3xx_hal_tim_ex.c ****     
 791:Drivers/STM32F3xx_HAL_Driver/Src/stm32f3xx_hal_tim_ex.c ****     case TIM_CHANNEL_4:
 792:Drivers/STM32F3xx_HAL_Driver/Src/stm32f3xx_hal_tim_ex.c ****     {
 793:Drivers/STM32F3xx_HAL_Driver/Src/stm32f3xx_hal_tim_ex.c ****      /* Set the DMA Period elapsed callback */
 794:Drivers/STM32F3xx_HAL_Driver/Src/stm32f3xx_hal_tim_ex.c ****       htim->hdma[TIM_DMA_ID_CC4]->XferCpltCallback = TIM_DMADelayPulseCplt;
 1440              		.loc 1 794 0
 1441 0126 FB68     		ldr	r3, [r7, #12]
 1442 0128 DB6A     		ldr	r3, [r3, #44]
 1443 012a 1B4A     		ldr	r2, .L73
 1444 012c 9A62     		str	r2, [r3, #40]
 795:Drivers/STM32F3xx_HAL_Driver/Src/stm32f3xx_hal_tim_ex.c ****      
 796:Drivers/STM32F3xx_HAL_Driver/Src/stm32f3xx_hal_tim_ex.c ****       /* Set the DMA error callback */
 797:Drivers/STM32F3xx_HAL_Driver/Src/stm32f3xx_hal_tim_ex.c ****       htim->hdma[TIM_DMA_ID_CC4]->XferErrorCallback = TIM_DMAError ;
 1445              		.loc 1 797 0
 1446 012e FB68     		ldr	r3, [r7, #12]
 1447 0130 DB6A     		ldr	r3, [r3, #44]
 1448 0132 1A4A     		ldr	r2, .L73+4
 1449 0134 1A63     		str	r2, [r3, #48]
 798:Drivers/STM32F3xx_HAL_Driver/Src/stm32f3xx_hal_tim_ex.c ****       
 799:Drivers/STM32F3xx_HAL_Driver/Src/stm32f3xx_hal_tim_ex.c ****       /* Enable the DMA channel */
 800:Drivers/STM32F3xx_HAL_Driver/Src/stm32f3xx_hal_tim_ex.c ****       HAL_DMA_Start_IT(htim->hdma[TIM_DMA_ID_CC4], (uint32_t)pData, (uint32_t)&htim->Instance->CCR4
 1450              		.loc 1 800 0
 1451 0136 FB68     		ldr	r3, [r7, #12]
 1452 0138 D86A     		ldr	r0, [r3, #44]
ARM GAS  /tmp/ccRzvoJq.s 			page 40


 1453 013a 7968     		ldr	r1, [r7, #4]
 1454 013c FB68     		ldr	r3, [r7, #12]
 1455 013e 1B68     		ldr	r3, [r3]
 1456 0140 4033     		adds	r3, r3, #64
 1457 0142 1A46     		mov	r2, r3
 1458 0144 7B88     		ldrh	r3, [r7, #2]
 1459 0146 FFF7FEFF 		bl	HAL_DMA_Start_IT
 801:Drivers/STM32F3xx_HAL_Driver/Src/stm32f3xx_hal_tim_ex.c ****       
 802:Drivers/STM32F3xx_HAL_Driver/Src/stm32f3xx_hal_tim_ex.c ****       /* Enable the TIM Output Compare DMA request */
 803:Drivers/STM32F3xx_HAL_Driver/Src/stm32f3xx_hal_tim_ex.c ****       __HAL_TIM_ENABLE_DMA(htim, TIM_DMA_CC4);
 1460              		.loc 1 803 0
 1461 014a FB68     		ldr	r3, [r7, #12]
 1462 014c 1B68     		ldr	r3, [r3]
 1463 014e FA68     		ldr	r2, [r7, #12]
 1464 0150 1268     		ldr	r2, [r2]
 1465 0152 D268     		ldr	r2, [r2, #12]
 1466 0154 42F48052 		orr	r2, r2, #4096
 1467 0158 DA60     		str	r2, [r3, #12]
 804:Drivers/STM32F3xx_HAL_Driver/Src/stm32f3xx_hal_tim_ex.c ****     }
 805:Drivers/STM32F3xx_HAL_Driver/Src/stm32f3xx_hal_tim_ex.c ****     break;
 1468              		.loc 1 805 0
 1469 015a 00E0     		b	.L71
 1470              	.L72:
 806:Drivers/STM32F3xx_HAL_Driver/Src/stm32f3xx_hal_tim_ex.c ****     
 807:Drivers/STM32F3xx_HAL_Driver/Src/stm32f3xx_hal_tim_ex.c ****     default:
 808:Drivers/STM32F3xx_HAL_Driver/Src/stm32f3xx_hal_tim_ex.c ****     break;
 1471              		.loc 1 808 0
 1472 015c 00BF     		nop
 1473              	.L71:
 809:Drivers/STM32F3xx_HAL_Driver/Src/stm32f3xx_hal_tim_ex.c ****   }
 810:Drivers/STM32F3xx_HAL_Driver/Src/stm32f3xx_hal_tim_ex.c **** 
 811:Drivers/STM32F3xx_HAL_Driver/Src/stm32f3xx_hal_tim_ex.c ****   /* Enable the Capture compare channel N */
 812:Drivers/STM32F3xx_HAL_Driver/Src/stm32f3xx_hal_tim_ex.c ****   TIM_CCxNChannelCmd(htim->Instance, Channel, TIM_CCxN_ENABLE);
 1474              		.loc 1 812 0
 1475 015e FB68     		ldr	r3, [r7, #12]
 1476 0160 1B68     		ldr	r3, [r3]
 1477 0162 1846     		mov	r0, r3
 1478 0164 B968     		ldr	r1, [r7, #8]
 1479 0166 0422     		movs	r2, #4
 1480 0168 FFF7FEFF 		bl	TIM_CCxNChannelCmd
 813:Drivers/STM32F3xx_HAL_Driver/Src/stm32f3xx_hal_tim_ex.c ****   
 814:Drivers/STM32F3xx_HAL_Driver/Src/stm32f3xx_hal_tim_ex.c ****   /* Enable the Main Ouput */
 815:Drivers/STM32F3xx_HAL_Driver/Src/stm32f3xx_hal_tim_ex.c ****   __HAL_TIM_MOE_ENABLE(htim);
 1481              		.loc 1 815 0
 1482 016c FB68     		ldr	r3, [r7, #12]
 1483 016e 1B68     		ldr	r3, [r3]
 1484 0170 FA68     		ldr	r2, [r7, #12]
 1485 0172 1268     		ldr	r2, [r2]
 1486 0174 526C     		ldr	r2, [r2, #68]
 1487 0176 42F40042 		orr	r2, r2, #32768
 1488 017a 5A64     		str	r2, [r3, #68]
 816:Drivers/STM32F3xx_HAL_Driver/Src/stm32f3xx_hal_tim_ex.c ****   
 817:Drivers/STM32F3xx_HAL_Driver/Src/stm32f3xx_hal_tim_ex.c ****   /* Enable the Peripheral */
 818:Drivers/STM32F3xx_HAL_Driver/Src/stm32f3xx_hal_tim_ex.c ****   __HAL_TIM_ENABLE(htim); 
 1489              		.loc 1 818 0
 1490 017c FB68     		ldr	r3, [r7, #12]
 1491 017e 1B68     		ldr	r3, [r3]
ARM GAS  /tmp/ccRzvoJq.s 			page 41


 1492 0180 FA68     		ldr	r2, [r7, #12]
 1493 0182 1268     		ldr	r2, [r2]
 1494 0184 1268     		ldr	r2, [r2]
 1495 0186 42F00102 		orr	r2, r2, #1
 1496 018a 1A60     		str	r2, [r3]
 819:Drivers/STM32F3xx_HAL_Driver/Src/stm32f3xx_hal_tim_ex.c ****   
 820:Drivers/STM32F3xx_HAL_Driver/Src/stm32f3xx_hal_tim_ex.c ****   /* Return function status */
 821:Drivers/STM32F3xx_HAL_Driver/Src/stm32f3xx_hal_tim_ex.c ****   return HAL_OK;
 1497              		.loc 1 821 0
 1498 018c 0023     		movs	r3, #0
 1499              	.L62:
 822:Drivers/STM32F3xx_HAL_Driver/Src/stm32f3xx_hal_tim_ex.c **** }
 1500              		.loc 1 822 0
 1501 018e 1846     		mov	r0, r3
 1502 0190 1037     		adds	r7, r7, #16
 1503 0192 BD46     		mov	sp, r7
 1504              		@ sp needed
 1505 0194 80BD     		pop	{r7, pc}
 1506              	.L74:
 1507 0196 00BF     		.align	2
 1508              	.L73:
 1509 0198 00000000 		.word	TIM_DMADelayPulseCplt
 1510 019c 00000000 		.word	TIM_DMAError
 1511              		.cfi_endproc
 1512              	.LFE139:
 1514              		.section	.text.HAL_TIMEx_OCN_Stop_DMA,"ax",%progbits
 1515              		.align	2
 1516              		.global	HAL_TIMEx_OCN_Stop_DMA
 1517              		.thumb
 1518              		.thumb_func
 1520              	HAL_TIMEx_OCN_Stop_DMA:
 1521              	.LFB140:
 823:Drivers/STM32F3xx_HAL_Driver/Src/stm32f3xx_hal_tim_ex.c **** 
 824:Drivers/STM32F3xx_HAL_Driver/Src/stm32f3xx_hal_tim_ex.c **** /**
 825:Drivers/STM32F3xx_HAL_Driver/Src/stm32f3xx_hal_tim_ex.c ****   * @brief  Stops the TIM Output Compare signal generation in DMA mode 
 826:Drivers/STM32F3xx_HAL_Driver/Src/stm32f3xx_hal_tim_ex.c ****   *         on the complementary output.
 827:Drivers/STM32F3xx_HAL_Driver/Src/stm32f3xx_hal_tim_ex.c ****   * @param  htim: TIM Output Compare handle
 828:Drivers/STM32F3xx_HAL_Driver/Src/stm32f3xx_hal_tim_ex.c ****   * @param  Channel: TIM Channel to be disabled
 829:Drivers/STM32F3xx_HAL_Driver/Src/stm32f3xx_hal_tim_ex.c ****   *          This parameter can be one of the following values:
 830:Drivers/STM32F3xx_HAL_Driver/Src/stm32f3xx_hal_tim_ex.c ****   *            @arg TIM_CHANNEL_1: TIM Channel 1 selected
 831:Drivers/STM32F3xx_HAL_Driver/Src/stm32f3xx_hal_tim_ex.c ****   *            @arg TIM_CHANNEL_2: TIM Channel 2 selected
 832:Drivers/STM32F3xx_HAL_Driver/Src/stm32f3xx_hal_tim_ex.c ****   *            @arg TIM_CHANNEL_3: TIM Channel 3 selected
 833:Drivers/STM32F3xx_HAL_Driver/Src/stm32f3xx_hal_tim_ex.c ****   *            @arg TIM_CHANNEL_4: TIM Channel 4 selected
 834:Drivers/STM32F3xx_HAL_Driver/Src/stm32f3xx_hal_tim_ex.c ****   * @retval HAL status
 835:Drivers/STM32F3xx_HAL_Driver/Src/stm32f3xx_hal_tim_ex.c ****   */
 836:Drivers/STM32F3xx_HAL_Driver/Src/stm32f3xx_hal_tim_ex.c **** HAL_StatusTypeDef HAL_TIMEx_OCN_Stop_DMA(TIM_HandleTypeDef *htim, uint32_t Channel)
 837:Drivers/STM32F3xx_HAL_Driver/Src/stm32f3xx_hal_tim_ex.c **** {
 1522              		.loc 1 837 0
 1523              		.cfi_startproc
 1524              		@ args = 0, pretend = 0, frame = 8
 1525              		@ frame_needed = 1, uses_anonymous_args = 0
 1526 0000 80B5     		push	{r7, lr}
 1527              	.LCFI45:
 1528              		.cfi_def_cfa_offset 8
 1529              		.cfi_offset 7, -8
 1530              		.cfi_offset 14, -4
 1531 0002 82B0     		sub	sp, sp, #8
ARM GAS  /tmp/ccRzvoJq.s 			page 42


 1532              	.LCFI46:
 1533              		.cfi_def_cfa_offset 16
 1534 0004 00AF     		add	r7, sp, #0
 1535              	.LCFI47:
 1536              		.cfi_def_cfa_register 7
 1537 0006 7860     		str	r0, [r7, #4]
 1538 0008 3960     		str	r1, [r7]
 838:Drivers/STM32F3xx_HAL_Driver/Src/stm32f3xx_hal_tim_ex.c ****   /* Check the parameters */
 839:Drivers/STM32F3xx_HAL_Driver/Src/stm32f3xx_hal_tim_ex.c ****   assert_param(IS_TIM_CCXN_INSTANCE(htim->Instance, Channel)); 
 840:Drivers/STM32F3xx_HAL_Driver/Src/stm32f3xx_hal_tim_ex.c ****   
 841:Drivers/STM32F3xx_HAL_Driver/Src/stm32f3xx_hal_tim_ex.c ****   switch (Channel)
 1539              		.loc 1 841 0
 1540 000a 3B68     		ldr	r3, [r7]
 1541 000c 0C2B     		cmp	r3, #12
 1542 000e 41D8     		bhi	.L86
 1543 0010 01A2     		adr	r2, .L78
 1544 0012 52F823F0 		ldr	pc, [r2, r3, lsl #2]
 1545 0016 00BF     		.p2align 2
 1546              	.L78:
 1547 0018 4D000000 		.word	.L77+1
 1548 001c 95000000 		.word	.L86+1
 1549 0020 95000000 		.word	.L86+1
 1550 0024 95000000 		.word	.L86+1
 1551 0028 5F000000 		.word	.L79+1
 1552 002c 95000000 		.word	.L86+1
 1553 0030 95000000 		.word	.L86+1
 1554 0034 95000000 		.word	.L86+1
 1555 0038 71000000 		.word	.L80+1
 1556 003c 95000000 		.word	.L86+1
 1557 0040 95000000 		.word	.L86+1
 1558 0044 95000000 		.word	.L86+1
 1559 0048 83000000 		.word	.L81+1
 1560              		.p2align 1
 1561              	.L77:
 842:Drivers/STM32F3xx_HAL_Driver/Src/stm32f3xx_hal_tim_ex.c ****   {
 843:Drivers/STM32F3xx_HAL_Driver/Src/stm32f3xx_hal_tim_ex.c ****     case TIM_CHANNEL_1:
 844:Drivers/STM32F3xx_HAL_Driver/Src/stm32f3xx_hal_tim_ex.c ****     {       
 845:Drivers/STM32F3xx_HAL_Driver/Src/stm32f3xx_hal_tim_ex.c ****       /* Disable the TIM Output Compare DMA request */
 846:Drivers/STM32F3xx_HAL_Driver/Src/stm32f3xx_hal_tim_ex.c ****       __HAL_TIM_DISABLE_DMA(htim, TIM_DMA_CC1);
 1562              		.loc 1 846 0
 1563 004c 7B68     		ldr	r3, [r7, #4]
 1564 004e 1B68     		ldr	r3, [r3]
 1565 0050 7A68     		ldr	r2, [r7, #4]
 1566 0052 1268     		ldr	r2, [r2]
 1567 0054 D268     		ldr	r2, [r2, #12]
 1568 0056 22F40072 		bic	r2, r2, #512
 1569 005a DA60     		str	r2, [r3, #12]
 847:Drivers/STM32F3xx_HAL_Driver/Src/stm32f3xx_hal_tim_ex.c ****     }
 848:Drivers/STM32F3xx_HAL_Driver/Src/stm32f3xx_hal_tim_ex.c ****     break;
 1570              		.loc 1 848 0
 1571 005c 1BE0     		b	.L82
 1572              	.L79:
 849:Drivers/STM32F3xx_HAL_Driver/Src/stm32f3xx_hal_tim_ex.c ****     
 850:Drivers/STM32F3xx_HAL_Driver/Src/stm32f3xx_hal_tim_ex.c ****     case TIM_CHANNEL_2:
 851:Drivers/STM32F3xx_HAL_Driver/Src/stm32f3xx_hal_tim_ex.c ****     {
 852:Drivers/STM32F3xx_HAL_Driver/Src/stm32f3xx_hal_tim_ex.c ****       /* Disable the TIM Output Compare DMA request */
 853:Drivers/STM32F3xx_HAL_Driver/Src/stm32f3xx_hal_tim_ex.c ****       __HAL_TIM_DISABLE_DMA(htim, TIM_DMA_CC2);
ARM GAS  /tmp/ccRzvoJq.s 			page 43


 1573              		.loc 1 853 0
 1574 005e 7B68     		ldr	r3, [r7, #4]
 1575 0060 1B68     		ldr	r3, [r3]
 1576 0062 7A68     		ldr	r2, [r7, #4]
 1577 0064 1268     		ldr	r2, [r2]
 1578 0066 D268     		ldr	r2, [r2, #12]
 1579 0068 22F48062 		bic	r2, r2, #1024
 1580 006c DA60     		str	r2, [r3, #12]
 854:Drivers/STM32F3xx_HAL_Driver/Src/stm32f3xx_hal_tim_ex.c ****     }
 855:Drivers/STM32F3xx_HAL_Driver/Src/stm32f3xx_hal_tim_ex.c ****     break;
 1581              		.loc 1 855 0
 1582 006e 12E0     		b	.L82
 1583              	.L80:
 856:Drivers/STM32F3xx_HAL_Driver/Src/stm32f3xx_hal_tim_ex.c ****     
 857:Drivers/STM32F3xx_HAL_Driver/Src/stm32f3xx_hal_tim_ex.c ****     case TIM_CHANNEL_3:
 858:Drivers/STM32F3xx_HAL_Driver/Src/stm32f3xx_hal_tim_ex.c ****     {
 859:Drivers/STM32F3xx_HAL_Driver/Src/stm32f3xx_hal_tim_ex.c ****       /* Disable the TIM Output Compare DMA request */
 860:Drivers/STM32F3xx_HAL_Driver/Src/stm32f3xx_hal_tim_ex.c ****       __HAL_TIM_DISABLE_DMA(htim, TIM_DMA_CC3);
 1584              		.loc 1 860 0
 1585 0070 7B68     		ldr	r3, [r7, #4]
 1586 0072 1B68     		ldr	r3, [r3]
 1587 0074 7A68     		ldr	r2, [r7, #4]
 1588 0076 1268     		ldr	r2, [r2]
 1589 0078 D268     		ldr	r2, [r2, #12]
 1590 007a 22F40062 		bic	r2, r2, #2048
 1591 007e DA60     		str	r2, [r3, #12]
 861:Drivers/STM32F3xx_HAL_Driver/Src/stm32f3xx_hal_tim_ex.c ****     }
 862:Drivers/STM32F3xx_HAL_Driver/Src/stm32f3xx_hal_tim_ex.c ****     break;
 1592              		.loc 1 862 0
 1593 0080 09E0     		b	.L82
 1594              	.L81:
 863:Drivers/STM32F3xx_HAL_Driver/Src/stm32f3xx_hal_tim_ex.c ****     
 864:Drivers/STM32F3xx_HAL_Driver/Src/stm32f3xx_hal_tim_ex.c ****     case TIM_CHANNEL_4:
 865:Drivers/STM32F3xx_HAL_Driver/Src/stm32f3xx_hal_tim_ex.c ****     {
 866:Drivers/STM32F3xx_HAL_Driver/Src/stm32f3xx_hal_tim_ex.c ****       /* Disable the TIM Output Compare interrupt */
 867:Drivers/STM32F3xx_HAL_Driver/Src/stm32f3xx_hal_tim_ex.c ****       __HAL_TIM_DISABLE_DMA(htim, TIM_DMA_CC4);
 1595              		.loc 1 867 0
 1596 0082 7B68     		ldr	r3, [r7, #4]
 1597 0084 1B68     		ldr	r3, [r3]
 1598 0086 7A68     		ldr	r2, [r7, #4]
 1599 0088 1268     		ldr	r2, [r2]
 1600 008a D268     		ldr	r2, [r2, #12]
 1601 008c 22F48052 		bic	r2, r2, #4096
 1602 0090 DA60     		str	r2, [r3, #12]
 868:Drivers/STM32F3xx_HAL_Driver/Src/stm32f3xx_hal_tim_ex.c ****     }
 869:Drivers/STM32F3xx_HAL_Driver/Src/stm32f3xx_hal_tim_ex.c ****     break;
 1603              		.loc 1 869 0
 1604 0092 00E0     		b	.L82
 1605              	.L86:
 870:Drivers/STM32F3xx_HAL_Driver/Src/stm32f3xx_hal_tim_ex.c ****     
 871:Drivers/STM32F3xx_HAL_Driver/Src/stm32f3xx_hal_tim_ex.c ****     default:
 872:Drivers/STM32F3xx_HAL_Driver/Src/stm32f3xx_hal_tim_ex.c ****     break;
 1606              		.loc 1 872 0
 1607 0094 00BF     		nop
 1608              	.L82:
 873:Drivers/STM32F3xx_HAL_Driver/Src/stm32f3xx_hal_tim_ex.c ****   } 
 874:Drivers/STM32F3xx_HAL_Driver/Src/stm32f3xx_hal_tim_ex.c ****   
ARM GAS  /tmp/ccRzvoJq.s 			page 44


 875:Drivers/STM32F3xx_HAL_Driver/Src/stm32f3xx_hal_tim_ex.c ****   /* Disable the Capture compare channel N */
 876:Drivers/STM32F3xx_HAL_Driver/Src/stm32f3xx_hal_tim_ex.c ****   TIM_CCxNChannelCmd(htim->Instance, Channel, TIM_CCxN_DISABLE);
 1609              		.loc 1 876 0
 1610 0096 7B68     		ldr	r3, [r7, #4]
 1611 0098 1B68     		ldr	r3, [r3]
 1612 009a 1846     		mov	r0, r3
 1613 009c 3968     		ldr	r1, [r7]
 1614 009e 0022     		movs	r2, #0
 1615 00a0 FFF7FEFF 		bl	TIM_CCxNChannelCmd
 877:Drivers/STM32F3xx_HAL_Driver/Src/stm32f3xx_hal_tim_ex.c ****   
 878:Drivers/STM32F3xx_HAL_Driver/Src/stm32f3xx_hal_tim_ex.c ****   /* Disable the Main Ouput */
 879:Drivers/STM32F3xx_HAL_Driver/Src/stm32f3xx_hal_tim_ex.c ****   __HAL_TIM_MOE_DISABLE(htim);
 1616              		.loc 1 879 0
 1617 00a4 7B68     		ldr	r3, [r7, #4]
 1618 00a6 1B68     		ldr	r3, [r3]
 1619 00a8 1A6A     		ldr	r2, [r3, #32]
 1620 00aa 41F21113 		movw	r3, #4369
 1621 00ae 1340     		ands	r3, r3, r2
 1622 00b0 002B     		cmp	r3, #0
 1623 00b2 0FD1     		bne	.L83
 1624              		.loc 1 879 0 is_stmt 0 discriminator 1
 1625 00b4 7B68     		ldr	r3, [r7, #4]
 1626 00b6 1B68     		ldr	r3, [r3]
 1627 00b8 1A6A     		ldr	r2, [r3, #32]
 1628 00ba 40F24443 		movw	r3, #1092
 1629 00be 1340     		ands	r3, r3, r2
 1630 00c0 002B     		cmp	r3, #0
 1631 00c2 07D1     		bne	.L83
 1632 00c4 7B68     		ldr	r3, [r7, #4]
 1633 00c6 1B68     		ldr	r3, [r3]
 1634 00c8 7A68     		ldr	r2, [r7, #4]
 1635 00ca 1268     		ldr	r2, [r2]
 1636 00cc 526C     		ldr	r2, [r2, #68]
 1637 00ce 22F40042 		bic	r2, r2, #32768
 1638 00d2 5A64     		str	r2, [r3, #68]
 1639              	.L83:
 880:Drivers/STM32F3xx_HAL_Driver/Src/stm32f3xx_hal_tim_ex.c ****   
 881:Drivers/STM32F3xx_HAL_Driver/Src/stm32f3xx_hal_tim_ex.c ****   /* Disable the Peripheral */
 882:Drivers/STM32F3xx_HAL_Driver/Src/stm32f3xx_hal_tim_ex.c ****   __HAL_TIM_DISABLE(htim);
 1640              		.loc 1 882 0 is_stmt 1
 1641 00d4 7B68     		ldr	r3, [r7, #4]
 1642 00d6 1B68     		ldr	r3, [r3]
 1643 00d8 1A6A     		ldr	r2, [r3, #32]
 1644 00da 41F21113 		movw	r3, #4369
 1645 00de 1340     		ands	r3, r3, r2
 1646 00e0 002B     		cmp	r3, #0
 1647 00e2 0FD1     		bne	.L84
 1648              		.loc 1 882 0 is_stmt 0 discriminator 1
 1649 00e4 7B68     		ldr	r3, [r7, #4]
 1650 00e6 1B68     		ldr	r3, [r3]
 1651 00e8 1A6A     		ldr	r2, [r3, #32]
 1652 00ea 40F24443 		movw	r3, #1092
 1653 00ee 1340     		ands	r3, r3, r2
 1654 00f0 002B     		cmp	r3, #0
 1655 00f2 07D1     		bne	.L84
 1656 00f4 7B68     		ldr	r3, [r7, #4]
 1657 00f6 1B68     		ldr	r3, [r3]
ARM GAS  /tmp/ccRzvoJq.s 			page 45


 1658 00f8 7A68     		ldr	r2, [r7, #4]
 1659 00fa 1268     		ldr	r2, [r2]
 1660 00fc 1268     		ldr	r2, [r2]
 1661 00fe 22F00102 		bic	r2, r2, #1
 1662 0102 1A60     		str	r2, [r3]
 1663              	.L84:
 883:Drivers/STM32F3xx_HAL_Driver/Src/stm32f3xx_hal_tim_ex.c ****   
 884:Drivers/STM32F3xx_HAL_Driver/Src/stm32f3xx_hal_tim_ex.c ****   /* Change the htim state */
 885:Drivers/STM32F3xx_HAL_Driver/Src/stm32f3xx_hal_tim_ex.c ****   htim->State = HAL_TIM_STATE_READY;
 1664              		.loc 1 885 0 is_stmt 1
 1665 0104 7B68     		ldr	r3, [r7, #4]
 1666 0106 0122     		movs	r2, #1
 1667 0108 83F83920 		strb	r2, [r3, #57]
 886:Drivers/STM32F3xx_HAL_Driver/Src/stm32f3xx_hal_tim_ex.c ****   
 887:Drivers/STM32F3xx_HAL_Driver/Src/stm32f3xx_hal_tim_ex.c ****   /* Return function status */
 888:Drivers/STM32F3xx_HAL_Driver/Src/stm32f3xx_hal_tim_ex.c ****   return HAL_OK;
 1668              		.loc 1 888 0
 1669 010c 0023     		movs	r3, #0
 889:Drivers/STM32F3xx_HAL_Driver/Src/stm32f3xx_hal_tim_ex.c **** }
 1670              		.loc 1 889 0
 1671 010e 1846     		mov	r0, r3
 1672 0110 0837     		adds	r7, r7, #8
 1673 0112 BD46     		mov	sp, r7
 1674              		@ sp needed
 1675 0114 80BD     		pop	{r7, pc}
 1676              		.cfi_endproc
 1677              	.LFE140:
 1679 0116 00BF     		.section	.text.HAL_TIMEx_PWMN_Start,"ax",%progbits
 1680              		.align	2
 1681              		.global	HAL_TIMEx_PWMN_Start
 1682              		.thumb
 1683              		.thumb_func
 1685              	HAL_TIMEx_PWMN_Start:
 1686              	.LFB141:
 890:Drivers/STM32F3xx_HAL_Driver/Src/stm32f3xx_hal_tim_ex.c **** 
 891:Drivers/STM32F3xx_HAL_Driver/Src/stm32f3xx_hal_tim_ex.c **** /**
 892:Drivers/STM32F3xx_HAL_Driver/Src/stm32f3xx_hal_tim_ex.c ****   * @}
 893:Drivers/STM32F3xx_HAL_Driver/Src/stm32f3xx_hal_tim_ex.c ****   */
 894:Drivers/STM32F3xx_HAL_Driver/Src/stm32f3xx_hal_tim_ex.c ****   
 895:Drivers/STM32F3xx_HAL_Driver/Src/stm32f3xx_hal_tim_ex.c **** /** @defgroup TIMEx_Exported_Functions_Group3 Timer Complementary PWM functions
 896:Drivers/STM32F3xx_HAL_Driver/Src/stm32f3xx_hal_tim_ex.c ****   * @brief    Timer Complementary PWM functions
 897:Drivers/STM32F3xx_HAL_Driver/Src/stm32f3xx_hal_tim_ex.c ****   *
 898:Drivers/STM32F3xx_HAL_Driver/Src/stm32f3xx_hal_tim_ex.c **** @verbatim   
 899:Drivers/STM32F3xx_HAL_Driver/Src/stm32f3xx_hal_tim_ex.c ****   ==============================================================================
 900:Drivers/STM32F3xx_HAL_Driver/Src/stm32f3xx_hal_tim_ex.c ****                  ##### Timer Complementary PWM functions #####
 901:Drivers/STM32F3xx_HAL_Driver/Src/stm32f3xx_hal_tim_ex.c ****   ==============================================================================  
 902:Drivers/STM32F3xx_HAL_Driver/Src/stm32f3xx_hal_tim_ex.c ****   [..]  
 903:Drivers/STM32F3xx_HAL_Driver/Src/stm32f3xx_hal_tim_ex.c ****     This section provides functions allowing to:
 904:Drivers/STM32F3xx_HAL_Driver/Src/stm32f3xx_hal_tim_ex.c ****     (+) Start the Complementary PWM.
 905:Drivers/STM32F3xx_HAL_Driver/Src/stm32f3xx_hal_tim_ex.c ****     (+) Stop the Complementary PWM.
 906:Drivers/STM32F3xx_HAL_Driver/Src/stm32f3xx_hal_tim_ex.c ****     (+) Start the Complementary PWM and enable interrupts.
 907:Drivers/STM32F3xx_HAL_Driver/Src/stm32f3xx_hal_tim_ex.c ****     (+) Stop the Complementary PWM and disable interrupts.
 908:Drivers/STM32F3xx_HAL_Driver/Src/stm32f3xx_hal_tim_ex.c ****     (+) Start the Complementary PWM and enable DMA transfers.
 909:Drivers/STM32F3xx_HAL_Driver/Src/stm32f3xx_hal_tim_ex.c ****     (+) Stop the Complementary PWM and disable DMA transfers.
 910:Drivers/STM32F3xx_HAL_Driver/Src/stm32f3xx_hal_tim_ex.c ****     (+) Start the Complementary Input Capture measurement.
 911:Drivers/STM32F3xx_HAL_Driver/Src/stm32f3xx_hal_tim_ex.c ****     (+) Stop the Complementary Input Capture.
 912:Drivers/STM32F3xx_HAL_Driver/Src/stm32f3xx_hal_tim_ex.c ****     (+) Start the Complementary Input Capture and enable interrupts.
ARM GAS  /tmp/ccRzvoJq.s 			page 46


 913:Drivers/STM32F3xx_HAL_Driver/Src/stm32f3xx_hal_tim_ex.c ****     (+) Stop the Complementary Input Capture and disable interrupts.
 914:Drivers/STM32F3xx_HAL_Driver/Src/stm32f3xx_hal_tim_ex.c ****     (+) Start the Complementary Input Capture and enable DMA transfers.
 915:Drivers/STM32F3xx_HAL_Driver/Src/stm32f3xx_hal_tim_ex.c ****     (+) Stop the Complementary Input Capture and disable DMA transfers.
 916:Drivers/STM32F3xx_HAL_Driver/Src/stm32f3xx_hal_tim_ex.c ****     (+) Start the Complementary One Pulse generation.
 917:Drivers/STM32F3xx_HAL_Driver/Src/stm32f3xx_hal_tim_ex.c ****     (+) Stop the Complementary One Pulse.
 918:Drivers/STM32F3xx_HAL_Driver/Src/stm32f3xx_hal_tim_ex.c ****     (+) Start the Complementary One Pulse and enable interrupts.
 919:Drivers/STM32F3xx_HAL_Driver/Src/stm32f3xx_hal_tim_ex.c ****     (+) Stop the Complementary One Pulse and disable interrupts.
 920:Drivers/STM32F3xx_HAL_Driver/Src/stm32f3xx_hal_tim_ex.c ****                
 921:Drivers/STM32F3xx_HAL_Driver/Src/stm32f3xx_hal_tim_ex.c **** @endverbatim
 922:Drivers/STM32F3xx_HAL_Driver/Src/stm32f3xx_hal_tim_ex.c ****   * @{
 923:Drivers/STM32F3xx_HAL_Driver/Src/stm32f3xx_hal_tim_ex.c ****   */
 924:Drivers/STM32F3xx_HAL_Driver/Src/stm32f3xx_hal_tim_ex.c **** 
 925:Drivers/STM32F3xx_HAL_Driver/Src/stm32f3xx_hal_tim_ex.c **** /**
 926:Drivers/STM32F3xx_HAL_Driver/Src/stm32f3xx_hal_tim_ex.c ****   * @brief  Starts the PWM signal generation on the complementary output.
 927:Drivers/STM32F3xx_HAL_Driver/Src/stm32f3xx_hal_tim_ex.c ****   * @param  htim: TIM handle
 928:Drivers/STM32F3xx_HAL_Driver/Src/stm32f3xx_hal_tim_ex.c ****   * @param  Channel: TIM Channel to be enabled
 929:Drivers/STM32F3xx_HAL_Driver/Src/stm32f3xx_hal_tim_ex.c ****   *          This parameter can be one of the following values:
 930:Drivers/STM32F3xx_HAL_Driver/Src/stm32f3xx_hal_tim_ex.c ****   *            @arg TIM_CHANNEL_1: TIM Channel 1 selected
 931:Drivers/STM32F3xx_HAL_Driver/Src/stm32f3xx_hal_tim_ex.c ****   *            @arg TIM_CHANNEL_2: TIM Channel 2 selected
 932:Drivers/STM32F3xx_HAL_Driver/Src/stm32f3xx_hal_tim_ex.c ****   *            @arg TIM_CHANNEL_3: TIM Channel 3 selected
 933:Drivers/STM32F3xx_HAL_Driver/Src/stm32f3xx_hal_tim_ex.c ****   *            @arg TIM_CHANNEL_4: TIM Channel 4 selected
 934:Drivers/STM32F3xx_HAL_Driver/Src/stm32f3xx_hal_tim_ex.c ****   * @retval HAL status
 935:Drivers/STM32F3xx_HAL_Driver/Src/stm32f3xx_hal_tim_ex.c ****   */
 936:Drivers/STM32F3xx_HAL_Driver/Src/stm32f3xx_hal_tim_ex.c **** HAL_StatusTypeDef HAL_TIMEx_PWMN_Start(TIM_HandleTypeDef *htim, uint32_t Channel)
 937:Drivers/STM32F3xx_HAL_Driver/Src/stm32f3xx_hal_tim_ex.c **** {
 1687              		.loc 1 937 0
 1688              		.cfi_startproc
 1689              		@ args = 0, pretend = 0, frame = 8
 1690              		@ frame_needed = 1, uses_anonymous_args = 0
 1691 0000 80B5     		push	{r7, lr}
 1692              	.LCFI48:
 1693              		.cfi_def_cfa_offset 8
 1694              		.cfi_offset 7, -8
 1695              		.cfi_offset 14, -4
 1696 0002 82B0     		sub	sp, sp, #8
 1697              	.LCFI49:
 1698              		.cfi_def_cfa_offset 16
 1699 0004 00AF     		add	r7, sp, #0
 1700              	.LCFI50:
 1701              		.cfi_def_cfa_register 7
 1702 0006 7860     		str	r0, [r7, #4]
 1703 0008 3960     		str	r1, [r7]
 938:Drivers/STM32F3xx_HAL_Driver/Src/stm32f3xx_hal_tim_ex.c ****   /* Check the parameters */
 939:Drivers/STM32F3xx_HAL_Driver/Src/stm32f3xx_hal_tim_ex.c ****   assert_param(IS_TIM_CCXN_INSTANCE(htim->Instance, Channel)); 
 940:Drivers/STM32F3xx_HAL_Driver/Src/stm32f3xx_hal_tim_ex.c ****   
 941:Drivers/STM32F3xx_HAL_Driver/Src/stm32f3xx_hal_tim_ex.c ****   /* Enable the complementary PWM output  */
 942:Drivers/STM32F3xx_HAL_Driver/Src/stm32f3xx_hal_tim_ex.c ****   TIM_CCxNChannelCmd(htim->Instance, Channel, TIM_CCxN_ENABLE);
 1704              		.loc 1 942 0
 1705 000a 7B68     		ldr	r3, [r7, #4]
 1706 000c 1B68     		ldr	r3, [r3]
 1707 000e 1846     		mov	r0, r3
 1708 0010 3968     		ldr	r1, [r7]
 1709 0012 0422     		movs	r2, #4
 1710 0014 FFF7FEFF 		bl	TIM_CCxNChannelCmd
 943:Drivers/STM32F3xx_HAL_Driver/Src/stm32f3xx_hal_tim_ex.c ****   
 944:Drivers/STM32F3xx_HAL_Driver/Src/stm32f3xx_hal_tim_ex.c ****   /* Enable the Main Ouput */
 945:Drivers/STM32F3xx_HAL_Driver/Src/stm32f3xx_hal_tim_ex.c ****   __HAL_TIM_MOE_ENABLE(htim);
ARM GAS  /tmp/ccRzvoJq.s 			page 47


 1711              		.loc 1 945 0
 1712 0018 7B68     		ldr	r3, [r7, #4]
 1713 001a 1B68     		ldr	r3, [r3]
 1714 001c 7A68     		ldr	r2, [r7, #4]
 1715 001e 1268     		ldr	r2, [r2]
 1716 0020 526C     		ldr	r2, [r2, #68]
 1717 0022 42F40042 		orr	r2, r2, #32768
 1718 0026 5A64     		str	r2, [r3, #68]
 946:Drivers/STM32F3xx_HAL_Driver/Src/stm32f3xx_hal_tim_ex.c ****   
 947:Drivers/STM32F3xx_HAL_Driver/Src/stm32f3xx_hal_tim_ex.c ****   /* Enable the Peripheral */
 948:Drivers/STM32F3xx_HAL_Driver/Src/stm32f3xx_hal_tim_ex.c ****   __HAL_TIM_ENABLE(htim);
 1719              		.loc 1 948 0
 1720 0028 7B68     		ldr	r3, [r7, #4]
 1721 002a 1B68     		ldr	r3, [r3]
 1722 002c 7A68     		ldr	r2, [r7, #4]
 1723 002e 1268     		ldr	r2, [r2]
 1724 0030 1268     		ldr	r2, [r2]
 1725 0032 42F00102 		orr	r2, r2, #1
 1726 0036 1A60     		str	r2, [r3]
 949:Drivers/STM32F3xx_HAL_Driver/Src/stm32f3xx_hal_tim_ex.c ****   
 950:Drivers/STM32F3xx_HAL_Driver/Src/stm32f3xx_hal_tim_ex.c ****   /* Return function status */
 951:Drivers/STM32F3xx_HAL_Driver/Src/stm32f3xx_hal_tim_ex.c ****   return HAL_OK;
 1727              		.loc 1 951 0
 1728 0038 0023     		movs	r3, #0
 952:Drivers/STM32F3xx_HAL_Driver/Src/stm32f3xx_hal_tim_ex.c **** } 
 1729              		.loc 1 952 0
 1730 003a 1846     		mov	r0, r3
 1731 003c 0837     		adds	r7, r7, #8
 1732 003e BD46     		mov	sp, r7
 1733              		@ sp needed
 1734 0040 80BD     		pop	{r7, pc}
 1735              		.cfi_endproc
 1736              	.LFE141:
 1738 0042 00BF     		.section	.text.HAL_TIMEx_PWMN_Stop,"ax",%progbits
 1739              		.align	2
 1740              		.global	HAL_TIMEx_PWMN_Stop
 1741              		.thumb
 1742              		.thumb_func
 1744              	HAL_TIMEx_PWMN_Stop:
 1745              	.LFB142:
 953:Drivers/STM32F3xx_HAL_Driver/Src/stm32f3xx_hal_tim_ex.c **** 
 954:Drivers/STM32F3xx_HAL_Driver/Src/stm32f3xx_hal_tim_ex.c **** /**
 955:Drivers/STM32F3xx_HAL_Driver/Src/stm32f3xx_hal_tim_ex.c ****   * @brief  Stops the PWM signal generation on the complementary output.
 956:Drivers/STM32F3xx_HAL_Driver/Src/stm32f3xx_hal_tim_ex.c ****   * @param  htim: TIM handle
 957:Drivers/STM32F3xx_HAL_Driver/Src/stm32f3xx_hal_tim_ex.c ****   * @param  Channel: TIM Channel to be disabled
 958:Drivers/STM32F3xx_HAL_Driver/Src/stm32f3xx_hal_tim_ex.c ****   *          This parameter can be one of the following values:
 959:Drivers/STM32F3xx_HAL_Driver/Src/stm32f3xx_hal_tim_ex.c ****   *            @arg TIM_CHANNEL_1: TIM Channel 1 selected
 960:Drivers/STM32F3xx_HAL_Driver/Src/stm32f3xx_hal_tim_ex.c ****   *            @arg TIM_CHANNEL_2: TIM Channel 2 selected
 961:Drivers/STM32F3xx_HAL_Driver/Src/stm32f3xx_hal_tim_ex.c ****   *            @arg TIM_CHANNEL_3: TIM Channel 3 selected
 962:Drivers/STM32F3xx_HAL_Driver/Src/stm32f3xx_hal_tim_ex.c ****   *            @arg TIM_CHANNEL_4: TIM Channel 4 selected
 963:Drivers/STM32F3xx_HAL_Driver/Src/stm32f3xx_hal_tim_ex.c ****   * @retval HAL status
 964:Drivers/STM32F3xx_HAL_Driver/Src/stm32f3xx_hal_tim_ex.c ****   */
 965:Drivers/STM32F3xx_HAL_Driver/Src/stm32f3xx_hal_tim_ex.c **** HAL_StatusTypeDef HAL_TIMEx_PWMN_Stop(TIM_HandleTypeDef *htim, uint32_t Channel)
 966:Drivers/STM32F3xx_HAL_Driver/Src/stm32f3xx_hal_tim_ex.c **** { 
 1746              		.loc 1 966 0
 1747              		.cfi_startproc
 1748              		@ args = 0, pretend = 0, frame = 8
ARM GAS  /tmp/ccRzvoJq.s 			page 48


 1749              		@ frame_needed = 1, uses_anonymous_args = 0
 1750 0000 80B5     		push	{r7, lr}
 1751              	.LCFI51:
 1752              		.cfi_def_cfa_offset 8
 1753              		.cfi_offset 7, -8
 1754              		.cfi_offset 14, -4
 1755 0002 82B0     		sub	sp, sp, #8
 1756              	.LCFI52:
 1757              		.cfi_def_cfa_offset 16
 1758 0004 00AF     		add	r7, sp, #0
 1759              	.LCFI53:
 1760              		.cfi_def_cfa_register 7
 1761 0006 7860     		str	r0, [r7, #4]
 1762 0008 3960     		str	r1, [r7]
 967:Drivers/STM32F3xx_HAL_Driver/Src/stm32f3xx_hal_tim_ex.c ****   /* Check the parameters */
 968:Drivers/STM32F3xx_HAL_Driver/Src/stm32f3xx_hal_tim_ex.c ****   assert_param(IS_TIM_CCXN_INSTANCE(htim->Instance, Channel)); 
 969:Drivers/STM32F3xx_HAL_Driver/Src/stm32f3xx_hal_tim_ex.c ****   
 970:Drivers/STM32F3xx_HAL_Driver/Src/stm32f3xx_hal_tim_ex.c ****   /* Disable the complementary PWM output  */
 971:Drivers/STM32F3xx_HAL_Driver/Src/stm32f3xx_hal_tim_ex.c ****   TIM_CCxNChannelCmd(htim->Instance, Channel, TIM_CCxN_DISABLE);  
 1763              		.loc 1 971 0
 1764 000a 7B68     		ldr	r3, [r7, #4]
 1765 000c 1B68     		ldr	r3, [r3]
 1766 000e 1846     		mov	r0, r3
 1767 0010 3968     		ldr	r1, [r7]
 1768 0012 0022     		movs	r2, #0
 1769 0014 FFF7FEFF 		bl	TIM_CCxNChannelCmd
 972:Drivers/STM32F3xx_HAL_Driver/Src/stm32f3xx_hal_tim_ex.c ****   
 973:Drivers/STM32F3xx_HAL_Driver/Src/stm32f3xx_hal_tim_ex.c ****   /* Disable the Main Ouput */
 974:Drivers/STM32F3xx_HAL_Driver/Src/stm32f3xx_hal_tim_ex.c ****   __HAL_TIM_MOE_DISABLE(htim);
 1770              		.loc 1 974 0
 1771 0018 7B68     		ldr	r3, [r7, #4]
 1772 001a 1B68     		ldr	r3, [r3]
 1773 001c 1A6A     		ldr	r2, [r3, #32]
 1774 001e 41F21113 		movw	r3, #4369
 1775 0022 1340     		ands	r3, r3, r2
 1776 0024 002B     		cmp	r3, #0
 1777 0026 0FD1     		bne	.L90
 1778              		.loc 1 974 0 is_stmt 0 discriminator 1
 1779 0028 7B68     		ldr	r3, [r7, #4]
 1780 002a 1B68     		ldr	r3, [r3]
 1781 002c 1A6A     		ldr	r2, [r3, #32]
 1782 002e 40F24443 		movw	r3, #1092
 1783 0032 1340     		ands	r3, r3, r2
 1784 0034 002B     		cmp	r3, #0
 1785 0036 07D1     		bne	.L90
 1786 0038 7B68     		ldr	r3, [r7, #4]
 1787 003a 1B68     		ldr	r3, [r3]
 1788 003c 7A68     		ldr	r2, [r7, #4]
 1789 003e 1268     		ldr	r2, [r2]
 1790 0040 526C     		ldr	r2, [r2, #68]
 1791 0042 22F40042 		bic	r2, r2, #32768
 1792 0046 5A64     		str	r2, [r3, #68]
 1793              	.L90:
 975:Drivers/STM32F3xx_HAL_Driver/Src/stm32f3xx_hal_tim_ex.c ****   
 976:Drivers/STM32F3xx_HAL_Driver/Src/stm32f3xx_hal_tim_ex.c ****   /* Disable the Peripheral */
 977:Drivers/STM32F3xx_HAL_Driver/Src/stm32f3xx_hal_tim_ex.c ****   __HAL_TIM_DISABLE(htim);
 1794              		.loc 1 977 0 is_stmt 1
ARM GAS  /tmp/ccRzvoJq.s 			page 49


 1795 0048 7B68     		ldr	r3, [r7, #4]
 1796 004a 1B68     		ldr	r3, [r3]
 1797 004c 1A6A     		ldr	r2, [r3, #32]
 1798 004e 41F21113 		movw	r3, #4369
 1799 0052 1340     		ands	r3, r3, r2
 1800 0054 002B     		cmp	r3, #0
 1801 0056 0FD1     		bne	.L91
 1802              		.loc 1 977 0 is_stmt 0 discriminator 1
 1803 0058 7B68     		ldr	r3, [r7, #4]
 1804 005a 1B68     		ldr	r3, [r3]
 1805 005c 1A6A     		ldr	r2, [r3, #32]
 1806 005e 40F24443 		movw	r3, #1092
 1807 0062 1340     		ands	r3, r3, r2
 1808 0064 002B     		cmp	r3, #0
 1809 0066 07D1     		bne	.L91
 1810 0068 7B68     		ldr	r3, [r7, #4]
 1811 006a 1B68     		ldr	r3, [r3]
 1812 006c 7A68     		ldr	r2, [r7, #4]
 1813 006e 1268     		ldr	r2, [r2]
 1814 0070 1268     		ldr	r2, [r2]
 1815 0072 22F00102 		bic	r2, r2, #1
 1816 0076 1A60     		str	r2, [r3]
 1817              	.L91:
 978:Drivers/STM32F3xx_HAL_Driver/Src/stm32f3xx_hal_tim_ex.c ****   
 979:Drivers/STM32F3xx_HAL_Driver/Src/stm32f3xx_hal_tim_ex.c ****   /* Return function status */
 980:Drivers/STM32F3xx_HAL_Driver/Src/stm32f3xx_hal_tim_ex.c ****   return HAL_OK;
 1818              		.loc 1 980 0 is_stmt 1
 1819 0078 0023     		movs	r3, #0
 981:Drivers/STM32F3xx_HAL_Driver/Src/stm32f3xx_hal_tim_ex.c **** } 
 1820              		.loc 1 981 0
 1821 007a 1846     		mov	r0, r3
 1822 007c 0837     		adds	r7, r7, #8
 1823 007e BD46     		mov	sp, r7
 1824              		@ sp needed
 1825 0080 80BD     		pop	{r7, pc}
 1826              		.cfi_endproc
 1827              	.LFE142:
 1829 0082 00BF     		.section	.text.HAL_TIMEx_PWMN_Start_IT,"ax",%progbits
 1830              		.align	2
 1831              		.global	HAL_TIMEx_PWMN_Start_IT
 1832              		.thumb
 1833              		.thumb_func
 1835              	HAL_TIMEx_PWMN_Start_IT:
 1836              	.LFB143:
 982:Drivers/STM32F3xx_HAL_Driver/Src/stm32f3xx_hal_tim_ex.c **** 
 983:Drivers/STM32F3xx_HAL_Driver/Src/stm32f3xx_hal_tim_ex.c **** /**
 984:Drivers/STM32F3xx_HAL_Driver/Src/stm32f3xx_hal_tim_ex.c ****   * @brief  Starts the PWM signal generation in interrupt mode on the 
 985:Drivers/STM32F3xx_HAL_Driver/Src/stm32f3xx_hal_tim_ex.c ****   *         complementary output.
 986:Drivers/STM32F3xx_HAL_Driver/Src/stm32f3xx_hal_tim_ex.c ****   * @param  htim: TIM handle
 987:Drivers/STM32F3xx_HAL_Driver/Src/stm32f3xx_hal_tim_ex.c ****   * @param  Channel: TIM Channel to be disabled
 988:Drivers/STM32F3xx_HAL_Driver/Src/stm32f3xx_hal_tim_ex.c ****   *          This parameter can be one of the following values:
 989:Drivers/STM32F3xx_HAL_Driver/Src/stm32f3xx_hal_tim_ex.c ****   *            @arg TIM_CHANNEL_1: TIM Channel 1 selected
 990:Drivers/STM32F3xx_HAL_Driver/Src/stm32f3xx_hal_tim_ex.c ****   *            @arg TIM_CHANNEL_2: TIM Channel 2 selected
 991:Drivers/STM32F3xx_HAL_Driver/Src/stm32f3xx_hal_tim_ex.c ****   *            @arg TIM_CHANNEL_3: TIM Channel 3 selected
 992:Drivers/STM32F3xx_HAL_Driver/Src/stm32f3xx_hal_tim_ex.c ****   *            @arg TIM_CHANNEL_4: TIM Channel 4 selected
 993:Drivers/STM32F3xx_HAL_Driver/Src/stm32f3xx_hal_tim_ex.c ****   * @retval HAL status
 994:Drivers/STM32F3xx_HAL_Driver/Src/stm32f3xx_hal_tim_ex.c ****   */
ARM GAS  /tmp/ccRzvoJq.s 			page 50


 995:Drivers/STM32F3xx_HAL_Driver/Src/stm32f3xx_hal_tim_ex.c **** HAL_StatusTypeDef HAL_TIMEx_PWMN_Start_IT(TIM_HandleTypeDef *htim, uint32_t Channel)
 996:Drivers/STM32F3xx_HAL_Driver/Src/stm32f3xx_hal_tim_ex.c **** {
 1837              		.loc 1 996 0
 1838              		.cfi_startproc
 1839              		@ args = 0, pretend = 0, frame = 8
 1840              		@ frame_needed = 1, uses_anonymous_args = 0
 1841 0000 80B5     		push	{r7, lr}
 1842              	.LCFI54:
 1843              		.cfi_def_cfa_offset 8
 1844              		.cfi_offset 7, -8
 1845              		.cfi_offset 14, -4
 1846 0002 82B0     		sub	sp, sp, #8
 1847              	.LCFI55:
 1848              		.cfi_def_cfa_offset 16
 1849 0004 00AF     		add	r7, sp, #0
 1850              	.LCFI56:
 1851              		.cfi_def_cfa_register 7
 1852 0006 7860     		str	r0, [r7, #4]
 1853 0008 3960     		str	r1, [r7]
 997:Drivers/STM32F3xx_HAL_Driver/Src/stm32f3xx_hal_tim_ex.c ****   /* Check the parameters */
 998:Drivers/STM32F3xx_HAL_Driver/Src/stm32f3xx_hal_tim_ex.c ****   assert_param(IS_TIM_CCXN_INSTANCE(htim->Instance, Channel)); 
 999:Drivers/STM32F3xx_HAL_Driver/Src/stm32f3xx_hal_tim_ex.c ****   
1000:Drivers/STM32F3xx_HAL_Driver/Src/stm32f3xx_hal_tim_ex.c ****   switch (Channel)
 1854              		.loc 1 1000 0
 1855 000a 3B68     		ldr	r3, [r7]
 1856 000c 0C2B     		cmp	r3, #12
 1857 000e 41D8     		bhi	.L102
 1858 0010 01A2     		adr	r2, .L96
 1859 0012 52F823F0 		ldr	pc, [r2, r3, lsl #2]
 1860 0016 00BF     		.p2align 2
 1861              	.L96:
 1862 0018 4D000000 		.word	.L95+1
 1863 001c 95000000 		.word	.L102+1
 1864 0020 95000000 		.word	.L102+1
 1865 0024 95000000 		.word	.L102+1
 1866 0028 5F000000 		.word	.L97+1
 1867 002c 95000000 		.word	.L102+1
 1868 0030 95000000 		.word	.L102+1
 1869 0034 95000000 		.word	.L102+1
 1870 0038 71000000 		.word	.L98+1
 1871 003c 95000000 		.word	.L102+1
 1872 0040 95000000 		.word	.L102+1
 1873 0044 95000000 		.word	.L102+1
 1874 0048 83000000 		.word	.L99+1
 1875              		.p2align 1
 1876              	.L95:
1001:Drivers/STM32F3xx_HAL_Driver/Src/stm32f3xx_hal_tim_ex.c ****   {
1002:Drivers/STM32F3xx_HAL_Driver/Src/stm32f3xx_hal_tim_ex.c ****     case TIM_CHANNEL_1:
1003:Drivers/STM32F3xx_HAL_Driver/Src/stm32f3xx_hal_tim_ex.c ****     {       
1004:Drivers/STM32F3xx_HAL_Driver/Src/stm32f3xx_hal_tim_ex.c ****       /* Enable the TIM Capture/Compare 1 interrupt */
1005:Drivers/STM32F3xx_HAL_Driver/Src/stm32f3xx_hal_tim_ex.c ****       __HAL_TIM_ENABLE_IT(htim, TIM_IT_CC1);
 1877              		.loc 1 1005 0
 1878 004c 7B68     		ldr	r3, [r7, #4]
 1879 004e 1B68     		ldr	r3, [r3]
 1880 0050 7A68     		ldr	r2, [r7, #4]
 1881 0052 1268     		ldr	r2, [r2]
 1882 0054 D268     		ldr	r2, [r2, #12]
ARM GAS  /tmp/ccRzvoJq.s 			page 51


 1883 0056 42F00202 		orr	r2, r2, #2
 1884 005a DA60     		str	r2, [r3, #12]
1006:Drivers/STM32F3xx_HAL_Driver/Src/stm32f3xx_hal_tim_ex.c ****     }
1007:Drivers/STM32F3xx_HAL_Driver/Src/stm32f3xx_hal_tim_ex.c ****     break;
 1885              		.loc 1 1007 0
 1886 005c 1BE0     		b	.L100
 1887              	.L97:
1008:Drivers/STM32F3xx_HAL_Driver/Src/stm32f3xx_hal_tim_ex.c ****     
1009:Drivers/STM32F3xx_HAL_Driver/Src/stm32f3xx_hal_tim_ex.c ****     case TIM_CHANNEL_2:
1010:Drivers/STM32F3xx_HAL_Driver/Src/stm32f3xx_hal_tim_ex.c ****     {
1011:Drivers/STM32F3xx_HAL_Driver/Src/stm32f3xx_hal_tim_ex.c ****       /* Enable the TIM Capture/Compare 2 interrupt */
1012:Drivers/STM32F3xx_HAL_Driver/Src/stm32f3xx_hal_tim_ex.c ****       __HAL_TIM_ENABLE_IT(htim, TIM_IT_CC2);
 1888              		.loc 1 1012 0
 1889 005e 7B68     		ldr	r3, [r7, #4]
 1890 0060 1B68     		ldr	r3, [r3]
 1891 0062 7A68     		ldr	r2, [r7, #4]
 1892 0064 1268     		ldr	r2, [r2]
 1893 0066 D268     		ldr	r2, [r2, #12]
 1894 0068 42F00402 		orr	r2, r2, #4
 1895 006c DA60     		str	r2, [r3, #12]
1013:Drivers/STM32F3xx_HAL_Driver/Src/stm32f3xx_hal_tim_ex.c ****     }
1014:Drivers/STM32F3xx_HAL_Driver/Src/stm32f3xx_hal_tim_ex.c ****     break;
 1896              		.loc 1 1014 0
 1897 006e 12E0     		b	.L100
 1898              	.L98:
1015:Drivers/STM32F3xx_HAL_Driver/Src/stm32f3xx_hal_tim_ex.c ****     
1016:Drivers/STM32F3xx_HAL_Driver/Src/stm32f3xx_hal_tim_ex.c ****     case TIM_CHANNEL_3:
1017:Drivers/STM32F3xx_HAL_Driver/Src/stm32f3xx_hal_tim_ex.c ****     {
1018:Drivers/STM32F3xx_HAL_Driver/Src/stm32f3xx_hal_tim_ex.c ****       /* Enable the TIM Capture/Compare 3 interrupt */
1019:Drivers/STM32F3xx_HAL_Driver/Src/stm32f3xx_hal_tim_ex.c ****       __HAL_TIM_ENABLE_IT(htim, TIM_IT_CC3);
 1899              		.loc 1 1019 0
 1900 0070 7B68     		ldr	r3, [r7, #4]
 1901 0072 1B68     		ldr	r3, [r3]
 1902 0074 7A68     		ldr	r2, [r7, #4]
 1903 0076 1268     		ldr	r2, [r2]
 1904 0078 D268     		ldr	r2, [r2, #12]
 1905 007a 42F00802 		orr	r2, r2, #8
 1906 007e DA60     		str	r2, [r3, #12]
1020:Drivers/STM32F3xx_HAL_Driver/Src/stm32f3xx_hal_tim_ex.c ****     }
1021:Drivers/STM32F3xx_HAL_Driver/Src/stm32f3xx_hal_tim_ex.c ****     break;
 1907              		.loc 1 1021 0
 1908 0080 09E0     		b	.L100
 1909              	.L99:
1022:Drivers/STM32F3xx_HAL_Driver/Src/stm32f3xx_hal_tim_ex.c ****     
1023:Drivers/STM32F3xx_HAL_Driver/Src/stm32f3xx_hal_tim_ex.c ****     case TIM_CHANNEL_4:
1024:Drivers/STM32F3xx_HAL_Driver/Src/stm32f3xx_hal_tim_ex.c ****     {
1025:Drivers/STM32F3xx_HAL_Driver/Src/stm32f3xx_hal_tim_ex.c ****       /* Enable the TIM Capture/Compare 4 interrupt */
1026:Drivers/STM32F3xx_HAL_Driver/Src/stm32f3xx_hal_tim_ex.c ****       __HAL_TIM_ENABLE_IT(htim, TIM_IT_CC4);
 1910              		.loc 1 1026 0
 1911 0082 7B68     		ldr	r3, [r7, #4]
 1912 0084 1B68     		ldr	r3, [r3]
 1913 0086 7A68     		ldr	r2, [r7, #4]
 1914 0088 1268     		ldr	r2, [r2]
 1915 008a D268     		ldr	r2, [r2, #12]
 1916 008c 42F01002 		orr	r2, r2, #16
 1917 0090 DA60     		str	r2, [r3, #12]
1027:Drivers/STM32F3xx_HAL_Driver/Src/stm32f3xx_hal_tim_ex.c ****     }
ARM GAS  /tmp/ccRzvoJq.s 			page 52


1028:Drivers/STM32F3xx_HAL_Driver/Src/stm32f3xx_hal_tim_ex.c ****     break;
 1918              		.loc 1 1028 0
 1919 0092 00E0     		b	.L100
 1920              	.L102:
1029:Drivers/STM32F3xx_HAL_Driver/Src/stm32f3xx_hal_tim_ex.c ****     
1030:Drivers/STM32F3xx_HAL_Driver/Src/stm32f3xx_hal_tim_ex.c ****     default:
1031:Drivers/STM32F3xx_HAL_Driver/Src/stm32f3xx_hal_tim_ex.c ****     break;
 1921              		.loc 1 1031 0
 1922 0094 00BF     		nop
 1923              	.L100:
1032:Drivers/STM32F3xx_HAL_Driver/Src/stm32f3xx_hal_tim_ex.c ****   } 
1033:Drivers/STM32F3xx_HAL_Driver/Src/stm32f3xx_hal_tim_ex.c ****   
1034:Drivers/STM32F3xx_HAL_Driver/Src/stm32f3xx_hal_tim_ex.c ****   /* Enable the TIM Break interrupt */
1035:Drivers/STM32F3xx_HAL_Driver/Src/stm32f3xx_hal_tim_ex.c ****   __HAL_TIM_ENABLE_IT(htim, TIM_IT_BREAK);
 1924              		.loc 1 1035 0
 1925 0096 7B68     		ldr	r3, [r7, #4]
 1926 0098 1B68     		ldr	r3, [r3]
 1927 009a 7A68     		ldr	r2, [r7, #4]
 1928 009c 1268     		ldr	r2, [r2]
 1929 009e D268     		ldr	r2, [r2, #12]
 1930 00a0 42F08002 		orr	r2, r2, #128
 1931 00a4 DA60     		str	r2, [r3, #12]
1036:Drivers/STM32F3xx_HAL_Driver/Src/stm32f3xx_hal_tim_ex.c ****   
1037:Drivers/STM32F3xx_HAL_Driver/Src/stm32f3xx_hal_tim_ex.c ****   /* Enable the complementary PWM output  */
1038:Drivers/STM32F3xx_HAL_Driver/Src/stm32f3xx_hal_tim_ex.c ****   TIM_CCxNChannelCmd(htim->Instance, Channel, TIM_CCxN_ENABLE);
 1932              		.loc 1 1038 0
 1933 00a6 7B68     		ldr	r3, [r7, #4]
 1934 00a8 1B68     		ldr	r3, [r3]
 1935 00aa 1846     		mov	r0, r3
 1936 00ac 3968     		ldr	r1, [r7]
 1937 00ae 0422     		movs	r2, #4
 1938 00b0 FFF7FEFF 		bl	TIM_CCxNChannelCmd
1039:Drivers/STM32F3xx_HAL_Driver/Src/stm32f3xx_hal_tim_ex.c ****   
1040:Drivers/STM32F3xx_HAL_Driver/Src/stm32f3xx_hal_tim_ex.c ****   /* Enable the Main Ouput */
1041:Drivers/STM32F3xx_HAL_Driver/Src/stm32f3xx_hal_tim_ex.c ****   __HAL_TIM_MOE_ENABLE(htim);
 1939              		.loc 1 1041 0
 1940 00b4 7B68     		ldr	r3, [r7, #4]
 1941 00b6 1B68     		ldr	r3, [r3]
 1942 00b8 7A68     		ldr	r2, [r7, #4]
 1943 00ba 1268     		ldr	r2, [r2]
 1944 00bc 526C     		ldr	r2, [r2, #68]
 1945 00be 42F40042 		orr	r2, r2, #32768
 1946 00c2 5A64     		str	r2, [r3, #68]
1042:Drivers/STM32F3xx_HAL_Driver/Src/stm32f3xx_hal_tim_ex.c ****   
1043:Drivers/STM32F3xx_HAL_Driver/Src/stm32f3xx_hal_tim_ex.c ****   /* Enable the Peripheral */
1044:Drivers/STM32F3xx_HAL_Driver/Src/stm32f3xx_hal_tim_ex.c ****   __HAL_TIM_ENABLE(htim);
 1947              		.loc 1 1044 0
 1948 00c4 7B68     		ldr	r3, [r7, #4]
 1949 00c6 1B68     		ldr	r3, [r3]
 1950 00c8 7A68     		ldr	r2, [r7, #4]
 1951 00ca 1268     		ldr	r2, [r2]
 1952 00cc 1268     		ldr	r2, [r2]
 1953 00ce 42F00102 		orr	r2, r2, #1
 1954 00d2 1A60     		str	r2, [r3]
1045:Drivers/STM32F3xx_HAL_Driver/Src/stm32f3xx_hal_tim_ex.c ****   
1046:Drivers/STM32F3xx_HAL_Driver/Src/stm32f3xx_hal_tim_ex.c ****   /* Return function status */
1047:Drivers/STM32F3xx_HAL_Driver/Src/stm32f3xx_hal_tim_ex.c ****   return HAL_OK;
ARM GAS  /tmp/ccRzvoJq.s 			page 53


 1955              		.loc 1 1047 0
 1956 00d4 0023     		movs	r3, #0
1048:Drivers/STM32F3xx_HAL_Driver/Src/stm32f3xx_hal_tim_ex.c **** } 
 1957              		.loc 1 1048 0
 1958 00d6 1846     		mov	r0, r3
 1959 00d8 0837     		adds	r7, r7, #8
 1960 00da BD46     		mov	sp, r7
 1961              		@ sp needed
 1962 00dc 80BD     		pop	{r7, pc}
 1963              		.cfi_endproc
 1964              	.LFE143:
 1966 00de 00BF     		.section	.text.HAL_TIMEx_PWMN_Stop_IT,"ax",%progbits
 1967              		.align	2
 1968              		.global	HAL_TIMEx_PWMN_Stop_IT
 1969              		.thumb
 1970              		.thumb_func
 1972              	HAL_TIMEx_PWMN_Stop_IT:
 1973              	.LFB144:
1049:Drivers/STM32F3xx_HAL_Driver/Src/stm32f3xx_hal_tim_ex.c **** 
1050:Drivers/STM32F3xx_HAL_Driver/Src/stm32f3xx_hal_tim_ex.c **** /**
1051:Drivers/STM32F3xx_HAL_Driver/Src/stm32f3xx_hal_tim_ex.c ****   * @brief  Stops the PWM signal generation in interrupt mode on the 
1052:Drivers/STM32F3xx_HAL_Driver/Src/stm32f3xx_hal_tim_ex.c ****   *         complementary output.
1053:Drivers/STM32F3xx_HAL_Driver/Src/stm32f3xx_hal_tim_ex.c ****   * @param  htim: TIM handle
1054:Drivers/STM32F3xx_HAL_Driver/Src/stm32f3xx_hal_tim_ex.c ****   * @param  Channel: TIM Channel to be disabled
1055:Drivers/STM32F3xx_HAL_Driver/Src/stm32f3xx_hal_tim_ex.c ****   *          This parameter can be one of the following values:
1056:Drivers/STM32F3xx_HAL_Driver/Src/stm32f3xx_hal_tim_ex.c ****   *            @arg TIM_CHANNEL_1: TIM Channel 1 selected
1057:Drivers/STM32F3xx_HAL_Driver/Src/stm32f3xx_hal_tim_ex.c ****   *            @arg TIM_CHANNEL_2: TIM Channel 2 selected
1058:Drivers/STM32F3xx_HAL_Driver/Src/stm32f3xx_hal_tim_ex.c ****   *            @arg TIM_CHANNEL_3: TIM Channel 3 selected
1059:Drivers/STM32F3xx_HAL_Driver/Src/stm32f3xx_hal_tim_ex.c ****   *            @arg TIM_CHANNEL_4: TIM Channel 4 selected
1060:Drivers/STM32F3xx_HAL_Driver/Src/stm32f3xx_hal_tim_ex.c ****   * @retval HAL status
1061:Drivers/STM32F3xx_HAL_Driver/Src/stm32f3xx_hal_tim_ex.c ****   */
1062:Drivers/STM32F3xx_HAL_Driver/Src/stm32f3xx_hal_tim_ex.c **** HAL_StatusTypeDef HAL_TIMEx_PWMN_Stop_IT (TIM_HandleTypeDef *htim, uint32_t Channel)
1063:Drivers/STM32F3xx_HAL_Driver/Src/stm32f3xx_hal_tim_ex.c **** {
 1974              		.loc 1 1063 0
 1975              		.cfi_startproc
 1976              		@ args = 0, pretend = 0, frame = 16
 1977              		@ frame_needed = 1, uses_anonymous_args = 0
 1978 0000 80B5     		push	{r7, lr}
 1979              	.LCFI57:
 1980              		.cfi_def_cfa_offset 8
 1981              		.cfi_offset 7, -8
 1982              		.cfi_offset 14, -4
 1983 0002 84B0     		sub	sp, sp, #16
 1984              	.LCFI58:
 1985              		.cfi_def_cfa_offset 24
 1986 0004 00AF     		add	r7, sp, #0
 1987              	.LCFI59:
 1988              		.cfi_def_cfa_register 7
 1989 0006 7860     		str	r0, [r7, #4]
 1990 0008 3960     		str	r1, [r7]
1064:Drivers/STM32F3xx_HAL_Driver/Src/stm32f3xx_hal_tim_ex.c ****   uint32_t tmpccer = 0;
 1991              		.loc 1 1064 0
 1992 000a 0023     		movs	r3, #0
 1993 000c FB60     		str	r3, [r7, #12]
1065:Drivers/STM32F3xx_HAL_Driver/Src/stm32f3xx_hal_tim_ex.c **** 
1066:Drivers/STM32F3xx_HAL_Driver/Src/stm32f3xx_hal_tim_ex.c ****   /* Check the parameters */
1067:Drivers/STM32F3xx_HAL_Driver/Src/stm32f3xx_hal_tim_ex.c ****   assert_param(IS_TIM_CCXN_INSTANCE(htim->Instance, Channel)); 
ARM GAS  /tmp/ccRzvoJq.s 			page 54


1068:Drivers/STM32F3xx_HAL_Driver/Src/stm32f3xx_hal_tim_ex.c **** 
1069:Drivers/STM32F3xx_HAL_Driver/Src/stm32f3xx_hal_tim_ex.c ****   switch (Channel)
 1994              		.loc 1 1069 0
 1995 000e 3B68     		ldr	r3, [r7]
 1996 0010 0C2B     		cmp	r3, #12
 1997 0012 41D8     		bhi	.L115
 1998 0014 01A2     		adr	r2, .L106
 1999 0016 52F823F0 		ldr	pc, [r2, r3, lsl #2]
 2000 001a 00BF     		.p2align 2
 2001              	.L106:
 2002 001c 51000000 		.word	.L105+1
 2003 0020 99000000 		.word	.L115+1
 2004 0024 99000000 		.word	.L115+1
 2005 0028 99000000 		.word	.L115+1
 2006 002c 63000000 		.word	.L107+1
 2007 0030 99000000 		.word	.L115+1
 2008 0034 99000000 		.word	.L115+1
 2009 0038 99000000 		.word	.L115+1
 2010 003c 75000000 		.word	.L108+1
 2011 0040 99000000 		.word	.L115+1
 2012 0044 99000000 		.word	.L115+1
 2013 0048 99000000 		.word	.L115+1
 2014 004c 87000000 		.word	.L109+1
 2015              		.p2align 1
 2016              	.L105:
1070:Drivers/STM32F3xx_HAL_Driver/Src/stm32f3xx_hal_tim_ex.c ****   {
1071:Drivers/STM32F3xx_HAL_Driver/Src/stm32f3xx_hal_tim_ex.c ****     case TIM_CHANNEL_1:
1072:Drivers/STM32F3xx_HAL_Driver/Src/stm32f3xx_hal_tim_ex.c ****     {       
1073:Drivers/STM32F3xx_HAL_Driver/Src/stm32f3xx_hal_tim_ex.c ****       /* Disable the TIM Capture/Compare 1 interrupt */
1074:Drivers/STM32F3xx_HAL_Driver/Src/stm32f3xx_hal_tim_ex.c ****       __HAL_TIM_DISABLE_IT(htim, TIM_IT_CC1);
 2017              		.loc 1 1074 0
 2018 0050 7B68     		ldr	r3, [r7, #4]
 2019 0052 1B68     		ldr	r3, [r3]
 2020 0054 7A68     		ldr	r2, [r7, #4]
 2021 0056 1268     		ldr	r2, [r2]
 2022 0058 D268     		ldr	r2, [r2, #12]
 2023 005a 22F00202 		bic	r2, r2, #2
 2024 005e DA60     		str	r2, [r3, #12]
1075:Drivers/STM32F3xx_HAL_Driver/Src/stm32f3xx_hal_tim_ex.c ****     }
1076:Drivers/STM32F3xx_HAL_Driver/Src/stm32f3xx_hal_tim_ex.c ****     break;
 2025              		.loc 1 1076 0
 2026 0060 1BE0     		b	.L110
 2027              	.L107:
1077:Drivers/STM32F3xx_HAL_Driver/Src/stm32f3xx_hal_tim_ex.c ****     
1078:Drivers/STM32F3xx_HAL_Driver/Src/stm32f3xx_hal_tim_ex.c ****     case TIM_CHANNEL_2:
1079:Drivers/STM32F3xx_HAL_Driver/Src/stm32f3xx_hal_tim_ex.c ****     {
1080:Drivers/STM32F3xx_HAL_Driver/Src/stm32f3xx_hal_tim_ex.c ****       /* Disable the TIM Capture/Compare 2 interrupt */
1081:Drivers/STM32F3xx_HAL_Driver/Src/stm32f3xx_hal_tim_ex.c ****       __HAL_TIM_DISABLE_IT(htim, TIM_IT_CC2);
 2028              		.loc 1 1081 0
 2029 0062 7B68     		ldr	r3, [r7, #4]
 2030 0064 1B68     		ldr	r3, [r3]
 2031 0066 7A68     		ldr	r2, [r7, #4]
 2032 0068 1268     		ldr	r2, [r2]
 2033 006a D268     		ldr	r2, [r2, #12]
 2034 006c 22F00402 		bic	r2, r2, #4
 2035 0070 DA60     		str	r2, [r3, #12]
1082:Drivers/STM32F3xx_HAL_Driver/Src/stm32f3xx_hal_tim_ex.c ****     }
ARM GAS  /tmp/ccRzvoJq.s 			page 55


1083:Drivers/STM32F3xx_HAL_Driver/Src/stm32f3xx_hal_tim_ex.c ****     break;
 2036              		.loc 1 1083 0
 2037 0072 12E0     		b	.L110
 2038              	.L108:
1084:Drivers/STM32F3xx_HAL_Driver/Src/stm32f3xx_hal_tim_ex.c ****     
1085:Drivers/STM32F3xx_HAL_Driver/Src/stm32f3xx_hal_tim_ex.c ****     case TIM_CHANNEL_3:
1086:Drivers/STM32F3xx_HAL_Driver/Src/stm32f3xx_hal_tim_ex.c ****     {
1087:Drivers/STM32F3xx_HAL_Driver/Src/stm32f3xx_hal_tim_ex.c ****       /* Disable the TIM Capture/Compare 3 interrupt */
1088:Drivers/STM32F3xx_HAL_Driver/Src/stm32f3xx_hal_tim_ex.c ****       __HAL_TIM_DISABLE_IT(htim, TIM_IT_CC3);
 2039              		.loc 1 1088 0
 2040 0074 7B68     		ldr	r3, [r7, #4]
 2041 0076 1B68     		ldr	r3, [r3]
 2042 0078 7A68     		ldr	r2, [r7, #4]
 2043 007a 1268     		ldr	r2, [r2]
 2044 007c D268     		ldr	r2, [r2, #12]
 2045 007e 22F00802 		bic	r2, r2, #8
 2046 0082 DA60     		str	r2, [r3, #12]
1089:Drivers/STM32F3xx_HAL_Driver/Src/stm32f3xx_hal_tim_ex.c ****     }
1090:Drivers/STM32F3xx_HAL_Driver/Src/stm32f3xx_hal_tim_ex.c ****     break;
 2047              		.loc 1 1090 0
 2048 0084 09E0     		b	.L110
 2049              	.L109:
1091:Drivers/STM32F3xx_HAL_Driver/Src/stm32f3xx_hal_tim_ex.c ****     
1092:Drivers/STM32F3xx_HAL_Driver/Src/stm32f3xx_hal_tim_ex.c ****     case TIM_CHANNEL_4:
1093:Drivers/STM32F3xx_HAL_Driver/Src/stm32f3xx_hal_tim_ex.c ****     {
1094:Drivers/STM32F3xx_HAL_Driver/Src/stm32f3xx_hal_tim_ex.c ****       /* Disable the TIM Capture/Compare 3 interrupt */
1095:Drivers/STM32F3xx_HAL_Driver/Src/stm32f3xx_hal_tim_ex.c ****       __HAL_TIM_DISABLE_IT(htim, TIM_IT_CC4);
 2050              		.loc 1 1095 0
 2051 0086 7B68     		ldr	r3, [r7, #4]
 2052 0088 1B68     		ldr	r3, [r3]
 2053 008a 7A68     		ldr	r2, [r7, #4]
 2054 008c 1268     		ldr	r2, [r2]
 2055 008e D268     		ldr	r2, [r2, #12]
 2056 0090 22F01002 		bic	r2, r2, #16
 2057 0094 DA60     		str	r2, [r3, #12]
1096:Drivers/STM32F3xx_HAL_Driver/Src/stm32f3xx_hal_tim_ex.c ****     }
1097:Drivers/STM32F3xx_HAL_Driver/Src/stm32f3xx_hal_tim_ex.c ****     break;
 2058              		.loc 1 1097 0
 2059 0096 00E0     		b	.L110
 2060              	.L115:
1098:Drivers/STM32F3xx_HAL_Driver/Src/stm32f3xx_hal_tim_ex.c ****     
1099:Drivers/STM32F3xx_HAL_Driver/Src/stm32f3xx_hal_tim_ex.c ****     default:
1100:Drivers/STM32F3xx_HAL_Driver/Src/stm32f3xx_hal_tim_ex.c ****     break; 
 2061              		.loc 1 1100 0
 2062 0098 00BF     		nop
 2063              	.L110:
1101:Drivers/STM32F3xx_HAL_Driver/Src/stm32f3xx_hal_tim_ex.c ****   }
1102:Drivers/STM32F3xx_HAL_Driver/Src/stm32f3xx_hal_tim_ex.c ****   
1103:Drivers/STM32F3xx_HAL_Driver/Src/stm32f3xx_hal_tim_ex.c ****   /* Disable the complementary PWM output  */
1104:Drivers/STM32F3xx_HAL_Driver/Src/stm32f3xx_hal_tim_ex.c ****   TIM_CCxNChannelCmd(htim->Instance, Channel, TIM_CCxN_DISABLE);
 2064              		.loc 1 1104 0
 2065 009a 7B68     		ldr	r3, [r7, #4]
 2066 009c 1B68     		ldr	r3, [r3]
 2067 009e 1846     		mov	r0, r3
 2068 00a0 3968     		ldr	r1, [r7]
 2069 00a2 0022     		movs	r2, #0
 2070 00a4 FFF7FEFF 		bl	TIM_CCxNChannelCmd
ARM GAS  /tmp/ccRzvoJq.s 			page 56


1105:Drivers/STM32F3xx_HAL_Driver/Src/stm32f3xx_hal_tim_ex.c ****   
1106:Drivers/STM32F3xx_HAL_Driver/Src/stm32f3xx_hal_tim_ex.c ****   /* Disable the TIM Break interrupt (only if no more channel is active) */
1107:Drivers/STM32F3xx_HAL_Driver/Src/stm32f3xx_hal_tim_ex.c ****   tmpccer = htim->Instance->CCER;
 2071              		.loc 1 1107 0
 2072 00a8 7B68     		ldr	r3, [r7, #4]
 2073 00aa 1B68     		ldr	r3, [r3]
 2074 00ac 1B6A     		ldr	r3, [r3, #32]
 2075 00ae FB60     		str	r3, [r7, #12]
1108:Drivers/STM32F3xx_HAL_Driver/Src/stm32f3xx_hal_tim_ex.c ****   if ((tmpccer & (TIM_CCER_CC1NE | TIM_CCER_CC2NE | TIM_CCER_CC3NE)) == RESET)
 2076              		.loc 1 1108 0
 2077 00b0 FA68     		ldr	r2, [r7, #12]
 2078 00b2 40F24443 		movw	r3, #1092
 2079 00b6 1340     		ands	r3, r3, r2
 2080 00b8 002B     		cmp	r3, #0
 2081 00ba 07D1     		bne	.L111
1109:Drivers/STM32F3xx_HAL_Driver/Src/stm32f3xx_hal_tim_ex.c ****   {
1110:Drivers/STM32F3xx_HAL_Driver/Src/stm32f3xx_hal_tim_ex.c ****     __HAL_TIM_DISABLE_IT(htim, TIM_IT_BREAK);
 2082              		.loc 1 1110 0
 2083 00bc 7B68     		ldr	r3, [r7, #4]
 2084 00be 1B68     		ldr	r3, [r3]
 2085 00c0 7A68     		ldr	r2, [r7, #4]
 2086 00c2 1268     		ldr	r2, [r2]
 2087 00c4 D268     		ldr	r2, [r2, #12]
 2088 00c6 22F08002 		bic	r2, r2, #128
 2089 00ca DA60     		str	r2, [r3, #12]
 2090              	.L111:
1111:Drivers/STM32F3xx_HAL_Driver/Src/stm32f3xx_hal_tim_ex.c ****   }
1112:Drivers/STM32F3xx_HAL_Driver/Src/stm32f3xx_hal_tim_ex.c ****   
1113:Drivers/STM32F3xx_HAL_Driver/Src/stm32f3xx_hal_tim_ex.c ****   /* Disable the Main Ouput */
1114:Drivers/STM32F3xx_HAL_Driver/Src/stm32f3xx_hal_tim_ex.c ****   __HAL_TIM_MOE_DISABLE(htim);
 2091              		.loc 1 1114 0
 2092 00cc 7B68     		ldr	r3, [r7, #4]
 2093 00ce 1B68     		ldr	r3, [r3]
 2094 00d0 1A6A     		ldr	r2, [r3, #32]
 2095 00d2 41F21113 		movw	r3, #4369
 2096 00d6 1340     		ands	r3, r3, r2
 2097 00d8 002B     		cmp	r3, #0
 2098 00da 0FD1     		bne	.L112
 2099              		.loc 1 1114 0 is_stmt 0 discriminator 1
 2100 00dc 7B68     		ldr	r3, [r7, #4]
 2101 00de 1B68     		ldr	r3, [r3]
 2102 00e0 1A6A     		ldr	r2, [r3, #32]
 2103 00e2 40F24443 		movw	r3, #1092
 2104 00e6 1340     		ands	r3, r3, r2
 2105 00e8 002B     		cmp	r3, #0
 2106 00ea 07D1     		bne	.L112
 2107 00ec 7B68     		ldr	r3, [r7, #4]
 2108 00ee 1B68     		ldr	r3, [r3]
 2109 00f0 7A68     		ldr	r2, [r7, #4]
 2110 00f2 1268     		ldr	r2, [r2]
 2111 00f4 526C     		ldr	r2, [r2, #68]
 2112 00f6 22F40042 		bic	r2, r2, #32768
 2113 00fa 5A64     		str	r2, [r3, #68]
 2114              	.L112:
1115:Drivers/STM32F3xx_HAL_Driver/Src/stm32f3xx_hal_tim_ex.c ****   
1116:Drivers/STM32F3xx_HAL_Driver/Src/stm32f3xx_hal_tim_ex.c ****   /* Disable the Peripheral */
1117:Drivers/STM32F3xx_HAL_Driver/Src/stm32f3xx_hal_tim_ex.c ****   __HAL_TIM_DISABLE(htim);
ARM GAS  /tmp/ccRzvoJq.s 			page 57


 2115              		.loc 1 1117 0 is_stmt 1
 2116 00fc 7B68     		ldr	r3, [r7, #4]
 2117 00fe 1B68     		ldr	r3, [r3]
 2118 0100 1A6A     		ldr	r2, [r3, #32]
 2119 0102 41F21113 		movw	r3, #4369
 2120 0106 1340     		ands	r3, r3, r2
 2121 0108 002B     		cmp	r3, #0
 2122 010a 0FD1     		bne	.L113
 2123              		.loc 1 1117 0 is_stmt 0 discriminator 1
 2124 010c 7B68     		ldr	r3, [r7, #4]
 2125 010e 1B68     		ldr	r3, [r3]
 2126 0110 1A6A     		ldr	r2, [r3, #32]
 2127 0112 40F24443 		movw	r3, #1092
 2128 0116 1340     		ands	r3, r3, r2
 2129 0118 002B     		cmp	r3, #0
 2130 011a 07D1     		bne	.L113
 2131 011c 7B68     		ldr	r3, [r7, #4]
 2132 011e 1B68     		ldr	r3, [r3]
 2133 0120 7A68     		ldr	r2, [r7, #4]
 2134 0122 1268     		ldr	r2, [r2]
 2135 0124 1268     		ldr	r2, [r2]
 2136 0126 22F00102 		bic	r2, r2, #1
 2137 012a 1A60     		str	r2, [r3]
 2138              	.L113:
1118:Drivers/STM32F3xx_HAL_Driver/Src/stm32f3xx_hal_tim_ex.c ****   
1119:Drivers/STM32F3xx_HAL_Driver/Src/stm32f3xx_hal_tim_ex.c ****   /* Return function status */
1120:Drivers/STM32F3xx_HAL_Driver/Src/stm32f3xx_hal_tim_ex.c ****   return HAL_OK;
 2139              		.loc 1 1120 0 is_stmt 1
 2140 012c 0023     		movs	r3, #0
1121:Drivers/STM32F3xx_HAL_Driver/Src/stm32f3xx_hal_tim_ex.c **** } 
 2141              		.loc 1 1121 0
 2142 012e 1846     		mov	r0, r3
 2143 0130 1037     		adds	r7, r7, #16
 2144 0132 BD46     		mov	sp, r7
 2145              		@ sp needed
 2146 0134 80BD     		pop	{r7, pc}
 2147              		.cfi_endproc
 2148              	.LFE144:
 2150 0136 00BF     		.section	.text.HAL_TIMEx_PWMN_Start_DMA,"ax",%progbits
 2151              		.align	2
 2152              		.global	HAL_TIMEx_PWMN_Start_DMA
 2153              		.thumb
 2154              		.thumb_func
 2156              	HAL_TIMEx_PWMN_Start_DMA:
 2157              	.LFB145:
1122:Drivers/STM32F3xx_HAL_Driver/Src/stm32f3xx_hal_tim_ex.c **** 
1123:Drivers/STM32F3xx_HAL_Driver/Src/stm32f3xx_hal_tim_ex.c **** /**
1124:Drivers/STM32F3xx_HAL_Driver/Src/stm32f3xx_hal_tim_ex.c ****   * @brief  Starts the TIM PWM signal generation in DMA mode on the 
1125:Drivers/STM32F3xx_HAL_Driver/Src/stm32f3xx_hal_tim_ex.c ****   *         complementary output
1126:Drivers/STM32F3xx_HAL_Driver/Src/stm32f3xx_hal_tim_ex.c ****   * @param  htim: TIM handle
1127:Drivers/STM32F3xx_HAL_Driver/Src/stm32f3xx_hal_tim_ex.c ****   * @param  Channel: TIM Channel to be enabled
1128:Drivers/STM32F3xx_HAL_Driver/Src/stm32f3xx_hal_tim_ex.c ****   *          This parameter can be one of the following values:
1129:Drivers/STM32F3xx_HAL_Driver/Src/stm32f3xx_hal_tim_ex.c ****   *            @arg TIM_CHANNEL_1: TIM Channel 1 selected
1130:Drivers/STM32F3xx_HAL_Driver/Src/stm32f3xx_hal_tim_ex.c ****   *            @arg TIM_CHANNEL_2: TIM Channel 2 selected
1131:Drivers/STM32F3xx_HAL_Driver/Src/stm32f3xx_hal_tim_ex.c ****   *            @arg TIM_CHANNEL_3: TIM Channel 3 selected
1132:Drivers/STM32F3xx_HAL_Driver/Src/stm32f3xx_hal_tim_ex.c ****   *            @arg TIM_CHANNEL_4: TIM Channel 4 selected
1133:Drivers/STM32F3xx_HAL_Driver/Src/stm32f3xx_hal_tim_ex.c ****   * @param  pData: The source Buffer address.
ARM GAS  /tmp/ccRzvoJq.s 			page 58


1134:Drivers/STM32F3xx_HAL_Driver/Src/stm32f3xx_hal_tim_ex.c ****   * @param  Length: The length of data to be transferred from memory to TIM peripheral
1135:Drivers/STM32F3xx_HAL_Driver/Src/stm32f3xx_hal_tim_ex.c ****   * @retval HAL status
1136:Drivers/STM32F3xx_HAL_Driver/Src/stm32f3xx_hal_tim_ex.c ****   */
1137:Drivers/STM32F3xx_HAL_Driver/Src/stm32f3xx_hal_tim_ex.c **** HAL_StatusTypeDef HAL_TIMEx_PWMN_Start_DMA(TIM_HandleTypeDef *htim, uint32_t Channel, uint32_t *pDa
1138:Drivers/STM32F3xx_HAL_Driver/Src/stm32f3xx_hal_tim_ex.c **** {
 2158              		.loc 1 1138 0
 2159              		.cfi_startproc
 2160              		@ args = 0, pretend = 0, frame = 16
 2161              		@ frame_needed = 1, uses_anonymous_args = 0
 2162 0000 80B5     		push	{r7, lr}
 2163              	.LCFI60:
 2164              		.cfi_def_cfa_offset 8
 2165              		.cfi_offset 7, -8
 2166              		.cfi_offset 14, -4
 2167 0002 84B0     		sub	sp, sp, #16
 2168              	.LCFI61:
 2169              		.cfi_def_cfa_offset 24
 2170 0004 00AF     		add	r7, sp, #0
 2171              	.LCFI62:
 2172              		.cfi_def_cfa_register 7
 2173 0006 F860     		str	r0, [r7, #12]
 2174 0008 B960     		str	r1, [r7, #8]
 2175 000a 7A60     		str	r2, [r7, #4]
 2176 000c 7B80     		strh	r3, [r7, #2]	@ movhi
1139:Drivers/STM32F3xx_HAL_Driver/Src/stm32f3xx_hal_tim_ex.c ****   /* Check the parameters */
1140:Drivers/STM32F3xx_HAL_Driver/Src/stm32f3xx_hal_tim_ex.c ****   assert_param(IS_TIM_CCXN_INSTANCE(htim->Instance, Channel)); 
1141:Drivers/STM32F3xx_HAL_Driver/Src/stm32f3xx_hal_tim_ex.c ****   
1142:Drivers/STM32F3xx_HAL_Driver/Src/stm32f3xx_hal_tim_ex.c ****   if((htim->State == HAL_TIM_STATE_BUSY))
 2177              		.loc 1 1142 0
 2178 000e FB68     		ldr	r3, [r7, #12]
 2179 0010 93F83930 		ldrb	r3, [r3, #57]
 2180 0014 DBB2     		uxtb	r3, r3
 2181 0016 022B     		cmp	r3, #2
 2182 0018 01D1     		bne	.L117
1143:Drivers/STM32F3xx_HAL_Driver/Src/stm32f3xx_hal_tim_ex.c ****   {
1144:Drivers/STM32F3xx_HAL_Driver/Src/stm32f3xx_hal_tim_ex.c ****      return HAL_BUSY;
 2183              		.loc 1 1144 0
 2184 001a 0223     		movs	r3, #2
 2185 001c B7E0     		b	.L118
 2186              	.L117:
1145:Drivers/STM32F3xx_HAL_Driver/Src/stm32f3xx_hal_tim_ex.c ****   }
1146:Drivers/STM32F3xx_HAL_Driver/Src/stm32f3xx_hal_tim_ex.c ****   else if((htim->State == HAL_TIM_STATE_READY))
 2187              		.loc 1 1146 0
 2188 001e FB68     		ldr	r3, [r7, #12]
 2189 0020 93F83930 		ldrb	r3, [r3, #57]
 2190 0024 DBB2     		uxtb	r3, r3
 2191 0026 012B     		cmp	r3, #1
 2192 0028 0BD1     		bne	.L119
1147:Drivers/STM32F3xx_HAL_Driver/Src/stm32f3xx_hal_tim_ex.c ****   {
1148:Drivers/STM32F3xx_HAL_Driver/Src/stm32f3xx_hal_tim_ex.c ****     if(((uint32_t)pData == 0 ) && (Length > 0)) 
 2193              		.loc 1 1148 0
 2194 002a 7B68     		ldr	r3, [r7, #4]
 2195 002c 002B     		cmp	r3, #0
 2196 002e 04D1     		bne	.L120
 2197              		.loc 1 1148 0 is_stmt 0 discriminator 1
 2198 0030 7B88     		ldrh	r3, [r7, #2]
 2199 0032 002B     		cmp	r3, #0
ARM GAS  /tmp/ccRzvoJq.s 			page 59


 2200 0034 01D0     		beq	.L120
1149:Drivers/STM32F3xx_HAL_Driver/Src/stm32f3xx_hal_tim_ex.c ****     {
1150:Drivers/STM32F3xx_HAL_Driver/Src/stm32f3xx_hal_tim_ex.c ****       return HAL_ERROR;                                    
 2201              		.loc 1 1150 0 is_stmt 1
 2202 0036 0123     		movs	r3, #1
 2203 0038 A9E0     		b	.L118
 2204              	.L120:
1151:Drivers/STM32F3xx_HAL_Driver/Src/stm32f3xx_hal_tim_ex.c ****     }
1152:Drivers/STM32F3xx_HAL_Driver/Src/stm32f3xx_hal_tim_ex.c ****     else
1153:Drivers/STM32F3xx_HAL_Driver/Src/stm32f3xx_hal_tim_ex.c ****     {
1154:Drivers/STM32F3xx_HAL_Driver/Src/stm32f3xx_hal_tim_ex.c ****       htim->State = HAL_TIM_STATE_BUSY;
 2205              		.loc 1 1154 0
 2206 003a FB68     		ldr	r3, [r7, #12]
 2207 003c 0222     		movs	r2, #2
 2208 003e 83F83920 		strb	r2, [r3, #57]
 2209              	.L119:
1155:Drivers/STM32F3xx_HAL_Driver/Src/stm32f3xx_hal_tim_ex.c ****     }
1156:Drivers/STM32F3xx_HAL_Driver/Src/stm32f3xx_hal_tim_ex.c ****   }    
1157:Drivers/STM32F3xx_HAL_Driver/Src/stm32f3xx_hal_tim_ex.c ****   switch (Channel)
 2210              		.loc 1 1157 0
 2211 0042 BB68     		ldr	r3, [r7, #8]
 2212 0044 0C2B     		cmp	r3, #12
 2213 0046 00F28980 		bhi	.L128
 2214 004a 01A2     		adr	r2, .L123
 2215 004c 52F823F0 		ldr	pc, [r2, r3, lsl #2]
 2216              		.p2align 2
 2217              	.L123:
 2218 0050 85000000 		.word	.L122+1
 2219 0054 5D010000 		.word	.L128+1
 2220 0058 5D010000 		.word	.L128+1
 2221 005c 5D010000 		.word	.L128+1
 2222 0060 BB000000 		.word	.L124+1
 2223 0064 5D010000 		.word	.L128+1
 2224 0068 5D010000 		.word	.L128+1
 2225 006c 5D010000 		.word	.L128+1
 2226 0070 F1000000 		.word	.L125+1
 2227 0074 5D010000 		.word	.L128+1
 2228 0078 5D010000 		.word	.L128+1
 2229 007c 5D010000 		.word	.L128+1
 2230 0080 27010000 		.word	.L126+1
 2231              		.p2align 1
 2232              	.L122:
1158:Drivers/STM32F3xx_HAL_Driver/Src/stm32f3xx_hal_tim_ex.c ****   {
1159:Drivers/STM32F3xx_HAL_Driver/Src/stm32f3xx_hal_tim_ex.c ****     case TIM_CHANNEL_1:
1160:Drivers/STM32F3xx_HAL_Driver/Src/stm32f3xx_hal_tim_ex.c ****     {      
1161:Drivers/STM32F3xx_HAL_Driver/Src/stm32f3xx_hal_tim_ex.c ****       /* Set the DMA Period elapsed callback */
1162:Drivers/STM32F3xx_HAL_Driver/Src/stm32f3xx_hal_tim_ex.c ****       htim->hdma[TIM_DMA_ID_CC1]->XferCpltCallback = TIM_DMADelayPulseCplt;
 2233              		.loc 1 1162 0
 2234 0084 FB68     		ldr	r3, [r7, #12]
 2235 0086 1B6A     		ldr	r3, [r3, #32]
 2236 0088 434A     		ldr	r2, .L129
 2237 008a 9A62     		str	r2, [r3, #40]
1163:Drivers/STM32F3xx_HAL_Driver/Src/stm32f3xx_hal_tim_ex.c ****      
1164:Drivers/STM32F3xx_HAL_Driver/Src/stm32f3xx_hal_tim_ex.c ****       /* Set the DMA error callback */
1165:Drivers/STM32F3xx_HAL_Driver/Src/stm32f3xx_hal_tim_ex.c ****       htim->hdma[TIM_DMA_ID_CC1]->XferErrorCallback = TIM_DMAError ;
 2238              		.loc 1 1165 0
 2239 008c FB68     		ldr	r3, [r7, #12]
ARM GAS  /tmp/ccRzvoJq.s 			page 60


 2240 008e 1B6A     		ldr	r3, [r3, #32]
 2241 0090 424A     		ldr	r2, .L129+4
 2242 0092 1A63     		str	r2, [r3, #48]
1166:Drivers/STM32F3xx_HAL_Driver/Src/stm32f3xx_hal_tim_ex.c ****       
1167:Drivers/STM32F3xx_HAL_Driver/Src/stm32f3xx_hal_tim_ex.c ****       /* Enable the DMA channel */
1168:Drivers/STM32F3xx_HAL_Driver/Src/stm32f3xx_hal_tim_ex.c ****       HAL_DMA_Start_IT(htim->hdma[TIM_DMA_ID_CC1], (uint32_t)pData, (uint32_t)&htim->Instance->CCR1
 2243              		.loc 1 1168 0
 2244 0094 FB68     		ldr	r3, [r7, #12]
 2245 0096 186A     		ldr	r0, [r3, #32]
 2246 0098 7968     		ldr	r1, [r7, #4]
 2247 009a FB68     		ldr	r3, [r7, #12]
 2248 009c 1B68     		ldr	r3, [r3]
 2249 009e 3433     		adds	r3, r3, #52
 2250 00a0 1A46     		mov	r2, r3
 2251 00a2 7B88     		ldrh	r3, [r7, #2]
 2252 00a4 FFF7FEFF 		bl	HAL_DMA_Start_IT
1169:Drivers/STM32F3xx_HAL_Driver/Src/stm32f3xx_hal_tim_ex.c ****       
1170:Drivers/STM32F3xx_HAL_Driver/Src/stm32f3xx_hal_tim_ex.c ****       /* Enable the TIM Capture/Compare 1 DMA request */
1171:Drivers/STM32F3xx_HAL_Driver/Src/stm32f3xx_hal_tim_ex.c ****       __HAL_TIM_ENABLE_DMA(htim, TIM_DMA_CC1);
 2253              		.loc 1 1171 0
 2254 00a8 FB68     		ldr	r3, [r7, #12]
 2255 00aa 1B68     		ldr	r3, [r3]
 2256 00ac FA68     		ldr	r2, [r7, #12]
 2257 00ae 1268     		ldr	r2, [r2]
 2258 00b0 D268     		ldr	r2, [r2, #12]
 2259 00b2 42F40072 		orr	r2, r2, #512
 2260 00b6 DA60     		str	r2, [r3, #12]
1172:Drivers/STM32F3xx_HAL_Driver/Src/stm32f3xx_hal_tim_ex.c ****     }
1173:Drivers/STM32F3xx_HAL_Driver/Src/stm32f3xx_hal_tim_ex.c ****     break;
 2261              		.loc 1 1173 0
 2262 00b8 51E0     		b	.L127
 2263              	.L124:
1174:Drivers/STM32F3xx_HAL_Driver/Src/stm32f3xx_hal_tim_ex.c ****     
1175:Drivers/STM32F3xx_HAL_Driver/Src/stm32f3xx_hal_tim_ex.c ****     case TIM_CHANNEL_2:
1176:Drivers/STM32F3xx_HAL_Driver/Src/stm32f3xx_hal_tim_ex.c ****     {
1177:Drivers/STM32F3xx_HAL_Driver/Src/stm32f3xx_hal_tim_ex.c ****       /* Set the DMA Period elapsed callback */
1178:Drivers/STM32F3xx_HAL_Driver/Src/stm32f3xx_hal_tim_ex.c ****       htim->hdma[TIM_DMA_ID_CC2]->XferCpltCallback = TIM_DMADelayPulseCplt;
 2264              		.loc 1 1178 0
 2265 00ba FB68     		ldr	r3, [r7, #12]
 2266 00bc 5B6A     		ldr	r3, [r3, #36]
 2267 00be 364A     		ldr	r2, .L129
 2268 00c0 9A62     		str	r2, [r3, #40]
1179:Drivers/STM32F3xx_HAL_Driver/Src/stm32f3xx_hal_tim_ex.c ****      
1180:Drivers/STM32F3xx_HAL_Driver/Src/stm32f3xx_hal_tim_ex.c ****       /* Set the DMA error callback */
1181:Drivers/STM32F3xx_HAL_Driver/Src/stm32f3xx_hal_tim_ex.c ****       htim->hdma[TIM_DMA_ID_CC2]->XferErrorCallback = TIM_DMAError ;
 2269              		.loc 1 1181 0
 2270 00c2 FB68     		ldr	r3, [r7, #12]
 2271 00c4 5B6A     		ldr	r3, [r3, #36]
 2272 00c6 354A     		ldr	r2, .L129+4
 2273 00c8 1A63     		str	r2, [r3, #48]
1182:Drivers/STM32F3xx_HAL_Driver/Src/stm32f3xx_hal_tim_ex.c ****       
1183:Drivers/STM32F3xx_HAL_Driver/Src/stm32f3xx_hal_tim_ex.c ****       /* Enable the DMA channel */
1184:Drivers/STM32F3xx_HAL_Driver/Src/stm32f3xx_hal_tim_ex.c ****       HAL_DMA_Start_IT(htim->hdma[TIM_DMA_ID_CC2], (uint32_t)pData, (uint32_t)&htim->Instance->CCR2
 2274              		.loc 1 1184 0
 2275 00ca FB68     		ldr	r3, [r7, #12]
 2276 00cc 586A     		ldr	r0, [r3, #36]
 2277 00ce 7968     		ldr	r1, [r7, #4]
ARM GAS  /tmp/ccRzvoJq.s 			page 61


 2278 00d0 FB68     		ldr	r3, [r7, #12]
 2279 00d2 1B68     		ldr	r3, [r3]
 2280 00d4 3833     		adds	r3, r3, #56
 2281 00d6 1A46     		mov	r2, r3
 2282 00d8 7B88     		ldrh	r3, [r7, #2]
 2283 00da FFF7FEFF 		bl	HAL_DMA_Start_IT
1185:Drivers/STM32F3xx_HAL_Driver/Src/stm32f3xx_hal_tim_ex.c ****       
1186:Drivers/STM32F3xx_HAL_Driver/Src/stm32f3xx_hal_tim_ex.c ****       /* Enable the TIM Capture/Compare 2 DMA request */
1187:Drivers/STM32F3xx_HAL_Driver/Src/stm32f3xx_hal_tim_ex.c ****       __HAL_TIM_ENABLE_DMA(htim, TIM_DMA_CC2);
 2284              		.loc 1 1187 0
 2285 00de FB68     		ldr	r3, [r7, #12]
 2286 00e0 1B68     		ldr	r3, [r3]
 2287 00e2 FA68     		ldr	r2, [r7, #12]
 2288 00e4 1268     		ldr	r2, [r2]
 2289 00e6 D268     		ldr	r2, [r2, #12]
 2290 00e8 42F48062 		orr	r2, r2, #1024
 2291 00ec DA60     		str	r2, [r3, #12]
1188:Drivers/STM32F3xx_HAL_Driver/Src/stm32f3xx_hal_tim_ex.c ****     }
1189:Drivers/STM32F3xx_HAL_Driver/Src/stm32f3xx_hal_tim_ex.c ****     break;
 2292              		.loc 1 1189 0
 2293 00ee 36E0     		b	.L127
 2294              	.L125:
1190:Drivers/STM32F3xx_HAL_Driver/Src/stm32f3xx_hal_tim_ex.c ****     
1191:Drivers/STM32F3xx_HAL_Driver/Src/stm32f3xx_hal_tim_ex.c ****     case TIM_CHANNEL_3:
1192:Drivers/STM32F3xx_HAL_Driver/Src/stm32f3xx_hal_tim_ex.c ****     {
1193:Drivers/STM32F3xx_HAL_Driver/Src/stm32f3xx_hal_tim_ex.c ****       /* Set the DMA Period elapsed callback */
1194:Drivers/STM32F3xx_HAL_Driver/Src/stm32f3xx_hal_tim_ex.c ****       htim->hdma[TIM_DMA_ID_CC3]->XferCpltCallback = TIM_DMADelayPulseCplt;
 2295              		.loc 1 1194 0
 2296 00f0 FB68     		ldr	r3, [r7, #12]
 2297 00f2 9B6A     		ldr	r3, [r3, #40]
 2298 00f4 284A     		ldr	r2, .L129
 2299 00f6 9A62     		str	r2, [r3, #40]
1195:Drivers/STM32F3xx_HAL_Driver/Src/stm32f3xx_hal_tim_ex.c ****      
1196:Drivers/STM32F3xx_HAL_Driver/Src/stm32f3xx_hal_tim_ex.c ****       /* Set the DMA error callback */
1197:Drivers/STM32F3xx_HAL_Driver/Src/stm32f3xx_hal_tim_ex.c ****       htim->hdma[TIM_DMA_ID_CC3]->XferErrorCallback = TIM_DMAError ;
 2300              		.loc 1 1197 0
 2301 00f8 FB68     		ldr	r3, [r7, #12]
 2302 00fa 9B6A     		ldr	r3, [r3, #40]
 2303 00fc 274A     		ldr	r2, .L129+4
 2304 00fe 1A63     		str	r2, [r3, #48]
1198:Drivers/STM32F3xx_HAL_Driver/Src/stm32f3xx_hal_tim_ex.c ****       
1199:Drivers/STM32F3xx_HAL_Driver/Src/stm32f3xx_hal_tim_ex.c ****       /* Enable the DMA channel */
1200:Drivers/STM32F3xx_HAL_Driver/Src/stm32f3xx_hal_tim_ex.c ****       HAL_DMA_Start_IT(htim->hdma[TIM_DMA_ID_CC3], (uint32_t)pData, (uint32_t)&htim->Instance->CCR3
 2305              		.loc 1 1200 0
 2306 0100 FB68     		ldr	r3, [r7, #12]
 2307 0102 986A     		ldr	r0, [r3, #40]
 2308 0104 7968     		ldr	r1, [r7, #4]
 2309 0106 FB68     		ldr	r3, [r7, #12]
 2310 0108 1B68     		ldr	r3, [r3]
 2311 010a 3C33     		adds	r3, r3, #60
 2312 010c 1A46     		mov	r2, r3
 2313 010e 7B88     		ldrh	r3, [r7, #2]
 2314 0110 FFF7FEFF 		bl	HAL_DMA_Start_IT
1201:Drivers/STM32F3xx_HAL_Driver/Src/stm32f3xx_hal_tim_ex.c ****       
1202:Drivers/STM32F3xx_HAL_Driver/Src/stm32f3xx_hal_tim_ex.c ****       /* Enable the TIM Capture/Compare 3 DMA request */
1203:Drivers/STM32F3xx_HAL_Driver/Src/stm32f3xx_hal_tim_ex.c ****       __HAL_TIM_ENABLE_DMA(htim, TIM_DMA_CC3);
 2315              		.loc 1 1203 0
ARM GAS  /tmp/ccRzvoJq.s 			page 62


 2316 0114 FB68     		ldr	r3, [r7, #12]
 2317 0116 1B68     		ldr	r3, [r3]
 2318 0118 FA68     		ldr	r2, [r7, #12]
 2319 011a 1268     		ldr	r2, [r2]
 2320 011c D268     		ldr	r2, [r2, #12]
 2321 011e 42F40062 		orr	r2, r2, #2048
 2322 0122 DA60     		str	r2, [r3, #12]
1204:Drivers/STM32F3xx_HAL_Driver/Src/stm32f3xx_hal_tim_ex.c ****     }
1205:Drivers/STM32F3xx_HAL_Driver/Src/stm32f3xx_hal_tim_ex.c ****     break;
 2323              		.loc 1 1205 0
 2324 0124 1BE0     		b	.L127
 2325              	.L126:
1206:Drivers/STM32F3xx_HAL_Driver/Src/stm32f3xx_hal_tim_ex.c ****     
1207:Drivers/STM32F3xx_HAL_Driver/Src/stm32f3xx_hal_tim_ex.c ****     case TIM_CHANNEL_4:
1208:Drivers/STM32F3xx_HAL_Driver/Src/stm32f3xx_hal_tim_ex.c ****     {
1209:Drivers/STM32F3xx_HAL_Driver/Src/stm32f3xx_hal_tim_ex.c ****      /* Set the DMA Period elapsed callback */
1210:Drivers/STM32F3xx_HAL_Driver/Src/stm32f3xx_hal_tim_ex.c ****       htim->hdma[TIM_DMA_ID_CC4]->XferCpltCallback = TIM_DMADelayPulseCplt;
 2326              		.loc 1 1210 0
 2327 0126 FB68     		ldr	r3, [r7, #12]
 2328 0128 DB6A     		ldr	r3, [r3, #44]
 2329 012a 1B4A     		ldr	r2, .L129
 2330 012c 9A62     		str	r2, [r3, #40]
1211:Drivers/STM32F3xx_HAL_Driver/Src/stm32f3xx_hal_tim_ex.c ****      
1212:Drivers/STM32F3xx_HAL_Driver/Src/stm32f3xx_hal_tim_ex.c ****       /* Set the DMA error callback */
1213:Drivers/STM32F3xx_HAL_Driver/Src/stm32f3xx_hal_tim_ex.c ****       htim->hdma[TIM_DMA_ID_CC4]->XferErrorCallback = TIM_DMAError ;
 2331              		.loc 1 1213 0
 2332 012e FB68     		ldr	r3, [r7, #12]
 2333 0130 DB6A     		ldr	r3, [r3, #44]
 2334 0132 1A4A     		ldr	r2, .L129+4
 2335 0134 1A63     		str	r2, [r3, #48]
1214:Drivers/STM32F3xx_HAL_Driver/Src/stm32f3xx_hal_tim_ex.c ****       
1215:Drivers/STM32F3xx_HAL_Driver/Src/stm32f3xx_hal_tim_ex.c ****       /* Enable the DMA channel */
1216:Drivers/STM32F3xx_HAL_Driver/Src/stm32f3xx_hal_tim_ex.c ****       HAL_DMA_Start_IT(htim->hdma[TIM_DMA_ID_CC4], (uint32_t)pData, (uint32_t)&htim->Instance->CCR4
 2336              		.loc 1 1216 0
 2337 0136 FB68     		ldr	r3, [r7, #12]
 2338 0138 D86A     		ldr	r0, [r3, #44]
 2339 013a 7968     		ldr	r1, [r7, #4]
 2340 013c FB68     		ldr	r3, [r7, #12]
 2341 013e 1B68     		ldr	r3, [r3]
 2342 0140 4033     		adds	r3, r3, #64
 2343 0142 1A46     		mov	r2, r3
 2344 0144 7B88     		ldrh	r3, [r7, #2]
 2345 0146 FFF7FEFF 		bl	HAL_DMA_Start_IT
1217:Drivers/STM32F3xx_HAL_Driver/Src/stm32f3xx_hal_tim_ex.c ****       
1218:Drivers/STM32F3xx_HAL_Driver/Src/stm32f3xx_hal_tim_ex.c ****       /* Enable the TIM Capture/Compare 4 DMA request */
1219:Drivers/STM32F3xx_HAL_Driver/Src/stm32f3xx_hal_tim_ex.c ****       __HAL_TIM_ENABLE_DMA(htim, TIM_DMA_CC4);
 2346              		.loc 1 1219 0
 2347 014a FB68     		ldr	r3, [r7, #12]
 2348 014c 1B68     		ldr	r3, [r3]
 2349 014e FA68     		ldr	r2, [r7, #12]
 2350 0150 1268     		ldr	r2, [r2]
 2351 0152 D268     		ldr	r2, [r2, #12]
 2352 0154 42F48052 		orr	r2, r2, #4096
 2353 0158 DA60     		str	r2, [r3, #12]
1220:Drivers/STM32F3xx_HAL_Driver/Src/stm32f3xx_hal_tim_ex.c ****     }
1221:Drivers/STM32F3xx_HAL_Driver/Src/stm32f3xx_hal_tim_ex.c ****     break;
 2354              		.loc 1 1221 0
ARM GAS  /tmp/ccRzvoJq.s 			page 63


 2355 015a 00E0     		b	.L127
 2356              	.L128:
1222:Drivers/STM32F3xx_HAL_Driver/Src/stm32f3xx_hal_tim_ex.c ****     
1223:Drivers/STM32F3xx_HAL_Driver/Src/stm32f3xx_hal_tim_ex.c ****     default:
1224:Drivers/STM32F3xx_HAL_Driver/Src/stm32f3xx_hal_tim_ex.c ****     break;
 2357              		.loc 1 1224 0
 2358 015c 00BF     		nop
 2359              	.L127:
1225:Drivers/STM32F3xx_HAL_Driver/Src/stm32f3xx_hal_tim_ex.c ****   }
1226:Drivers/STM32F3xx_HAL_Driver/Src/stm32f3xx_hal_tim_ex.c **** 
1227:Drivers/STM32F3xx_HAL_Driver/Src/stm32f3xx_hal_tim_ex.c ****   /* Enable the complementary PWM output  */
1228:Drivers/STM32F3xx_HAL_Driver/Src/stm32f3xx_hal_tim_ex.c ****   TIM_CCxNChannelCmd(htim->Instance, Channel, TIM_CCxN_ENABLE);
 2360              		.loc 1 1228 0
 2361 015e FB68     		ldr	r3, [r7, #12]
 2362 0160 1B68     		ldr	r3, [r3]
 2363 0162 1846     		mov	r0, r3
 2364 0164 B968     		ldr	r1, [r7, #8]
 2365 0166 0422     		movs	r2, #4
 2366 0168 FFF7FEFF 		bl	TIM_CCxNChannelCmd
1229:Drivers/STM32F3xx_HAL_Driver/Src/stm32f3xx_hal_tim_ex.c ****     
1230:Drivers/STM32F3xx_HAL_Driver/Src/stm32f3xx_hal_tim_ex.c ****   /* Enable the Main Ouput */
1231:Drivers/STM32F3xx_HAL_Driver/Src/stm32f3xx_hal_tim_ex.c ****   __HAL_TIM_MOE_ENABLE(htim);
 2367              		.loc 1 1231 0
 2368 016c FB68     		ldr	r3, [r7, #12]
 2369 016e 1B68     		ldr	r3, [r3]
 2370 0170 FA68     		ldr	r2, [r7, #12]
 2371 0172 1268     		ldr	r2, [r2]
 2372 0174 526C     		ldr	r2, [r2, #68]
 2373 0176 42F40042 		orr	r2, r2, #32768
 2374 017a 5A64     		str	r2, [r3, #68]
1232:Drivers/STM32F3xx_HAL_Driver/Src/stm32f3xx_hal_tim_ex.c ****   
1233:Drivers/STM32F3xx_HAL_Driver/Src/stm32f3xx_hal_tim_ex.c ****   /* Enable the Peripheral */
1234:Drivers/STM32F3xx_HAL_Driver/Src/stm32f3xx_hal_tim_ex.c ****   __HAL_TIM_ENABLE(htim); 
 2375              		.loc 1 1234 0
 2376 017c FB68     		ldr	r3, [r7, #12]
 2377 017e 1B68     		ldr	r3, [r3]
 2378 0180 FA68     		ldr	r2, [r7, #12]
 2379 0182 1268     		ldr	r2, [r2]
 2380 0184 1268     		ldr	r2, [r2]
 2381 0186 42F00102 		orr	r2, r2, #1
 2382 018a 1A60     		str	r2, [r3]
1235:Drivers/STM32F3xx_HAL_Driver/Src/stm32f3xx_hal_tim_ex.c ****   
1236:Drivers/STM32F3xx_HAL_Driver/Src/stm32f3xx_hal_tim_ex.c ****   /* Return function status */
1237:Drivers/STM32F3xx_HAL_Driver/Src/stm32f3xx_hal_tim_ex.c ****   return HAL_OK;
 2383              		.loc 1 1237 0
 2384 018c 0023     		movs	r3, #0
 2385              	.L118:
1238:Drivers/STM32F3xx_HAL_Driver/Src/stm32f3xx_hal_tim_ex.c **** }
 2386              		.loc 1 1238 0
 2387 018e 1846     		mov	r0, r3
 2388 0190 1037     		adds	r7, r7, #16
 2389 0192 BD46     		mov	sp, r7
 2390              		@ sp needed
 2391 0194 80BD     		pop	{r7, pc}
 2392              	.L130:
 2393 0196 00BF     		.align	2
 2394              	.L129:
ARM GAS  /tmp/ccRzvoJq.s 			page 64


 2395 0198 00000000 		.word	TIM_DMADelayPulseCplt
 2396 019c 00000000 		.word	TIM_DMAError
 2397              		.cfi_endproc
 2398              	.LFE145:
 2400              		.section	.text.HAL_TIMEx_PWMN_Stop_DMA,"ax",%progbits
 2401              		.align	2
 2402              		.global	HAL_TIMEx_PWMN_Stop_DMA
 2403              		.thumb
 2404              		.thumb_func
 2406              	HAL_TIMEx_PWMN_Stop_DMA:
 2407              	.LFB146:
1239:Drivers/STM32F3xx_HAL_Driver/Src/stm32f3xx_hal_tim_ex.c **** 
1240:Drivers/STM32F3xx_HAL_Driver/Src/stm32f3xx_hal_tim_ex.c **** /**
1241:Drivers/STM32F3xx_HAL_Driver/Src/stm32f3xx_hal_tim_ex.c ****   * @brief  Stops the TIM PWM signal generation in DMA mode on the complementary
1242:Drivers/STM32F3xx_HAL_Driver/Src/stm32f3xx_hal_tim_ex.c ****   *         output
1243:Drivers/STM32F3xx_HAL_Driver/Src/stm32f3xx_hal_tim_ex.c ****   * @param  htim: TIM handle
1244:Drivers/STM32F3xx_HAL_Driver/Src/stm32f3xx_hal_tim_ex.c ****   * @param  Channel: TIM Channel to be disabled
1245:Drivers/STM32F3xx_HAL_Driver/Src/stm32f3xx_hal_tim_ex.c ****   *          This parameter can be one of the following values:
1246:Drivers/STM32F3xx_HAL_Driver/Src/stm32f3xx_hal_tim_ex.c ****   *            @arg TIM_CHANNEL_1: TIM Channel 1 selected
1247:Drivers/STM32F3xx_HAL_Driver/Src/stm32f3xx_hal_tim_ex.c ****   *            @arg TIM_CHANNEL_2: TIM Channel 2 selected
1248:Drivers/STM32F3xx_HAL_Driver/Src/stm32f3xx_hal_tim_ex.c ****   *            @arg TIM_CHANNEL_3: TIM Channel 3 selected
1249:Drivers/STM32F3xx_HAL_Driver/Src/stm32f3xx_hal_tim_ex.c ****   *            @arg TIM_CHANNEL_4: TIM Channel 4 selected
1250:Drivers/STM32F3xx_HAL_Driver/Src/stm32f3xx_hal_tim_ex.c ****   * @retval HAL status
1251:Drivers/STM32F3xx_HAL_Driver/Src/stm32f3xx_hal_tim_ex.c ****   */
1252:Drivers/STM32F3xx_HAL_Driver/Src/stm32f3xx_hal_tim_ex.c **** HAL_StatusTypeDef HAL_TIMEx_PWMN_Stop_DMA(TIM_HandleTypeDef *htim, uint32_t Channel)
1253:Drivers/STM32F3xx_HAL_Driver/Src/stm32f3xx_hal_tim_ex.c **** {
 2408              		.loc 1 1253 0
 2409              		.cfi_startproc
 2410              		@ args = 0, pretend = 0, frame = 8
 2411              		@ frame_needed = 1, uses_anonymous_args = 0
 2412 0000 80B5     		push	{r7, lr}
 2413              	.LCFI63:
 2414              		.cfi_def_cfa_offset 8
 2415              		.cfi_offset 7, -8
 2416              		.cfi_offset 14, -4
 2417 0002 82B0     		sub	sp, sp, #8
 2418              	.LCFI64:
 2419              		.cfi_def_cfa_offset 16
 2420 0004 00AF     		add	r7, sp, #0
 2421              	.LCFI65:
 2422              		.cfi_def_cfa_register 7
 2423 0006 7860     		str	r0, [r7, #4]
 2424 0008 3960     		str	r1, [r7]
1254:Drivers/STM32F3xx_HAL_Driver/Src/stm32f3xx_hal_tim_ex.c ****   /* Check the parameters */
1255:Drivers/STM32F3xx_HAL_Driver/Src/stm32f3xx_hal_tim_ex.c ****   assert_param(IS_TIM_CCXN_INSTANCE(htim->Instance, Channel)); 
1256:Drivers/STM32F3xx_HAL_Driver/Src/stm32f3xx_hal_tim_ex.c ****   
1257:Drivers/STM32F3xx_HAL_Driver/Src/stm32f3xx_hal_tim_ex.c ****   switch (Channel)
 2425              		.loc 1 1257 0
 2426 000a 3B68     		ldr	r3, [r7]
 2427 000c 0C2B     		cmp	r3, #12
 2428 000e 41D8     		bhi	.L142
 2429 0010 01A2     		adr	r2, .L134
 2430 0012 52F823F0 		ldr	pc, [r2, r3, lsl #2]
 2431 0016 00BF     		.p2align 2
 2432              	.L134:
 2433 0018 4D000000 		.word	.L133+1
 2434 001c 95000000 		.word	.L142+1
ARM GAS  /tmp/ccRzvoJq.s 			page 65


 2435 0020 95000000 		.word	.L142+1
 2436 0024 95000000 		.word	.L142+1
 2437 0028 5F000000 		.word	.L135+1
 2438 002c 95000000 		.word	.L142+1
 2439 0030 95000000 		.word	.L142+1
 2440 0034 95000000 		.word	.L142+1
 2441 0038 71000000 		.word	.L136+1
 2442 003c 95000000 		.word	.L142+1
 2443 0040 95000000 		.word	.L142+1
 2444 0044 95000000 		.word	.L142+1
 2445 0048 83000000 		.word	.L137+1
 2446              		.p2align 1
 2447              	.L133:
1258:Drivers/STM32F3xx_HAL_Driver/Src/stm32f3xx_hal_tim_ex.c ****   {
1259:Drivers/STM32F3xx_HAL_Driver/Src/stm32f3xx_hal_tim_ex.c ****     case TIM_CHANNEL_1:
1260:Drivers/STM32F3xx_HAL_Driver/Src/stm32f3xx_hal_tim_ex.c ****     {       
1261:Drivers/STM32F3xx_HAL_Driver/Src/stm32f3xx_hal_tim_ex.c ****       /* Disable the TIM Capture/Compare 1 DMA request */
1262:Drivers/STM32F3xx_HAL_Driver/Src/stm32f3xx_hal_tim_ex.c ****       __HAL_TIM_DISABLE_DMA(htim, TIM_DMA_CC1);
 2448              		.loc 1 1262 0
 2449 004c 7B68     		ldr	r3, [r7, #4]
 2450 004e 1B68     		ldr	r3, [r3]
 2451 0050 7A68     		ldr	r2, [r7, #4]
 2452 0052 1268     		ldr	r2, [r2]
 2453 0054 D268     		ldr	r2, [r2, #12]
 2454 0056 22F40072 		bic	r2, r2, #512
 2455 005a DA60     		str	r2, [r3, #12]
1263:Drivers/STM32F3xx_HAL_Driver/Src/stm32f3xx_hal_tim_ex.c ****     }
1264:Drivers/STM32F3xx_HAL_Driver/Src/stm32f3xx_hal_tim_ex.c ****     break;
 2456              		.loc 1 1264 0
 2457 005c 1BE0     		b	.L138
 2458              	.L135:
1265:Drivers/STM32F3xx_HAL_Driver/Src/stm32f3xx_hal_tim_ex.c ****     
1266:Drivers/STM32F3xx_HAL_Driver/Src/stm32f3xx_hal_tim_ex.c ****     case TIM_CHANNEL_2:
1267:Drivers/STM32F3xx_HAL_Driver/Src/stm32f3xx_hal_tim_ex.c ****     {
1268:Drivers/STM32F3xx_HAL_Driver/Src/stm32f3xx_hal_tim_ex.c ****       /* Disable the TIM Capture/Compare 2 DMA request */
1269:Drivers/STM32F3xx_HAL_Driver/Src/stm32f3xx_hal_tim_ex.c ****       __HAL_TIM_DISABLE_DMA(htim, TIM_DMA_CC2);
 2459              		.loc 1 1269 0
 2460 005e 7B68     		ldr	r3, [r7, #4]
 2461 0060 1B68     		ldr	r3, [r3]
 2462 0062 7A68     		ldr	r2, [r7, #4]
 2463 0064 1268     		ldr	r2, [r2]
 2464 0066 D268     		ldr	r2, [r2, #12]
 2465 0068 22F48062 		bic	r2, r2, #1024
 2466 006c DA60     		str	r2, [r3, #12]
1270:Drivers/STM32F3xx_HAL_Driver/Src/stm32f3xx_hal_tim_ex.c ****     }
1271:Drivers/STM32F3xx_HAL_Driver/Src/stm32f3xx_hal_tim_ex.c ****     break;
 2467              		.loc 1 1271 0
 2468 006e 12E0     		b	.L138
 2469              	.L136:
1272:Drivers/STM32F3xx_HAL_Driver/Src/stm32f3xx_hal_tim_ex.c ****     
1273:Drivers/STM32F3xx_HAL_Driver/Src/stm32f3xx_hal_tim_ex.c ****     case TIM_CHANNEL_3:
1274:Drivers/STM32F3xx_HAL_Driver/Src/stm32f3xx_hal_tim_ex.c ****     {
1275:Drivers/STM32F3xx_HAL_Driver/Src/stm32f3xx_hal_tim_ex.c ****       /* Disable the TIM Capture/Compare 3 DMA request */
1276:Drivers/STM32F3xx_HAL_Driver/Src/stm32f3xx_hal_tim_ex.c ****       __HAL_TIM_DISABLE_DMA(htim, TIM_DMA_CC3);
 2470              		.loc 1 1276 0
 2471 0070 7B68     		ldr	r3, [r7, #4]
 2472 0072 1B68     		ldr	r3, [r3]
ARM GAS  /tmp/ccRzvoJq.s 			page 66


 2473 0074 7A68     		ldr	r2, [r7, #4]
 2474 0076 1268     		ldr	r2, [r2]
 2475 0078 D268     		ldr	r2, [r2, #12]
 2476 007a 22F40062 		bic	r2, r2, #2048
 2477 007e DA60     		str	r2, [r3, #12]
1277:Drivers/STM32F3xx_HAL_Driver/Src/stm32f3xx_hal_tim_ex.c ****     }
1278:Drivers/STM32F3xx_HAL_Driver/Src/stm32f3xx_hal_tim_ex.c ****     break;
 2478              		.loc 1 1278 0
 2479 0080 09E0     		b	.L138
 2480              	.L137:
1279:Drivers/STM32F3xx_HAL_Driver/Src/stm32f3xx_hal_tim_ex.c ****     
1280:Drivers/STM32F3xx_HAL_Driver/Src/stm32f3xx_hal_tim_ex.c ****     case TIM_CHANNEL_4:
1281:Drivers/STM32F3xx_HAL_Driver/Src/stm32f3xx_hal_tim_ex.c ****     {
1282:Drivers/STM32F3xx_HAL_Driver/Src/stm32f3xx_hal_tim_ex.c ****       /* Disable the TIM Capture/Compare 4 DMA request */
1283:Drivers/STM32F3xx_HAL_Driver/Src/stm32f3xx_hal_tim_ex.c ****       __HAL_TIM_DISABLE_DMA(htim, TIM_DMA_CC4);
 2481              		.loc 1 1283 0
 2482 0082 7B68     		ldr	r3, [r7, #4]
 2483 0084 1B68     		ldr	r3, [r3]
 2484 0086 7A68     		ldr	r2, [r7, #4]
 2485 0088 1268     		ldr	r2, [r2]
 2486 008a D268     		ldr	r2, [r2, #12]
 2487 008c 22F48052 		bic	r2, r2, #4096
 2488 0090 DA60     		str	r2, [r3, #12]
1284:Drivers/STM32F3xx_HAL_Driver/Src/stm32f3xx_hal_tim_ex.c ****     }
1285:Drivers/STM32F3xx_HAL_Driver/Src/stm32f3xx_hal_tim_ex.c ****     break;
 2489              		.loc 1 1285 0
 2490 0092 00E0     		b	.L138
 2491              	.L142:
1286:Drivers/STM32F3xx_HAL_Driver/Src/stm32f3xx_hal_tim_ex.c ****     
1287:Drivers/STM32F3xx_HAL_Driver/Src/stm32f3xx_hal_tim_ex.c ****     default:
1288:Drivers/STM32F3xx_HAL_Driver/Src/stm32f3xx_hal_tim_ex.c ****     break;
 2492              		.loc 1 1288 0
 2493 0094 00BF     		nop
 2494              	.L138:
1289:Drivers/STM32F3xx_HAL_Driver/Src/stm32f3xx_hal_tim_ex.c ****   } 
1290:Drivers/STM32F3xx_HAL_Driver/Src/stm32f3xx_hal_tim_ex.c ****   
1291:Drivers/STM32F3xx_HAL_Driver/Src/stm32f3xx_hal_tim_ex.c ****   /* Disable the complementary PWM output */
1292:Drivers/STM32F3xx_HAL_Driver/Src/stm32f3xx_hal_tim_ex.c ****   TIM_CCxNChannelCmd(htim->Instance, Channel, TIM_CCxN_DISABLE);
 2495              		.loc 1 1292 0
 2496 0096 7B68     		ldr	r3, [r7, #4]
 2497 0098 1B68     		ldr	r3, [r3]
 2498 009a 1846     		mov	r0, r3
 2499 009c 3968     		ldr	r1, [r7]
 2500 009e 0022     		movs	r2, #0
 2501 00a0 FFF7FEFF 		bl	TIM_CCxNChannelCmd
1293:Drivers/STM32F3xx_HAL_Driver/Src/stm32f3xx_hal_tim_ex.c ****      
1294:Drivers/STM32F3xx_HAL_Driver/Src/stm32f3xx_hal_tim_ex.c ****   /* Disable the Main Ouput */
1295:Drivers/STM32F3xx_HAL_Driver/Src/stm32f3xx_hal_tim_ex.c ****   __HAL_TIM_MOE_DISABLE(htim);
 2502              		.loc 1 1295 0
 2503 00a4 7B68     		ldr	r3, [r7, #4]
 2504 00a6 1B68     		ldr	r3, [r3]
 2505 00a8 1A6A     		ldr	r2, [r3, #32]
 2506 00aa 41F21113 		movw	r3, #4369
 2507 00ae 1340     		ands	r3, r3, r2
 2508 00b0 002B     		cmp	r3, #0
 2509 00b2 0FD1     		bne	.L139
 2510              		.loc 1 1295 0 is_stmt 0 discriminator 1
ARM GAS  /tmp/ccRzvoJq.s 			page 67


 2511 00b4 7B68     		ldr	r3, [r7, #4]
 2512 00b6 1B68     		ldr	r3, [r3]
 2513 00b8 1A6A     		ldr	r2, [r3, #32]
 2514 00ba 40F24443 		movw	r3, #1092
 2515 00be 1340     		ands	r3, r3, r2
 2516 00c0 002B     		cmp	r3, #0
 2517 00c2 07D1     		bne	.L139
 2518 00c4 7B68     		ldr	r3, [r7, #4]
 2519 00c6 1B68     		ldr	r3, [r3]
 2520 00c8 7A68     		ldr	r2, [r7, #4]
 2521 00ca 1268     		ldr	r2, [r2]
 2522 00cc 526C     		ldr	r2, [r2, #68]
 2523 00ce 22F40042 		bic	r2, r2, #32768
 2524 00d2 5A64     		str	r2, [r3, #68]
 2525              	.L139:
1296:Drivers/STM32F3xx_HAL_Driver/Src/stm32f3xx_hal_tim_ex.c **** 
1297:Drivers/STM32F3xx_HAL_Driver/Src/stm32f3xx_hal_tim_ex.c ****   /* Disable the Peripheral */
1298:Drivers/STM32F3xx_HAL_Driver/Src/stm32f3xx_hal_tim_ex.c ****   __HAL_TIM_DISABLE(htim);
 2526              		.loc 1 1298 0 is_stmt 1
 2527 00d4 7B68     		ldr	r3, [r7, #4]
 2528 00d6 1B68     		ldr	r3, [r3]
 2529 00d8 1A6A     		ldr	r2, [r3, #32]
 2530 00da 41F21113 		movw	r3, #4369
 2531 00de 1340     		ands	r3, r3, r2
 2532 00e0 002B     		cmp	r3, #0
 2533 00e2 0FD1     		bne	.L140
 2534              		.loc 1 1298 0 is_stmt 0 discriminator 1
 2535 00e4 7B68     		ldr	r3, [r7, #4]
 2536 00e6 1B68     		ldr	r3, [r3]
 2537 00e8 1A6A     		ldr	r2, [r3, #32]
 2538 00ea 40F24443 		movw	r3, #1092
 2539 00ee 1340     		ands	r3, r3, r2
 2540 00f0 002B     		cmp	r3, #0
 2541 00f2 07D1     		bne	.L140
 2542 00f4 7B68     		ldr	r3, [r7, #4]
 2543 00f6 1B68     		ldr	r3, [r3]
 2544 00f8 7A68     		ldr	r2, [r7, #4]
 2545 00fa 1268     		ldr	r2, [r2]
 2546 00fc 1268     		ldr	r2, [r2]
 2547 00fe 22F00102 		bic	r2, r2, #1
 2548 0102 1A60     		str	r2, [r3]
 2549              	.L140:
1299:Drivers/STM32F3xx_HAL_Driver/Src/stm32f3xx_hal_tim_ex.c ****   
1300:Drivers/STM32F3xx_HAL_Driver/Src/stm32f3xx_hal_tim_ex.c ****   /* Change the htim state */
1301:Drivers/STM32F3xx_HAL_Driver/Src/stm32f3xx_hal_tim_ex.c ****   htim->State = HAL_TIM_STATE_READY;
 2550              		.loc 1 1301 0 is_stmt 1
 2551 0104 7B68     		ldr	r3, [r7, #4]
 2552 0106 0122     		movs	r2, #1
 2553 0108 83F83920 		strb	r2, [r3, #57]
1302:Drivers/STM32F3xx_HAL_Driver/Src/stm32f3xx_hal_tim_ex.c ****   
1303:Drivers/STM32F3xx_HAL_Driver/Src/stm32f3xx_hal_tim_ex.c ****   /* Return function status */
1304:Drivers/STM32F3xx_HAL_Driver/Src/stm32f3xx_hal_tim_ex.c ****   return HAL_OK;
 2554              		.loc 1 1304 0
 2555 010c 0023     		movs	r3, #0
1305:Drivers/STM32F3xx_HAL_Driver/Src/stm32f3xx_hal_tim_ex.c **** }
 2556              		.loc 1 1305 0
 2557 010e 1846     		mov	r0, r3
ARM GAS  /tmp/ccRzvoJq.s 			page 68


 2558 0110 0837     		adds	r7, r7, #8
 2559 0112 BD46     		mov	sp, r7
 2560              		@ sp needed
 2561 0114 80BD     		pop	{r7, pc}
 2562              		.cfi_endproc
 2563              	.LFE146:
 2565 0116 00BF     		.section	.text.HAL_TIMEx_OnePulseN_Start,"ax",%progbits
 2566              		.align	2
 2567              		.global	HAL_TIMEx_OnePulseN_Start
 2568              		.thumb
 2569              		.thumb_func
 2571              	HAL_TIMEx_OnePulseN_Start:
 2572              	.LFB147:
1306:Drivers/STM32F3xx_HAL_Driver/Src/stm32f3xx_hal_tim_ex.c **** 
1307:Drivers/STM32F3xx_HAL_Driver/Src/stm32f3xx_hal_tim_ex.c **** /**
1308:Drivers/STM32F3xx_HAL_Driver/Src/stm32f3xx_hal_tim_ex.c ****   * @}
1309:Drivers/STM32F3xx_HAL_Driver/Src/stm32f3xx_hal_tim_ex.c ****   */
1310:Drivers/STM32F3xx_HAL_Driver/Src/stm32f3xx_hal_tim_ex.c ****   
1311:Drivers/STM32F3xx_HAL_Driver/Src/stm32f3xx_hal_tim_ex.c **** /** @defgroup TIMEx_Exported_Functions_Group4 Timer Complementary One Pulse functions
1312:Drivers/STM32F3xx_HAL_Driver/Src/stm32f3xx_hal_tim_ex.c ****   * @brief    Timer Complementary One Pulse functions
1313:Drivers/STM32F3xx_HAL_Driver/Src/stm32f3xx_hal_tim_ex.c ****   *
1314:Drivers/STM32F3xx_HAL_Driver/Src/stm32f3xx_hal_tim_ex.c **** @verbatim   
1315:Drivers/STM32F3xx_HAL_Driver/Src/stm32f3xx_hal_tim_ex.c ****   ==============================================================================
1316:Drivers/STM32F3xx_HAL_Driver/Src/stm32f3xx_hal_tim_ex.c ****                 ##### Timer Complementary One Pulse functions #####
1317:Drivers/STM32F3xx_HAL_Driver/Src/stm32f3xx_hal_tim_ex.c ****   ==============================================================================  
1318:Drivers/STM32F3xx_HAL_Driver/Src/stm32f3xx_hal_tim_ex.c ****   [..]  
1319:Drivers/STM32F3xx_HAL_Driver/Src/stm32f3xx_hal_tim_ex.c ****     This section provides functions allowing to:
1320:Drivers/STM32F3xx_HAL_Driver/Src/stm32f3xx_hal_tim_ex.c ****     (+) Start the Complementary One Pulse generation.
1321:Drivers/STM32F3xx_HAL_Driver/Src/stm32f3xx_hal_tim_ex.c ****     (+) Stop the Complementary One Pulse.
1322:Drivers/STM32F3xx_HAL_Driver/Src/stm32f3xx_hal_tim_ex.c ****     (+) Start the Complementary One Pulse and enable interrupts.
1323:Drivers/STM32F3xx_HAL_Driver/Src/stm32f3xx_hal_tim_ex.c ****     (+) Stop the Complementary One Pulse and disable interrupts.
1324:Drivers/STM32F3xx_HAL_Driver/Src/stm32f3xx_hal_tim_ex.c ****                
1325:Drivers/STM32F3xx_HAL_Driver/Src/stm32f3xx_hal_tim_ex.c **** @endverbatim
1326:Drivers/STM32F3xx_HAL_Driver/Src/stm32f3xx_hal_tim_ex.c ****   * @{
1327:Drivers/STM32F3xx_HAL_Driver/Src/stm32f3xx_hal_tim_ex.c ****   */
1328:Drivers/STM32F3xx_HAL_Driver/Src/stm32f3xx_hal_tim_ex.c **** 
1329:Drivers/STM32F3xx_HAL_Driver/Src/stm32f3xx_hal_tim_ex.c **** /**
1330:Drivers/STM32F3xx_HAL_Driver/Src/stm32f3xx_hal_tim_ex.c ****   * @brief  Starts the TIM One Pulse signal generation on the complemetary 
1331:Drivers/STM32F3xx_HAL_Driver/Src/stm32f3xx_hal_tim_ex.c ****   *         output.
1332:Drivers/STM32F3xx_HAL_Driver/Src/stm32f3xx_hal_tim_ex.c ****   * @param  htim: TIM One Pulse handle
1333:Drivers/STM32F3xx_HAL_Driver/Src/stm32f3xx_hal_tim_ex.c ****   * @param  OutputChannel: TIM Channel to be enabled
1334:Drivers/STM32F3xx_HAL_Driver/Src/stm32f3xx_hal_tim_ex.c ****   *          This parameter can be one of the following values:
1335:Drivers/STM32F3xx_HAL_Driver/Src/stm32f3xx_hal_tim_ex.c ****   *            @arg TIM_CHANNEL_1: TIM Channel 1 selected
1336:Drivers/STM32F3xx_HAL_Driver/Src/stm32f3xx_hal_tim_ex.c ****   *            @arg TIM_CHANNEL_2: TIM Channel 2 selected
1337:Drivers/STM32F3xx_HAL_Driver/Src/stm32f3xx_hal_tim_ex.c ****   * @retval HAL status
1338:Drivers/STM32F3xx_HAL_Driver/Src/stm32f3xx_hal_tim_ex.c ****   */
1339:Drivers/STM32F3xx_HAL_Driver/Src/stm32f3xx_hal_tim_ex.c **** HAL_StatusTypeDef HAL_TIMEx_OnePulseN_Start(TIM_HandleTypeDef *htim, uint32_t OutputChannel)
1340:Drivers/STM32F3xx_HAL_Driver/Src/stm32f3xx_hal_tim_ex.c ****   {
 2573              		.loc 1 1340 0
 2574              		.cfi_startproc
 2575              		@ args = 0, pretend = 0, frame = 8
 2576              		@ frame_needed = 1, uses_anonymous_args = 0
 2577 0000 80B5     		push	{r7, lr}
 2578              	.LCFI66:
 2579              		.cfi_def_cfa_offset 8
 2580              		.cfi_offset 7, -8
 2581              		.cfi_offset 14, -4
ARM GAS  /tmp/ccRzvoJq.s 			page 69


 2582 0002 82B0     		sub	sp, sp, #8
 2583              	.LCFI67:
 2584              		.cfi_def_cfa_offset 16
 2585 0004 00AF     		add	r7, sp, #0
 2586              	.LCFI68:
 2587              		.cfi_def_cfa_register 7
 2588 0006 7860     		str	r0, [r7, #4]
 2589 0008 3960     		str	r1, [r7]
1341:Drivers/STM32F3xx_HAL_Driver/Src/stm32f3xx_hal_tim_ex.c ****   /* Check the parameters */
1342:Drivers/STM32F3xx_HAL_Driver/Src/stm32f3xx_hal_tim_ex.c ****   assert_param(IS_TIM_CCXN_INSTANCE(htim->Instance, OutputChannel)); 
1343:Drivers/STM32F3xx_HAL_Driver/Src/stm32f3xx_hal_tim_ex.c ****   
1344:Drivers/STM32F3xx_HAL_Driver/Src/stm32f3xx_hal_tim_ex.c ****   /* Enable the complementary One Pulse output */
1345:Drivers/STM32F3xx_HAL_Driver/Src/stm32f3xx_hal_tim_ex.c ****   TIM_CCxNChannelCmd(htim->Instance, OutputChannel, TIM_CCxN_ENABLE); 
 2590              		.loc 1 1345 0
 2591 000a 7B68     		ldr	r3, [r7, #4]
 2592 000c 1B68     		ldr	r3, [r3]
 2593 000e 1846     		mov	r0, r3
 2594 0010 3968     		ldr	r1, [r7]
 2595 0012 0422     		movs	r2, #4
 2596 0014 FFF7FEFF 		bl	TIM_CCxNChannelCmd
1346:Drivers/STM32F3xx_HAL_Driver/Src/stm32f3xx_hal_tim_ex.c ****   
1347:Drivers/STM32F3xx_HAL_Driver/Src/stm32f3xx_hal_tim_ex.c ****   /* Enable the Main Ouput */
1348:Drivers/STM32F3xx_HAL_Driver/Src/stm32f3xx_hal_tim_ex.c ****   __HAL_TIM_MOE_ENABLE(htim);
 2597              		.loc 1 1348 0
 2598 0018 7B68     		ldr	r3, [r7, #4]
 2599 001a 1B68     		ldr	r3, [r3]
 2600 001c 7A68     		ldr	r2, [r7, #4]
 2601 001e 1268     		ldr	r2, [r2]
 2602 0020 526C     		ldr	r2, [r2, #68]
 2603 0022 42F40042 		orr	r2, r2, #32768
 2604 0026 5A64     		str	r2, [r3, #68]
1349:Drivers/STM32F3xx_HAL_Driver/Src/stm32f3xx_hal_tim_ex.c ****   
1350:Drivers/STM32F3xx_HAL_Driver/Src/stm32f3xx_hal_tim_ex.c ****   /* Return function status */
1351:Drivers/STM32F3xx_HAL_Driver/Src/stm32f3xx_hal_tim_ex.c ****   return HAL_OK;
 2605              		.loc 1 1351 0
 2606 0028 0023     		movs	r3, #0
1352:Drivers/STM32F3xx_HAL_Driver/Src/stm32f3xx_hal_tim_ex.c **** }
 2607              		.loc 1 1352 0
 2608 002a 1846     		mov	r0, r3
 2609 002c 0837     		adds	r7, r7, #8
 2610 002e BD46     		mov	sp, r7
 2611              		@ sp needed
 2612 0030 80BD     		pop	{r7, pc}
 2613              		.cfi_endproc
 2614              	.LFE147:
 2616 0032 00BF     		.section	.text.HAL_TIMEx_OnePulseN_Stop,"ax",%progbits
 2617              		.align	2
 2618              		.global	HAL_TIMEx_OnePulseN_Stop
 2619              		.thumb
 2620              		.thumb_func
 2622              	HAL_TIMEx_OnePulseN_Stop:
 2623              	.LFB148:
1353:Drivers/STM32F3xx_HAL_Driver/Src/stm32f3xx_hal_tim_ex.c **** 
1354:Drivers/STM32F3xx_HAL_Driver/Src/stm32f3xx_hal_tim_ex.c **** /**
1355:Drivers/STM32F3xx_HAL_Driver/Src/stm32f3xx_hal_tim_ex.c ****   * @brief  Stops the TIM One Pulse signal generation on the complementary 
1356:Drivers/STM32F3xx_HAL_Driver/Src/stm32f3xx_hal_tim_ex.c ****   *         output.
1357:Drivers/STM32F3xx_HAL_Driver/Src/stm32f3xx_hal_tim_ex.c ****   * @param  htim: TIM One Pulse handle
ARM GAS  /tmp/ccRzvoJq.s 			page 70


1358:Drivers/STM32F3xx_HAL_Driver/Src/stm32f3xx_hal_tim_ex.c ****   * @param  OutputChannel: TIM Channel to be disabled
1359:Drivers/STM32F3xx_HAL_Driver/Src/stm32f3xx_hal_tim_ex.c ****   *          This parameter can be one of the following values:
1360:Drivers/STM32F3xx_HAL_Driver/Src/stm32f3xx_hal_tim_ex.c ****   *            @arg TIM_CHANNEL_1: TIM Channel 1 selected
1361:Drivers/STM32F3xx_HAL_Driver/Src/stm32f3xx_hal_tim_ex.c ****   *            @arg TIM_CHANNEL_2: TIM Channel 2 selected
1362:Drivers/STM32F3xx_HAL_Driver/Src/stm32f3xx_hal_tim_ex.c ****   * @retval HAL status
1363:Drivers/STM32F3xx_HAL_Driver/Src/stm32f3xx_hal_tim_ex.c ****   */
1364:Drivers/STM32F3xx_HAL_Driver/Src/stm32f3xx_hal_tim_ex.c **** HAL_StatusTypeDef HAL_TIMEx_OnePulseN_Stop(TIM_HandleTypeDef *htim, uint32_t OutputChannel)
1365:Drivers/STM32F3xx_HAL_Driver/Src/stm32f3xx_hal_tim_ex.c **** {
 2624              		.loc 1 1365 0
 2625              		.cfi_startproc
 2626              		@ args = 0, pretend = 0, frame = 8
 2627              		@ frame_needed = 1, uses_anonymous_args = 0
 2628 0000 80B5     		push	{r7, lr}
 2629              	.LCFI69:
 2630              		.cfi_def_cfa_offset 8
 2631              		.cfi_offset 7, -8
 2632              		.cfi_offset 14, -4
 2633 0002 82B0     		sub	sp, sp, #8
 2634              	.LCFI70:
 2635              		.cfi_def_cfa_offset 16
 2636 0004 00AF     		add	r7, sp, #0
 2637              	.LCFI71:
 2638              		.cfi_def_cfa_register 7
 2639 0006 7860     		str	r0, [r7, #4]
 2640 0008 3960     		str	r1, [r7]
1366:Drivers/STM32F3xx_HAL_Driver/Src/stm32f3xx_hal_tim_ex.c **** 
1367:Drivers/STM32F3xx_HAL_Driver/Src/stm32f3xx_hal_tim_ex.c ****   /* Check the parameters */
1368:Drivers/STM32F3xx_HAL_Driver/Src/stm32f3xx_hal_tim_ex.c ****   assert_param(IS_TIM_CCXN_INSTANCE(htim->Instance, OutputChannel)); 
1369:Drivers/STM32F3xx_HAL_Driver/Src/stm32f3xx_hal_tim_ex.c **** 
1370:Drivers/STM32F3xx_HAL_Driver/Src/stm32f3xx_hal_tim_ex.c ****   /* Disable the complementary One Pulse output */
1371:Drivers/STM32F3xx_HAL_Driver/Src/stm32f3xx_hal_tim_ex.c ****   TIM_CCxNChannelCmd(htim->Instance, OutputChannel, TIM_CCxN_DISABLE);
 2641              		.loc 1 1371 0
 2642 000a 7B68     		ldr	r3, [r7, #4]
 2643 000c 1B68     		ldr	r3, [r3]
 2644 000e 1846     		mov	r0, r3
 2645 0010 3968     		ldr	r1, [r7]
 2646 0012 0022     		movs	r2, #0
 2647 0014 FFF7FEFF 		bl	TIM_CCxNChannelCmd
1372:Drivers/STM32F3xx_HAL_Driver/Src/stm32f3xx_hal_tim_ex.c ****   
1373:Drivers/STM32F3xx_HAL_Driver/Src/stm32f3xx_hal_tim_ex.c ****   /* Disable the Main Ouput */
1374:Drivers/STM32F3xx_HAL_Driver/Src/stm32f3xx_hal_tim_ex.c ****   __HAL_TIM_MOE_DISABLE(htim);
 2648              		.loc 1 1374 0
 2649 0018 7B68     		ldr	r3, [r7, #4]
 2650 001a 1B68     		ldr	r3, [r3]
 2651 001c 1A6A     		ldr	r2, [r3, #32]
 2652 001e 41F21113 		movw	r3, #4369
 2653 0022 1340     		ands	r3, r3, r2
 2654 0024 002B     		cmp	r3, #0
 2655 0026 0FD1     		bne	.L146
 2656              		.loc 1 1374 0 is_stmt 0 discriminator 1
 2657 0028 7B68     		ldr	r3, [r7, #4]
 2658 002a 1B68     		ldr	r3, [r3]
 2659 002c 1A6A     		ldr	r2, [r3, #32]
 2660 002e 40F24443 		movw	r3, #1092
 2661 0032 1340     		ands	r3, r3, r2
 2662 0034 002B     		cmp	r3, #0
 2663 0036 07D1     		bne	.L146
ARM GAS  /tmp/ccRzvoJq.s 			page 71


 2664 0038 7B68     		ldr	r3, [r7, #4]
 2665 003a 1B68     		ldr	r3, [r3]
 2666 003c 7A68     		ldr	r2, [r7, #4]
 2667 003e 1268     		ldr	r2, [r2]
 2668 0040 526C     		ldr	r2, [r2, #68]
 2669 0042 22F40042 		bic	r2, r2, #32768
 2670 0046 5A64     		str	r2, [r3, #68]
 2671              	.L146:
1375:Drivers/STM32F3xx_HAL_Driver/Src/stm32f3xx_hal_tim_ex.c ****   
1376:Drivers/STM32F3xx_HAL_Driver/Src/stm32f3xx_hal_tim_ex.c ****   /* Disable the Peripheral */
1377:Drivers/STM32F3xx_HAL_Driver/Src/stm32f3xx_hal_tim_ex.c ****   __HAL_TIM_DISABLE(htim); 
 2672              		.loc 1 1377 0 is_stmt 1
 2673 0048 7B68     		ldr	r3, [r7, #4]
 2674 004a 1B68     		ldr	r3, [r3]
 2675 004c 1A6A     		ldr	r2, [r3, #32]
 2676 004e 41F21113 		movw	r3, #4369
 2677 0052 1340     		ands	r3, r3, r2
 2678 0054 002B     		cmp	r3, #0
 2679 0056 0FD1     		bne	.L147
 2680              		.loc 1 1377 0 is_stmt 0 discriminator 1
 2681 0058 7B68     		ldr	r3, [r7, #4]
 2682 005a 1B68     		ldr	r3, [r3]
 2683 005c 1A6A     		ldr	r2, [r3, #32]
 2684 005e 40F24443 		movw	r3, #1092
 2685 0062 1340     		ands	r3, r3, r2
 2686 0064 002B     		cmp	r3, #0
 2687 0066 07D1     		bne	.L147
 2688 0068 7B68     		ldr	r3, [r7, #4]
 2689 006a 1B68     		ldr	r3, [r3]
 2690 006c 7A68     		ldr	r2, [r7, #4]
 2691 006e 1268     		ldr	r2, [r2]
 2692 0070 1268     		ldr	r2, [r2]
 2693 0072 22F00102 		bic	r2, r2, #1
 2694 0076 1A60     		str	r2, [r3]
 2695              	.L147:
1378:Drivers/STM32F3xx_HAL_Driver/Src/stm32f3xx_hal_tim_ex.c ****    
1379:Drivers/STM32F3xx_HAL_Driver/Src/stm32f3xx_hal_tim_ex.c ****   /* Return function status */
1380:Drivers/STM32F3xx_HAL_Driver/Src/stm32f3xx_hal_tim_ex.c ****   return HAL_OK;
 2696              		.loc 1 1380 0 is_stmt 1
 2697 0078 0023     		movs	r3, #0
1381:Drivers/STM32F3xx_HAL_Driver/Src/stm32f3xx_hal_tim_ex.c **** }
 2698              		.loc 1 1381 0
 2699 007a 1846     		mov	r0, r3
 2700 007c 0837     		adds	r7, r7, #8
 2701 007e BD46     		mov	sp, r7
 2702              		@ sp needed
 2703 0080 80BD     		pop	{r7, pc}
 2704              		.cfi_endproc
 2705              	.LFE148:
 2707 0082 00BF     		.section	.text.HAL_TIMEx_OnePulseN_Start_IT,"ax",%progbits
 2708              		.align	2
 2709              		.global	HAL_TIMEx_OnePulseN_Start_IT
 2710              		.thumb
 2711              		.thumb_func
 2713              	HAL_TIMEx_OnePulseN_Start_IT:
 2714              	.LFB149:
1382:Drivers/STM32F3xx_HAL_Driver/Src/stm32f3xx_hal_tim_ex.c **** 
ARM GAS  /tmp/ccRzvoJq.s 			page 72


1383:Drivers/STM32F3xx_HAL_Driver/Src/stm32f3xx_hal_tim_ex.c **** /**
1384:Drivers/STM32F3xx_HAL_Driver/Src/stm32f3xx_hal_tim_ex.c ****   * @brief  Starts the TIM One Pulse signal generation in interrupt mode on the
1385:Drivers/STM32F3xx_HAL_Driver/Src/stm32f3xx_hal_tim_ex.c ****   *         complementary channel.
1386:Drivers/STM32F3xx_HAL_Driver/Src/stm32f3xx_hal_tim_ex.c ****   * @param  htim: TIM One Pulse handle
1387:Drivers/STM32F3xx_HAL_Driver/Src/stm32f3xx_hal_tim_ex.c ****   * @param  OutputChannel: TIM Channel to be enabled
1388:Drivers/STM32F3xx_HAL_Driver/Src/stm32f3xx_hal_tim_ex.c ****   *          This parameter can be one of the following values:
1389:Drivers/STM32F3xx_HAL_Driver/Src/stm32f3xx_hal_tim_ex.c ****   *            @arg TIM_CHANNEL_1: TIM Channel 1 selected
1390:Drivers/STM32F3xx_HAL_Driver/Src/stm32f3xx_hal_tim_ex.c ****   *            @arg TIM_CHANNEL_2: TIM Channel 2 selected
1391:Drivers/STM32F3xx_HAL_Driver/Src/stm32f3xx_hal_tim_ex.c ****   * @retval HAL status
1392:Drivers/STM32F3xx_HAL_Driver/Src/stm32f3xx_hal_tim_ex.c ****   */
1393:Drivers/STM32F3xx_HAL_Driver/Src/stm32f3xx_hal_tim_ex.c **** HAL_StatusTypeDef HAL_TIMEx_OnePulseN_Start_IT(TIM_HandleTypeDef *htim, uint32_t OutputChannel)
1394:Drivers/STM32F3xx_HAL_Driver/Src/stm32f3xx_hal_tim_ex.c **** {
 2715              		.loc 1 1394 0
 2716              		.cfi_startproc
 2717              		@ args = 0, pretend = 0, frame = 8
 2718              		@ frame_needed = 1, uses_anonymous_args = 0
 2719 0000 80B5     		push	{r7, lr}
 2720              	.LCFI72:
 2721              		.cfi_def_cfa_offset 8
 2722              		.cfi_offset 7, -8
 2723              		.cfi_offset 14, -4
 2724 0002 82B0     		sub	sp, sp, #8
 2725              	.LCFI73:
 2726              		.cfi_def_cfa_offset 16
 2727 0004 00AF     		add	r7, sp, #0
 2728              	.LCFI74:
 2729              		.cfi_def_cfa_register 7
 2730 0006 7860     		str	r0, [r7, #4]
 2731 0008 3960     		str	r1, [r7]
1395:Drivers/STM32F3xx_HAL_Driver/Src/stm32f3xx_hal_tim_ex.c ****   /* Check the parameters */
1396:Drivers/STM32F3xx_HAL_Driver/Src/stm32f3xx_hal_tim_ex.c ****   assert_param(IS_TIM_CCXN_INSTANCE(htim->Instance, OutputChannel)); 
1397:Drivers/STM32F3xx_HAL_Driver/Src/stm32f3xx_hal_tim_ex.c **** 
1398:Drivers/STM32F3xx_HAL_Driver/Src/stm32f3xx_hal_tim_ex.c ****   /* Enable the TIM Capture/Compare 1 interrupt */
1399:Drivers/STM32F3xx_HAL_Driver/Src/stm32f3xx_hal_tim_ex.c ****   __HAL_TIM_ENABLE_IT(htim, TIM_IT_CC1);
 2732              		.loc 1 1399 0
 2733 000a 7B68     		ldr	r3, [r7, #4]
 2734 000c 1B68     		ldr	r3, [r3]
 2735 000e 7A68     		ldr	r2, [r7, #4]
 2736 0010 1268     		ldr	r2, [r2]
 2737 0012 D268     		ldr	r2, [r2, #12]
 2738 0014 42F00202 		orr	r2, r2, #2
 2739 0018 DA60     		str	r2, [r3, #12]
1400:Drivers/STM32F3xx_HAL_Driver/Src/stm32f3xx_hal_tim_ex.c ****   
1401:Drivers/STM32F3xx_HAL_Driver/Src/stm32f3xx_hal_tim_ex.c ****   /* Enable the TIM Capture/Compare 2 interrupt */
1402:Drivers/STM32F3xx_HAL_Driver/Src/stm32f3xx_hal_tim_ex.c ****   __HAL_TIM_ENABLE_IT(htim, TIM_IT_CC2);
 2740              		.loc 1 1402 0
 2741 001a 7B68     		ldr	r3, [r7, #4]
 2742 001c 1B68     		ldr	r3, [r3]
 2743 001e 7A68     		ldr	r2, [r7, #4]
 2744 0020 1268     		ldr	r2, [r2]
 2745 0022 D268     		ldr	r2, [r2, #12]
 2746 0024 42F00402 		orr	r2, r2, #4
 2747 0028 DA60     		str	r2, [r3, #12]
1403:Drivers/STM32F3xx_HAL_Driver/Src/stm32f3xx_hal_tim_ex.c ****   
1404:Drivers/STM32F3xx_HAL_Driver/Src/stm32f3xx_hal_tim_ex.c ****   /* Enable the complementary One Pulse output */
1405:Drivers/STM32F3xx_HAL_Driver/Src/stm32f3xx_hal_tim_ex.c ****   TIM_CCxNChannelCmd(htim->Instance, OutputChannel, TIM_CCxN_ENABLE); 
 2748              		.loc 1 1405 0
ARM GAS  /tmp/ccRzvoJq.s 			page 73


 2749 002a 7B68     		ldr	r3, [r7, #4]
 2750 002c 1B68     		ldr	r3, [r3]
 2751 002e 1846     		mov	r0, r3
 2752 0030 3968     		ldr	r1, [r7]
 2753 0032 0422     		movs	r2, #4
 2754 0034 FFF7FEFF 		bl	TIM_CCxNChannelCmd
1406:Drivers/STM32F3xx_HAL_Driver/Src/stm32f3xx_hal_tim_ex.c ****   
1407:Drivers/STM32F3xx_HAL_Driver/Src/stm32f3xx_hal_tim_ex.c ****   /* Enable the Main Ouput */
1408:Drivers/STM32F3xx_HAL_Driver/Src/stm32f3xx_hal_tim_ex.c ****   __HAL_TIM_MOE_ENABLE(htim);
 2755              		.loc 1 1408 0
 2756 0038 7B68     		ldr	r3, [r7, #4]
 2757 003a 1B68     		ldr	r3, [r3]
 2758 003c 7A68     		ldr	r2, [r7, #4]
 2759 003e 1268     		ldr	r2, [r2]
 2760 0040 526C     		ldr	r2, [r2, #68]
 2761 0042 42F40042 		orr	r2, r2, #32768
 2762 0046 5A64     		str	r2, [r3, #68]
1409:Drivers/STM32F3xx_HAL_Driver/Src/stm32f3xx_hal_tim_ex.c ****   
1410:Drivers/STM32F3xx_HAL_Driver/Src/stm32f3xx_hal_tim_ex.c ****   /* Return function status */
1411:Drivers/STM32F3xx_HAL_Driver/Src/stm32f3xx_hal_tim_ex.c ****   return HAL_OK;
 2763              		.loc 1 1411 0
 2764 0048 0023     		movs	r3, #0
1412:Drivers/STM32F3xx_HAL_Driver/Src/stm32f3xx_hal_tim_ex.c ****   } 
 2765              		.loc 1 1412 0
 2766 004a 1846     		mov	r0, r3
 2767 004c 0837     		adds	r7, r7, #8
 2768 004e BD46     		mov	sp, r7
 2769              		@ sp needed
 2770 0050 80BD     		pop	{r7, pc}
 2771              		.cfi_endproc
 2772              	.LFE149:
 2774 0052 00BF     		.section	.text.HAL_TIMEx_OnePulseN_Stop_IT,"ax",%progbits
 2775              		.align	2
 2776              		.global	HAL_TIMEx_OnePulseN_Stop_IT
 2777              		.thumb
 2778              		.thumb_func
 2780              	HAL_TIMEx_OnePulseN_Stop_IT:
 2781              	.LFB150:
1413:Drivers/STM32F3xx_HAL_Driver/Src/stm32f3xx_hal_tim_ex.c ****   
1414:Drivers/STM32F3xx_HAL_Driver/Src/stm32f3xx_hal_tim_ex.c **** /**
1415:Drivers/STM32F3xx_HAL_Driver/Src/stm32f3xx_hal_tim_ex.c ****   * @brief  Stops the TIM One Pulse signal generation in interrupt mode on the
1416:Drivers/STM32F3xx_HAL_Driver/Src/stm32f3xx_hal_tim_ex.c ****   *         complementary channel.
1417:Drivers/STM32F3xx_HAL_Driver/Src/stm32f3xx_hal_tim_ex.c ****   * @param  htim: TIM One Pulse handle
1418:Drivers/STM32F3xx_HAL_Driver/Src/stm32f3xx_hal_tim_ex.c ****   * @param  OutputChannel: TIM Channel to be disabled
1419:Drivers/STM32F3xx_HAL_Driver/Src/stm32f3xx_hal_tim_ex.c ****   *          This parameter can be one of the following values:
1420:Drivers/STM32F3xx_HAL_Driver/Src/stm32f3xx_hal_tim_ex.c ****   *            @arg TIM_CHANNEL_1: TIM Channel 1 selected
1421:Drivers/STM32F3xx_HAL_Driver/Src/stm32f3xx_hal_tim_ex.c ****   *            @arg TIM_CHANNEL_2: TIM Channel 2 selected
1422:Drivers/STM32F3xx_HAL_Driver/Src/stm32f3xx_hal_tim_ex.c ****   * @retval HAL status
1423:Drivers/STM32F3xx_HAL_Driver/Src/stm32f3xx_hal_tim_ex.c ****   */
1424:Drivers/STM32F3xx_HAL_Driver/Src/stm32f3xx_hal_tim_ex.c **** HAL_StatusTypeDef HAL_TIMEx_OnePulseN_Stop_IT(TIM_HandleTypeDef *htim, uint32_t OutputChannel)
1425:Drivers/STM32F3xx_HAL_Driver/Src/stm32f3xx_hal_tim_ex.c **** {
 2782              		.loc 1 1425 0
 2783              		.cfi_startproc
 2784              		@ args = 0, pretend = 0, frame = 8
 2785              		@ frame_needed = 1, uses_anonymous_args = 0
 2786 0000 80B5     		push	{r7, lr}
 2787              	.LCFI75:
ARM GAS  /tmp/ccRzvoJq.s 			page 74


 2788              		.cfi_def_cfa_offset 8
 2789              		.cfi_offset 7, -8
 2790              		.cfi_offset 14, -4
 2791 0002 82B0     		sub	sp, sp, #8
 2792              	.LCFI76:
 2793              		.cfi_def_cfa_offset 16
 2794 0004 00AF     		add	r7, sp, #0
 2795              	.LCFI77:
 2796              		.cfi_def_cfa_register 7
 2797 0006 7860     		str	r0, [r7, #4]
 2798 0008 3960     		str	r1, [r7]
1426:Drivers/STM32F3xx_HAL_Driver/Src/stm32f3xx_hal_tim_ex.c ****   /* Check the parameters */
1427:Drivers/STM32F3xx_HAL_Driver/Src/stm32f3xx_hal_tim_ex.c ****   assert_param(IS_TIM_CCXN_INSTANCE(htim->Instance, OutputChannel)); 
1428:Drivers/STM32F3xx_HAL_Driver/Src/stm32f3xx_hal_tim_ex.c **** 
1429:Drivers/STM32F3xx_HAL_Driver/Src/stm32f3xx_hal_tim_ex.c ****   /* Disable the TIM Capture/Compare 1 interrupt */
1430:Drivers/STM32F3xx_HAL_Driver/Src/stm32f3xx_hal_tim_ex.c ****   __HAL_TIM_DISABLE_IT(htim, TIM_IT_CC1);
 2799              		.loc 1 1430 0
 2800 000a 7B68     		ldr	r3, [r7, #4]
 2801 000c 1B68     		ldr	r3, [r3]
 2802 000e 7A68     		ldr	r2, [r7, #4]
 2803 0010 1268     		ldr	r2, [r2]
 2804 0012 D268     		ldr	r2, [r2, #12]
 2805 0014 22F00202 		bic	r2, r2, #2
 2806 0018 DA60     		str	r2, [r3, #12]
1431:Drivers/STM32F3xx_HAL_Driver/Src/stm32f3xx_hal_tim_ex.c ****   
1432:Drivers/STM32F3xx_HAL_Driver/Src/stm32f3xx_hal_tim_ex.c ****   /* Disable the TIM Capture/Compare 2 interrupt */
1433:Drivers/STM32F3xx_HAL_Driver/Src/stm32f3xx_hal_tim_ex.c ****   __HAL_TIM_DISABLE_IT(htim, TIM_IT_CC2);
 2807              		.loc 1 1433 0
 2808 001a 7B68     		ldr	r3, [r7, #4]
 2809 001c 1B68     		ldr	r3, [r3]
 2810 001e 7A68     		ldr	r2, [r7, #4]
 2811 0020 1268     		ldr	r2, [r2]
 2812 0022 D268     		ldr	r2, [r2, #12]
 2813 0024 22F00402 		bic	r2, r2, #4
 2814 0028 DA60     		str	r2, [r3, #12]
1434:Drivers/STM32F3xx_HAL_Driver/Src/stm32f3xx_hal_tim_ex.c ****   
1435:Drivers/STM32F3xx_HAL_Driver/Src/stm32f3xx_hal_tim_ex.c ****   /* Disable the complementary One Pulse output */
1436:Drivers/STM32F3xx_HAL_Driver/Src/stm32f3xx_hal_tim_ex.c ****   TIM_CCxNChannelCmd(htim->Instance, OutputChannel, TIM_CCxN_DISABLE);
 2815              		.loc 1 1436 0
 2816 002a 7B68     		ldr	r3, [r7, #4]
 2817 002c 1B68     		ldr	r3, [r3]
 2818 002e 1846     		mov	r0, r3
 2819 0030 3968     		ldr	r1, [r7]
 2820 0032 0022     		movs	r2, #0
 2821 0034 FFF7FEFF 		bl	TIM_CCxNChannelCmd
1437:Drivers/STM32F3xx_HAL_Driver/Src/stm32f3xx_hal_tim_ex.c ****   
1438:Drivers/STM32F3xx_HAL_Driver/Src/stm32f3xx_hal_tim_ex.c ****   /* Disable the Main Ouput */
1439:Drivers/STM32F3xx_HAL_Driver/Src/stm32f3xx_hal_tim_ex.c ****   __HAL_TIM_MOE_DISABLE(htim);
 2822              		.loc 1 1439 0
 2823 0038 7B68     		ldr	r3, [r7, #4]
 2824 003a 1B68     		ldr	r3, [r3]
 2825 003c 1A6A     		ldr	r2, [r3, #32]
 2826 003e 41F21113 		movw	r3, #4369
 2827 0042 1340     		ands	r3, r3, r2
 2828 0044 002B     		cmp	r3, #0
 2829 0046 0FD1     		bne	.L152
 2830              		.loc 1 1439 0 is_stmt 0 discriminator 1
ARM GAS  /tmp/ccRzvoJq.s 			page 75


 2831 0048 7B68     		ldr	r3, [r7, #4]
 2832 004a 1B68     		ldr	r3, [r3]
 2833 004c 1A6A     		ldr	r2, [r3, #32]
 2834 004e 40F24443 		movw	r3, #1092
 2835 0052 1340     		ands	r3, r3, r2
 2836 0054 002B     		cmp	r3, #0
 2837 0056 07D1     		bne	.L152
 2838 0058 7B68     		ldr	r3, [r7, #4]
 2839 005a 1B68     		ldr	r3, [r3]
 2840 005c 7A68     		ldr	r2, [r7, #4]
 2841 005e 1268     		ldr	r2, [r2]
 2842 0060 526C     		ldr	r2, [r2, #68]
 2843 0062 22F40042 		bic	r2, r2, #32768
 2844 0066 5A64     		str	r2, [r3, #68]
 2845              	.L152:
1440:Drivers/STM32F3xx_HAL_Driver/Src/stm32f3xx_hal_tim_ex.c ****   
1441:Drivers/STM32F3xx_HAL_Driver/Src/stm32f3xx_hal_tim_ex.c ****   /* Disable the Peripheral */
1442:Drivers/STM32F3xx_HAL_Driver/Src/stm32f3xx_hal_tim_ex.c ****   __HAL_TIM_DISABLE(htim);  
 2846              		.loc 1 1442 0 is_stmt 1
 2847 0068 7B68     		ldr	r3, [r7, #4]
 2848 006a 1B68     		ldr	r3, [r3]
 2849 006c 1A6A     		ldr	r2, [r3, #32]
 2850 006e 41F21113 		movw	r3, #4369
 2851 0072 1340     		ands	r3, r3, r2
 2852 0074 002B     		cmp	r3, #0
 2853 0076 0FD1     		bne	.L153
 2854              		.loc 1 1442 0 is_stmt 0 discriminator 1
 2855 0078 7B68     		ldr	r3, [r7, #4]
 2856 007a 1B68     		ldr	r3, [r3]
 2857 007c 1A6A     		ldr	r2, [r3, #32]
 2858 007e 40F24443 		movw	r3, #1092
 2859 0082 1340     		ands	r3, r3, r2
 2860 0084 002B     		cmp	r3, #0
 2861 0086 07D1     		bne	.L153
 2862 0088 7B68     		ldr	r3, [r7, #4]
 2863 008a 1B68     		ldr	r3, [r3]
 2864 008c 7A68     		ldr	r2, [r7, #4]
 2865 008e 1268     		ldr	r2, [r2]
 2866 0090 1268     		ldr	r2, [r2]
 2867 0092 22F00102 		bic	r2, r2, #1
 2868 0096 1A60     		str	r2, [r3]
 2869              	.L153:
1443:Drivers/STM32F3xx_HAL_Driver/Src/stm32f3xx_hal_tim_ex.c ****   
1444:Drivers/STM32F3xx_HAL_Driver/Src/stm32f3xx_hal_tim_ex.c ****   /* Return function status */
1445:Drivers/STM32F3xx_HAL_Driver/Src/stm32f3xx_hal_tim_ex.c ****   return HAL_OK;
 2870              		.loc 1 1445 0 is_stmt 1
 2871 0098 0023     		movs	r3, #0
1446:Drivers/STM32F3xx_HAL_Driver/Src/stm32f3xx_hal_tim_ex.c **** }
 2872              		.loc 1 1446 0
 2873 009a 1846     		mov	r0, r3
 2874 009c 0837     		adds	r7, r7, #8
 2875 009e BD46     		mov	sp, r7
 2876              		@ sp needed
 2877 00a0 80BD     		pop	{r7, pc}
 2878              		.cfi_endproc
 2879              	.LFE150:
 2881 00a2 00BF     		.section	.text.HAL_TIMEx_ConfigCommutationEvent,"ax",%progbits
ARM GAS  /tmp/ccRzvoJq.s 			page 76


 2882              		.align	2
 2883              		.global	HAL_TIMEx_ConfigCommutationEvent
 2884              		.thumb
 2885              		.thumb_func
