ARM GAS  /tmp/ccWSeizr.s 			page 1


   1              		.syntax unified
   2              		.cpu cortex-m4
   3              		.eabi_attribute 27, 3
   4              		.eabi_attribute 28, 1
   5              		.fpu fpv4-sp-d16
   6              		.eabi_attribute 20, 1
   7              		.eabi_attribute 21, 1
   8              		.eabi_attribute 23, 3
   9              		.eabi_attribute 24, 1
  10              		.eabi_attribute 25, 1
  11              		.eabi_attribute 26, 1
  12              		.eabi_attribute 30, 6
  13              		.eabi_attribute 34, 1
  14              		.eabi_attribute 18, 4
  15              		.thumb
  16              		.file	"stm32f3xx_hal_dma.c"
  17              		.text
  18              	.Ltext0:
  19              		.cfi_sections	.debug_frame
  20              		.section	.text.HAL_DMA_Init,"ax",%progbits
  21              		.align	2
  22              		.global	HAL_DMA_Init
  23              		.thumb
  24              		.thumb_func
  26              	HAL_DMA_Init:
  27              	.LFB125:
  28              		.file 1 "Drivers/STM32F3xx_HAL_Driver/Src/stm32f3xx_hal_dma.c"
   1:Drivers/STM32F3xx_HAL_Driver/Src/stm32f3xx_hal_dma.c **** /**
   2:Drivers/STM32F3xx_HAL_Driver/Src/stm32f3xx_hal_dma.c ****   ******************************************************************************
   3:Drivers/STM32F3xx_HAL_Driver/Src/stm32f3xx_hal_dma.c ****   * @file    stm32f3xx_hal_dma.c
   4:Drivers/STM32F3xx_HAL_Driver/Src/stm32f3xx_hal_dma.c ****   * @author  MCD Application Team
   5:Drivers/STM32F3xx_HAL_Driver/Src/stm32f3xx_hal_dma.c ****   * @version V1.2.1
   6:Drivers/STM32F3xx_HAL_Driver/Src/stm32f3xx_hal_dma.c ****   * @date    29-April-2015
   7:Drivers/STM32F3xx_HAL_Driver/Src/stm32f3xx_hal_dma.c ****   * @brief   DMA HAL module driver.
   8:Drivers/STM32F3xx_HAL_Driver/Src/stm32f3xx_hal_dma.c ****   *    
   9:Drivers/STM32F3xx_HAL_Driver/Src/stm32f3xx_hal_dma.c ****   *         This file provides firmware functions to manage the following 
  10:Drivers/STM32F3xx_HAL_Driver/Src/stm32f3xx_hal_dma.c ****   *         functionalities of the Direct Memory Access (DMA) peripheral:
  11:Drivers/STM32F3xx_HAL_Driver/Src/stm32f3xx_hal_dma.c ****   *           + Initialization and de-initialization functions
  12:Drivers/STM32F3xx_HAL_Driver/Src/stm32f3xx_hal_dma.c ****   *           + IO operation functions
  13:Drivers/STM32F3xx_HAL_Driver/Src/stm32f3xx_hal_dma.c ****   *           + Peripheral State and errors functions
  14:Drivers/STM32F3xx_HAL_Driver/Src/stm32f3xx_hal_dma.c ****   @verbatim     
  15:Drivers/STM32F3xx_HAL_Driver/Src/stm32f3xx_hal_dma.c ****   ==============================================================================      
  16:Drivers/STM32F3xx_HAL_Driver/Src/stm32f3xx_hal_dma.c ****                         ##### How to use this driver #####
  17:Drivers/STM32F3xx_HAL_Driver/Src/stm32f3xx_hal_dma.c ****   ============================================================================== 
  18:Drivers/STM32F3xx_HAL_Driver/Src/stm32f3xx_hal_dma.c ****   [..]
  19:Drivers/STM32F3xx_HAL_Driver/Src/stm32f3xx_hal_dma.c ****    (#) Enable and configure the peripheral to be connected to the DMA Channel
  20:Drivers/STM32F3xx_HAL_Driver/Src/stm32f3xx_hal_dma.c ****        (except for internal SRAM / FLASH memories: no initialization is 
  21:Drivers/STM32F3xx_HAL_Driver/Src/stm32f3xx_hal_dma.c ****        necessary) please refer to Reference manual for connection between peripherals
  22:Drivers/STM32F3xx_HAL_Driver/Src/stm32f3xx_hal_dma.c ****        and DMA requests .
  23:Drivers/STM32F3xx_HAL_Driver/Src/stm32f3xx_hal_dma.c **** 
  24:Drivers/STM32F3xx_HAL_Driver/Src/stm32f3xx_hal_dma.c ****    (#) For a given Channel, program the required configuration through the following parameters:   
  25:Drivers/STM32F3xx_HAL_Driver/Src/stm32f3xx_hal_dma.c ****        Transfer Direction, Source and Destination data formats, 
  26:Drivers/STM32F3xx_HAL_Driver/Src/stm32f3xx_hal_dma.c ****        Circular or Normal mode, Channel Priority level, Source and Destination Increment mode, 
  27:Drivers/STM32F3xx_HAL_Driver/Src/stm32f3xx_hal_dma.c ****        using HAL_DMA_Init() function.
  28:Drivers/STM32F3xx_HAL_Driver/Src/stm32f3xx_hal_dma.c **** 
  29:Drivers/STM32F3xx_HAL_Driver/Src/stm32f3xx_hal_dma.c ****    (#) Use HAL_DMA_GetState() function to return the DMA state and HAL_DMA_GetError() in case of er
  30:Drivers/STM32F3xx_HAL_Driver/Src/stm32f3xx_hal_dma.c ****        detection.
ARM GAS  /tmp/ccWSeizr.s 			page 2


  31:Drivers/STM32F3xx_HAL_Driver/Src/stm32f3xx_hal_dma.c ****                     
  32:Drivers/STM32F3xx_HAL_Driver/Src/stm32f3xx_hal_dma.c ****    (#) Use HAL_DMA_Abort() function to abort the current transfer
  33:Drivers/STM32F3xx_HAL_Driver/Src/stm32f3xx_hal_dma.c ****                    
  34:Drivers/STM32F3xx_HAL_Driver/Src/stm32f3xx_hal_dma.c ****      -@-   In Memory-to-Memory transfer mode, Circular mode is not allowed.
  35:Drivers/STM32F3xx_HAL_Driver/Src/stm32f3xx_hal_dma.c ****      *** Polling mode IO operation ***
  36:Drivers/STM32F3xx_HAL_Driver/Src/stm32f3xx_hal_dma.c ****      =================================   
  37:Drivers/STM32F3xx_HAL_Driver/Src/stm32f3xx_hal_dma.c ****     [..] 
  38:Drivers/STM32F3xx_HAL_Driver/Src/stm32f3xx_hal_dma.c ****       (+) Use HAL_DMA_Start() to start DMA transfer after the configuration of Source 
  39:Drivers/STM32F3xx_HAL_Driver/Src/stm32f3xx_hal_dma.c ****           address and destination address and the Length of data to be transferred
  40:Drivers/STM32F3xx_HAL_Driver/Src/stm32f3xx_hal_dma.c ****       (+) Use HAL_DMA_PollForTransfer() to poll for the end of current transfer, in this  
  41:Drivers/STM32F3xx_HAL_Driver/Src/stm32f3xx_hal_dma.c ****           case a fixed Timeout can be configured by User depending from his application.
  42:Drivers/STM32F3xx_HAL_Driver/Src/stm32f3xx_hal_dma.c **** 
  43:Drivers/STM32F3xx_HAL_Driver/Src/stm32f3xx_hal_dma.c ****      *** Interrupt mode IO operation ***    
  44:Drivers/STM32F3xx_HAL_Driver/Src/stm32f3xx_hal_dma.c ****      =================================== 
  45:Drivers/STM32F3xx_HAL_Driver/Src/stm32f3xx_hal_dma.c ****     [..]
  46:Drivers/STM32F3xx_HAL_Driver/Src/stm32f3xx_hal_dma.c ****       (+) Configure the DMA interrupt priority using HAL_NVIC_SetPriority()
  47:Drivers/STM32F3xx_HAL_Driver/Src/stm32f3xx_hal_dma.c ****       (+) Enable the DMA IRQ handler using HAL_NVIC_EnableIRQ() 
  48:Drivers/STM32F3xx_HAL_Driver/Src/stm32f3xx_hal_dma.c ****       (+) Use HAL_DMA_Start_IT() to start DMA transfer after the configuration of  
  49:Drivers/STM32F3xx_HAL_Driver/Src/stm32f3xx_hal_dma.c ****           Source address and destination address and the Length of data to be transferred. 
  50:Drivers/STM32F3xx_HAL_Driver/Src/stm32f3xx_hal_dma.c ****           In this case the DMA interrupt is configured 
  51:Drivers/STM32F3xx_HAL_Driver/Src/stm32f3xx_hal_dma.c ****       (+) Use HAL_DMAy_Channelx_IRQHandler() called under DMA_IRQHandler() Interrupt subroutine
  52:Drivers/STM32F3xx_HAL_Driver/Src/stm32f3xx_hal_dma.c ****       (+) At the end of data transfer HAL_DMA_IRQHandler() function is executed and user can 
  53:Drivers/STM32F3xx_HAL_Driver/Src/stm32f3xx_hal_dma.c ****           add his own function by customization of function pointer XferCpltCallback and 
  54:Drivers/STM32F3xx_HAL_Driver/Src/stm32f3xx_hal_dma.c ****           XferErrorCallback (i.e a member of DMA handle structure). 
  55:Drivers/STM32F3xx_HAL_Driver/Src/stm32f3xx_hal_dma.c **** 
  56:Drivers/STM32F3xx_HAL_Driver/Src/stm32f3xx_hal_dma.c ****      *** DMA HAL driver macros list ***
  57:Drivers/STM32F3xx_HAL_Driver/Src/stm32f3xx_hal_dma.c ****      ============================================= 
  58:Drivers/STM32F3xx_HAL_Driver/Src/stm32f3xx_hal_dma.c ****      [..]
  59:Drivers/STM32F3xx_HAL_Driver/Src/stm32f3xx_hal_dma.c ****        Below the list of most used macros in DMA HAL driver.
  60:Drivers/STM32F3xx_HAL_Driver/Src/stm32f3xx_hal_dma.c **** 
  61:Drivers/STM32F3xx_HAL_Driver/Src/stm32f3xx_hal_dma.c ****        (+) __HAL_DMA_ENABLE: Enable the specified DMA Channel.
  62:Drivers/STM32F3xx_HAL_Driver/Src/stm32f3xx_hal_dma.c ****        (+) __HAL_DMA_DISABLE: Disable the specified DMA Channel.
  63:Drivers/STM32F3xx_HAL_Driver/Src/stm32f3xx_hal_dma.c ****        (+) __HAL_DMA_GET_FLAG: Get the DMA Channel pending flags.
  64:Drivers/STM32F3xx_HAL_Driver/Src/stm32f3xx_hal_dma.c ****        (+) __HAL_DMA_CLEAR_FLAG: Clear the DMA Channel pending flags.
  65:Drivers/STM32F3xx_HAL_Driver/Src/stm32f3xx_hal_dma.c ****        (+) __HAL_DMA_ENABLE_IT: Enable the specified DMA Channel interrupts.
  66:Drivers/STM32F3xx_HAL_Driver/Src/stm32f3xx_hal_dma.c ****        (+) __HAL_DMA_DISABLE_IT: Disable the specified DMA Channel interrupts.
  67:Drivers/STM32F3xx_HAL_Driver/Src/stm32f3xx_hal_dma.c ****        (+) __HAL_DMA_GET_IT_SOURCE: Check whether the specified DMA Channel interrupt has occurred 
  68:Drivers/STM32F3xx_HAL_Driver/Src/stm32f3xx_hal_dma.c **** 
  69:Drivers/STM32F3xx_HAL_Driver/Src/stm32f3xx_hal_dma.c ****      [..] 
  70:Drivers/STM32F3xx_HAL_Driver/Src/stm32f3xx_hal_dma.c ****       (@) You can refer to the DMA HAL driver header file for more useful macros  
  71:Drivers/STM32F3xx_HAL_Driver/Src/stm32f3xx_hal_dma.c **** 
  72:Drivers/STM32F3xx_HAL_Driver/Src/stm32f3xx_hal_dma.c ****   @endverbatim
  73:Drivers/STM32F3xx_HAL_Driver/Src/stm32f3xx_hal_dma.c ****   ******************************************************************************
  74:Drivers/STM32F3xx_HAL_Driver/Src/stm32f3xx_hal_dma.c ****   * @attention
  75:Drivers/STM32F3xx_HAL_Driver/Src/stm32f3xx_hal_dma.c ****   *
  76:Drivers/STM32F3xx_HAL_Driver/Src/stm32f3xx_hal_dma.c ****   * <h2><center>&copy; COPYRIGHT(c) 2016 STMicroelectronics</center></h2>
  77:Drivers/STM32F3xx_HAL_Driver/Src/stm32f3xx_hal_dma.c ****   *
  78:Drivers/STM32F3xx_HAL_Driver/Src/stm32f3xx_hal_dma.c ****   * Redistribution and use in source and binary forms, with or without modification,
  79:Drivers/STM32F3xx_HAL_Driver/Src/stm32f3xx_hal_dma.c ****   * are permitted provided that the following conditions are met:
  80:Drivers/STM32F3xx_HAL_Driver/Src/stm32f3xx_hal_dma.c ****   *   1. Redistributions of source code must retain the above copyright notice,
  81:Drivers/STM32F3xx_HAL_Driver/Src/stm32f3xx_hal_dma.c ****   *      this list of conditions and the following disclaimer.
  82:Drivers/STM32F3xx_HAL_Driver/Src/stm32f3xx_hal_dma.c ****   *   2. Redistributions in binary form must reproduce the above copyright notice,
  83:Drivers/STM32F3xx_HAL_Driver/Src/stm32f3xx_hal_dma.c ****   *      this list of conditions and the following disclaimer in the documentation
  84:Drivers/STM32F3xx_HAL_Driver/Src/stm32f3xx_hal_dma.c ****   *      and/or other materials provided with the distribution.
  85:Drivers/STM32F3xx_HAL_Driver/Src/stm32f3xx_hal_dma.c ****   *   3. Neither the name of STMicroelectronics nor the names of its contributors
  86:Drivers/STM32F3xx_HAL_Driver/Src/stm32f3xx_hal_dma.c ****   *      may be used to endorse or promote products derived from this software
  87:Drivers/STM32F3xx_HAL_Driver/Src/stm32f3xx_hal_dma.c ****   *      without specific prior written permission.
ARM GAS  /tmp/ccWSeizr.s 			page 3


  88:Drivers/STM32F3xx_HAL_Driver/Src/stm32f3xx_hal_dma.c ****   *
  89:Drivers/STM32F3xx_HAL_Driver/Src/stm32f3xx_hal_dma.c ****   * THIS SOFTWARE IS PROVIDED BY THE COPYRIGHT HOLDERS AND CONTRIBUTORS "AS IS"
  90:Drivers/STM32F3xx_HAL_Driver/Src/stm32f3xx_hal_dma.c ****   * AND ANY EXPRESS OR IMPLIED WARRANTIES, INCLUDING, BUT NOT LIMITED TO, THE
  91:Drivers/STM32F3xx_HAL_Driver/Src/stm32f3xx_hal_dma.c ****   * IMPLIED WARRANTIES OF MERCHANTABILITY AND FITNESS FOR A PARTICULAR PURPOSE ARE
  92:Drivers/STM32F3xx_HAL_Driver/Src/stm32f3xx_hal_dma.c ****   * DISCLAIMED. IN NO EVENT SHALL THE COPYRIGHT HOLDER OR CONTRIBUTORS BE LIABLE
  93:Drivers/STM32F3xx_HAL_Driver/Src/stm32f3xx_hal_dma.c ****   * FOR ANY DIRECT, INDIRECT, INCIDENTAL, SPECIAL, EXEMPLARY, OR CONSEQUENTIAL
  94:Drivers/STM32F3xx_HAL_Driver/Src/stm32f3xx_hal_dma.c ****   * DAMAGES (INCLUDING, BUT NOT LIMITED TO, PROCUREMENT OF SUBSTITUTE GOODS OR
  95:Drivers/STM32F3xx_HAL_Driver/Src/stm32f3xx_hal_dma.c ****   * SERVICES; LOSS OF USE, DATA, OR PROFITS; OR BUSINESS INTERRUPTION) HOWEVER
  96:Drivers/STM32F3xx_HAL_Driver/Src/stm32f3xx_hal_dma.c ****   * CAUSED AND ON ANY THEORY OF LIABILITY, WHETHER IN CONTRACT, STRICT LIABILITY,
  97:Drivers/STM32F3xx_HAL_Driver/Src/stm32f3xx_hal_dma.c ****   * OR TORT (INCLUDING NEGLIGENCE OR OTHERWISE) ARISING IN ANY WAY OUT OF THE USE
  98:Drivers/STM32F3xx_HAL_Driver/Src/stm32f3xx_hal_dma.c ****   * OF THIS SOFTWARE, EVEN IF ADVISED OF THE POSSIBILITY OF SUCH DAMAGE.
  99:Drivers/STM32F3xx_HAL_Driver/Src/stm32f3xx_hal_dma.c ****   *
 100:Drivers/STM32F3xx_HAL_Driver/Src/stm32f3xx_hal_dma.c ****   ******************************************************************************
 101:Drivers/STM32F3xx_HAL_Driver/Src/stm32f3xx_hal_dma.c ****   */ 
 102:Drivers/STM32F3xx_HAL_Driver/Src/stm32f3xx_hal_dma.c **** 
 103:Drivers/STM32F3xx_HAL_Driver/Src/stm32f3xx_hal_dma.c **** /* Includes ------------------------------------------------------------------*/
 104:Drivers/STM32F3xx_HAL_Driver/Src/stm32f3xx_hal_dma.c **** #include "stm32f3xx_hal.h"
 105:Drivers/STM32F3xx_HAL_Driver/Src/stm32f3xx_hal_dma.c **** 
 106:Drivers/STM32F3xx_HAL_Driver/Src/stm32f3xx_hal_dma.c **** /** @addtogroup STM32F3xx_HAL_Driver
 107:Drivers/STM32F3xx_HAL_Driver/Src/stm32f3xx_hal_dma.c ****   * @{
 108:Drivers/STM32F3xx_HAL_Driver/Src/stm32f3xx_hal_dma.c ****   */
 109:Drivers/STM32F3xx_HAL_Driver/Src/stm32f3xx_hal_dma.c **** 
 110:Drivers/STM32F3xx_HAL_Driver/Src/stm32f3xx_hal_dma.c **** /** @defgroup DMA DMA
 111:Drivers/STM32F3xx_HAL_Driver/Src/stm32f3xx_hal_dma.c ****   * @brief DMA HAL module driver
 112:Drivers/STM32F3xx_HAL_Driver/Src/stm32f3xx_hal_dma.c ****   * @{
 113:Drivers/STM32F3xx_HAL_Driver/Src/stm32f3xx_hal_dma.c ****   */
 114:Drivers/STM32F3xx_HAL_Driver/Src/stm32f3xx_hal_dma.c **** 
 115:Drivers/STM32F3xx_HAL_Driver/Src/stm32f3xx_hal_dma.c **** #ifdef HAL_DMA_MODULE_ENABLED
 116:Drivers/STM32F3xx_HAL_Driver/Src/stm32f3xx_hal_dma.c **** 
 117:Drivers/STM32F3xx_HAL_Driver/Src/stm32f3xx_hal_dma.c **** /* Private typedef -----------------------------------------------------------*/
 118:Drivers/STM32F3xx_HAL_Driver/Src/stm32f3xx_hal_dma.c **** /* Private define ------------------------------------------------------------*/
 119:Drivers/STM32F3xx_HAL_Driver/Src/stm32f3xx_hal_dma.c **** /** @defgroup DMA_Private_Constants DMA Private Constants
 120:Drivers/STM32F3xx_HAL_Driver/Src/stm32f3xx_hal_dma.c ****   * @{
 121:Drivers/STM32F3xx_HAL_Driver/Src/stm32f3xx_hal_dma.c ****   */
 122:Drivers/STM32F3xx_HAL_Driver/Src/stm32f3xx_hal_dma.c **** #define HAL_TIMEOUT_DMA_ABORT    ((uint32_t)1000)  /* 1s  */
 123:Drivers/STM32F3xx_HAL_Driver/Src/stm32f3xx_hal_dma.c **** /**
 124:Drivers/STM32F3xx_HAL_Driver/Src/stm32f3xx_hal_dma.c ****   * @}
 125:Drivers/STM32F3xx_HAL_Driver/Src/stm32f3xx_hal_dma.c ****   */
 126:Drivers/STM32F3xx_HAL_Driver/Src/stm32f3xx_hal_dma.c **** 
 127:Drivers/STM32F3xx_HAL_Driver/Src/stm32f3xx_hal_dma.c **** /* Private macro -------------------------------------------------------------*/
 128:Drivers/STM32F3xx_HAL_Driver/Src/stm32f3xx_hal_dma.c **** /* Private variables ---------------------------------------------------------*/
 129:Drivers/STM32F3xx_HAL_Driver/Src/stm32f3xx_hal_dma.c **** /* Private function prototypes -----------------------------------------------*/
 130:Drivers/STM32F3xx_HAL_Driver/Src/stm32f3xx_hal_dma.c **** /** @defgroup DMA_Private_Functions DMA Private Functions
 131:Drivers/STM32F3xx_HAL_Driver/Src/stm32f3xx_hal_dma.c ****   * @{
 132:Drivers/STM32F3xx_HAL_Driver/Src/stm32f3xx_hal_dma.c ****   */
 133:Drivers/STM32F3xx_HAL_Driver/Src/stm32f3xx_hal_dma.c **** static void DMA_SetConfig(DMA_HandleTypeDef *hdma, uint32_t SrcAddress, uint32_t DstAddress, uint32
 134:Drivers/STM32F3xx_HAL_Driver/Src/stm32f3xx_hal_dma.c **** /**
 135:Drivers/STM32F3xx_HAL_Driver/Src/stm32f3xx_hal_dma.c ****   * @}
 136:Drivers/STM32F3xx_HAL_Driver/Src/stm32f3xx_hal_dma.c ****   */
 137:Drivers/STM32F3xx_HAL_Driver/Src/stm32f3xx_hal_dma.c **** 
 138:Drivers/STM32F3xx_HAL_Driver/Src/stm32f3xx_hal_dma.c **** /* Exported functions ---------------------------------------------------------*/
 139:Drivers/STM32F3xx_HAL_Driver/Src/stm32f3xx_hal_dma.c **** 
 140:Drivers/STM32F3xx_HAL_Driver/Src/stm32f3xx_hal_dma.c **** /** @defgroup DMA_Exported_Functions DMA Exported Functions
 141:Drivers/STM32F3xx_HAL_Driver/Src/stm32f3xx_hal_dma.c ****   * @{
 142:Drivers/STM32F3xx_HAL_Driver/Src/stm32f3xx_hal_dma.c ****   */
 143:Drivers/STM32F3xx_HAL_Driver/Src/stm32f3xx_hal_dma.c **** 
 144:Drivers/STM32F3xx_HAL_Driver/Src/stm32f3xx_hal_dma.c **** /** @defgroup DMA_Exported_Functions_Group1 Initialization and de-initialization functions 
ARM GAS  /tmp/ccWSeizr.s 			page 4


 145:Drivers/STM32F3xx_HAL_Driver/Src/stm32f3xx_hal_dma.c ****  *  @brief   Initialization and de-initialization functions 
 146:Drivers/STM32F3xx_HAL_Driver/Src/stm32f3xx_hal_dma.c ****  *
 147:Drivers/STM32F3xx_HAL_Driver/Src/stm32f3xx_hal_dma.c **** @verbatim   
 148:Drivers/STM32F3xx_HAL_Driver/Src/stm32f3xx_hal_dma.c ****  ===============================================================================
 149:Drivers/STM32F3xx_HAL_Driver/Src/stm32f3xx_hal_dma.c ****              ##### Initialization and de-initialization functions  #####
 150:Drivers/STM32F3xx_HAL_Driver/Src/stm32f3xx_hal_dma.c ****  ===============================================================================  
 151:Drivers/STM32F3xx_HAL_Driver/Src/stm32f3xx_hal_dma.c ****     [..]
 152:Drivers/STM32F3xx_HAL_Driver/Src/stm32f3xx_hal_dma.c ****     This section provides functions allowing to initialize the DMA Channel source
 153:Drivers/STM32F3xx_HAL_Driver/Src/stm32f3xx_hal_dma.c ****     and destination addresses, incrementation and data sizes, transfer direction, 
 154:Drivers/STM32F3xx_HAL_Driver/Src/stm32f3xx_hal_dma.c ****     circular/normal mode selection, memory-to-memory mode selection and Channel priority value.
 155:Drivers/STM32F3xx_HAL_Driver/Src/stm32f3xx_hal_dma.c ****     [..]
 156:Drivers/STM32F3xx_HAL_Driver/Src/stm32f3xx_hal_dma.c ****     The HAL_DMA_Init() function follows the DMA configuration procedures as described in
 157:Drivers/STM32F3xx_HAL_Driver/Src/stm32f3xx_hal_dma.c ****     reference manual.  
 158:Drivers/STM32F3xx_HAL_Driver/Src/stm32f3xx_hal_dma.c **** 
 159:Drivers/STM32F3xx_HAL_Driver/Src/stm32f3xx_hal_dma.c **** @endverbatim
 160:Drivers/STM32F3xx_HAL_Driver/Src/stm32f3xx_hal_dma.c ****   * @{
 161:Drivers/STM32F3xx_HAL_Driver/Src/stm32f3xx_hal_dma.c ****   */
 162:Drivers/STM32F3xx_HAL_Driver/Src/stm32f3xx_hal_dma.c ****   
 163:Drivers/STM32F3xx_HAL_Driver/Src/stm32f3xx_hal_dma.c **** /**
 164:Drivers/STM32F3xx_HAL_Driver/Src/stm32f3xx_hal_dma.c ****   * @brief  Initializes the DMA according to the specified
 165:Drivers/STM32F3xx_HAL_Driver/Src/stm32f3xx_hal_dma.c ****   *         parameters in the DMA_InitTypeDef and create the associated handle.
 166:Drivers/STM32F3xx_HAL_Driver/Src/stm32f3xx_hal_dma.c ****   * @param  hdma: Pointer to a DMA_HandleTypeDef structure that contains
 167:Drivers/STM32F3xx_HAL_Driver/Src/stm32f3xx_hal_dma.c ****   *               the configuration information for the specified DMA Channel.  
 168:Drivers/STM32F3xx_HAL_Driver/Src/stm32f3xx_hal_dma.c ****   * @retval HAL status
 169:Drivers/STM32F3xx_HAL_Driver/Src/stm32f3xx_hal_dma.c ****   */
 170:Drivers/STM32F3xx_HAL_Driver/Src/stm32f3xx_hal_dma.c **** HAL_StatusTypeDef HAL_DMA_Init(DMA_HandleTypeDef *hdma)
 171:Drivers/STM32F3xx_HAL_Driver/Src/stm32f3xx_hal_dma.c **** { 
  29              		.loc 1 171 0
  30              		.cfi_startproc
  31              		@ args = 0, pretend = 0, frame = 16
  32              		@ frame_needed = 1, uses_anonymous_args = 0
  33              		@ link register save eliminated.
  34 0000 80B4     		push	{r7}
  35              	.LCFI0:
  36              		.cfi_def_cfa_offset 4
  37              		.cfi_offset 7, -4
  38 0002 85B0     		sub	sp, sp, #20
  39              	.LCFI1:
  40              		.cfi_def_cfa_offset 24
  41 0004 00AF     		add	r7, sp, #0
  42              	.LCFI2:
  43              		.cfi_def_cfa_register 7
  44 0006 7860     		str	r0, [r7, #4]
 172:Drivers/STM32F3xx_HAL_Driver/Src/stm32f3xx_hal_dma.c ****   uint32_t tmp = 0;
  45              		.loc 1 172 0
  46 0008 0023     		movs	r3, #0
  47 000a FB60     		str	r3, [r7, #12]
 173:Drivers/STM32F3xx_HAL_Driver/Src/stm32f3xx_hal_dma.c ****   
 174:Drivers/STM32F3xx_HAL_Driver/Src/stm32f3xx_hal_dma.c ****   /* Check the DMA handle allocation */
 175:Drivers/STM32F3xx_HAL_Driver/Src/stm32f3xx_hal_dma.c ****   if(hdma == NULL)
  48              		.loc 1 175 0
  49 000c 7B68     		ldr	r3, [r7, #4]
  50 000e 002B     		cmp	r3, #0
  51 0010 01D1     		bne	.L2
 176:Drivers/STM32F3xx_HAL_Driver/Src/stm32f3xx_hal_dma.c ****   {
 177:Drivers/STM32F3xx_HAL_Driver/Src/stm32f3xx_hal_dma.c ****     return HAL_ERROR;
  52              		.loc 1 177 0
ARM GAS  /tmp/ccWSeizr.s 			page 5


  53 0012 0123     		movs	r3, #1
  54 0014 39E0     		b	.L3
  55              	.L2:
 178:Drivers/STM32F3xx_HAL_Driver/Src/stm32f3xx_hal_dma.c ****   }
 179:Drivers/STM32F3xx_HAL_Driver/Src/stm32f3xx_hal_dma.c ****   
 180:Drivers/STM32F3xx_HAL_Driver/Src/stm32f3xx_hal_dma.c ****   /* Check the parameters */
 181:Drivers/STM32F3xx_HAL_Driver/Src/stm32f3xx_hal_dma.c ****   assert_param(IS_DMA_ALL_INSTANCE(hdma->Instance));
 182:Drivers/STM32F3xx_HAL_Driver/Src/stm32f3xx_hal_dma.c ****   assert_param(IS_DMA_DIRECTION(hdma->Init.Direction));
 183:Drivers/STM32F3xx_HAL_Driver/Src/stm32f3xx_hal_dma.c ****   assert_param(IS_DMA_PERIPHERAL_INC_STATE(hdma->Init.PeriphInc));
 184:Drivers/STM32F3xx_HAL_Driver/Src/stm32f3xx_hal_dma.c ****   assert_param(IS_DMA_MEMORY_INC_STATE(hdma->Init.MemInc));
 185:Drivers/STM32F3xx_HAL_Driver/Src/stm32f3xx_hal_dma.c ****   assert_param(IS_DMA_PERIPHERAL_DATA_SIZE(hdma->Init.PeriphDataAlignment));
 186:Drivers/STM32F3xx_HAL_Driver/Src/stm32f3xx_hal_dma.c ****   assert_param(IS_DMA_MEMORY_DATA_SIZE(hdma->Init.MemDataAlignment));
 187:Drivers/STM32F3xx_HAL_Driver/Src/stm32f3xx_hal_dma.c ****   assert_param(IS_DMA_MODE(hdma->Init.Mode));
 188:Drivers/STM32F3xx_HAL_Driver/Src/stm32f3xx_hal_dma.c ****   assert_param(IS_DMA_PRIORITY(hdma->Init.Priority));
 189:Drivers/STM32F3xx_HAL_Driver/Src/stm32f3xx_hal_dma.c ****   
 190:Drivers/STM32F3xx_HAL_Driver/Src/stm32f3xx_hal_dma.c ****   if(hdma->State == HAL_DMA_STATE_RESET)
  56              		.loc 1 190 0
  57 0016 7B68     		ldr	r3, [r7, #4]
  58 0018 93F82130 		ldrb	r3, [r3, #33]	@ zero_extendqisi2
  59 001c 002B     		cmp	r3, #0
  60 001e 03D1     		bne	.L4
 191:Drivers/STM32F3xx_HAL_Driver/Src/stm32f3xx_hal_dma.c ****   {  
 192:Drivers/STM32F3xx_HAL_Driver/Src/stm32f3xx_hal_dma.c ****     /* Allocate lock resource and initialize it */
 193:Drivers/STM32F3xx_HAL_Driver/Src/stm32f3xx_hal_dma.c ****     hdma->Lock = HAL_UNLOCKED;
  61              		.loc 1 193 0
  62 0020 7B68     		ldr	r3, [r7, #4]
  63 0022 0022     		movs	r2, #0
  64 0024 83F82020 		strb	r2, [r3, #32]
  65              	.L4:
 194:Drivers/STM32F3xx_HAL_Driver/Src/stm32f3xx_hal_dma.c ****   }
 195:Drivers/STM32F3xx_HAL_Driver/Src/stm32f3xx_hal_dma.c ****   
 196:Drivers/STM32F3xx_HAL_Driver/Src/stm32f3xx_hal_dma.c ****   /* Change DMA peripheral state */
 197:Drivers/STM32F3xx_HAL_Driver/Src/stm32f3xx_hal_dma.c ****   hdma->State = HAL_DMA_STATE_BUSY;
  66              		.loc 1 197 0
  67 0028 7B68     		ldr	r3, [r7, #4]
  68 002a 0222     		movs	r2, #2
  69 002c 83F82120 		strb	r2, [r3, #33]
 198:Drivers/STM32F3xx_HAL_Driver/Src/stm32f3xx_hal_dma.c **** 
 199:Drivers/STM32F3xx_HAL_Driver/Src/stm32f3xx_hal_dma.c ****   /* Get the CR register value */
 200:Drivers/STM32F3xx_HAL_Driver/Src/stm32f3xx_hal_dma.c ****   tmp = hdma->Instance->CCR;
  70              		.loc 1 200 0
  71 0030 7B68     		ldr	r3, [r7, #4]
  72 0032 1B68     		ldr	r3, [r3]
  73 0034 1B68     		ldr	r3, [r3]
  74 0036 FB60     		str	r3, [r7, #12]
 201:Drivers/STM32F3xx_HAL_Driver/Src/stm32f3xx_hal_dma.c ****   
 202:Drivers/STM32F3xx_HAL_Driver/Src/stm32f3xx_hal_dma.c ****   /* Clear PL, MSIZE, PSIZE, MINC, PINC, CIRC, DIR bits */
 203:Drivers/STM32F3xx_HAL_Driver/Src/stm32f3xx_hal_dma.c ****   tmp &= ((uint32_t)~(DMA_CCR_PL    | DMA_CCR_MSIZE  | DMA_CCR_PSIZE  | \
  75              		.loc 1 203 0
  76 0038 FB68     		ldr	r3, [r7, #12]
  77 003a 23F47F53 		bic	r3, r3, #16320
  78 003e 23F03003 		bic	r3, r3, #48
  79 0042 FB60     		str	r3, [r7, #12]
 204:Drivers/STM32F3xx_HAL_Driver/Src/stm32f3xx_hal_dma.c ****                       DMA_CCR_MINC  | DMA_CCR_PINC   | DMA_CCR_CIRC   | \
 205:Drivers/STM32F3xx_HAL_Driver/Src/stm32f3xx_hal_dma.c ****                       DMA_CCR_DIR));
 206:Drivers/STM32F3xx_HAL_Driver/Src/stm32f3xx_hal_dma.c ****   
 207:Drivers/STM32F3xx_HAL_Driver/Src/stm32f3xx_hal_dma.c ****   /* Prepare the DMA Channel configuration */
ARM GAS  /tmp/ccWSeizr.s 			page 6


 208:Drivers/STM32F3xx_HAL_Driver/Src/stm32f3xx_hal_dma.c ****   tmp |=  hdma->Init.Direction        |
  80              		.loc 1 208 0
  81 0044 7B68     		ldr	r3, [r7, #4]
  82 0046 5A68     		ldr	r2, [r3, #4]
 209:Drivers/STM32F3xx_HAL_Driver/Src/stm32f3xx_hal_dma.c ****           hdma->Init.PeriphInc           | hdma->Init.MemInc           |
  83              		.loc 1 209 0
  84 0048 7B68     		ldr	r3, [r7, #4]
  85 004a 9B68     		ldr	r3, [r3, #8]
 208:Drivers/STM32F3xx_HAL_Driver/Src/stm32f3xx_hal_dma.c ****           hdma->Init.PeriphInc           | hdma->Init.MemInc           |
  86              		.loc 1 208 0
  87 004c 1A43     		orrs	r2, r2, r3
  88              		.loc 1 209 0
  89 004e 7B68     		ldr	r3, [r7, #4]
  90 0050 DB68     		ldr	r3, [r3, #12]
  91 0052 1A43     		orrs	r2, r2, r3
 210:Drivers/STM32F3xx_HAL_Driver/Src/stm32f3xx_hal_dma.c ****           hdma->Init.PeriphDataAlignment | hdma->Init.MemDataAlignment |
  92              		.loc 1 210 0
  93 0054 7B68     		ldr	r3, [r7, #4]
  94 0056 1B69     		ldr	r3, [r3, #16]
 209:Drivers/STM32F3xx_HAL_Driver/Src/stm32f3xx_hal_dma.c ****           hdma->Init.PeriphInc           | hdma->Init.MemInc           |
  95              		.loc 1 209 0
  96 0058 1A43     		orrs	r2, r2, r3
  97              		.loc 1 210 0
  98 005a 7B68     		ldr	r3, [r7, #4]
  99 005c 5B69     		ldr	r3, [r3, #20]
 100 005e 1A43     		orrs	r2, r2, r3
 211:Drivers/STM32F3xx_HAL_Driver/Src/stm32f3xx_hal_dma.c ****           hdma->Init.Mode                | hdma->Init.Priority;
 101              		.loc 1 211 0
 102 0060 7B68     		ldr	r3, [r7, #4]
 103 0062 9B69     		ldr	r3, [r3, #24]
 210:Drivers/STM32F3xx_HAL_Driver/Src/stm32f3xx_hal_dma.c ****           hdma->Init.PeriphDataAlignment | hdma->Init.MemDataAlignment |
 104              		.loc 1 210 0
 105 0064 1A43     		orrs	r2, r2, r3
 106              		.loc 1 211 0
 107 0066 7B68     		ldr	r3, [r7, #4]
 108 0068 DB69     		ldr	r3, [r3, #28]
 109 006a 1343     		orrs	r3, r3, r2
 208:Drivers/STM32F3xx_HAL_Driver/Src/stm32f3xx_hal_dma.c ****           hdma->Init.PeriphInc           | hdma->Init.MemInc           |
 110              		.loc 1 208 0
 111 006c FA68     		ldr	r2, [r7, #12]
 112 006e 1343     		orrs	r3, r3, r2
 113 0070 FB60     		str	r3, [r7, #12]
 212:Drivers/STM32F3xx_HAL_Driver/Src/stm32f3xx_hal_dma.c **** 
 213:Drivers/STM32F3xx_HAL_Driver/Src/stm32f3xx_hal_dma.c ****   /* Write to DMA Channel CR register */
 214:Drivers/STM32F3xx_HAL_Driver/Src/stm32f3xx_hal_dma.c ****   hdma->Instance->CCR = tmp;  
 114              		.loc 1 214 0
 115 0072 7B68     		ldr	r3, [r7, #4]
 116 0074 1B68     		ldr	r3, [r3]
 117 0076 FA68     		ldr	r2, [r7, #12]
 118 0078 1A60     		str	r2, [r3]
 215:Drivers/STM32F3xx_HAL_Driver/Src/stm32f3xx_hal_dma.c ****   
 216:Drivers/STM32F3xx_HAL_Driver/Src/stm32f3xx_hal_dma.c ****   /* Initialise the error code */
 217:Drivers/STM32F3xx_HAL_Driver/Src/stm32f3xx_hal_dma.c ****   hdma->ErrorCode = HAL_DMA_ERROR_NONE;
 119              		.loc 1 217 0
 120 007a 7B68     		ldr	r3, [r7, #4]
 121 007c 0022     		movs	r2, #0
 122 007e 9A63     		str	r2, [r3, #56]
ARM GAS  /tmp/ccWSeizr.s 			page 7


 218:Drivers/STM32F3xx_HAL_Driver/Src/stm32f3xx_hal_dma.c **** 
 219:Drivers/STM32F3xx_HAL_Driver/Src/stm32f3xx_hal_dma.c ****   /* Initialize the DMA state*/
 220:Drivers/STM32F3xx_HAL_Driver/Src/stm32f3xx_hal_dma.c ****   hdma->State  = HAL_DMA_STATE_READY;
 123              		.loc 1 220 0
 124 0080 7B68     		ldr	r3, [r7, #4]
 125 0082 0122     		movs	r2, #1
 126 0084 83F82120 		strb	r2, [r3, #33]
 221:Drivers/STM32F3xx_HAL_Driver/Src/stm32f3xx_hal_dma.c ****   
 222:Drivers/STM32F3xx_HAL_Driver/Src/stm32f3xx_hal_dma.c ****   return HAL_OK;
 127              		.loc 1 222 0
 128 0088 0023     		movs	r3, #0
 129              	.L3:
 223:Drivers/STM32F3xx_HAL_Driver/Src/stm32f3xx_hal_dma.c **** }  
 130              		.loc 1 223 0
 131 008a 1846     		mov	r0, r3
 132 008c 1437     		adds	r7, r7, #20
 133 008e BD46     		mov	sp, r7
 134              		@ sp needed
 135 0090 5DF8047B 		ldr	r7, [sp], #4
 136 0094 7047     		bx	lr
 137              		.cfi_endproc
 138              	.LFE125:
 140 0096 00BF     		.section	.text.HAL_DMA_DeInit,"ax",%progbits
 141              		.align	2
 142              		.global	HAL_DMA_DeInit
 143              		.thumb
 144              		.thumb_func
 146              	HAL_DMA_DeInit:
 147              	.LFB126:
 224:Drivers/STM32F3xx_HAL_Driver/Src/stm32f3xx_hal_dma.c ****   
 225:Drivers/STM32F3xx_HAL_Driver/Src/stm32f3xx_hal_dma.c **** /**
 226:Drivers/STM32F3xx_HAL_Driver/Src/stm32f3xx_hal_dma.c ****   * @brief  DeInitializes the DMA peripheral 
 227:Drivers/STM32F3xx_HAL_Driver/Src/stm32f3xx_hal_dma.c ****   * @param  hdma: pointer to a DMA_HandleTypeDef structure that contains
 228:Drivers/STM32F3xx_HAL_Driver/Src/stm32f3xx_hal_dma.c ****   *               the configuration information for the specified DMA Channel.  
 229:Drivers/STM32F3xx_HAL_Driver/Src/stm32f3xx_hal_dma.c ****   * @retval HAL status
 230:Drivers/STM32F3xx_HAL_Driver/Src/stm32f3xx_hal_dma.c ****   */
 231:Drivers/STM32F3xx_HAL_Driver/Src/stm32f3xx_hal_dma.c **** HAL_StatusTypeDef HAL_DMA_DeInit(DMA_HandleTypeDef *hdma)
 232:Drivers/STM32F3xx_HAL_Driver/Src/stm32f3xx_hal_dma.c **** {
 148              		.loc 1 232 0
 149              		.cfi_startproc
 150              		@ args = 0, pretend = 0, frame = 8
 151              		@ frame_needed = 1, uses_anonymous_args = 0
 152              		@ link register save eliminated.
 153 0000 80B4     		push	{r7}
 154              	.LCFI3:
 155              		.cfi_def_cfa_offset 4
 156              		.cfi_offset 7, -4
 157 0002 83B0     		sub	sp, sp, #12
 158              	.LCFI4:
 159              		.cfi_def_cfa_offset 16
 160 0004 00AF     		add	r7, sp, #0
 161              	.LCFI5:
 162              		.cfi_def_cfa_register 7
 163 0006 7860     		str	r0, [r7, #4]
 233:Drivers/STM32F3xx_HAL_Driver/Src/stm32f3xx_hal_dma.c ****   /* Check the DMA handle allocation */
 234:Drivers/STM32F3xx_HAL_Driver/Src/stm32f3xx_hal_dma.c ****   if(hdma == NULL)
 164              		.loc 1 234 0
ARM GAS  /tmp/ccWSeizr.s 			page 8


 165 0008 7B68     		ldr	r3, [r7, #4]
 166 000a 002B     		cmp	r3, #0
 167 000c 01D1     		bne	.L6
 235:Drivers/STM32F3xx_HAL_Driver/Src/stm32f3xx_hal_dma.c ****   {
 236:Drivers/STM32F3xx_HAL_Driver/Src/stm32f3xx_hal_dma.c ****     return HAL_ERROR;
 168              		.loc 1 236 0
 169 000e 0123     		movs	r3, #1
 170 0010 C0E2     		b	.L7
 171              	.L6:
 237:Drivers/STM32F3xx_HAL_Driver/Src/stm32f3xx_hal_dma.c ****   }
 238:Drivers/STM32F3xx_HAL_Driver/Src/stm32f3xx_hal_dma.c **** 
 239:Drivers/STM32F3xx_HAL_Driver/Src/stm32f3xx_hal_dma.c ****   /* Check the parameters */
 240:Drivers/STM32F3xx_HAL_Driver/Src/stm32f3xx_hal_dma.c ****   assert_param(IS_DMA_ALL_INSTANCE(hdma->Instance));
 241:Drivers/STM32F3xx_HAL_Driver/Src/stm32f3xx_hal_dma.c **** 
 242:Drivers/STM32F3xx_HAL_Driver/Src/stm32f3xx_hal_dma.c ****   /* Disable the selected DMA Channelx */
 243:Drivers/STM32F3xx_HAL_Driver/Src/stm32f3xx_hal_dma.c ****   __HAL_DMA_DISABLE(hdma);
 172              		.loc 1 243 0
 173 0012 7B68     		ldr	r3, [r7, #4]
 174 0014 1B68     		ldr	r3, [r3]
 175 0016 7A68     		ldr	r2, [r7, #4]
 176 0018 1268     		ldr	r2, [r2]
 177 001a 1268     		ldr	r2, [r2]
 178 001c 22F00102 		bic	r2, r2, #1
 179 0020 1A60     		str	r2, [r3]
 244:Drivers/STM32F3xx_HAL_Driver/Src/stm32f3xx_hal_dma.c **** 
 245:Drivers/STM32F3xx_HAL_Driver/Src/stm32f3xx_hal_dma.c ****   /* Reset DMA Channel control register */
 246:Drivers/STM32F3xx_HAL_Driver/Src/stm32f3xx_hal_dma.c ****   hdma->Instance->CCR  = 0;
 180              		.loc 1 246 0
 181 0022 7B68     		ldr	r3, [r7, #4]
 182 0024 1B68     		ldr	r3, [r3]
 183 0026 0022     		movs	r2, #0
 184 0028 1A60     		str	r2, [r3]
 247:Drivers/STM32F3xx_HAL_Driver/Src/stm32f3xx_hal_dma.c **** 
 248:Drivers/STM32F3xx_HAL_Driver/Src/stm32f3xx_hal_dma.c ****   /* Reset DMA Channel Number of Data to Transfer register */
 249:Drivers/STM32F3xx_HAL_Driver/Src/stm32f3xx_hal_dma.c ****   hdma->Instance->CNDTR = 0;
 185              		.loc 1 249 0
 186 002a 7B68     		ldr	r3, [r7, #4]
 187 002c 1B68     		ldr	r3, [r3]
 188 002e 0022     		movs	r2, #0
 189 0030 5A60     		str	r2, [r3, #4]
 250:Drivers/STM32F3xx_HAL_Driver/Src/stm32f3xx_hal_dma.c **** 
 251:Drivers/STM32F3xx_HAL_Driver/Src/stm32f3xx_hal_dma.c ****   /* Reset DMA Channel peripheral address register */
 252:Drivers/STM32F3xx_HAL_Driver/Src/stm32f3xx_hal_dma.c ****   hdma->Instance->CPAR  = 0;
 190              		.loc 1 252 0
 191 0032 7B68     		ldr	r3, [r7, #4]
 192 0034 1B68     		ldr	r3, [r3]
 193 0036 0022     		movs	r2, #0
 194 0038 9A60     		str	r2, [r3, #8]
 253:Drivers/STM32F3xx_HAL_Driver/Src/stm32f3xx_hal_dma.c **** 
 254:Drivers/STM32F3xx_HAL_Driver/Src/stm32f3xx_hal_dma.c ****   /* Reset DMA Channel memory address register */
 255:Drivers/STM32F3xx_HAL_Driver/Src/stm32f3xx_hal_dma.c ****   hdma->Instance->CMAR = 0;
 195              		.loc 1 255 0
 196 003a 7B68     		ldr	r3, [r7, #4]
 197 003c 1B68     		ldr	r3, [r3]
 198 003e 0022     		movs	r2, #0
 199 0040 DA60     		str	r2, [r3, #12]
 256:Drivers/STM32F3xx_HAL_Driver/Src/stm32f3xx_hal_dma.c **** 
ARM GAS  /tmp/ccWSeizr.s 			page 9


 257:Drivers/STM32F3xx_HAL_Driver/Src/stm32f3xx_hal_dma.c ****   /* Clear all flags */
 258:Drivers/STM32F3xx_HAL_Driver/Src/stm32f3xx_hal_dma.c ****   __HAL_DMA_CLEAR_FLAG(hdma, __HAL_DMA_GET_TC_FLAG_INDEX(hdma));
 200              		.loc 1 258 0
 201 0042 7B68     		ldr	r3, [r7, #4]
 202 0044 1B68     		ldr	r3, [r3]
 203 0046 1A46     		mov	r2, r3
 204 0048 944B     		ldr	r3, .L146
 205 004a 9A42     		cmp	r2, r3
 206 004c 63D9     		bls	.L8
 207              		.loc 1 258 0 is_stmt 0 discriminator 1
 208 004e 944A     		ldr	r2, .L146+4
 209 0050 7B68     		ldr	r3, [r7, #4]
 210 0052 1B68     		ldr	r3, [r3]
 211 0054 1946     		mov	r1, r3
 212 0056 934B     		ldr	r3, .L146+8
 213 0058 9942     		cmp	r1, r3
 214 005a 59D0     		beq	.L9
 215 005c 7B68     		ldr	r3, [r7, #4]
 216 005e 1B68     		ldr	r3, [r3]
 217 0060 1946     		mov	r1, r3
 218 0062 914B     		ldr	r3, .L146+12
 219 0064 9942     		cmp	r1, r3
 220 0066 51D0     		beq	.L10
 221 0068 7B68     		ldr	r3, [r7, #4]
 222 006a 1B68     		ldr	r3, [r3]
 223 006c 1946     		mov	r1, r3
 224 006e 8F4B     		ldr	r3, .L146+16
 225 0070 9942     		cmp	r1, r3
 226 0072 48D0     		beq	.L11
 227 0074 7B68     		ldr	r3, [r7, #4]
 228 0076 1B68     		ldr	r3, [r3]
 229 0078 1946     		mov	r1, r3
 230 007a 8D4B     		ldr	r3, .L146+20
 231 007c 9942     		cmp	r1, r3
 232 007e 3FD0     		beq	.L12
 233 0080 7B68     		ldr	r3, [r7, #4]
 234 0082 1B68     		ldr	r3, [r3]
 235 0084 1946     		mov	r1, r3
 236 0086 8B4B     		ldr	r3, .L146+24
 237 0088 9942     		cmp	r1, r3
 238 008a 36D0     		beq	.L13
 239 008c 7B68     		ldr	r3, [r7, #4]
 240 008e 1B68     		ldr	r3, [r3]
 241 0090 1946     		mov	r1, r3
 242 0092 894B     		ldr	r3, .L146+28
 243 0094 9942     		cmp	r1, r3
 244 0096 2DD0     		beq	.L14
 245 0098 7B68     		ldr	r3, [r7, #4]
 246 009a 1B68     		ldr	r3, [r3]
 247 009c 1946     		mov	r1, r3
 248 009e 7F4B     		ldr	r3, .L146
 249 00a0 9942     		cmp	r1, r3
 250 00a2 24D0     		beq	.L15
 251 00a4 7B68     		ldr	r3, [r7, #4]
 252 00a6 1B68     		ldr	r3, [r3]
 253 00a8 1946     		mov	r1, r3
 254 00aa 844B     		ldr	r3, .L146+32
ARM GAS  /tmp/ccWSeizr.s 			page 10


 255 00ac 9942     		cmp	r1, r3
 256 00ae 1CD0     		beq	.L16
 257 00b0 7B68     		ldr	r3, [r7, #4]
 258 00b2 1B68     		ldr	r3, [r3]
 259 00b4 1946     		mov	r1, r3
 260 00b6 824B     		ldr	r3, .L146+36
 261 00b8 9942     		cmp	r1, r3
 262 00ba 14D0     		beq	.L17
 263 00bc 7B68     		ldr	r3, [r7, #4]
 264 00be 1B68     		ldr	r3, [r3]
 265 00c0 1946     		mov	r1, r3
 266 00c2 804B     		ldr	r3, .L146+40
 267 00c4 9942     		cmp	r1, r3
 268 00c6 0BD0     		beq	.L18
 269 00c8 7B68     		ldr	r3, [r7, #4]
 270 00ca 1B68     		ldr	r3, [r3]
 271 00cc 1946     		mov	r1, r3
 272 00ce 7E4B     		ldr	r3, .L146+44
 273 00d0 9942     		cmp	r1, r3
 274 00d2 02D1     		bne	.L19
 275 00d4 4FF40053 		mov	r3, #8192
 276 00d8 1BE0     		b	.L30
 277              	.L19:
 278              		.loc 1 258 0 discriminator 2
 279 00da 4FF40033 		mov	r3, #131072
 280 00de 18E0     		b	.L30
 281              	.L18:
 282 00e0 4FF40073 		mov	r3, #512
 283 00e4 15E0     		b	.L30
 284              	.L17:
 285 00e6 2023     		movs	r3, #32
 286 00e8 13E0     		b	.L30
 287              	.L16:
 288 00ea 0223     		movs	r3, #2
 289 00ec 11E0     		b	.L30
 290              	.L15:
 291 00ee 4FF00073 		mov	r3, #33554432
 292 00f2 0EE0     		b	.L30
 293              	.L14:
 294 00f4 4FF40013 		mov	r3, #2097152
 295 00f8 0BE0     		b	.L30
 296              	.L13:
 297 00fa 4FF40033 		mov	r3, #131072
 298 00fe 08E0     		b	.L30
 299              	.L12:
 300 0100 4FF40053 		mov	r3, #8192
 301 0104 05E0     		b	.L30
 302              	.L11:
 303 0106 4FF40073 		mov	r3, #512
 304 010a 02E0     		b	.L30
 305              	.L10:
 306 010c 2023     		movs	r3, #32
 307 010e 00E0     		b	.L30
 308              	.L9:
 309 0110 0223     		movs	r3, #2
 310              	.L30:
 311              		.loc 1 258 0 discriminator 11
ARM GAS  /tmp/ccWSeizr.s 			page 11


 312 0112 5360     		str	r3, [r2, #4]
 313 0114 62E0     		b	.L31
 314              	.L8:
 315              		.loc 1 258 0 discriminator 2
 316 0116 6D4A     		ldr	r2, .L146+48
 317 0118 7B68     		ldr	r3, [r7, #4]
 318 011a 1B68     		ldr	r3, [r3]
 319 011c 1946     		mov	r1, r3
 320 011e 614B     		ldr	r3, .L146+8
 321 0120 9942     		cmp	r1, r3
 322 0122 59D0     		beq	.L32
 323              		.loc 1 258 0 discriminator 1
 324 0124 7B68     		ldr	r3, [r7, #4]
 325 0126 1B68     		ldr	r3, [r3]
 326 0128 1946     		mov	r1, r3
 327 012a 5F4B     		ldr	r3, .L146+12
 328 012c 9942     		cmp	r1, r3
 329 012e 51D0     		beq	.L33
 330 0130 7B68     		ldr	r3, [r7, #4]
 331 0132 1B68     		ldr	r3, [r3]
 332 0134 1946     		mov	r1, r3
 333 0136 5D4B     		ldr	r3, .L146+16
 334 0138 9942     		cmp	r1, r3
 335 013a 48D0     		beq	.L34
 336 013c 7B68     		ldr	r3, [r7, #4]
 337 013e 1B68     		ldr	r3, [r3]
 338 0140 1946     		mov	r1, r3
 339 0142 5B4B     		ldr	r3, .L146+20
 340 0144 9942     		cmp	r1, r3
 341 0146 3FD0     		beq	.L35
 342 0148 7B68     		ldr	r3, [r7, #4]
 343 014a 1B68     		ldr	r3, [r3]
 344 014c 1946     		mov	r1, r3
 345 014e 594B     		ldr	r3, .L146+24
 346 0150 9942     		cmp	r1, r3
 347 0152 36D0     		beq	.L36
 348 0154 7B68     		ldr	r3, [r7, #4]
 349 0156 1B68     		ldr	r3, [r3]
 350 0158 1946     		mov	r1, r3
 351 015a 574B     		ldr	r3, .L146+28
 352 015c 9942     		cmp	r1, r3
 353 015e 2DD0     		beq	.L37
 354 0160 7B68     		ldr	r3, [r7, #4]
 355 0162 1B68     		ldr	r3, [r3]
 356 0164 1946     		mov	r1, r3
 357 0166 4D4B     		ldr	r3, .L146
 358 0168 9942     		cmp	r1, r3
 359 016a 24D0     		beq	.L38
 360 016c 7B68     		ldr	r3, [r7, #4]
 361 016e 1B68     		ldr	r3, [r3]
 362 0170 1946     		mov	r1, r3
 363 0172 524B     		ldr	r3, .L146+32
 364 0174 9942     		cmp	r1, r3
 365 0176 1CD0     		beq	.L39
 366 0178 7B68     		ldr	r3, [r7, #4]
 367 017a 1B68     		ldr	r3, [r3]
 368 017c 1946     		mov	r1, r3
ARM GAS  /tmp/ccWSeizr.s 			page 12


 369 017e 504B     		ldr	r3, .L146+36
 370 0180 9942     		cmp	r1, r3
 371 0182 14D0     		beq	.L40
 372 0184 7B68     		ldr	r3, [r7, #4]
 373 0186 1B68     		ldr	r3, [r3]
 374 0188 1946     		mov	r1, r3
 375 018a 4E4B     		ldr	r3, .L146+40
 376 018c 9942     		cmp	r1, r3
 377 018e 0BD0     		beq	.L41
 378 0190 7B68     		ldr	r3, [r7, #4]
 379 0192 1B68     		ldr	r3, [r3]
 380 0194 1946     		mov	r1, r3
 381 0196 4C4B     		ldr	r3, .L146+44
 382 0198 9942     		cmp	r1, r3
 383 019a 02D1     		bne	.L42
 384 019c 4FF40053 		mov	r3, #8192
 385 01a0 1BE0     		b	.L53
 386              	.L42:
 387              		.loc 1 258 0 discriminator 2
 388 01a2 4FF40033 		mov	r3, #131072
 389 01a6 18E0     		b	.L53
 390              	.L41:
 391 01a8 4FF40073 		mov	r3, #512
 392 01ac 15E0     		b	.L53
 393              	.L40:
 394 01ae 2023     		movs	r3, #32
 395 01b0 13E0     		b	.L53
 396              	.L39:
 397 01b2 0223     		movs	r3, #2
 398 01b4 11E0     		b	.L53
 399              	.L38:
 400 01b6 4FF00073 		mov	r3, #33554432
 401 01ba 0EE0     		b	.L53
 402              	.L37:
 403 01bc 4FF40013 		mov	r3, #2097152
 404 01c0 0BE0     		b	.L53
 405              	.L36:
 406 01c2 4FF40033 		mov	r3, #131072
 407 01c6 08E0     		b	.L53
 408              	.L35:
 409 01c8 4FF40053 		mov	r3, #8192
 410 01cc 05E0     		b	.L53
 411              	.L34:
 412 01ce 4FF40073 		mov	r3, #512
 413 01d2 02E0     		b	.L53
 414              	.L33:
 415 01d4 2023     		movs	r3, #32
 416 01d6 00E0     		b	.L53
 417              	.L32:
 418 01d8 0223     		movs	r3, #2
 419              	.L53:
 420              		.loc 1 258 0 discriminator 3
 421 01da 5360     		str	r3, [r2, #4]
 422              	.L31:
 259:Drivers/STM32F3xx_HAL_Driver/Src/stm32f3xx_hal_dma.c ****   __HAL_DMA_CLEAR_FLAG(hdma, __HAL_DMA_GET_TE_FLAG_INDEX(hdma));
 423              		.loc 1 259 0 is_stmt 1
 424 01dc 7B68     		ldr	r3, [r7, #4]
ARM GAS  /tmp/ccWSeizr.s 			page 13


 425 01de 1B68     		ldr	r3, [r3]
 426 01e0 1A46     		mov	r2, r3
 427 01e2 2E4B     		ldr	r3, .L146
 428 01e4 9A42     		cmp	r2, r3
 429 01e6 7ED9     		bls	.L54
 430              		.loc 1 259 0 is_stmt 0 discriminator 1
 431 01e8 2D4A     		ldr	r2, .L146+4
 432 01ea 7B68     		ldr	r3, [r7, #4]
 433 01ec 1B68     		ldr	r3, [r3]
 434 01ee 1946     		mov	r1, r3
 435 01f0 2C4B     		ldr	r3, .L146+8
 436 01f2 9942     		cmp	r1, r3
 437 01f4 74D0     		beq	.L55
 438 01f6 7B68     		ldr	r3, [r7, #4]
 439 01f8 1B68     		ldr	r3, [r3]
 440 01fa 1946     		mov	r1, r3
 441 01fc 2A4B     		ldr	r3, .L146+12
 442 01fe 9942     		cmp	r1, r3
 443 0200 6CD0     		beq	.L56
 444 0202 7B68     		ldr	r3, [r7, #4]
 445 0204 1B68     		ldr	r3, [r3]
 446 0206 1946     		mov	r1, r3
 447 0208 284B     		ldr	r3, .L146+16
 448 020a 9942     		cmp	r1, r3
 449 020c 63D0     		beq	.L57
 450 020e 7B68     		ldr	r3, [r7, #4]
 451 0210 1B68     		ldr	r3, [r3]
 452 0212 1946     		mov	r1, r3
 453 0214 264B     		ldr	r3, .L146+20
 454 0216 9942     		cmp	r1, r3
 455 0218 5AD0     		beq	.L58
 456 021a 7B68     		ldr	r3, [r7, #4]
 457 021c 1B68     		ldr	r3, [r3]
 458 021e 1946     		mov	r1, r3
 459 0220 244B     		ldr	r3, .L146+24
 460 0222 9942     		cmp	r1, r3
 461 0224 36D0     		beq	.L59
 462 0226 7B68     		ldr	r3, [r7, #4]
 463 0228 1B68     		ldr	r3, [r3]
 464 022a 1946     		mov	r1, r3
 465 022c 224B     		ldr	r3, .L146+28
 466 022e 9942     		cmp	r1, r3
 467 0230 2DD0     		beq	.L60
 468 0232 7B68     		ldr	r3, [r7, #4]
 469 0234 1B68     		ldr	r3, [r3]
 470 0236 1946     		mov	r1, r3
 471 0238 184B     		ldr	r3, .L146
 472 023a 9942     		cmp	r1, r3
 473 023c 24D0     		beq	.L61
 474 023e 7B68     		ldr	r3, [r7, #4]
 475 0240 1B68     		ldr	r3, [r3]
 476 0242 1946     		mov	r1, r3
 477 0244 1D4B     		ldr	r3, .L146+32
 478 0246 9942     		cmp	r1, r3
 479 0248 1CD0     		beq	.L62
 480 024a 7B68     		ldr	r3, [r7, #4]
 481 024c 1B68     		ldr	r3, [r3]
ARM GAS  /tmp/ccWSeizr.s 			page 14


 482 024e 1946     		mov	r1, r3
 483 0250 1B4B     		ldr	r3, .L146+36
 484 0252 9942     		cmp	r1, r3
 485 0254 14D0     		beq	.L63
 486 0256 7B68     		ldr	r3, [r7, #4]
 487 0258 1B68     		ldr	r3, [r3]
 488 025a 1946     		mov	r1, r3
 489 025c 194B     		ldr	r3, .L146+40
 490 025e 9942     		cmp	r1, r3
 491 0260 0BD0     		beq	.L64
 492 0262 7B68     		ldr	r3, [r7, #4]
 493 0264 1B68     		ldr	r3, [r3]
 494 0266 1946     		mov	r1, r3
 495 0268 174B     		ldr	r3, .L146+44
 496 026a 9942     		cmp	r1, r3
 497 026c 02D1     		bne	.L65
 498 026e 4FF40043 		mov	r3, #32768
 499 0272 36E0     		b	.L76
 500              	.L65:
 501              		.loc 1 259 0 discriminator 2
 502 0274 4FF40023 		mov	r3, #524288
 503 0278 33E0     		b	.L76
 504              	.L64:
 505 027a 4FF40063 		mov	r3, #2048
 506 027e 30E0     		b	.L76
 507              	.L63:
 508 0280 8023     		movs	r3, #128
 509 0282 2EE0     		b	.L76
 510              	.L62:
 511 0284 0823     		movs	r3, #8
 512 0286 2CE0     		b	.L76
 513              	.L61:
 514 0288 4FF00063 		mov	r3, #134217728
 515 028c 29E0     		b	.L76
 516              	.L60:
 517 028e 4FF40003 		mov	r3, #8388608
 518 0292 26E0     		b	.L76
 519              	.L59:
 520 0294 4FF40023 		mov	r3, #524288
 521 0298 23E0     		b	.L76
 522              	.L147:
 523 029a 00BF     		.align	2
 524              	.L146:
 525 029c 80000240 		.word	1073873024
 526 02a0 00040240 		.word	1073873920
 527 02a4 08000240 		.word	1073872904
 528 02a8 1C000240 		.word	1073872924
 529 02ac 30000240 		.word	1073872944
 530 02b0 44000240 		.word	1073872964
 531 02b4 58000240 		.word	1073872984
 532 02b8 6C000240 		.word	1073873004
 533 02bc 08040240 		.word	1073873928
 534 02c0 1C040240 		.word	1073873948
 535 02c4 30040240 		.word	1073873968
 536 02c8 44040240 		.word	1073873988
 537 02cc 00000240 		.word	1073872896
 538              	.L58:
ARM GAS  /tmp/ccWSeizr.s 			page 15


 539 02d0 4FF40043 		mov	r3, #32768
 540 02d4 05E0     		b	.L76
 541              	.L57:
 542 02d6 4FF40063 		mov	r3, #2048
 543 02da 02E0     		b	.L76
 544              	.L56:
 545 02dc 8023     		movs	r3, #128
 546 02de 00E0     		b	.L76
 547              	.L55:
 548 02e0 0823     		movs	r3, #8
 549              	.L76:
 550              		.loc 1 259 0 discriminator 32
 551 02e2 5360     		str	r3, [r2, #4]
 552 02e4 62E0     		b	.L77
 553              	.L54:
 554              		.loc 1 259 0 discriminator 2
 555 02e6 964A     		ldr	r2, .L148
 556 02e8 7B68     		ldr	r3, [r7, #4]
 557 02ea 1B68     		ldr	r3, [r3]
 558 02ec 1946     		mov	r1, r3
 559 02ee 954B     		ldr	r3, .L148+4
 560 02f0 9942     		cmp	r1, r3
 561 02f2 59D0     		beq	.L78
 562              		.loc 1 259 0 discriminator 1
 563 02f4 7B68     		ldr	r3, [r7, #4]
 564 02f6 1B68     		ldr	r3, [r3]
 565 02f8 1946     		mov	r1, r3
 566 02fa 934B     		ldr	r3, .L148+8
 567 02fc 9942     		cmp	r1, r3
 568 02fe 51D0     		beq	.L79
 569 0300 7B68     		ldr	r3, [r7, #4]
 570 0302 1B68     		ldr	r3, [r3]
 571 0304 1946     		mov	r1, r3
 572 0306 914B     		ldr	r3, .L148+12
 573 0308 9942     		cmp	r1, r3
 574 030a 48D0     		beq	.L80
 575 030c 7B68     		ldr	r3, [r7, #4]
 576 030e 1B68     		ldr	r3, [r3]
 577 0310 1946     		mov	r1, r3
 578 0312 8F4B     		ldr	r3, .L148+16
 579 0314 9942     		cmp	r1, r3
 580 0316 3FD0     		beq	.L81
 581 0318 7B68     		ldr	r3, [r7, #4]
 582 031a 1B68     		ldr	r3, [r3]
 583 031c 1946     		mov	r1, r3
 584 031e 8D4B     		ldr	r3, .L148+20
 585 0320 9942     		cmp	r1, r3
 586 0322 36D0     		beq	.L82
 587 0324 7B68     		ldr	r3, [r7, #4]
 588 0326 1B68     		ldr	r3, [r3]
 589 0328 1946     		mov	r1, r3
 590 032a 8B4B     		ldr	r3, .L148+24
 591 032c 9942     		cmp	r1, r3
 592 032e 2DD0     		beq	.L83
 593 0330 7B68     		ldr	r3, [r7, #4]
 594 0332 1B68     		ldr	r3, [r3]
 595 0334 1946     		mov	r1, r3
ARM GAS  /tmp/ccWSeizr.s 			page 16


 596 0336 894B     		ldr	r3, .L148+28
 597 0338 9942     		cmp	r1, r3
 598 033a 24D0     		beq	.L84
 599 033c 7B68     		ldr	r3, [r7, #4]
 600 033e 1B68     		ldr	r3, [r3]
 601 0340 1946     		mov	r1, r3
 602 0342 874B     		ldr	r3, .L148+32
 603 0344 9942     		cmp	r1, r3
 604 0346 1CD0     		beq	.L85
 605 0348 7B68     		ldr	r3, [r7, #4]
 606 034a 1B68     		ldr	r3, [r3]
 607 034c 1946     		mov	r1, r3
 608 034e 854B     		ldr	r3, .L148+36
 609 0350 9942     		cmp	r1, r3
 610 0352 14D0     		beq	.L86
 611 0354 7B68     		ldr	r3, [r7, #4]
 612 0356 1B68     		ldr	r3, [r3]
 613 0358 1946     		mov	r1, r3
 614 035a 834B     		ldr	r3, .L148+40
 615 035c 9942     		cmp	r1, r3
 616 035e 0BD0     		beq	.L87
 617 0360 7B68     		ldr	r3, [r7, #4]
 618 0362 1B68     		ldr	r3, [r3]
 619 0364 1946     		mov	r1, r3
 620 0366 814B     		ldr	r3, .L148+44
 621 0368 9942     		cmp	r1, r3
 622 036a 02D1     		bne	.L88
 623 036c 4FF40043 		mov	r3, #32768
 624 0370 1BE0     		b	.L99
 625              	.L88:
 626              		.loc 1 259 0 discriminator 2
 627 0372 4FF40023 		mov	r3, #524288
 628 0376 18E0     		b	.L99
 629              	.L87:
 630 0378 4FF40063 		mov	r3, #2048
 631 037c 15E0     		b	.L99
 632              	.L86:
 633 037e 8023     		movs	r3, #128
 634 0380 13E0     		b	.L99
 635              	.L85:
 636 0382 0823     		movs	r3, #8
 637 0384 11E0     		b	.L99
 638              	.L84:
 639 0386 4FF00063 		mov	r3, #134217728
 640 038a 0EE0     		b	.L99
 641              	.L83:
 642 038c 4FF40003 		mov	r3, #8388608
 643 0390 0BE0     		b	.L99
 644              	.L82:
 645 0392 4FF40023 		mov	r3, #524288
 646 0396 08E0     		b	.L99
 647              	.L81:
 648 0398 4FF40043 		mov	r3, #32768
 649 039c 05E0     		b	.L99
 650              	.L80:
 651 039e 4FF40063 		mov	r3, #2048
 652 03a2 02E0     		b	.L99
ARM GAS  /tmp/ccWSeizr.s 			page 17


 653              	.L79:
 654 03a4 8023     		movs	r3, #128
 655 03a6 00E0     		b	.L99
 656              	.L78:
 657 03a8 0823     		movs	r3, #8
 658              	.L99:
 659              		.loc 1 259 0 discriminator 3
 660 03aa 5360     		str	r3, [r2, #4]
 661              	.L77:
 260:Drivers/STM32F3xx_HAL_Driver/Src/stm32f3xx_hal_dma.c ****   __HAL_DMA_CLEAR_FLAG(hdma, __HAL_DMA_GET_HT_FLAG_INDEX(hdma));
 662              		.loc 1 260 0 is_stmt 1
 663 03ac 7B68     		ldr	r3, [r7, #4]
 664 03ae 1B68     		ldr	r3, [r3]
 665 03b0 1A46     		mov	r2, r3
 666 03b2 6A4B     		ldr	r3, .L148+28
 667 03b4 9A42     		cmp	r2, r3
 668 03b6 63D9     		bls	.L100
 669              		.loc 1 260 0 is_stmt 0 discriminator 1
 670 03b8 6D4A     		ldr	r2, .L148+48
 671 03ba 7B68     		ldr	r3, [r7, #4]
 672 03bc 1B68     		ldr	r3, [r3]
 673 03be 1946     		mov	r1, r3
 674 03c0 604B     		ldr	r3, .L148+4
 675 03c2 9942     		cmp	r1, r3
 676 03c4 59D0     		beq	.L101
 677 03c6 7B68     		ldr	r3, [r7, #4]
 678 03c8 1B68     		ldr	r3, [r3]
 679 03ca 1946     		mov	r1, r3
 680 03cc 5E4B     		ldr	r3, .L148+8
 681 03ce 9942     		cmp	r1, r3
 682 03d0 51D0     		beq	.L102
 683 03d2 7B68     		ldr	r3, [r7, #4]
 684 03d4 1B68     		ldr	r3, [r3]
 685 03d6 1946     		mov	r1, r3
 686 03d8 5C4B     		ldr	r3, .L148+12
 687 03da 9942     		cmp	r1, r3
 688 03dc 48D0     		beq	.L103
 689 03de 7B68     		ldr	r3, [r7, #4]
 690 03e0 1B68     		ldr	r3, [r3]
 691 03e2 1946     		mov	r1, r3
 692 03e4 5A4B     		ldr	r3, .L148+16
 693 03e6 9942     		cmp	r1, r3
 694 03e8 3FD0     		beq	.L104
 695 03ea 7B68     		ldr	r3, [r7, #4]
 696 03ec 1B68     		ldr	r3, [r3]
 697 03ee 1946     		mov	r1, r3
 698 03f0 584B     		ldr	r3, .L148+20
 699 03f2 9942     		cmp	r1, r3
 700 03f4 36D0     		beq	.L105
 701 03f6 7B68     		ldr	r3, [r7, #4]
 702 03f8 1B68     		ldr	r3, [r3]
 703 03fa 1946     		mov	r1, r3
 704 03fc 564B     		ldr	r3, .L148+24
 705 03fe 9942     		cmp	r1, r3
 706 0400 2DD0     		beq	.L106
 707 0402 7B68     		ldr	r3, [r7, #4]
 708 0404 1B68     		ldr	r3, [r3]
ARM GAS  /tmp/ccWSeizr.s 			page 18


 709 0406 1946     		mov	r1, r3
 710 0408 544B     		ldr	r3, .L148+28
 711 040a 9942     		cmp	r1, r3
 712 040c 24D0     		beq	.L107
 713 040e 7B68     		ldr	r3, [r7, #4]
 714 0410 1B68     		ldr	r3, [r3]
 715 0412 1946     		mov	r1, r3
 716 0414 524B     		ldr	r3, .L148+32
 717 0416 9942     		cmp	r1, r3
 718 0418 1CD0     		beq	.L108
 719 041a 7B68     		ldr	r3, [r7, #4]
 720 041c 1B68     		ldr	r3, [r3]
 721 041e 1946     		mov	r1, r3
 722 0420 504B     		ldr	r3, .L148+36
 723 0422 9942     		cmp	r1, r3
 724 0424 14D0     		beq	.L109
 725 0426 7B68     		ldr	r3, [r7, #4]
 726 0428 1B68     		ldr	r3, [r3]
 727 042a 1946     		mov	r1, r3
 728 042c 4E4B     		ldr	r3, .L148+40
 729 042e 9942     		cmp	r1, r3
 730 0430 0BD0     		beq	.L110
 731 0432 7B68     		ldr	r3, [r7, #4]
 732 0434 1B68     		ldr	r3, [r3]
 733 0436 1946     		mov	r1, r3
 734 0438 4C4B     		ldr	r3, .L148+44
 735 043a 9942     		cmp	r1, r3
 736 043c 02D1     		bne	.L111
 737 043e 4FF48043 		mov	r3, #16384
 738 0442 1BE0     		b	.L122
 739              	.L111:
 740              		.loc 1 260 0 discriminator 2
 741 0444 4FF48023 		mov	r3, #262144
 742 0448 18E0     		b	.L122
 743              	.L110:
 744 044a 4FF48063 		mov	r3, #1024
 745 044e 15E0     		b	.L122
 746              	.L109:
 747 0450 4023     		movs	r3, #64
 748 0452 13E0     		b	.L122
 749              	.L108:
 750 0454 0423     		movs	r3, #4
 751 0456 11E0     		b	.L122
 752              	.L107:
 753 0458 4FF08063 		mov	r3, #67108864
 754 045c 0EE0     		b	.L122
 755              	.L106:
 756 045e 4FF48003 		mov	r3, #4194304
 757 0462 0BE0     		b	.L122
 758              	.L105:
 759 0464 4FF48023 		mov	r3, #262144
 760 0468 08E0     		b	.L122
 761              	.L104:
 762 046a 4FF48043 		mov	r3, #16384
 763 046e 05E0     		b	.L122
 764              	.L103:
 765 0470 4FF48063 		mov	r3, #1024
ARM GAS  /tmp/ccWSeizr.s 			page 19


 766 0474 02E0     		b	.L122
 767              	.L102:
 768 0476 4023     		movs	r3, #64
 769 0478 00E0     		b	.L122
 770              	.L101:
 771 047a 0423     		movs	r3, #4
 772              	.L122:
 773              		.loc 1 260 0 discriminator 53
 774 047c 5360     		str	r3, [r2, #4]
 775 047e 7DE0     		b	.L123
 776              	.L100:
 777              		.loc 1 260 0 discriminator 2
 778 0480 2F4A     		ldr	r2, .L148
 779 0482 7B68     		ldr	r3, [r7, #4]
 780 0484 1B68     		ldr	r3, [r3]
 781 0486 1946     		mov	r1, r3
 782 0488 2E4B     		ldr	r3, .L148+4
 783 048a 9942     		cmp	r1, r3
 784 048c 74D0     		beq	.L124
 785              		.loc 1 260 0 discriminator 1
 786 048e 7B68     		ldr	r3, [r7, #4]
 787 0490 1B68     		ldr	r3, [r3]
 788 0492 1946     		mov	r1, r3
 789 0494 2C4B     		ldr	r3, .L148+8
 790 0496 9942     		cmp	r1, r3
 791 0498 6CD0     		beq	.L125
 792 049a 7B68     		ldr	r3, [r7, #4]
 793 049c 1B68     		ldr	r3, [r3]
 794 049e 1946     		mov	r1, r3
 795 04a0 2A4B     		ldr	r3, .L148+12
 796 04a2 9942     		cmp	r1, r3
 797 04a4 48D0     		beq	.L126
 798 04a6 7B68     		ldr	r3, [r7, #4]
 799 04a8 1B68     		ldr	r3, [r3]
 800 04aa 1946     		mov	r1, r3
 801 04ac 284B     		ldr	r3, .L148+16
 802 04ae 9942     		cmp	r1, r3
 803 04b0 3FD0     		beq	.L127
 804 04b2 7B68     		ldr	r3, [r7, #4]
 805 04b4 1B68     		ldr	r3, [r3]
 806 04b6 1946     		mov	r1, r3
 807 04b8 264B     		ldr	r3, .L148+20
 808 04ba 9942     		cmp	r1, r3
 809 04bc 36D0     		beq	.L128
 810 04be 7B68     		ldr	r3, [r7, #4]
 811 04c0 1B68     		ldr	r3, [r3]
 812 04c2 1946     		mov	r1, r3
 813 04c4 244B     		ldr	r3, .L148+24
 814 04c6 9942     		cmp	r1, r3
 815 04c8 2DD0     		beq	.L129
 816 04ca 7B68     		ldr	r3, [r7, #4]
 817 04cc 1B68     		ldr	r3, [r3]
 818 04ce 1946     		mov	r1, r3
 819 04d0 224B     		ldr	r3, .L148+28
 820 04d2 9942     		cmp	r1, r3
 821 04d4 24D0     		beq	.L130
 822 04d6 7B68     		ldr	r3, [r7, #4]
ARM GAS  /tmp/ccWSeizr.s 			page 20


 823 04d8 1B68     		ldr	r3, [r3]
 824 04da 1946     		mov	r1, r3
 825 04dc 204B     		ldr	r3, .L148+32
 826 04de 9942     		cmp	r1, r3
 827 04e0 1CD0     		beq	.L131
 828 04e2 7B68     		ldr	r3, [r7, #4]
 829 04e4 1B68     		ldr	r3, [r3]
 830 04e6 1946     		mov	r1, r3
 831 04e8 1E4B     		ldr	r3, .L148+36
 832 04ea 9942     		cmp	r1, r3
 833 04ec 14D0     		beq	.L132
 834 04ee 7B68     		ldr	r3, [r7, #4]
 835 04f0 1B68     		ldr	r3, [r3]
 836 04f2 1946     		mov	r1, r3
 837 04f4 1C4B     		ldr	r3, .L148+40
 838 04f6 9942     		cmp	r1, r3
 839 04f8 0BD0     		beq	.L133
 840 04fa 7B68     		ldr	r3, [r7, #4]
 841 04fc 1B68     		ldr	r3, [r3]
 842 04fe 1946     		mov	r1, r3
 843 0500 1A4B     		ldr	r3, .L148+44
 844 0502 9942     		cmp	r1, r3
 845 0504 02D1     		bne	.L134
 846 0506 4FF48043 		mov	r3, #16384
 847 050a 36E0     		b	.L145
 848              	.L134:
 849              		.loc 1 260 0 discriminator 2
 850 050c 4FF48023 		mov	r3, #262144
 851 0510 33E0     		b	.L145
 852              	.L133:
 853 0512 4FF48063 		mov	r3, #1024
 854 0516 30E0     		b	.L145
 855              	.L132:
 856 0518 4023     		movs	r3, #64
 857 051a 2EE0     		b	.L145
 858              	.L131:
 859 051c 0423     		movs	r3, #4
 860 051e 2CE0     		b	.L145
 861              	.L130:
 862 0520 4FF08063 		mov	r3, #67108864
 863 0524 29E0     		b	.L145
 864              	.L129:
 865 0526 4FF48003 		mov	r3, #4194304
 866 052a 26E0     		b	.L145
 867              	.L128:
 868 052c 4FF48023 		mov	r3, #262144
 869 0530 23E0     		b	.L145
 870              	.L127:
 871 0532 4FF48043 		mov	r3, #16384
 872 0536 20E0     		b	.L145
 873              	.L126:
 874 0538 4FF48063 		mov	r3, #1024
 875 053c 1DE0     		b	.L145
 876              	.L149:
 877 053e 00BF     		.align	2
 878              	.L148:
 879 0540 00000240 		.word	1073872896
ARM GAS  /tmp/ccWSeizr.s 			page 21


 880 0544 08000240 		.word	1073872904
 881 0548 1C000240 		.word	1073872924
 882 054c 30000240 		.word	1073872944
 883 0550 44000240 		.word	1073872964
 884 0554 58000240 		.word	1073872984
 885 0558 6C000240 		.word	1073873004
 886 055c 80000240 		.word	1073873024
 887 0560 08040240 		.word	1073873928
 888 0564 1C040240 		.word	1073873948
 889 0568 30040240 		.word	1073873968
 890 056c 44040240 		.word	1073873988
 891 0570 00040240 		.word	1073873920
 892              	.L125:
 893 0574 4023     		movs	r3, #64
 894 0576 00E0     		b	.L145
 895              	.L124:
 896 0578 0423     		movs	r3, #4
 897              	.L145:
 898              		.loc 1 260 0 discriminator 3
 899 057a 5360     		str	r3, [r2, #4]
 900              	.L123:
 261:Drivers/STM32F3xx_HAL_Driver/Src/stm32f3xx_hal_dma.c **** 
 262:Drivers/STM32F3xx_HAL_Driver/Src/stm32f3xx_hal_dma.c ****   /* Initialize the error code */
 263:Drivers/STM32F3xx_HAL_Driver/Src/stm32f3xx_hal_dma.c ****   hdma->ErrorCode = HAL_DMA_ERROR_NONE;
 901              		.loc 1 263 0 is_stmt 1
 902 057c 7B68     		ldr	r3, [r7, #4]
 903 057e 0022     		movs	r2, #0
 904 0580 9A63     		str	r2, [r3, #56]
 264:Drivers/STM32F3xx_HAL_Driver/Src/stm32f3xx_hal_dma.c **** 
 265:Drivers/STM32F3xx_HAL_Driver/Src/stm32f3xx_hal_dma.c ****   /* Initialize the DMA state */
 266:Drivers/STM32F3xx_HAL_Driver/Src/stm32f3xx_hal_dma.c ****   hdma->State = HAL_DMA_STATE_RESET;
 905              		.loc 1 266 0
 906 0582 7B68     		ldr	r3, [r7, #4]
 907 0584 0022     		movs	r2, #0
 908 0586 83F82120 		strb	r2, [r3, #33]
 267:Drivers/STM32F3xx_HAL_Driver/Src/stm32f3xx_hal_dma.c **** 
 268:Drivers/STM32F3xx_HAL_Driver/Src/stm32f3xx_hal_dma.c ****   /* Release Lock */
 269:Drivers/STM32F3xx_HAL_Driver/Src/stm32f3xx_hal_dma.c ****   __HAL_UNLOCK(hdma);
 909              		.loc 1 269 0
 910 058a 7B68     		ldr	r3, [r7, #4]
 911 058c 0022     		movs	r2, #0
 912 058e 83F82020 		strb	r2, [r3, #32]
 270:Drivers/STM32F3xx_HAL_Driver/Src/stm32f3xx_hal_dma.c **** 
 271:Drivers/STM32F3xx_HAL_Driver/Src/stm32f3xx_hal_dma.c ****   return HAL_OK;
 913              		.loc 1 271 0
 914 0592 0023     		movs	r3, #0
 915              	.L7:
 272:Drivers/STM32F3xx_HAL_Driver/Src/stm32f3xx_hal_dma.c **** }
 916              		.loc 1 272 0
 917 0594 1846     		mov	r0, r3
 918 0596 0C37     		adds	r7, r7, #12
 919 0598 BD46     		mov	sp, r7
 920              		@ sp needed
 921 059a 5DF8047B 		ldr	r7, [sp], #4
 922 059e 7047     		bx	lr
 923              		.cfi_endproc
 924              	.LFE126:
ARM GAS  /tmp/ccWSeizr.s 			page 22


 926              		.section	.text.HAL_DMA_Start,"ax",%progbits
 927              		.align	2
 928              		.global	HAL_DMA_Start
 929              		.thumb
 930              		.thumb_func
 932              	HAL_DMA_Start:
 933              	.LFB127:
 273:Drivers/STM32F3xx_HAL_Driver/Src/stm32f3xx_hal_dma.c **** 
 274:Drivers/STM32F3xx_HAL_Driver/Src/stm32f3xx_hal_dma.c **** /**
 275:Drivers/STM32F3xx_HAL_Driver/Src/stm32f3xx_hal_dma.c ****   * @}
 276:Drivers/STM32F3xx_HAL_Driver/Src/stm32f3xx_hal_dma.c ****   */
 277:Drivers/STM32F3xx_HAL_Driver/Src/stm32f3xx_hal_dma.c **** 
 278:Drivers/STM32F3xx_HAL_Driver/Src/stm32f3xx_hal_dma.c **** /** @defgroup DMA_Exported_Functions_Group2 Input and Output operation functions 
 279:Drivers/STM32F3xx_HAL_Driver/Src/stm32f3xx_hal_dma.c ****  *  @brief   I/O operation functions  
 280:Drivers/STM32F3xx_HAL_Driver/Src/stm32f3xx_hal_dma.c ****  *
 281:Drivers/STM32F3xx_HAL_Driver/Src/stm32f3xx_hal_dma.c **** @verbatim   
 282:Drivers/STM32F3xx_HAL_Driver/Src/stm32f3xx_hal_dma.c ****  ===============================================================================
 283:Drivers/STM32F3xx_HAL_Driver/Src/stm32f3xx_hal_dma.c ****                       #####  IO operation functions  #####
 284:Drivers/STM32F3xx_HAL_Driver/Src/stm32f3xx_hal_dma.c ****  ===============================================================================  
 285:Drivers/STM32F3xx_HAL_Driver/Src/stm32f3xx_hal_dma.c ****     [..]  This section provides functions allowing to:
 286:Drivers/STM32F3xx_HAL_Driver/Src/stm32f3xx_hal_dma.c ****       (+) Configure the source, destination address and data length and Start DMA transfer
 287:Drivers/STM32F3xx_HAL_Driver/Src/stm32f3xx_hal_dma.c ****       (+) Configure the source, destination address and data length and 
 288:Drivers/STM32F3xx_HAL_Driver/Src/stm32f3xx_hal_dma.c ****           Start DMA transfer with interrupt
 289:Drivers/STM32F3xx_HAL_Driver/Src/stm32f3xx_hal_dma.c ****       (+) Abort DMA transfer
 290:Drivers/STM32F3xx_HAL_Driver/Src/stm32f3xx_hal_dma.c ****       (+) Poll for transfer complete
 291:Drivers/STM32F3xx_HAL_Driver/Src/stm32f3xx_hal_dma.c ****       (+) Handle DMA interrupt request  
 292:Drivers/STM32F3xx_HAL_Driver/Src/stm32f3xx_hal_dma.c **** 
 293:Drivers/STM32F3xx_HAL_Driver/Src/stm32f3xx_hal_dma.c **** @endverbatim
 294:Drivers/STM32F3xx_HAL_Driver/Src/stm32f3xx_hal_dma.c ****   * @{
 295:Drivers/STM32F3xx_HAL_Driver/Src/stm32f3xx_hal_dma.c ****   */
 296:Drivers/STM32F3xx_HAL_Driver/Src/stm32f3xx_hal_dma.c **** 
 297:Drivers/STM32F3xx_HAL_Driver/Src/stm32f3xx_hal_dma.c **** /**
 298:Drivers/STM32F3xx_HAL_Driver/Src/stm32f3xx_hal_dma.c ****   * @brief  Starts the DMA Transfer.
 299:Drivers/STM32F3xx_HAL_Driver/Src/stm32f3xx_hal_dma.c ****   * @param  hdma:       pointer to a DMA_HandleTypeDef structure that contains
 300:Drivers/STM32F3xx_HAL_Driver/Src/stm32f3xx_hal_dma.c ****   *                     the configuration information for the specified DMA Channel.  
 301:Drivers/STM32F3xx_HAL_Driver/Src/stm32f3xx_hal_dma.c ****   * @param  SrcAddress: The source memory Buffer address
 302:Drivers/STM32F3xx_HAL_Driver/Src/stm32f3xx_hal_dma.c ****   * @param  DstAddress: The destination memory Buffer address
 303:Drivers/STM32F3xx_HAL_Driver/Src/stm32f3xx_hal_dma.c ****   * @param  DataLength: The length of data to be transferred from source to destination
 304:Drivers/STM32F3xx_HAL_Driver/Src/stm32f3xx_hal_dma.c ****   * @retval HAL status
 305:Drivers/STM32F3xx_HAL_Driver/Src/stm32f3xx_hal_dma.c ****   */
 306:Drivers/STM32F3xx_HAL_Driver/Src/stm32f3xx_hal_dma.c **** HAL_StatusTypeDef HAL_DMA_Start(DMA_HandleTypeDef *hdma, uint32_t SrcAddress, uint32_t DstAddress, 
 307:Drivers/STM32F3xx_HAL_Driver/Src/stm32f3xx_hal_dma.c **** { 
 934              		.loc 1 307 0
 935              		.cfi_startproc
 936              		@ args = 0, pretend = 0, frame = 16
 937              		@ frame_needed = 1, uses_anonymous_args = 0
 938 0000 80B5     		push	{r7, lr}
 939              	.LCFI6:
 940              		.cfi_def_cfa_offset 8
 941              		.cfi_offset 7, -8
 942              		.cfi_offset 14, -4
 943 0002 84B0     		sub	sp, sp, #16
 944              	.LCFI7:
 945              		.cfi_def_cfa_offset 24
 946 0004 00AF     		add	r7, sp, #0
 947              	.LCFI8:
 948              		.cfi_def_cfa_register 7
ARM GAS  /tmp/ccWSeizr.s 			page 23


 949 0006 F860     		str	r0, [r7, #12]
 950 0008 B960     		str	r1, [r7, #8]
 951 000a 7A60     		str	r2, [r7, #4]
 952 000c 3B60     		str	r3, [r7]
 308:Drivers/STM32F3xx_HAL_Driver/Src/stm32f3xx_hal_dma.c ****   /* Process locked */
 309:Drivers/STM32F3xx_HAL_Driver/Src/stm32f3xx_hal_dma.c ****   __HAL_LOCK(hdma);  
 953              		.loc 1 309 0
 954 000e FB68     		ldr	r3, [r7, #12]
 955 0010 93F82030 		ldrb	r3, [r3, #32]	@ zero_extendqisi2
 956 0014 012B     		cmp	r3, #1
 957 0016 01D1     		bne	.L151
 958              		.loc 1 309 0 is_stmt 0 discriminator 1
 959 0018 0223     		movs	r3, #2
 960 001a 1EE0     		b	.L152
 961              	.L151:
 962              		.loc 1 309 0 discriminator 2
 963 001c FB68     		ldr	r3, [r7, #12]
 964 001e 0122     		movs	r2, #1
 965 0020 83F82020 		strb	r2, [r3, #32]
 310:Drivers/STM32F3xx_HAL_Driver/Src/stm32f3xx_hal_dma.c **** 
 311:Drivers/STM32F3xx_HAL_Driver/Src/stm32f3xx_hal_dma.c ****   /* Change DMA peripheral state */  
 312:Drivers/STM32F3xx_HAL_Driver/Src/stm32f3xx_hal_dma.c ****   hdma->State = HAL_DMA_STATE_BUSY;  
 966              		.loc 1 312 0 is_stmt 1 discriminator 2
 967 0024 FB68     		ldr	r3, [r7, #12]
 968 0026 0222     		movs	r2, #2
 969 0028 83F82120 		strb	r2, [r3, #33]
 313:Drivers/STM32F3xx_HAL_Driver/Src/stm32f3xx_hal_dma.c **** 
 314:Drivers/STM32F3xx_HAL_Driver/Src/stm32f3xx_hal_dma.c ****    /* Check the parameters */
 315:Drivers/STM32F3xx_HAL_Driver/Src/stm32f3xx_hal_dma.c ****   assert_param(IS_DMA_BUFFER_SIZE(DataLength));
 316:Drivers/STM32F3xx_HAL_Driver/Src/stm32f3xx_hal_dma.c ****   
 317:Drivers/STM32F3xx_HAL_Driver/Src/stm32f3xx_hal_dma.c ****   /* Disable the peripheral */
 318:Drivers/STM32F3xx_HAL_Driver/Src/stm32f3xx_hal_dma.c ****   __HAL_DMA_DISABLE(hdma);  
 970              		.loc 1 318 0 discriminator 2
 971 002c FB68     		ldr	r3, [r7, #12]
 972 002e 1B68     		ldr	r3, [r3]
 973 0030 FA68     		ldr	r2, [r7, #12]
 974 0032 1268     		ldr	r2, [r2]
 975 0034 1268     		ldr	r2, [r2]
 976 0036 22F00102 		bic	r2, r2, #1
 977 003a 1A60     		str	r2, [r3]
 319:Drivers/STM32F3xx_HAL_Driver/Src/stm32f3xx_hal_dma.c ****   
 320:Drivers/STM32F3xx_HAL_Driver/Src/stm32f3xx_hal_dma.c ****   /* Configure the source, destination address and the data length */
 321:Drivers/STM32F3xx_HAL_Driver/Src/stm32f3xx_hal_dma.c ****   DMA_SetConfig(hdma, SrcAddress, DstAddress, DataLength);
 978              		.loc 1 321 0 discriminator 2
 979 003c F868     		ldr	r0, [r7, #12]
 980 003e B968     		ldr	r1, [r7, #8]
 981 0040 7A68     		ldr	r2, [r7, #4]
 982 0042 3B68     		ldr	r3, [r7]
 983 0044 FFF7FEFF 		bl	DMA_SetConfig
 322:Drivers/STM32F3xx_HAL_Driver/Src/stm32f3xx_hal_dma.c **** 
 323:Drivers/STM32F3xx_HAL_Driver/Src/stm32f3xx_hal_dma.c ****   /* Enable the Peripheral */
 324:Drivers/STM32F3xx_HAL_Driver/Src/stm32f3xx_hal_dma.c ****   __HAL_DMA_ENABLE(hdma);  
 984              		.loc 1 324 0 discriminator 2
 985 0048 FB68     		ldr	r3, [r7, #12]
 986 004a 1B68     		ldr	r3, [r3]
 987 004c FA68     		ldr	r2, [r7, #12]
 988 004e 1268     		ldr	r2, [r2]
ARM GAS  /tmp/ccWSeizr.s 			page 24


 989 0050 1268     		ldr	r2, [r2]
 990 0052 42F00102 		orr	r2, r2, #1
 991 0056 1A60     		str	r2, [r3]
 325:Drivers/STM32F3xx_HAL_Driver/Src/stm32f3xx_hal_dma.c **** 
 326:Drivers/STM32F3xx_HAL_Driver/Src/stm32f3xx_hal_dma.c ****   return HAL_OK; 
 992              		.loc 1 326 0 discriminator 2
 993 0058 0023     		movs	r3, #0
 994              	.L152:
 327:Drivers/STM32F3xx_HAL_Driver/Src/stm32f3xx_hal_dma.c **** } 
 995              		.loc 1 327 0
 996 005a 1846     		mov	r0, r3
 997 005c 1037     		adds	r7, r7, #16
 998 005e BD46     		mov	sp, r7
 999              		@ sp needed
 1000 0060 80BD     		pop	{r7, pc}
 1001              		.cfi_endproc
 1002              	.LFE127:
 1004 0062 00BF     		.section	.text.HAL_DMA_Start_IT,"ax",%progbits
 1005              		.align	2
 1006              		.global	HAL_DMA_Start_IT
 1007              		.thumb
 1008              		.thumb_func
 1010              	HAL_DMA_Start_IT:
 1011              	.LFB128:
 328:Drivers/STM32F3xx_HAL_Driver/Src/stm32f3xx_hal_dma.c **** 
 329:Drivers/STM32F3xx_HAL_Driver/Src/stm32f3xx_hal_dma.c **** /**
 330:Drivers/STM32F3xx_HAL_Driver/Src/stm32f3xx_hal_dma.c ****   * @brief  Start the DMA Transfer with interrupt enabled.
 331:Drivers/STM32F3xx_HAL_Driver/Src/stm32f3xx_hal_dma.c ****   * @param  hdma:       pointer to a DMA_HandleTypeDef structure that contains
 332:Drivers/STM32F3xx_HAL_Driver/Src/stm32f3xx_hal_dma.c ****   *                     the configuration information for the specified DMA Channel.  
 333:Drivers/STM32F3xx_HAL_Driver/Src/stm32f3xx_hal_dma.c ****   * @param  SrcAddress: The source memory Buffer address
 334:Drivers/STM32F3xx_HAL_Driver/Src/stm32f3xx_hal_dma.c ****   * @param  DstAddress: The destination memory Buffer address
 335:Drivers/STM32F3xx_HAL_Driver/Src/stm32f3xx_hal_dma.c ****   * @param  DataLength: The length of data to be transferred from source to destination
 336:Drivers/STM32F3xx_HAL_Driver/Src/stm32f3xx_hal_dma.c ****   * @retval HAL status
 337:Drivers/STM32F3xx_HAL_Driver/Src/stm32f3xx_hal_dma.c ****   */
 338:Drivers/STM32F3xx_HAL_Driver/Src/stm32f3xx_hal_dma.c **** HAL_StatusTypeDef HAL_DMA_Start_IT(DMA_HandleTypeDef *hdma, uint32_t SrcAddress, uint32_t DstAddres
 339:Drivers/STM32F3xx_HAL_Driver/Src/stm32f3xx_hal_dma.c **** {
 1012              		.loc 1 339 0
 1013              		.cfi_startproc
 1014              		@ args = 0, pretend = 0, frame = 16
 1015              		@ frame_needed = 1, uses_anonymous_args = 0
 1016 0000 80B5     		push	{r7, lr}
 1017              	.LCFI9:
 1018              		.cfi_def_cfa_offset 8
 1019              		.cfi_offset 7, -8
 1020              		.cfi_offset 14, -4
 1021 0002 84B0     		sub	sp, sp, #16
 1022              	.LCFI10:
 1023              		.cfi_def_cfa_offset 24
 1024 0004 00AF     		add	r7, sp, #0
 1025              	.LCFI11:
 1026              		.cfi_def_cfa_register 7
 1027 0006 F860     		str	r0, [r7, #12]
 1028 0008 B960     		str	r1, [r7, #8]
 1029 000a 7A60     		str	r2, [r7, #4]
 1030 000c 3B60     		str	r3, [r7]
 340:Drivers/STM32F3xx_HAL_Driver/Src/stm32f3xx_hal_dma.c ****   /* Process locked */
 341:Drivers/STM32F3xx_HAL_Driver/Src/stm32f3xx_hal_dma.c ****   __HAL_LOCK(hdma);
ARM GAS  /tmp/ccWSeizr.s 			page 25


 1031              		.loc 1 341 0
 1032 000e FB68     		ldr	r3, [r7, #12]
 1033 0010 93F82030 		ldrb	r3, [r3, #32]	@ zero_extendqisi2
 1034 0014 012B     		cmp	r3, #1
 1035 0016 01D1     		bne	.L154
 1036              		.loc 1 341 0 is_stmt 0 discriminator 1
 1037 0018 0223     		movs	r3, #2
 1038 001a 36E0     		b	.L155
 1039              	.L154:
 1040              		.loc 1 341 0 discriminator 2
 1041 001c FB68     		ldr	r3, [r7, #12]
 1042 001e 0122     		movs	r2, #1
 1043 0020 83F82020 		strb	r2, [r3, #32]
 342:Drivers/STM32F3xx_HAL_Driver/Src/stm32f3xx_hal_dma.c **** 
 343:Drivers/STM32F3xx_HAL_Driver/Src/stm32f3xx_hal_dma.c ****   /* Change DMA peripheral state */  
 344:Drivers/STM32F3xx_HAL_Driver/Src/stm32f3xx_hal_dma.c ****   hdma->State = HAL_DMA_STATE_BUSY;  
 1044              		.loc 1 344 0 is_stmt 1 discriminator 2
 1045 0024 FB68     		ldr	r3, [r7, #12]
 1046 0026 0222     		movs	r2, #2
 1047 0028 83F82120 		strb	r2, [r3, #33]
 345:Drivers/STM32F3xx_HAL_Driver/Src/stm32f3xx_hal_dma.c **** 
 346:Drivers/STM32F3xx_HAL_Driver/Src/stm32f3xx_hal_dma.c ****    /* Check the parameters */
 347:Drivers/STM32F3xx_HAL_Driver/Src/stm32f3xx_hal_dma.c ****   assert_param(IS_DMA_BUFFER_SIZE(DataLength));
 348:Drivers/STM32F3xx_HAL_Driver/Src/stm32f3xx_hal_dma.c ****   
 349:Drivers/STM32F3xx_HAL_Driver/Src/stm32f3xx_hal_dma.c ****   /* Disable the peripheral */
 350:Drivers/STM32F3xx_HAL_Driver/Src/stm32f3xx_hal_dma.c ****   __HAL_DMA_DISABLE(hdma);
 1048              		.loc 1 350 0 discriminator 2
 1049 002c FB68     		ldr	r3, [r7, #12]
 1050 002e 1B68     		ldr	r3, [r3]
 1051 0030 FA68     		ldr	r2, [r7, #12]
 1052 0032 1268     		ldr	r2, [r2]
 1053 0034 1268     		ldr	r2, [r2]
 1054 0036 22F00102 		bic	r2, r2, #1
 1055 003a 1A60     		str	r2, [r3]
 351:Drivers/STM32F3xx_HAL_Driver/Src/stm32f3xx_hal_dma.c ****   
 352:Drivers/STM32F3xx_HAL_Driver/Src/stm32f3xx_hal_dma.c ****   /* Configure the source, destination address and the data length */  
 353:Drivers/STM32F3xx_HAL_Driver/Src/stm32f3xx_hal_dma.c ****   DMA_SetConfig(hdma, SrcAddress, DstAddress, DataLength);
 1056              		.loc 1 353 0 discriminator 2
 1057 003c F868     		ldr	r0, [r7, #12]
 1058 003e B968     		ldr	r1, [r7, #8]
 1059 0040 7A68     		ldr	r2, [r7, #4]
 1060 0042 3B68     		ldr	r3, [r7]
 1061 0044 FFF7FEFF 		bl	DMA_SetConfig
 354:Drivers/STM32F3xx_HAL_Driver/Src/stm32f3xx_hal_dma.c ****   
 355:Drivers/STM32F3xx_HAL_Driver/Src/stm32f3xx_hal_dma.c ****   /* Enable the transfer complete interrupt */
 356:Drivers/STM32F3xx_HAL_Driver/Src/stm32f3xx_hal_dma.c ****   __HAL_DMA_ENABLE_IT(hdma, DMA_IT_TC);
 1062              		.loc 1 356 0 discriminator 2
 1063 0048 FB68     		ldr	r3, [r7, #12]
 1064 004a 1B68     		ldr	r3, [r3]
 1065 004c FA68     		ldr	r2, [r7, #12]
 1066 004e 1268     		ldr	r2, [r2]
 1067 0050 1268     		ldr	r2, [r2]
 1068 0052 42F00202 		orr	r2, r2, #2
 1069 0056 1A60     		str	r2, [r3]
 357:Drivers/STM32F3xx_HAL_Driver/Src/stm32f3xx_hal_dma.c **** 
 358:Drivers/STM32F3xx_HAL_Driver/Src/stm32f3xx_hal_dma.c ****   /* Enable the Half transfer complete interrupt */
 359:Drivers/STM32F3xx_HAL_Driver/Src/stm32f3xx_hal_dma.c ****   __HAL_DMA_ENABLE_IT(hdma, DMA_IT_HT);  
ARM GAS  /tmp/ccWSeizr.s 			page 26


 1070              		.loc 1 359 0 discriminator 2
 1071 0058 FB68     		ldr	r3, [r7, #12]
 1072 005a 1B68     		ldr	r3, [r3]
 1073 005c FA68     		ldr	r2, [r7, #12]
 1074 005e 1268     		ldr	r2, [r2]
 1075 0060 1268     		ldr	r2, [r2]
 1076 0062 42F00402 		orr	r2, r2, #4
 1077 0066 1A60     		str	r2, [r3]
 360:Drivers/STM32F3xx_HAL_Driver/Src/stm32f3xx_hal_dma.c **** 
 361:Drivers/STM32F3xx_HAL_Driver/Src/stm32f3xx_hal_dma.c ****   /* Enable the transfer Error interrupt */
 362:Drivers/STM32F3xx_HAL_Driver/Src/stm32f3xx_hal_dma.c ****   __HAL_DMA_ENABLE_IT(hdma, DMA_IT_TE);
 1078              		.loc 1 362 0 discriminator 2
 1079 0068 FB68     		ldr	r3, [r7, #12]
 1080 006a 1B68     		ldr	r3, [r3]
 1081 006c FA68     		ldr	r2, [r7, #12]
 1082 006e 1268     		ldr	r2, [r2]
 1083 0070 1268     		ldr	r2, [r2]
 1084 0072 42F00802 		orr	r2, r2, #8
 1085 0076 1A60     		str	r2, [r3]
 363:Drivers/STM32F3xx_HAL_Driver/Src/stm32f3xx_hal_dma.c ****   
 364:Drivers/STM32F3xx_HAL_Driver/Src/stm32f3xx_hal_dma.c ****    /* Enable the Peripheral */
 365:Drivers/STM32F3xx_HAL_Driver/Src/stm32f3xx_hal_dma.c ****   __HAL_DMA_ENABLE(hdma);   
 1086              		.loc 1 365 0 discriminator 2
 1087 0078 FB68     		ldr	r3, [r7, #12]
 1088 007a 1B68     		ldr	r3, [r3]
 1089 007c FA68     		ldr	r2, [r7, #12]
 1090 007e 1268     		ldr	r2, [r2]
 1091 0080 1268     		ldr	r2, [r2]
 1092 0082 42F00102 		orr	r2, r2, #1
 1093 0086 1A60     		str	r2, [r3]
 366:Drivers/STM32F3xx_HAL_Driver/Src/stm32f3xx_hal_dma.c ****   
 367:Drivers/STM32F3xx_HAL_Driver/Src/stm32f3xx_hal_dma.c ****   return HAL_OK;    
 1094              		.loc 1 367 0 discriminator 2
 1095 0088 0023     		movs	r3, #0
 1096              	.L155:
 368:Drivers/STM32F3xx_HAL_Driver/Src/stm32f3xx_hal_dma.c **** } 
 1097              		.loc 1 368 0
 1098 008a 1846     		mov	r0, r3
 1099 008c 1037     		adds	r7, r7, #16
 1100 008e BD46     		mov	sp, r7
 1101              		@ sp needed
 1102 0090 80BD     		pop	{r7, pc}
 1103              		.cfi_endproc
 1104              	.LFE128:
 1106 0092 00BF     		.section	.text.HAL_DMA_Abort,"ax",%progbits
 1107              		.align	2
 1108              		.global	HAL_DMA_Abort
 1109              		.thumb
 1110              		.thumb_func
 1112              	HAL_DMA_Abort:
 1113              	.LFB129:
 369:Drivers/STM32F3xx_HAL_Driver/Src/stm32f3xx_hal_dma.c **** 
 370:Drivers/STM32F3xx_HAL_Driver/Src/stm32f3xx_hal_dma.c **** /**
 371:Drivers/STM32F3xx_HAL_Driver/Src/stm32f3xx_hal_dma.c ****   * @brief  Aborts the DMA Transfer.
 372:Drivers/STM32F3xx_HAL_Driver/Src/stm32f3xx_hal_dma.c ****   * @param  hdma: pointer to a DMA_HandleTypeDef structure that contains
 373:Drivers/STM32F3xx_HAL_Driver/Src/stm32f3xx_hal_dma.c ****   *               the configuration information for the specified DMA Channel.
 374:Drivers/STM32F3xx_HAL_Driver/Src/stm32f3xx_hal_dma.c ****   *                   
ARM GAS  /tmp/ccWSeizr.s 			page 27


 375:Drivers/STM32F3xx_HAL_Driver/Src/stm32f3xx_hal_dma.c ****   * @note  After disabling a DMA Channel, a check for wait until the DMA Channel is 
 376:Drivers/STM32F3xx_HAL_Driver/Src/stm32f3xx_hal_dma.c ****   *        effectively disabled is added. If a Channel is disabled 
 377:Drivers/STM32F3xx_HAL_Driver/Src/stm32f3xx_hal_dma.c ****   *        while a data transfer is ongoing, the current data will be transferred
 378:Drivers/STM32F3xx_HAL_Driver/Src/stm32f3xx_hal_dma.c ****   *        and the Channel will be effectively disabled only after the transfer of
 379:Drivers/STM32F3xx_HAL_Driver/Src/stm32f3xx_hal_dma.c ****   *        this single data is finished.  
 380:Drivers/STM32F3xx_HAL_Driver/Src/stm32f3xx_hal_dma.c ****   * @retval HAL status
 381:Drivers/STM32F3xx_HAL_Driver/Src/stm32f3xx_hal_dma.c ****   */
 382:Drivers/STM32F3xx_HAL_Driver/Src/stm32f3xx_hal_dma.c **** HAL_StatusTypeDef HAL_DMA_Abort(DMA_HandleTypeDef *hdma)
 383:Drivers/STM32F3xx_HAL_Driver/Src/stm32f3xx_hal_dma.c **** {
 1114              		.loc 1 383 0
 1115              		.cfi_startproc
 1116              		@ args = 0, pretend = 0, frame = 16
 1117              		@ frame_needed = 1, uses_anonymous_args = 0
 1118 0000 80B5     		push	{r7, lr}
 1119              	.LCFI12:
 1120              		.cfi_def_cfa_offset 8
 1121              		.cfi_offset 7, -8
 1122              		.cfi_offset 14, -4
 1123 0002 84B0     		sub	sp, sp, #16
 1124              	.LCFI13:
 1125              		.cfi_def_cfa_offset 24
 1126 0004 00AF     		add	r7, sp, #0
 1127              	.LCFI14:
 1128              		.cfi_def_cfa_register 7
 1129 0006 7860     		str	r0, [r7, #4]
 384:Drivers/STM32F3xx_HAL_Driver/Src/stm32f3xx_hal_dma.c ****   uint32_t tickstart = 0x00;
 1130              		.loc 1 384 0
 1131 0008 0023     		movs	r3, #0
 1132 000a FB60     		str	r3, [r7, #12]
 385:Drivers/STM32F3xx_HAL_Driver/Src/stm32f3xx_hal_dma.c ****   
 386:Drivers/STM32F3xx_HAL_Driver/Src/stm32f3xx_hal_dma.c ****   /* Disable the channel */
 387:Drivers/STM32F3xx_HAL_Driver/Src/stm32f3xx_hal_dma.c ****   __HAL_DMA_DISABLE(hdma);
 1133              		.loc 1 387 0
 1134 000c 7B68     		ldr	r3, [r7, #4]
 1135 000e 1B68     		ldr	r3, [r3]
 1136 0010 7A68     		ldr	r2, [r7, #4]
 1137 0012 1268     		ldr	r2, [r2]
 1138 0014 1268     		ldr	r2, [r2]
 1139 0016 22F00102 		bic	r2, r2, #1
 1140 001a 1A60     		str	r2, [r3]
 388:Drivers/STM32F3xx_HAL_Driver/Src/stm32f3xx_hal_dma.c ****   
 389:Drivers/STM32F3xx_HAL_Driver/Src/stm32f3xx_hal_dma.c ****   /* Get tick */
 390:Drivers/STM32F3xx_HAL_Driver/Src/stm32f3xx_hal_dma.c ****   tickstart = HAL_GetTick();
 1141              		.loc 1 390 0
 1142 001c FFF7FEFF 		bl	HAL_GetTick
 1143 0020 F860     		str	r0, [r7, #12]
 391:Drivers/STM32F3xx_HAL_Driver/Src/stm32f3xx_hal_dma.c ****   
 392:Drivers/STM32F3xx_HAL_Driver/Src/stm32f3xx_hal_dma.c ****   /* Check if the DMA Channel is effectively disabled */
 393:Drivers/STM32F3xx_HAL_Driver/Src/stm32f3xx_hal_dma.c ****   while((hdma->Instance->CCR & DMA_CCR_EN) != 0) 
 1144              		.loc 1 393 0
 1145 0022 17E0     		b	.L157
 1146              	.L159:
 394:Drivers/STM32F3xx_HAL_Driver/Src/stm32f3xx_hal_dma.c ****   {
 395:Drivers/STM32F3xx_HAL_Driver/Src/stm32f3xx_hal_dma.c ****     /* Check for the Timeout */
 396:Drivers/STM32F3xx_HAL_Driver/Src/stm32f3xx_hal_dma.c ****     if((HAL_GetTick() - tickstart) > HAL_TIMEOUT_DMA_ABORT)
 1147              		.loc 1 396 0
 1148 0024 FFF7FEFF 		bl	HAL_GetTick
ARM GAS  /tmp/ccWSeizr.s 			page 28


 1149 0028 0246     		mov	r2, r0
 1150 002a FB68     		ldr	r3, [r7, #12]
 1151 002c D31A     		subs	r3, r2, r3
 1152 002e B3F57A7F 		cmp	r3, #1000
 1153 0032 0FD9     		bls	.L157
 397:Drivers/STM32F3xx_HAL_Driver/Src/stm32f3xx_hal_dma.c ****     {
 398:Drivers/STM32F3xx_HAL_Driver/Src/stm32f3xx_hal_dma.c ****       /* Update error code */
 399:Drivers/STM32F3xx_HAL_Driver/Src/stm32f3xx_hal_dma.c ****       SET_BIT(hdma->ErrorCode, HAL_DMA_ERROR_TIMEOUT);
 1154              		.loc 1 399 0
 1155 0034 7B68     		ldr	r3, [r7, #4]
 1156 0036 9B6B     		ldr	r3, [r3, #56]
 1157 0038 43F02002 		orr	r2, r3, #32
 1158 003c 7B68     		ldr	r3, [r7, #4]
 1159 003e 9A63     		str	r2, [r3, #56]
 400:Drivers/STM32F3xx_HAL_Driver/Src/stm32f3xx_hal_dma.c **** 
 401:Drivers/STM32F3xx_HAL_Driver/Src/stm32f3xx_hal_dma.c ****       /* Change the DMA state */
 402:Drivers/STM32F3xx_HAL_Driver/Src/stm32f3xx_hal_dma.c ****       hdma->State = HAL_DMA_STATE_TIMEOUT;
 1160              		.loc 1 402 0
 1161 0040 7B68     		ldr	r3, [r7, #4]
 1162 0042 0322     		movs	r2, #3
 1163 0044 83F82120 		strb	r2, [r3, #33]
 403:Drivers/STM32F3xx_HAL_Driver/Src/stm32f3xx_hal_dma.c **** 
 404:Drivers/STM32F3xx_HAL_Driver/Src/stm32f3xx_hal_dma.c ****       /* Process Unlocked */
 405:Drivers/STM32F3xx_HAL_Driver/Src/stm32f3xx_hal_dma.c ****       __HAL_UNLOCK(hdma);
 1164              		.loc 1 405 0
 1165 0048 7B68     		ldr	r3, [r7, #4]
 1166 004a 0022     		movs	r2, #0
 1167 004c 83F82020 		strb	r2, [r3, #32]
 406:Drivers/STM32F3xx_HAL_Driver/Src/stm32f3xx_hal_dma.c **** 
 407:Drivers/STM32F3xx_HAL_Driver/Src/stm32f3xx_hal_dma.c ****       return HAL_TIMEOUT;
 1168              		.loc 1 407 0
 1169 0050 0323     		movs	r3, #3
 1170 0052 0FE0     		b	.L158
 1171              	.L157:
 393:Drivers/STM32F3xx_HAL_Driver/Src/stm32f3xx_hal_dma.c ****   {
 1172              		.loc 1 393 0 discriminator 1
 1173 0054 7B68     		ldr	r3, [r7, #4]
 1174 0056 1B68     		ldr	r3, [r3]
 1175 0058 1B68     		ldr	r3, [r3]
 1176 005a 03F00103 		and	r3, r3, #1
 1177 005e 002B     		cmp	r3, #0
 1178 0060 E0D1     		bne	.L159
 408:Drivers/STM32F3xx_HAL_Driver/Src/stm32f3xx_hal_dma.c ****     }
 409:Drivers/STM32F3xx_HAL_Driver/Src/stm32f3xx_hal_dma.c ****   }
 410:Drivers/STM32F3xx_HAL_Driver/Src/stm32f3xx_hal_dma.c ****   /* Change the DMA state*/
 411:Drivers/STM32F3xx_HAL_Driver/Src/stm32f3xx_hal_dma.c ****   hdma->State = HAL_DMA_STATE_READY; 
 1179              		.loc 1 411 0
 1180 0062 7B68     		ldr	r3, [r7, #4]
 1181 0064 0122     		movs	r2, #1
 1182 0066 83F82120 		strb	r2, [r3, #33]
 412:Drivers/STM32F3xx_HAL_Driver/Src/stm32f3xx_hal_dma.c ****   
 413:Drivers/STM32F3xx_HAL_Driver/Src/stm32f3xx_hal_dma.c ****   /* Process Unlocked */
 414:Drivers/STM32F3xx_HAL_Driver/Src/stm32f3xx_hal_dma.c ****   __HAL_UNLOCK(hdma);
 1183              		.loc 1 414 0
 1184 006a 7B68     		ldr	r3, [r7, #4]
 1185 006c 0022     		movs	r2, #0
 1186 006e 83F82020 		strb	r2, [r3, #32]
ARM GAS  /tmp/ccWSeizr.s 			page 29


 415:Drivers/STM32F3xx_HAL_Driver/Src/stm32f3xx_hal_dma.c ****   
 416:Drivers/STM32F3xx_HAL_Driver/Src/stm32f3xx_hal_dma.c ****   return HAL_OK; 
 1187              		.loc 1 416 0
 1188 0072 0023     		movs	r3, #0
 1189              	.L158:
 417:Drivers/STM32F3xx_HAL_Driver/Src/stm32f3xx_hal_dma.c **** }
 1190              		.loc 1 417 0
 1191 0074 1846     		mov	r0, r3
 1192 0076 1037     		adds	r7, r7, #16
 1193 0078 BD46     		mov	sp, r7
 1194              		@ sp needed
 1195 007a 80BD     		pop	{r7, pc}
 1196              		.cfi_endproc
 1197              	.LFE129:
 1199              		.section	.text.HAL_DMA_Abort_IT,"ax",%progbits
 1200              		.align	2
 1201              		.global	HAL_DMA_Abort_IT
 1202              		.thumb
 1203              		.thumb_func
 1205              	HAL_DMA_Abort_IT:
 1206              	.LFB130:
 418:Drivers/STM32F3xx_HAL_Driver/Src/stm32f3xx_hal_dma.c **** 
 419:Drivers/STM32F3xx_HAL_Driver/Src/stm32f3xx_hal_dma.c **** /**
 420:Drivers/STM32F3xx_HAL_Driver/Src/stm32f3xx_hal_dma.c ****   * @brief  Aborts the DMA Transfer in Interrupt mode.
 421:Drivers/STM32F3xx_HAL_Driver/Src/stm32f3xx_hal_dma.c ****   * @param  hdma  : pointer to a DMA_HandleTypeDef structure that contains
 422:Drivers/STM32F3xx_HAL_Driver/Src/stm32f3xx_hal_dma.c ****   *                 the configuration information for the specified DMA Stream.
 423:Drivers/STM32F3xx_HAL_Driver/Src/stm32f3xx_hal_dma.c ****   * @retval HAL status
 424:Drivers/STM32F3xx_HAL_Driver/Src/stm32f3xx_hal_dma.c ****   */
 425:Drivers/STM32F3xx_HAL_Driver/Src/stm32f3xx_hal_dma.c **** HAL_StatusTypeDef HAL_DMA_Abort_IT(DMA_HandleTypeDef *hdma)
 426:Drivers/STM32F3xx_HAL_Driver/Src/stm32f3xx_hal_dma.c **** {  
 1207              		.loc 1 426 0
 1208              		.cfi_startproc
 1209              		@ args = 0, pretend = 0, frame = 16
 1210              		@ frame_needed = 1, uses_anonymous_args = 0
 1211 0000 80B5     		push	{r7, lr}
 1212              	.LCFI15:
 1213              		.cfi_def_cfa_offset 8
 1214              		.cfi_offset 7, -8
 1215              		.cfi_offset 14, -4
 1216 0002 84B0     		sub	sp, sp, #16
 1217              	.LCFI16:
 1218              		.cfi_def_cfa_offset 24
 1219 0004 00AF     		add	r7, sp, #0
 1220              	.LCFI17:
 1221              		.cfi_def_cfa_register 7
 1222 0006 7860     		str	r0, [r7, #4]
 427:Drivers/STM32F3xx_HAL_Driver/Src/stm32f3xx_hal_dma.c ****   HAL_StatusTypeDef status = HAL_OK;
 1223              		.loc 1 427 0
 1224 0008 0023     		movs	r3, #0
 1225 000a FB73     		strb	r3, [r7, #15]
 428:Drivers/STM32F3xx_HAL_Driver/Src/stm32f3xx_hal_dma.c ****   
 429:Drivers/STM32F3xx_HAL_Driver/Src/stm32f3xx_hal_dma.c ****   if(HAL_DMA_STATE_BUSY != hdma->State)
 1226              		.loc 1 429 0
 1227 000c 7B68     		ldr	r3, [r7, #4]
 1228 000e 93F82130 		ldrb	r3, [r3, #33]	@ zero_extendqisi2
 1229 0012 022B     		cmp	r3, #2
 1230 0014 05D0     		beq	.L161
ARM GAS  /tmp/ccWSeizr.s 			page 30


 430:Drivers/STM32F3xx_HAL_Driver/Src/stm32f3xx_hal_dma.c ****   {
 431:Drivers/STM32F3xx_HAL_Driver/Src/stm32f3xx_hal_dma.c ****     /* no transfer ongoing */
 432:Drivers/STM32F3xx_HAL_Driver/Src/stm32f3xx_hal_dma.c ****     hdma->ErrorCode = HAL_DMA_ERROR_NO_XFER;
 1231              		.loc 1 432 0
 1232 0016 7B68     		ldr	r3, [r7, #4]
 1233 0018 0422     		movs	r2, #4
 1234 001a 9A63     		str	r2, [r3, #56]
 433:Drivers/STM32F3xx_HAL_Driver/Src/stm32f3xx_hal_dma.c ****         
 434:Drivers/STM32F3xx_HAL_Driver/Src/stm32f3xx_hal_dma.c ****     status = HAL_ERROR;
 1235              		.loc 1 434 0
 1236 001c 0123     		movs	r3, #1
 1237 001e FB73     		strb	r3, [r7, #15]
 1238 0020 ECE0     		b	.L162
 1239              	.L161:
 435:Drivers/STM32F3xx_HAL_Driver/Src/stm32f3xx_hal_dma.c ****   }
 436:Drivers/STM32F3xx_HAL_Driver/Src/stm32f3xx_hal_dma.c ****   else
 437:Drivers/STM32F3xx_HAL_Driver/Src/stm32f3xx_hal_dma.c ****   { 
 438:Drivers/STM32F3xx_HAL_Driver/Src/stm32f3xx_hal_dma.c ****     /* Disable DMA IT */
 439:Drivers/STM32F3xx_HAL_Driver/Src/stm32f3xx_hal_dma.c ****     __HAL_DMA_DISABLE_IT(hdma, (DMA_IT_TC | DMA_IT_HT | DMA_IT_TE));
 1240              		.loc 1 439 0
 1241 0022 7B68     		ldr	r3, [r7, #4]
 1242 0024 1B68     		ldr	r3, [r3]
 1243 0026 7A68     		ldr	r2, [r7, #4]
 1244 0028 1268     		ldr	r2, [r2]
 1245 002a 1268     		ldr	r2, [r2]
 1246 002c 22F00E02 		bic	r2, r2, #14
 1247 0030 1A60     		str	r2, [r3]
 440:Drivers/STM32F3xx_HAL_Driver/Src/stm32f3xx_hal_dma.c ****     
 441:Drivers/STM32F3xx_HAL_Driver/Src/stm32f3xx_hal_dma.c ****     /* Disable the channel */
 442:Drivers/STM32F3xx_HAL_Driver/Src/stm32f3xx_hal_dma.c ****     __HAL_DMA_DISABLE(hdma);
 1248              		.loc 1 442 0
 1249 0032 7B68     		ldr	r3, [r7, #4]
 1250 0034 1B68     		ldr	r3, [r3]
 1251 0036 7A68     		ldr	r2, [r7, #4]
 1252 0038 1268     		ldr	r2, [r2]
 1253 003a 1268     		ldr	r2, [r2]
 1254 003c 22F00102 		bic	r2, r2, #1
 1255 0040 1A60     		str	r2, [r3]
 443:Drivers/STM32F3xx_HAL_Driver/Src/stm32f3xx_hal_dma.c ****     
 444:Drivers/STM32F3xx_HAL_Driver/Src/stm32f3xx_hal_dma.c ****     /* Clear all flags */
 445:Drivers/STM32F3xx_HAL_Driver/Src/stm32f3xx_hal_dma.c ****     __HAL_DMA_CLEAR_FLAG(hdma, __HAL_DMA_GET_GI_FLAG_INDEX(hdma));
 1256              		.loc 1 445 0
 1257 0042 7B68     		ldr	r3, [r7, #4]
 1258 0044 1B68     		ldr	r3, [r3]
 1259 0046 1A46     		mov	r2, r3
 1260 0048 6F4B     		ldr	r3, .L210
 1261 004a 9A42     		cmp	r2, r3
 1262 004c 63D9     		bls	.L163
 1263              		.loc 1 445 0 is_stmt 0 discriminator 1
 1264 004e 6F4A     		ldr	r2, .L210+4
 1265 0050 7B68     		ldr	r3, [r7, #4]
 1266 0052 1B68     		ldr	r3, [r3]
 1267 0054 1946     		mov	r1, r3
 1268 0056 6E4B     		ldr	r3, .L210+8
 1269 0058 9942     		cmp	r1, r3
 1270 005a 59D0     		beq	.L164
 1271 005c 7B68     		ldr	r3, [r7, #4]
ARM GAS  /tmp/ccWSeizr.s 			page 31


 1272 005e 1B68     		ldr	r3, [r3]
 1273 0060 1946     		mov	r1, r3
 1274 0062 6C4B     		ldr	r3, .L210+12
 1275 0064 9942     		cmp	r1, r3
 1276 0066 51D0     		beq	.L165
 1277 0068 7B68     		ldr	r3, [r7, #4]
 1278 006a 1B68     		ldr	r3, [r3]
 1279 006c 1946     		mov	r1, r3
 1280 006e 6A4B     		ldr	r3, .L210+16
 1281 0070 9942     		cmp	r1, r3
 1282 0072 48D0     		beq	.L166
 1283 0074 7B68     		ldr	r3, [r7, #4]
 1284 0076 1B68     		ldr	r3, [r3]
 1285 0078 1946     		mov	r1, r3
 1286 007a 684B     		ldr	r3, .L210+20
 1287 007c 9942     		cmp	r1, r3
 1288 007e 3FD0     		beq	.L167
 1289 0080 7B68     		ldr	r3, [r7, #4]
 1290 0082 1B68     		ldr	r3, [r3]
 1291 0084 1946     		mov	r1, r3
 1292 0086 664B     		ldr	r3, .L210+24
 1293 0088 9942     		cmp	r1, r3
 1294 008a 36D0     		beq	.L168
 1295 008c 7B68     		ldr	r3, [r7, #4]
 1296 008e 1B68     		ldr	r3, [r3]
 1297 0090 1946     		mov	r1, r3
 1298 0092 644B     		ldr	r3, .L210+28
 1299 0094 9942     		cmp	r1, r3
 1300 0096 2DD0     		beq	.L169
 1301 0098 7B68     		ldr	r3, [r7, #4]
 1302 009a 1B68     		ldr	r3, [r3]
 1303 009c 1946     		mov	r1, r3
 1304 009e 5A4B     		ldr	r3, .L210
 1305 00a0 9942     		cmp	r1, r3
 1306 00a2 24D0     		beq	.L170
 1307 00a4 7B68     		ldr	r3, [r7, #4]
 1308 00a6 1B68     		ldr	r3, [r3]
 1309 00a8 1946     		mov	r1, r3
 1310 00aa 5F4B     		ldr	r3, .L210+32
 1311 00ac 9942     		cmp	r1, r3
 1312 00ae 1CD0     		beq	.L171
 1313 00b0 7B68     		ldr	r3, [r7, #4]
 1314 00b2 1B68     		ldr	r3, [r3]
 1315 00b4 1946     		mov	r1, r3
 1316 00b6 5D4B     		ldr	r3, .L210+36
 1317 00b8 9942     		cmp	r1, r3
 1318 00ba 14D0     		beq	.L172
 1319 00bc 7B68     		ldr	r3, [r7, #4]
 1320 00be 1B68     		ldr	r3, [r3]
 1321 00c0 1946     		mov	r1, r3
 1322 00c2 5B4B     		ldr	r3, .L210+40
 1323 00c4 9942     		cmp	r1, r3
 1324 00c6 0BD0     		beq	.L173
 1325 00c8 7B68     		ldr	r3, [r7, #4]
 1326 00ca 1B68     		ldr	r3, [r3]
 1327 00cc 1946     		mov	r1, r3
 1328 00ce 594B     		ldr	r3, .L210+44
ARM GAS  /tmp/ccWSeizr.s 			page 32


 1329 00d0 9942     		cmp	r1, r3
 1330 00d2 02D1     		bne	.L174
 1331 00d4 4FF48053 		mov	r3, #4096
 1332 00d8 1BE0     		b	.L185
 1333              	.L174:
 1334              		.loc 1 445 0 discriminator 2
 1335 00da 4FF48033 		mov	r3, #65536
 1336 00de 18E0     		b	.L185
 1337              	.L173:
 1338 00e0 4FF48073 		mov	r3, #256
 1339 00e4 15E0     		b	.L185
 1340              	.L172:
 1341 00e6 1023     		movs	r3, #16
 1342 00e8 13E0     		b	.L185
 1343              	.L171:
 1344 00ea 0123     		movs	r3, #1
 1345 00ec 11E0     		b	.L185
 1346              	.L170:
 1347 00ee 4FF08073 		mov	r3, #16777216
 1348 00f2 0EE0     		b	.L185
 1349              	.L169:
 1350 00f4 4FF48013 		mov	r3, #1048576
 1351 00f8 0BE0     		b	.L185
 1352              	.L168:
 1353 00fa 4FF48033 		mov	r3, #65536
 1354 00fe 08E0     		b	.L185
 1355              	.L167:
 1356 0100 4FF48053 		mov	r3, #4096
 1357 0104 05E0     		b	.L185
 1358              	.L166:
 1359 0106 4FF48073 		mov	r3, #256
 1360 010a 02E0     		b	.L185
 1361              	.L165:
 1362 010c 1023     		movs	r3, #16
 1363 010e 00E0     		b	.L185
 1364              	.L164:
 1365 0110 0123     		movs	r3, #1
 1366              	.L185:
 1367              		.loc 1 445 0 discriminator 11
 1368 0112 5360     		str	r3, [r2, #4]
 1369 0114 62E0     		b	.L186
 1370              	.L163:
 1371              		.loc 1 445 0 discriminator 2
 1372 0116 484A     		ldr	r2, .L210+48
 1373 0118 7B68     		ldr	r3, [r7, #4]
 1374 011a 1B68     		ldr	r3, [r3]
 1375 011c 1946     		mov	r1, r3
 1376 011e 3C4B     		ldr	r3, .L210+8
 1377 0120 9942     		cmp	r1, r3
 1378 0122 59D0     		beq	.L187
 1379              		.loc 1 445 0 discriminator 1
 1380 0124 7B68     		ldr	r3, [r7, #4]
 1381 0126 1B68     		ldr	r3, [r3]
 1382 0128 1946     		mov	r1, r3
 1383 012a 3A4B     		ldr	r3, .L210+12
 1384 012c 9942     		cmp	r1, r3
 1385 012e 51D0     		beq	.L188
ARM GAS  /tmp/ccWSeizr.s 			page 33


 1386 0130 7B68     		ldr	r3, [r7, #4]
 1387 0132 1B68     		ldr	r3, [r3]
 1388 0134 1946     		mov	r1, r3
 1389 0136 384B     		ldr	r3, .L210+16
 1390 0138 9942     		cmp	r1, r3
 1391 013a 48D0     		beq	.L189
 1392 013c 7B68     		ldr	r3, [r7, #4]
 1393 013e 1B68     		ldr	r3, [r3]
 1394 0140 1946     		mov	r1, r3
 1395 0142 364B     		ldr	r3, .L210+20
 1396 0144 9942     		cmp	r1, r3
 1397 0146 3FD0     		beq	.L190
 1398 0148 7B68     		ldr	r3, [r7, #4]
 1399 014a 1B68     		ldr	r3, [r3]
 1400 014c 1946     		mov	r1, r3
 1401 014e 344B     		ldr	r3, .L210+24
 1402 0150 9942     		cmp	r1, r3
 1403 0152 36D0     		beq	.L191
 1404 0154 7B68     		ldr	r3, [r7, #4]
 1405 0156 1B68     		ldr	r3, [r3]
 1406 0158 1946     		mov	r1, r3
 1407 015a 324B     		ldr	r3, .L210+28
 1408 015c 9942     		cmp	r1, r3
 1409 015e 2DD0     		beq	.L192
 1410 0160 7B68     		ldr	r3, [r7, #4]
 1411 0162 1B68     		ldr	r3, [r3]
 1412 0164 1946     		mov	r1, r3
 1413 0166 284B     		ldr	r3, .L210
 1414 0168 9942     		cmp	r1, r3
 1415 016a 24D0     		beq	.L193
 1416 016c 7B68     		ldr	r3, [r7, #4]
 1417 016e 1B68     		ldr	r3, [r3]
 1418 0170 1946     		mov	r1, r3
 1419 0172 2D4B     		ldr	r3, .L210+32
 1420 0174 9942     		cmp	r1, r3
 1421 0176 1CD0     		beq	.L194
 1422 0178 7B68     		ldr	r3, [r7, #4]
 1423 017a 1B68     		ldr	r3, [r3]
 1424 017c 1946     		mov	r1, r3
 1425 017e 2B4B     		ldr	r3, .L210+36
 1426 0180 9942     		cmp	r1, r3
 1427 0182 14D0     		beq	.L195
 1428 0184 7B68     		ldr	r3, [r7, #4]
 1429 0186 1B68     		ldr	r3, [r3]
 1430 0188 1946     		mov	r1, r3
 1431 018a 294B     		ldr	r3, .L210+40
 1432 018c 9942     		cmp	r1, r3
 1433 018e 0BD0     		beq	.L196
 1434 0190 7B68     		ldr	r3, [r7, #4]
 1435 0192 1B68     		ldr	r3, [r3]
 1436 0194 1946     		mov	r1, r3
 1437 0196 274B     		ldr	r3, .L210+44
 1438 0198 9942     		cmp	r1, r3
 1439 019a 02D1     		bne	.L197
 1440 019c 4FF48053 		mov	r3, #4096
 1441 01a0 1BE0     		b	.L208
 1442              	.L197:
ARM GAS  /tmp/ccWSeizr.s 			page 34


 1443              		.loc 1 445 0 discriminator 2
 1444 01a2 4FF48033 		mov	r3, #65536
 1445 01a6 18E0     		b	.L208
 1446              	.L196:
 1447 01a8 4FF48073 		mov	r3, #256
 1448 01ac 15E0     		b	.L208
 1449              	.L195:
 1450 01ae 1023     		movs	r3, #16
 1451 01b0 13E0     		b	.L208
 1452              	.L194:
 1453 01b2 0123     		movs	r3, #1
 1454 01b4 11E0     		b	.L208
 1455              	.L193:
 1456 01b6 4FF08073 		mov	r3, #16777216
 1457 01ba 0EE0     		b	.L208
 1458              	.L192:
 1459 01bc 4FF48013 		mov	r3, #1048576
 1460 01c0 0BE0     		b	.L208
 1461              	.L191:
 1462 01c2 4FF48033 		mov	r3, #65536
 1463 01c6 08E0     		b	.L208
 1464              	.L190:
 1465 01c8 4FF48053 		mov	r3, #4096
 1466 01cc 05E0     		b	.L208
 1467              	.L189:
 1468 01ce 4FF48073 		mov	r3, #256
 1469 01d2 02E0     		b	.L208
 1470              	.L188:
 1471 01d4 1023     		movs	r3, #16
 1472 01d6 00E0     		b	.L208
 1473              	.L187:
 1474 01d8 0123     		movs	r3, #1
 1475              	.L208:
 1476              		.loc 1 445 0 discriminator 3
 1477 01da 5360     		str	r3, [r2, #4]
 1478              	.L186:
 446:Drivers/STM32F3xx_HAL_Driver/Src/stm32f3xx_hal_dma.c ****     
 447:Drivers/STM32F3xx_HAL_Driver/Src/stm32f3xx_hal_dma.c ****     /* Change the DMA state */
 448:Drivers/STM32F3xx_HAL_Driver/Src/stm32f3xx_hal_dma.c ****     hdma->State = HAL_DMA_STATE_READY;
 1479              		.loc 1 448 0 is_stmt 1
 1480 01dc 7B68     		ldr	r3, [r7, #4]
 1481 01de 0122     		movs	r2, #1
 1482 01e0 83F82120 		strb	r2, [r3, #33]
 449:Drivers/STM32F3xx_HAL_Driver/Src/stm32f3xx_hal_dma.c ****     
 450:Drivers/STM32F3xx_HAL_Driver/Src/stm32f3xx_hal_dma.c ****     /* Process Unlocked */
 451:Drivers/STM32F3xx_HAL_Driver/Src/stm32f3xx_hal_dma.c ****     __HAL_UNLOCK(hdma);
 1483              		.loc 1 451 0
 1484 01e4 7B68     		ldr	r3, [r7, #4]
 1485 01e6 0022     		movs	r2, #0
 1486 01e8 83F82020 		strb	r2, [r3, #32]
 452:Drivers/STM32F3xx_HAL_Driver/Src/stm32f3xx_hal_dma.c ****     
 453:Drivers/STM32F3xx_HAL_Driver/Src/stm32f3xx_hal_dma.c ****     /* Call User Abort callback */ 
 454:Drivers/STM32F3xx_HAL_Driver/Src/stm32f3xx_hal_dma.c ****     if(hdma->XferAbortCallback != NULL)
 1487              		.loc 1 454 0
 1488 01ec 7B68     		ldr	r3, [r7, #4]
 1489 01ee 5B6B     		ldr	r3, [r3, #52]
 1490 01f0 002B     		cmp	r3, #0
ARM GAS  /tmp/ccWSeizr.s 			page 35


 1491 01f2 03D0     		beq	.L162
 455:Drivers/STM32F3xx_HAL_Driver/Src/stm32f3xx_hal_dma.c ****     {
 456:Drivers/STM32F3xx_HAL_Driver/Src/stm32f3xx_hal_dma.c ****       hdma->XferAbortCallback(hdma);
 1492              		.loc 1 456 0
 1493 01f4 7B68     		ldr	r3, [r7, #4]
 1494 01f6 5B6B     		ldr	r3, [r3, #52]
 1495 01f8 7868     		ldr	r0, [r7, #4]
 1496 01fa 9847     		blx	r3
 1497              	.L162:
 457:Drivers/STM32F3xx_HAL_Driver/Src/stm32f3xx_hal_dma.c ****     } 
 458:Drivers/STM32F3xx_HAL_Driver/Src/stm32f3xx_hal_dma.c ****   }
 459:Drivers/STM32F3xx_HAL_Driver/Src/stm32f3xx_hal_dma.c ****   return status;
 1498              		.loc 1 459 0
 1499 01fc FB7B     		ldrb	r3, [r7, #15]	@ zero_extendqisi2
 460:Drivers/STM32F3xx_HAL_Driver/Src/stm32f3xx_hal_dma.c **** }
 1500              		.loc 1 460 0
 1501 01fe 1846     		mov	r0, r3
 1502 0200 1037     		adds	r7, r7, #16
 1503 0202 BD46     		mov	sp, r7
 1504              		@ sp needed
 1505 0204 80BD     		pop	{r7, pc}
 1506              	.L211:
 1507 0206 00BF     		.align	2
 1508              	.L210:
 1509 0208 80000240 		.word	1073873024
 1510 020c 00040240 		.word	1073873920
 1511 0210 08000240 		.word	1073872904
 1512 0214 1C000240 		.word	1073872924
 1513 0218 30000240 		.word	1073872944
 1514 021c 44000240 		.word	1073872964
 1515 0220 58000240 		.word	1073872984
 1516 0224 6C000240 		.word	1073873004
 1517 0228 08040240 		.word	1073873928
 1518 022c 1C040240 		.word	1073873948
 1519 0230 30040240 		.word	1073873968
 1520 0234 44040240 		.word	1073873988
 1521 0238 00000240 		.word	1073872896
 1522              		.cfi_endproc
 1523              	.LFE130:
 1525              		.section	.text.HAL_DMA_PollForTransfer,"ax",%progbits
 1526              		.align	2
 1527              		.global	HAL_DMA_PollForTransfer
 1528              		.thumb
 1529              		.thumb_func
 1531              	HAL_DMA_PollForTransfer:
 1532              	.LFB131:
 461:Drivers/STM32F3xx_HAL_Driver/Src/stm32f3xx_hal_dma.c **** 
 462:Drivers/STM32F3xx_HAL_Driver/Src/stm32f3xx_hal_dma.c **** /**
 463:Drivers/STM32F3xx_HAL_Driver/Src/stm32f3xx_hal_dma.c ****   * @brief  Polling for transfer complete.
 464:Drivers/STM32F3xx_HAL_Driver/Src/stm32f3xx_hal_dma.c ****   * @param  hdma:    pointer to a DMA_HandleTypeDef structure that contains
 465:Drivers/STM32F3xx_HAL_Driver/Src/stm32f3xx_hal_dma.c ****   *                  the configuration information for the specified DMA Channel.
 466:Drivers/STM32F3xx_HAL_Driver/Src/stm32f3xx_hal_dma.c ****   * @param  CompleteLevel: Specifies the DMA level complete.  
 467:Drivers/STM32F3xx_HAL_Driver/Src/stm32f3xx_hal_dma.c ****   * @param  Timeout:       Timeout duration.
 468:Drivers/STM32F3xx_HAL_Driver/Src/stm32f3xx_hal_dma.c ****   * @retval HAL status
 469:Drivers/STM32F3xx_HAL_Driver/Src/stm32f3xx_hal_dma.c ****   */
 470:Drivers/STM32F3xx_HAL_Driver/Src/stm32f3xx_hal_dma.c **** HAL_StatusTypeDef HAL_DMA_PollForTransfer(DMA_HandleTypeDef *hdma, uint32_t CompleteLevel, uint32_t
 471:Drivers/STM32F3xx_HAL_Driver/Src/stm32f3xx_hal_dma.c **** {
ARM GAS  /tmp/ccWSeizr.s 			page 36


 1533              		.loc 1 471 0
 1534              		.cfi_startproc
 1535              		@ args = 0, pretend = 0, frame = 24
 1536              		@ frame_needed = 1, uses_anonymous_args = 0
 1537 0000 80B5     		push	{r7, lr}
 1538              	.LCFI18:
 1539              		.cfi_def_cfa_offset 8
 1540              		.cfi_offset 7, -8
 1541              		.cfi_offset 14, -4
 1542 0002 86B0     		sub	sp, sp, #24
 1543              	.LCFI19:
 1544              		.cfi_def_cfa_offset 32
 1545 0004 00AF     		add	r7, sp, #0
 1546              	.LCFI20:
 1547              		.cfi_def_cfa_register 7
 1548 0006 F860     		str	r0, [r7, #12]
 1549 0008 B960     		str	r1, [r7, #8]
 1550 000a 7A60     		str	r2, [r7, #4]
 472:Drivers/STM32F3xx_HAL_Driver/Src/stm32f3xx_hal_dma.c ****   uint32_t temp;
 473:Drivers/STM32F3xx_HAL_Driver/Src/stm32f3xx_hal_dma.c ****   uint32_t tickstart = 0x00;
 1551              		.loc 1 473 0
 1552 000c 0023     		movs	r3, #0
 1553 000e 3B61     		str	r3, [r7, #16]
 474:Drivers/STM32F3xx_HAL_Driver/Src/stm32f3xx_hal_dma.c ****   
 475:Drivers/STM32F3xx_HAL_Driver/Src/stm32f3xx_hal_dma.c ****   /* Get the level transfer complete flag */
 476:Drivers/STM32F3xx_HAL_Driver/Src/stm32f3xx_hal_dma.c ****   if(CompleteLevel == HAL_DMA_FULL_TRANSFER)
 1554              		.loc 1 476 0
 1555 0010 BB68     		ldr	r3, [r7, #8]
 1556 0012 002B     		cmp	r3, #0
 1557 0014 62D1     		bne	.L213
 477:Drivers/STM32F3xx_HAL_Driver/Src/stm32f3xx_hal_dma.c ****   {
 478:Drivers/STM32F3xx_HAL_Driver/Src/stm32f3xx_hal_dma.c ****     /* Transfer Complete flag */
 479:Drivers/STM32F3xx_HAL_Driver/Src/stm32f3xx_hal_dma.c ****     temp = __HAL_DMA_GET_TC_FLAG_INDEX(hdma);
 1558              		.loc 1 479 0
 1559 0016 FB68     		ldr	r3, [r7, #12]
 1560 0018 1B68     		ldr	r3, [r3]
 1561 001a 1A46     		mov	r2, r3
 1562 001c 964B     		ldr	r3, .L452
 1563 001e 9A42     		cmp	r2, r3
 1564 0020 59D0     		beq	.L214
 1565              		.loc 1 479 0 is_stmt 0 discriminator 1
 1566 0022 FB68     		ldr	r3, [r7, #12]
 1567 0024 1B68     		ldr	r3, [r3]
 1568 0026 1A46     		mov	r2, r3
 1569 0028 944B     		ldr	r3, .L452+4
 1570 002a 9A42     		cmp	r2, r3
 1571 002c 51D0     		beq	.L215
 1572 002e FB68     		ldr	r3, [r7, #12]
 1573 0030 1B68     		ldr	r3, [r3]
 1574 0032 1A46     		mov	r2, r3
 1575 0034 924B     		ldr	r3, .L452+8
 1576 0036 9A42     		cmp	r2, r3
 1577 0038 48D0     		beq	.L216
 1578 003a FB68     		ldr	r3, [r7, #12]
 1579 003c 1B68     		ldr	r3, [r3]
 1580 003e 1A46     		mov	r2, r3
 1581 0040 904B     		ldr	r3, .L452+12
ARM GAS  /tmp/ccWSeizr.s 			page 37


 1582 0042 9A42     		cmp	r2, r3
 1583 0044 3FD0     		beq	.L217
 1584 0046 FB68     		ldr	r3, [r7, #12]
 1585 0048 1B68     		ldr	r3, [r3]
 1586 004a 1A46     		mov	r2, r3
 1587 004c 8E4B     		ldr	r3, .L452+16
 1588 004e 9A42     		cmp	r2, r3
 1589 0050 36D0     		beq	.L218
 1590 0052 FB68     		ldr	r3, [r7, #12]
 1591 0054 1B68     		ldr	r3, [r3]
 1592 0056 1A46     		mov	r2, r3
 1593 0058 8C4B     		ldr	r3, .L452+20
 1594 005a 9A42     		cmp	r2, r3
 1595 005c 2DD0     		beq	.L219
 1596 005e FB68     		ldr	r3, [r7, #12]
 1597 0060 1B68     		ldr	r3, [r3]
 1598 0062 1A46     		mov	r2, r3
 1599 0064 8A4B     		ldr	r3, .L452+24
 1600 0066 9A42     		cmp	r2, r3
 1601 0068 24D0     		beq	.L220
 1602 006a FB68     		ldr	r3, [r7, #12]
 1603 006c 1B68     		ldr	r3, [r3]
 1604 006e 1A46     		mov	r2, r3
 1605 0070 884B     		ldr	r3, .L452+28
 1606 0072 9A42     		cmp	r2, r3
 1607 0074 1CD0     		beq	.L221
 1608 0076 FB68     		ldr	r3, [r7, #12]
 1609 0078 1B68     		ldr	r3, [r3]
 1610 007a 1A46     		mov	r2, r3
 1611 007c 864B     		ldr	r3, .L452+32
 1612 007e 9A42     		cmp	r2, r3
 1613 0080 14D0     		beq	.L222
 1614 0082 FB68     		ldr	r3, [r7, #12]
 1615 0084 1B68     		ldr	r3, [r3]
 1616 0086 1A46     		mov	r2, r3
 1617 0088 844B     		ldr	r3, .L452+36
 1618 008a 9A42     		cmp	r2, r3
 1619 008c 0BD0     		beq	.L223
 1620 008e FB68     		ldr	r3, [r7, #12]
 1621 0090 1B68     		ldr	r3, [r3]
 1622 0092 1A46     		mov	r2, r3
 1623 0094 824B     		ldr	r3, .L452+40
 1624 0096 9A42     		cmp	r2, r3
 1625 0098 02D1     		bne	.L224
 1626 009a 4FF40053 		mov	r3, #8192
 1627 009e 1BE0     		b	.L235
 1628              	.L224:
 1629              		.loc 1 479 0 discriminator 2
 1630 00a0 4FF40033 		mov	r3, #131072
 1631 00a4 18E0     		b	.L235
 1632              	.L223:
 1633 00a6 4FF40073 		mov	r3, #512
 1634 00aa 15E0     		b	.L235
 1635              	.L222:
 1636 00ac 2023     		movs	r3, #32
 1637 00ae 13E0     		b	.L235
 1638              	.L221:
ARM GAS  /tmp/ccWSeizr.s 			page 38


 1639 00b0 0223     		movs	r3, #2
 1640 00b2 11E0     		b	.L235
 1641              	.L220:
 1642 00b4 4FF00073 		mov	r3, #33554432
 1643 00b8 0EE0     		b	.L235
 1644              	.L219:
 1645 00ba 4FF40013 		mov	r3, #2097152
 1646 00be 0BE0     		b	.L235
 1647              	.L218:
 1648 00c0 4FF40033 		mov	r3, #131072
 1649 00c4 08E0     		b	.L235
 1650              	.L217:
 1651 00c6 4FF40053 		mov	r3, #8192
 1652 00ca 05E0     		b	.L235
 1653              	.L216:
 1654 00cc 4FF40073 		mov	r3, #512
 1655 00d0 02E0     		b	.L235
 1656              	.L215:
 1657 00d2 2023     		movs	r3, #32
 1658 00d4 00E0     		b	.L235
 1659              	.L214:
 1660 00d6 0223     		movs	r3, #2
 1661              	.L235:
 1662              		.loc 1 479 0 discriminator 11
 1663 00d8 7B61     		str	r3, [r7, #20]
 1664 00da 61E0     		b	.L236
 1665              	.L213:
 480:Drivers/STM32F3xx_HAL_Driver/Src/stm32f3xx_hal_dma.c ****   }
 481:Drivers/STM32F3xx_HAL_Driver/Src/stm32f3xx_hal_dma.c ****   else
 482:Drivers/STM32F3xx_HAL_Driver/Src/stm32f3xx_hal_dma.c ****   {
 483:Drivers/STM32F3xx_HAL_Driver/Src/stm32f3xx_hal_dma.c ****     /* Half Transfer Complete flag */
 484:Drivers/STM32F3xx_HAL_Driver/Src/stm32f3xx_hal_dma.c ****     temp = __HAL_DMA_GET_HT_FLAG_INDEX(hdma);
 1666              		.loc 1 484 0 is_stmt 1
 1667 00dc FB68     		ldr	r3, [r7, #12]
 1668 00de 1B68     		ldr	r3, [r3]
 1669 00e0 1A46     		mov	r2, r3
 1670 00e2 654B     		ldr	r3, .L452
 1671 00e4 9A42     		cmp	r2, r3
 1672 00e6 59D0     		beq	.L237
 1673              		.loc 1 484 0 is_stmt 0 discriminator 1
 1674 00e8 FB68     		ldr	r3, [r7, #12]
 1675 00ea 1B68     		ldr	r3, [r3]
 1676 00ec 1A46     		mov	r2, r3
 1677 00ee 634B     		ldr	r3, .L452+4
 1678 00f0 9A42     		cmp	r2, r3
 1679 00f2 51D0     		beq	.L238
 1680 00f4 FB68     		ldr	r3, [r7, #12]
 1681 00f6 1B68     		ldr	r3, [r3]
 1682 00f8 1A46     		mov	r2, r3
 1683 00fa 614B     		ldr	r3, .L452+8
 1684 00fc 9A42     		cmp	r2, r3
 1685 00fe 48D0     		beq	.L239
 1686 0100 FB68     		ldr	r3, [r7, #12]
 1687 0102 1B68     		ldr	r3, [r3]
 1688 0104 1A46     		mov	r2, r3
 1689 0106 5F4B     		ldr	r3, .L452+12
 1690 0108 9A42     		cmp	r2, r3
ARM GAS  /tmp/ccWSeizr.s 			page 39


 1691 010a 3FD0     		beq	.L240
 1692 010c FB68     		ldr	r3, [r7, #12]
 1693 010e 1B68     		ldr	r3, [r3]
 1694 0110 1A46     		mov	r2, r3
 1695 0112 5D4B     		ldr	r3, .L452+16
 1696 0114 9A42     		cmp	r2, r3
 1697 0116 36D0     		beq	.L241
 1698 0118 FB68     		ldr	r3, [r7, #12]
 1699 011a 1B68     		ldr	r3, [r3]
 1700 011c 1A46     		mov	r2, r3
 1701 011e 5B4B     		ldr	r3, .L452+20
 1702 0120 9A42     		cmp	r2, r3
 1703 0122 2DD0     		beq	.L242
 1704 0124 FB68     		ldr	r3, [r7, #12]
 1705 0126 1B68     		ldr	r3, [r3]
 1706 0128 1A46     		mov	r2, r3
 1707 012a 594B     		ldr	r3, .L452+24
 1708 012c 9A42     		cmp	r2, r3
 1709 012e 24D0     		beq	.L243
 1710 0130 FB68     		ldr	r3, [r7, #12]
 1711 0132 1B68     		ldr	r3, [r3]
 1712 0134 1A46     		mov	r2, r3
 1713 0136 574B     		ldr	r3, .L452+28
 1714 0138 9A42     		cmp	r2, r3
 1715 013a 1CD0     		beq	.L244
 1716 013c FB68     		ldr	r3, [r7, #12]
 1717 013e 1B68     		ldr	r3, [r3]
 1718 0140 1A46     		mov	r2, r3
 1719 0142 554B     		ldr	r3, .L452+32
 1720 0144 9A42     		cmp	r2, r3
 1721 0146 14D0     		beq	.L245
 1722 0148 FB68     		ldr	r3, [r7, #12]
 1723 014a 1B68     		ldr	r3, [r3]
 1724 014c 1A46     		mov	r2, r3
 1725 014e 534B     		ldr	r3, .L452+36
 1726 0150 9A42     		cmp	r2, r3
 1727 0152 0BD0     		beq	.L246
 1728 0154 FB68     		ldr	r3, [r7, #12]
 1729 0156 1B68     		ldr	r3, [r3]
 1730 0158 1A46     		mov	r2, r3
 1731 015a 514B     		ldr	r3, .L452+40
 1732 015c 9A42     		cmp	r2, r3
 1733 015e 02D1     		bne	.L247
 1734 0160 4FF48043 		mov	r3, #16384
 1735 0164 1BE0     		b	.L258
 1736              	.L247:
 1737              		.loc 1 484 0 discriminator 2
 1738 0166 4FF48023 		mov	r3, #262144
 1739 016a 18E0     		b	.L258
 1740              	.L246:
 1741 016c 4FF48063 		mov	r3, #1024
 1742 0170 15E0     		b	.L258
 1743              	.L245:
 1744 0172 4023     		movs	r3, #64
 1745 0174 13E0     		b	.L258
 1746              	.L244:
 1747 0176 0423     		movs	r3, #4
ARM GAS  /tmp/ccWSeizr.s 			page 40


 1748 0178 11E0     		b	.L258
 1749              	.L243:
 1750 017a 4FF08063 		mov	r3, #67108864
 1751 017e 0EE0     		b	.L258
 1752              	.L242:
 1753 0180 4FF48003 		mov	r3, #4194304
 1754 0184 0BE0     		b	.L258
 1755              	.L241:
 1756 0186 4FF48023 		mov	r3, #262144
 1757 018a 08E0     		b	.L258
 1758              	.L240:
 1759 018c 4FF48043 		mov	r3, #16384
 1760 0190 05E0     		b	.L258
 1761              	.L239:
 1762 0192 4FF48063 		mov	r3, #1024
 1763 0196 02E0     		b	.L258
 1764              	.L238:
 1765 0198 4023     		movs	r3, #64
 1766 019a 00E0     		b	.L258
 1767              	.L237:
 1768 019c 0423     		movs	r3, #4
 1769              	.L258:
 1770              		.loc 1 484 0 discriminator 3
 1771 019e 7B61     		str	r3, [r7, #20]
 1772              	.L236:
 485:Drivers/STM32F3xx_HAL_Driver/Src/stm32f3xx_hal_dma.c ****   }
 486:Drivers/STM32F3xx_HAL_Driver/Src/stm32f3xx_hal_dma.c **** 
 487:Drivers/STM32F3xx_HAL_Driver/Src/stm32f3xx_hal_dma.c ****   /* Get tick */
 488:Drivers/STM32F3xx_HAL_Driver/Src/stm32f3xx_hal_dma.c ****   tickstart = HAL_GetTick();
 1773              		.loc 1 488 0 is_stmt 1
 1774 01a0 FFF7FEFF 		bl	HAL_GetTick
 1775 01a4 3861     		str	r0, [r7, #16]
 489:Drivers/STM32F3xx_HAL_Driver/Src/stm32f3xx_hal_dma.c **** 
 490:Drivers/STM32F3xx_HAL_Driver/Src/stm32f3xx_hal_dma.c ****   while(__HAL_DMA_GET_FLAG(hdma, temp) == RESET)
 1776              		.loc 1 490 0
 1777 01a6 0BE2     		b	.L259
 1778              	.L357:
 491:Drivers/STM32F3xx_HAL_Driver/Src/stm32f3xx_hal_dma.c ****   {
 492:Drivers/STM32F3xx_HAL_Driver/Src/stm32f3xx_hal_dma.c ****     if((__HAL_DMA_GET_FLAG(hdma, __HAL_DMA_GET_TE_FLAG_INDEX(hdma)) != RESET))
 1779              		.loc 1 492 0
 1780 01a8 FB68     		ldr	r3, [r7, #12]
 1781 01aa 1B68     		ldr	r3, [r3]
 1782 01ac 1A46     		mov	r2, r3
 1783 01ae 384B     		ldr	r3, .L452+24
 1784 01b0 9A42     		cmp	r2, r3
 1785 01b2 40F28380 		bls	.L260
 1786              		.loc 1 492 0 is_stmt 0 discriminator 1
 1787 01b6 3B4B     		ldr	r3, .L452+44
 1788 01b8 1A68     		ldr	r2, [r3]
 1789 01ba FB68     		ldr	r3, [r7, #12]
 1790 01bc 1B68     		ldr	r3, [r3]
 1791 01be 1946     		mov	r1, r3
 1792 01c0 2D4B     		ldr	r3, .L452
 1793 01c2 9942     		cmp	r1, r3
 1794 01c4 72D0     		beq	.L261
 1795 01c6 FB68     		ldr	r3, [r7, #12]
 1796 01c8 1B68     		ldr	r3, [r3]
ARM GAS  /tmp/ccWSeizr.s 			page 41


 1797 01ca 1946     		mov	r1, r3
 1798 01cc 2B4B     		ldr	r3, .L452+4
 1799 01ce 9942     		cmp	r1, r3
 1800 01d0 6AD0     		beq	.L262
 1801 01d2 FB68     		ldr	r3, [r7, #12]
 1802 01d4 1B68     		ldr	r3, [r3]
 1803 01d6 1946     		mov	r1, r3
 1804 01d8 294B     		ldr	r3, .L452+8
 1805 01da 9942     		cmp	r1, r3
 1806 01dc 48D0     		beq	.L263
 1807 01de FB68     		ldr	r3, [r7, #12]
 1808 01e0 1B68     		ldr	r3, [r3]
 1809 01e2 1946     		mov	r1, r3
 1810 01e4 274B     		ldr	r3, .L452+12
 1811 01e6 9942     		cmp	r1, r3
 1812 01e8 3FD0     		beq	.L264
 1813 01ea FB68     		ldr	r3, [r7, #12]
 1814 01ec 1B68     		ldr	r3, [r3]
 1815 01ee 1946     		mov	r1, r3
 1816 01f0 254B     		ldr	r3, .L452+16
 1817 01f2 9942     		cmp	r1, r3
 1818 01f4 36D0     		beq	.L265
 1819 01f6 FB68     		ldr	r3, [r7, #12]
 1820 01f8 1B68     		ldr	r3, [r3]
 1821 01fa 1946     		mov	r1, r3
 1822 01fc 234B     		ldr	r3, .L452+20
 1823 01fe 9942     		cmp	r1, r3
 1824 0200 2DD0     		beq	.L266
 1825 0202 FB68     		ldr	r3, [r7, #12]
 1826 0204 1B68     		ldr	r3, [r3]
 1827 0206 1946     		mov	r1, r3
 1828 0208 214B     		ldr	r3, .L452+24
 1829 020a 9942     		cmp	r1, r3
 1830 020c 24D0     		beq	.L267
 1831 020e FB68     		ldr	r3, [r7, #12]
 1832 0210 1B68     		ldr	r3, [r3]
 1833 0212 1946     		mov	r1, r3
 1834 0214 1F4B     		ldr	r3, .L452+28
 1835 0216 9942     		cmp	r1, r3
 1836 0218 1CD0     		beq	.L268
 1837 021a FB68     		ldr	r3, [r7, #12]
 1838 021c 1B68     		ldr	r3, [r3]
 1839 021e 1946     		mov	r1, r3
 1840 0220 1D4B     		ldr	r3, .L452+32
 1841 0222 9942     		cmp	r1, r3
 1842 0224 14D0     		beq	.L269
 1843 0226 FB68     		ldr	r3, [r7, #12]
 1844 0228 1B68     		ldr	r3, [r3]
 1845 022a 1946     		mov	r1, r3
 1846 022c 1B4B     		ldr	r3, .L452+36
 1847 022e 9942     		cmp	r1, r3
 1848 0230 0BD0     		beq	.L270
 1849 0232 FB68     		ldr	r3, [r7, #12]
 1850 0234 1B68     		ldr	r3, [r3]
 1851 0236 1946     		mov	r1, r3
 1852 0238 194B     		ldr	r3, .L452+40
 1853 023a 9942     		cmp	r1, r3
ARM GAS  /tmp/ccWSeizr.s 			page 42


 1854 023c 02D1     		bne	.L271
 1855 023e 4FF40043 		mov	r3, #32768
 1856 0242 34E0     		b	.L282
 1857              	.L271:
 1858              		.loc 1 492 0 discriminator 2
 1859 0244 4FF40023 		mov	r3, #524288
 1860 0248 31E0     		b	.L282
 1861              	.L270:
 1862 024a 4FF40063 		mov	r3, #2048
 1863 024e 2EE0     		b	.L282
 1864              	.L269:
 1865 0250 8023     		movs	r3, #128
 1866 0252 2CE0     		b	.L282
 1867              	.L268:
 1868 0254 0823     		movs	r3, #8
 1869 0256 2AE0     		b	.L282
 1870              	.L267:
 1871 0258 4FF00063 		mov	r3, #134217728
 1872 025c 27E0     		b	.L282
 1873              	.L266:
 1874 025e 4FF40003 		mov	r3, #8388608
 1875 0262 24E0     		b	.L282
 1876              	.L265:
 1877 0264 4FF40023 		mov	r3, #524288
 1878 0268 21E0     		b	.L282
 1879              	.L264:
 1880 026a 4FF40043 		mov	r3, #32768
 1881 026e 1EE0     		b	.L282
 1882              	.L263:
 1883 0270 4FF40063 		mov	r3, #2048
 1884 0274 1BE0     		b	.L282
 1885              	.L453:
 1886 0276 00BF     		.align	2
 1887              	.L452:
 1888 0278 08000240 		.word	1073872904
 1889 027c 1C000240 		.word	1073872924
 1890 0280 30000240 		.word	1073872944
 1891 0284 44000240 		.word	1073872964
 1892 0288 58000240 		.word	1073872984
 1893 028c 6C000240 		.word	1073873004
 1894 0290 80000240 		.word	1073873024
 1895 0294 08040240 		.word	1073873928
 1896 0298 1C040240 		.word	1073873948
 1897 029c 30040240 		.word	1073873968
 1898 02a0 44040240 		.word	1073873988
 1899 02a4 00040240 		.word	1073873920
 1900              	.L262:
 1901 02a8 8023     		movs	r3, #128
 1902 02aa 00E0     		b	.L282
 1903              	.L261:
 1904 02ac 0823     		movs	r3, #8
 1905              	.L282:
 1906              		.loc 1 492 0 discriminator 32
 1907 02ae 1340     		ands	r3, r3, r2
 1908 02b0 002B     		cmp	r3, #0
 1909 02b2 0CBF     		ite	eq
 1910 02b4 0023     		moveq	r3, #0
ARM GAS  /tmp/ccWSeizr.s 			page 43


 1911 02b6 0123     		movne	r3, #1
 1912 02b8 DBB2     		uxtb	r3, r3
 1913 02ba 68E0     		b	.L283
 1914              	.L260:
 1915              		.loc 1 492 0 discriminator 2
 1916 02bc 954B     		ldr	r3, .L454
 1917 02be 1A68     		ldr	r2, [r3]
 1918 02c0 FB68     		ldr	r3, [r7, #12]
 1919 02c2 1B68     		ldr	r3, [r3]
 1920 02c4 1946     		mov	r1, r3
 1921 02c6 944B     		ldr	r3, .L454+4
 1922 02c8 9942     		cmp	r1, r3
 1923 02ca 59D0     		beq	.L284
 1924              		.loc 1 492 0 discriminator 1
 1925 02cc FB68     		ldr	r3, [r7, #12]
 1926 02ce 1B68     		ldr	r3, [r3]
 1927 02d0 1946     		mov	r1, r3
 1928 02d2 924B     		ldr	r3, .L454+8
 1929 02d4 9942     		cmp	r1, r3
 1930 02d6 51D0     		beq	.L285
 1931 02d8 FB68     		ldr	r3, [r7, #12]
 1932 02da 1B68     		ldr	r3, [r3]
 1933 02dc 1946     		mov	r1, r3
 1934 02de 904B     		ldr	r3, .L454+12
 1935 02e0 9942     		cmp	r1, r3
 1936 02e2 48D0     		beq	.L286
 1937 02e4 FB68     		ldr	r3, [r7, #12]
 1938 02e6 1B68     		ldr	r3, [r3]
 1939 02e8 1946     		mov	r1, r3
 1940 02ea 8E4B     		ldr	r3, .L454+16
 1941 02ec 9942     		cmp	r1, r3
 1942 02ee 3FD0     		beq	.L287
 1943 02f0 FB68     		ldr	r3, [r7, #12]
 1944 02f2 1B68     		ldr	r3, [r3]
 1945 02f4 1946     		mov	r1, r3
 1946 02f6 8C4B     		ldr	r3, .L454+20
 1947 02f8 9942     		cmp	r1, r3
 1948 02fa 36D0     		beq	.L288
 1949 02fc FB68     		ldr	r3, [r7, #12]
 1950 02fe 1B68     		ldr	r3, [r3]
 1951 0300 1946     		mov	r1, r3
 1952 0302 8A4B     		ldr	r3, .L454+24
 1953 0304 9942     		cmp	r1, r3
 1954 0306 2DD0     		beq	.L289
 1955 0308 FB68     		ldr	r3, [r7, #12]
 1956 030a 1B68     		ldr	r3, [r3]
 1957 030c 1946     		mov	r1, r3
 1958 030e 884B     		ldr	r3, .L454+28
 1959 0310 9942     		cmp	r1, r3
 1960 0312 24D0     		beq	.L290
 1961 0314 FB68     		ldr	r3, [r7, #12]
 1962 0316 1B68     		ldr	r3, [r3]
 1963 0318 1946     		mov	r1, r3
 1964 031a 864B     		ldr	r3, .L454+32
 1965 031c 9942     		cmp	r1, r3
 1966 031e 1CD0     		beq	.L291
 1967 0320 FB68     		ldr	r3, [r7, #12]
ARM GAS  /tmp/ccWSeizr.s 			page 44


 1968 0322 1B68     		ldr	r3, [r3]
 1969 0324 1946     		mov	r1, r3
 1970 0326 844B     		ldr	r3, .L454+36
 1971 0328 9942     		cmp	r1, r3
 1972 032a 14D0     		beq	.L292
 1973 032c FB68     		ldr	r3, [r7, #12]
 1974 032e 1B68     		ldr	r3, [r3]
 1975 0330 1946     		mov	r1, r3
 1976 0332 824B     		ldr	r3, .L454+40
 1977 0334 9942     		cmp	r1, r3
 1978 0336 0BD0     		beq	.L293
 1979 0338 FB68     		ldr	r3, [r7, #12]
 1980 033a 1B68     		ldr	r3, [r3]
 1981 033c 1946     		mov	r1, r3
 1982 033e 804B     		ldr	r3, .L454+44
 1983 0340 9942     		cmp	r1, r3
 1984 0342 02D1     		bne	.L294
 1985 0344 4FF40043 		mov	r3, #32768
 1986 0348 1BE0     		b	.L305
 1987              	.L294:
 1988              		.loc 1 492 0 discriminator 2
 1989 034a 4FF40023 		mov	r3, #524288
 1990 034e 18E0     		b	.L305
 1991              	.L293:
 1992 0350 4FF40063 		mov	r3, #2048
 1993 0354 15E0     		b	.L305
 1994              	.L292:
 1995 0356 8023     		movs	r3, #128
 1996 0358 13E0     		b	.L305
 1997              	.L291:
 1998 035a 0823     		movs	r3, #8
 1999 035c 11E0     		b	.L305
 2000              	.L290:
 2001 035e 4FF00063 		mov	r3, #134217728
 2002 0362 0EE0     		b	.L305
 2003              	.L289:
 2004 0364 4FF40003 		mov	r3, #8388608
 2005 0368 0BE0     		b	.L305
 2006              	.L288:
 2007 036a 4FF40023 		mov	r3, #524288
 2008 036e 08E0     		b	.L305
 2009              	.L287:
 2010 0370 4FF40043 		mov	r3, #32768
 2011 0374 05E0     		b	.L305
 2012              	.L286:
 2013 0376 4FF40063 		mov	r3, #2048
 2014 037a 02E0     		b	.L305
 2015              	.L285:
 2016 037c 8023     		movs	r3, #128
 2017 037e 00E0     		b	.L305
 2018              	.L284:
 2019 0380 0823     		movs	r3, #8
 2020              	.L305:
 2021              		.loc 1 492 0 discriminator 3
 2022 0382 1340     		ands	r3, r3, r2
 2023 0384 002B     		cmp	r3, #0
 2024 0386 0CBF     		ite	eq
ARM GAS  /tmp/ccWSeizr.s 			page 45


 2025 0388 0023     		moveq	r3, #0
 2026 038a 0123     		movne	r3, #1
 2027 038c DBB2     		uxtb	r3, r3
 2028              	.L283:
 2029 038e 002B     		cmp	r3, #0
 2030 0390 00F0F780 		beq	.L306
 493:Drivers/STM32F3xx_HAL_Driver/Src/stm32f3xx_hal_dma.c ****     {      
 494:Drivers/STM32F3xx_HAL_Driver/Src/stm32f3xx_hal_dma.c ****       /* Clear the transfer error flags */
 495:Drivers/STM32F3xx_HAL_Driver/Src/stm32f3xx_hal_dma.c ****       __HAL_DMA_CLEAR_FLAG(hdma, __HAL_DMA_GET_TE_FLAG_INDEX(hdma));
 2031              		.loc 1 495 0 is_stmt 1
 2032 0394 FB68     		ldr	r3, [r7, #12]
 2033 0396 1B68     		ldr	r3, [r3]
 2034 0398 1A46     		mov	r2, r3
 2035 039a 654B     		ldr	r3, .L454+28
 2036 039c 9A42     		cmp	r2, r3
 2037 039e 63D9     		bls	.L307
 2038              		.loc 1 495 0 is_stmt 0 discriminator 1
 2039 03a0 684A     		ldr	r2, .L454+48
 2040 03a2 FB68     		ldr	r3, [r7, #12]
 2041 03a4 1B68     		ldr	r3, [r3]
 2042 03a6 1946     		mov	r1, r3
 2043 03a8 5B4B     		ldr	r3, .L454+4
 2044 03aa 9942     		cmp	r1, r3
 2045 03ac 59D0     		beq	.L308
 2046 03ae FB68     		ldr	r3, [r7, #12]
 2047 03b0 1B68     		ldr	r3, [r3]
 2048 03b2 1946     		mov	r1, r3
 2049 03b4 594B     		ldr	r3, .L454+8
 2050 03b6 9942     		cmp	r1, r3
 2051 03b8 51D0     		beq	.L309
 2052 03ba FB68     		ldr	r3, [r7, #12]
 2053 03bc 1B68     		ldr	r3, [r3]
 2054 03be 1946     		mov	r1, r3
 2055 03c0 574B     		ldr	r3, .L454+12
 2056 03c2 9942     		cmp	r1, r3
 2057 03c4 48D0     		beq	.L310
 2058 03c6 FB68     		ldr	r3, [r7, #12]
 2059 03c8 1B68     		ldr	r3, [r3]
 2060 03ca 1946     		mov	r1, r3
 2061 03cc 554B     		ldr	r3, .L454+16
 2062 03ce 9942     		cmp	r1, r3
 2063 03d0 3FD0     		beq	.L311
 2064 03d2 FB68     		ldr	r3, [r7, #12]
 2065 03d4 1B68     		ldr	r3, [r3]
 2066 03d6 1946     		mov	r1, r3
 2067 03d8 534B     		ldr	r3, .L454+20
 2068 03da 9942     		cmp	r1, r3
 2069 03dc 36D0     		beq	.L312
 2070 03de FB68     		ldr	r3, [r7, #12]
 2071 03e0 1B68     		ldr	r3, [r3]
 2072 03e2 1946     		mov	r1, r3
 2073 03e4 514B     		ldr	r3, .L454+24
 2074 03e6 9942     		cmp	r1, r3
 2075 03e8 2DD0     		beq	.L313
 2076 03ea FB68     		ldr	r3, [r7, #12]
 2077 03ec 1B68     		ldr	r3, [r3]
 2078 03ee 1946     		mov	r1, r3
ARM GAS  /tmp/ccWSeizr.s 			page 46


 2079 03f0 4F4B     		ldr	r3, .L454+28
 2080 03f2 9942     		cmp	r1, r3
 2081 03f4 24D0     		beq	.L314
 2082 03f6 FB68     		ldr	r3, [r7, #12]
 2083 03f8 1B68     		ldr	r3, [r3]
 2084 03fa 1946     		mov	r1, r3
 2085 03fc 4D4B     		ldr	r3, .L454+32
 2086 03fe 9942     		cmp	r1, r3
 2087 0400 1CD0     		beq	.L315
 2088 0402 FB68     		ldr	r3, [r7, #12]
 2089 0404 1B68     		ldr	r3, [r3]
 2090 0406 1946     		mov	r1, r3
 2091 0408 4B4B     		ldr	r3, .L454+36
 2092 040a 9942     		cmp	r1, r3
 2093 040c 14D0     		beq	.L316
 2094 040e FB68     		ldr	r3, [r7, #12]
 2095 0410 1B68     		ldr	r3, [r3]
 2096 0412 1946     		mov	r1, r3
 2097 0414 494B     		ldr	r3, .L454+40
 2098 0416 9942     		cmp	r1, r3
 2099 0418 0BD0     		beq	.L317
 2100 041a FB68     		ldr	r3, [r7, #12]
 2101 041c 1B68     		ldr	r3, [r3]
 2102 041e 1946     		mov	r1, r3
 2103 0420 474B     		ldr	r3, .L454+44
 2104 0422 9942     		cmp	r1, r3
 2105 0424 02D1     		bne	.L318
 2106 0426 4FF40043 		mov	r3, #32768
 2107 042a 1BE0     		b	.L329
 2108              	.L318:
 2109              		.loc 1 495 0 discriminator 2
 2110 042c 4FF40023 		mov	r3, #524288
 2111 0430 18E0     		b	.L329
 2112              	.L317:
 2113 0432 4FF40063 		mov	r3, #2048
 2114 0436 15E0     		b	.L329
 2115              	.L316:
 2116 0438 8023     		movs	r3, #128
 2117 043a 13E0     		b	.L329
 2118              	.L315:
 2119 043c 0823     		movs	r3, #8
 2120 043e 11E0     		b	.L329
 2121              	.L314:
 2122 0440 4FF00063 		mov	r3, #134217728
 2123 0444 0EE0     		b	.L329
 2124              	.L313:
 2125 0446 4FF40003 		mov	r3, #8388608
 2126 044a 0BE0     		b	.L329
 2127              	.L312:
 2128 044c 4FF40023 		mov	r3, #524288
 2129 0450 08E0     		b	.L329
 2130              	.L311:
 2131 0452 4FF40043 		mov	r3, #32768
 2132 0456 05E0     		b	.L329
 2133              	.L310:
 2134 0458 4FF40063 		mov	r3, #2048
 2135 045c 02E0     		b	.L329
ARM GAS  /tmp/ccWSeizr.s 			page 47


 2136              	.L309:
 2137 045e 8023     		movs	r3, #128
 2138 0460 00E0     		b	.L329
 2139              	.L308:
 2140 0462 0823     		movs	r3, #8
 2141              	.L329:
 2142              		.loc 1 495 0 discriminator 53
 2143 0464 5360     		str	r3, [r2, #4]
 2144 0466 7CE0     		b	.L330
 2145              	.L307:
 2146              		.loc 1 495 0 discriminator 2
 2147 0468 2A4A     		ldr	r2, .L454
 2148 046a FB68     		ldr	r3, [r7, #12]
 2149 046c 1B68     		ldr	r3, [r3]
 2150 046e 1946     		mov	r1, r3
 2151 0470 294B     		ldr	r3, .L454+4
 2152 0472 9942     		cmp	r1, r3
 2153 0474 73D0     		beq	.L331
 2154              		.loc 1 495 0 discriminator 1
 2155 0476 FB68     		ldr	r3, [r7, #12]
 2156 0478 1B68     		ldr	r3, [r3]
 2157 047a 1946     		mov	r1, r3
 2158 047c 274B     		ldr	r3, .L454+8
 2159 047e 9942     		cmp	r1, r3
 2160 0480 6BD0     		beq	.L332
 2161 0482 FB68     		ldr	r3, [r7, #12]
 2162 0484 1B68     		ldr	r3, [r3]
 2163 0486 1946     		mov	r1, r3
 2164 0488 254B     		ldr	r3, .L454+12
 2165 048a 9942     		cmp	r1, r3
 2166 048c 62D0     		beq	.L333
 2167 048e FB68     		ldr	r3, [r7, #12]
 2168 0490 1B68     		ldr	r3, [r3]
 2169 0492 1946     		mov	r1, r3
 2170 0494 234B     		ldr	r3, .L454+16
 2171 0496 9942     		cmp	r1, r3
 2172 0498 59D0     		beq	.L334
 2173 049a FB68     		ldr	r3, [r7, #12]
 2174 049c 1B68     		ldr	r3, [r3]
 2175 049e 1946     		mov	r1, r3
 2176 04a0 214B     		ldr	r3, .L454+20
 2177 04a2 9942     		cmp	r1, r3
 2178 04a4 50D0     		beq	.L335
 2179 04a6 FB68     		ldr	r3, [r7, #12]
 2180 04a8 1B68     		ldr	r3, [r3]
 2181 04aa 1946     		mov	r1, r3
 2182 04ac 1F4B     		ldr	r3, .L454+24
 2183 04ae 9942     		cmp	r1, r3
 2184 04b0 2DD0     		beq	.L336
 2185 04b2 FB68     		ldr	r3, [r7, #12]
 2186 04b4 1B68     		ldr	r3, [r3]
 2187 04b6 1946     		mov	r1, r3
 2188 04b8 1D4B     		ldr	r3, .L454+28
 2189 04ba 9942     		cmp	r1, r3
 2190 04bc 24D0     		beq	.L337
 2191 04be FB68     		ldr	r3, [r7, #12]
 2192 04c0 1B68     		ldr	r3, [r3]
ARM GAS  /tmp/ccWSeizr.s 			page 48


 2193 04c2 1946     		mov	r1, r3
 2194 04c4 1B4B     		ldr	r3, .L454+32
 2195 04c6 9942     		cmp	r1, r3
 2196 04c8 1CD0     		beq	.L338
 2197 04ca FB68     		ldr	r3, [r7, #12]
 2198 04cc 1B68     		ldr	r3, [r3]
 2199 04ce 1946     		mov	r1, r3
 2200 04d0 194B     		ldr	r3, .L454+36
 2201 04d2 9942     		cmp	r1, r3
 2202 04d4 14D0     		beq	.L339
 2203 04d6 FB68     		ldr	r3, [r7, #12]
 2204 04d8 1B68     		ldr	r3, [r3]
 2205 04da 1946     		mov	r1, r3
 2206 04dc 174B     		ldr	r3, .L454+40
 2207 04de 9942     		cmp	r1, r3
 2208 04e0 0BD0     		beq	.L340
 2209 04e2 FB68     		ldr	r3, [r7, #12]
 2210 04e4 1B68     		ldr	r3, [r3]
 2211 04e6 1946     		mov	r1, r3
 2212 04e8 154B     		ldr	r3, .L454+44
 2213 04ea 9942     		cmp	r1, r3
 2214 04ec 02D1     		bne	.L341
 2215 04ee 4FF40043 		mov	r3, #32768
 2216 04f2 35E0     		b	.L352
 2217              	.L341:
 2218              		.loc 1 495 0 discriminator 2
 2219 04f4 4FF40023 		mov	r3, #524288
 2220 04f8 32E0     		b	.L352
 2221              	.L340:
 2222 04fa 4FF40063 		mov	r3, #2048
 2223 04fe 2FE0     		b	.L352
 2224              	.L339:
 2225 0500 8023     		movs	r3, #128
 2226 0502 2DE0     		b	.L352
 2227              	.L338:
 2228 0504 0823     		movs	r3, #8
 2229 0506 2BE0     		b	.L352
 2230              	.L337:
 2231 0508 4FF00063 		mov	r3, #134217728
 2232 050c 28E0     		b	.L352
 2233              	.L336:
 2234 050e 4FF40003 		mov	r3, #8388608
 2235 0512 25E0     		b	.L352
 2236              	.L455:
 2237              		.align	2
 2238              	.L454:
 2239 0514 00000240 		.word	1073872896
 2240 0518 08000240 		.word	1073872904
 2241 051c 1C000240 		.word	1073872924
 2242 0520 30000240 		.word	1073872944
 2243 0524 44000240 		.word	1073872964
 2244 0528 58000240 		.word	1073872984
 2245 052c 6C000240 		.word	1073873004
 2246 0530 80000240 		.word	1073873024
 2247 0534 08040240 		.word	1073873928
 2248 0538 1C040240 		.word	1073873948
 2249 053c 30040240 		.word	1073873968
ARM GAS  /tmp/ccWSeizr.s 			page 49


 2250 0540 44040240 		.word	1073873988
 2251 0544 00040240 		.word	1073873920
 2252              	.L335:
 2253 0548 4FF40023 		mov	r3, #524288
 2254 054c 08E0     		b	.L352
 2255              	.L334:
 2256 054e 4FF40043 		mov	r3, #32768
 2257 0552 05E0     		b	.L352
 2258              	.L333:
 2259 0554 4FF40063 		mov	r3, #2048
 2260 0558 02E0     		b	.L352
 2261              	.L332:
 2262 055a 8023     		movs	r3, #128
 2263 055c 00E0     		b	.L352
 2264              	.L331:
 2265 055e 0823     		movs	r3, #8
 2266              	.L352:
 2267              		.loc 1 495 0 discriminator 3
 2268 0560 5360     		str	r3, [r2, #4]
 2269              	.L330:
 496:Drivers/STM32F3xx_HAL_Driver/Src/stm32f3xx_hal_dma.c ****       
 497:Drivers/STM32F3xx_HAL_Driver/Src/stm32f3xx_hal_dma.c ****       /* Update error code */
 498:Drivers/STM32F3xx_HAL_Driver/Src/stm32f3xx_hal_dma.c ****       SET_BIT(hdma->ErrorCode, HAL_DMA_ERROR_TE);
 2270              		.loc 1 498 0 is_stmt 1
 2271 0562 FB68     		ldr	r3, [r7, #12]
 2272 0564 9B6B     		ldr	r3, [r3, #56]
 2273 0566 43F00102 		orr	r2, r3, #1
 2274 056a FB68     		ldr	r3, [r7, #12]
 2275 056c 9A63     		str	r2, [r3, #56]
 499:Drivers/STM32F3xx_HAL_Driver/Src/stm32f3xx_hal_dma.c **** 
 500:Drivers/STM32F3xx_HAL_Driver/Src/stm32f3xx_hal_dma.c ****       /* Change the DMA state */
 501:Drivers/STM32F3xx_HAL_Driver/Src/stm32f3xx_hal_dma.c ****       hdma->State= HAL_DMA_STATE_ERROR;       
 2276              		.loc 1 501 0
 2277 056e FB68     		ldr	r3, [r7, #12]
 2278 0570 0422     		movs	r2, #4
 2279 0572 83F82120 		strb	r2, [r3, #33]
 502:Drivers/STM32F3xx_HAL_Driver/Src/stm32f3xx_hal_dma.c ****       
 503:Drivers/STM32F3xx_HAL_Driver/Src/stm32f3xx_hal_dma.c ****       /* Process Unlocked */
 504:Drivers/STM32F3xx_HAL_Driver/Src/stm32f3xx_hal_dma.c ****       __HAL_UNLOCK(hdma);
 2280              		.loc 1 504 0
 2281 0576 FB68     		ldr	r3, [r7, #12]
 2282 0578 0022     		movs	r2, #0
 2283 057a 83F82020 		strb	r2, [r3, #32]
 505:Drivers/STM32F3xx_HAL_Driver/Src/stm32f3xx_hal_dma.c ****       
 506:Drivers/STM32F3xx_HAL_Driver/Src/stm32f3xx_hal_dma.c ****       return HAL_ERROR;      
 2284              		.loc 1 506 0
 2285 057e 0123     		movs	r3, #1
 2286 0580 00E2     		b	.L353
 2287              	.L306:
 507:Drivers/STM32F3xx_HAL_Driver/Src/stm32f3xx_hal_dma.c ****     }      
 508:Drivers/STM32F3xx_HAL_Driver/Src/stm32f3xx_hal_dma.c ****     /* Check for the Timeout */
 509:Drivers/STM32F3xx_HAL_Driver/Src/stm32f3xx_hal_dma.c ****     if(Timeout != HAL_MAX_DELAY)
 2288              		.loc 1 509 0
 2289 0582 7B68     		ldr	r3, [r7, #4]
 2290 0584 B3F1FF3F 		cmp	r3, #-1
 2291 0588 1AD0     		beq	.L259
 510:Drivers/STM32F3xx_HAL_Driver/Src/stm32f3xx_hal_dma.c ****     {
ARM GAS  /tmp/ccWSeizr.s 			page 50


 511:Drivers/STM32F3xx_HAL_Driver/Src/stm32f3xx_hal_dma.c ****       if((Timeout == 0) || ((HAL_GetTick() - tickstart) > Timeout))
 2292              		.loc 1 511 0
 2293 058a 7B68     		ldr	r3, [r7, #4]
 2294 058c 002B     		cmp	r3, #0
 2295 058e 07D0     		beq	.L354
 2296              		.loc 1 511 0 is_stmt 0 discriminator 1
 2297 0590 FFF7FEFF 		bl	HAL_GetTick
 2298 0594 0246     		mov	r2, r0
 2299 0596 3B69     		ldr	r3, [r7, #16]
 2300 0598 D21A     		subs	r2, r2, r3
 2301 059a 7B68     		ldr	r3, [r7, #4]
 2302 059c 9A42     		cmp	r2, r3
 2303 059e 0FD9     		bls	.L259
 2304              	.L354:
 512:Drivers/STM32F3xx_HAL_Driver/Src/stm32f3xx_hal_dma.c ****       {
 513:Drivers/STM32F3xx_HAL_Driver/Src/stm32f3xx_hal_dma.c ****         /* Update error code */
 514:Drivers/STM32F3xx_HAL_Driver/Src/stm32f3xx_hal_dma.c ****         SET_BIT(hdma->ErrorCode, HAL_DMA_ERROR_TIMEOUT);
 2305              		.loc 1 514 0 is_stmt 1
 2306 05a0 FB68     		ldr	r3, [r7, #12]
 2307 05a2 9B6B     		ldr	r3, [r3, #56]
 2308 05a4 43F02002 		orr	r2, r3, #32
 2309 05a8 FB68     		ldr	r3, [r7, #12]
 2310 05aa 9A63     		str	r2, [r3, #56]
 515:Drivers/STM32F3xx_HAL_Driver/Src/stm32f3xx_hal_dma.c ****         
 516:Drivers/STM32F3xx_HAL_Driver/Src/stm32f3xx_hal_dma.c ****         /* Change the DMA state */
 517:Drivers/STM32F3xx_HAL_Driver/Src/stm32f3xx_hal_dma.c ****         hdma->State = HAL_DMA_STATE_TIMEOUT;
 2311              		.loc 1 517 0
 2312 05ac FB68     		ldr	r3, [r7, #12]
 2313 05ae 0322     		movs	r2, #3
 2314 05b0 83F82120 		strb	r2, [r3, #33]
 518:Drivers/STM32F3xx_HAL_Driver/Src/stm32f3xx_hal_dma.c **** 
 519:Drivers/STM32F3xx_HAL_Driver/Src/stm32f3xx_hal_dma.c ****         /* Process Unlocked */
 520:Drivers/STM32F3xx_HAL_Driver/Src/stm32f3xx_hal_dma.c ****         __HAL_UNLOCK(hdma);
 2315              		.loc 1 520 0
 2316 05b4 FB68     		ldr	r3, [r7, #12]
 2317 05b6 0022     		movs	r2, #0
 2318 05b8 83F82020 		strb	r2, [r3, #32]
 521:Drivers/STM32F3xx_HAL_Driver/Src/stm32f3xx_hal_dma.c **** 
 522:Drivers/STM32F3xx_HAL_Driver/Src/stm32f3xx_hal_dma.c ****         return HAL_TIMEOUT;
 2319              		.loc 1 522 0
 2320 05bc 0323     		movs	r3, #3
 2321 05be E1E1     		b	.L353
 2322              	.L259:
 490:Drivers/STM32F3xx_HAL_Driver/Src/stm32f3xx_hal_dma.c ****   {
 2323              		.loc 1 490 0 discriminator 1
 2324 05c0 FB68     		ldr	r3, [r7, #12]
 2325 05c2 1B68     		ldr	r3, [r3]
 2326 05c4 1A46     		mov	r2, r3
 2327 05c6 774B     		ldr	r3, .L456
 2328 05c8 9A42     		cmp	r2, r3
 2329 05ca 09D9     		bls	.L355
 2330 05cc 764B     		ldr	r3, .L456+4
 2331 05ce 1A68     		ldr	r2, [r3]
 2332 05d0 7B69     		ldr	r3, [r7, #20]
 2333 05d2 1340     		ands	r3, r3, r2
 2334 05d4 002B     		cmp	r3, #0
 2335 05d6 14BF     		ite	ne
ARM GAS  /tmp/ccWSeizr.s 			page 51


 2336 05d8 0023     		movne	r3, #0
 2337 05da 0123     		moveq	r3, #1
 2338 05dc DBB2     		uxtb	r3, r3
 2339 05de 08E0     		b	.L356
 2340              	.L355:
 490:Drivers/STM32F3xx_HAL_Driver/Src/stm32f3xx_hal_dma.c ****   {
 2341              		.loc 1 490 0 is_stmt 0 discriminator 2
 2342 05e0 724B     		ldr	r3, .L456+8
 2343 05e2 1A68     		ldr	r2, [r3]
 2344 05e4 7B69     		ldr	r3, [r7, #20]
 2345 05e6 1340     		ands	r3, r3, r2
 2346 05e8 002B     		cmp	r3, #0
 2347 05ea 14BF     		ite	ne
 2348 05ec 0023     		movne	r3, #0
 2349 05ee 0123     		moveq	r3, #1
 2350 05f0 DBB2     		uxtb	r3, r3
 2351              	.L356:
 490:Drivers/STM32F3xx_HAL_Driver/Src/stm32f3xx_hal_dma.c ****   {
 2352              		.loc 1 490 0 discriminator 3
 2353 05f2 002B     		cmp	r3, #0
 2354 05f4 7FF4D8AD 		bne	.L357
 523:Drivers/STM32F3xx_HAL_Driver/Src/stm32f3xx_hal_dma.c ****       }
 524:Drivers/STM32F3xx_HAL_Driver/Src/stm32f3xx_hal_dma.c ****     }
 525:Drivers/STM32F3xx_HAL_Driver/Src/stm32f3xx_hal_dma.c ****   }
 526:Drivers/STM32F3xx_HAL_Driver/Src/stm32f3xx_hal_dma.c **** 
 527:Drivers/STM32F3xx_HAL_Driver/Src/stm32f3xx_hal_dma.c ****   if(CompleteLevel == HAL_DMA_FULL_TRANSFER)
 2355              		.loc 1 527 0 is_stmt 1
 2356 05f8 BB68     		ldr	r3, [r7, #8]
 2357 05fa 002B     		cmp	r3, #0
 2358 05fc 40F0EC80 		bne	.L358
 528:Drivers/STM32F3xx_HAL_Driver/Src/stm32f3xx_hal_dma.c ****   {
 529:Drivers/STM32F3xx_HAL_Driver/Src/stm32f3xx_hal_dma.c ****     /* Clear the transfer complete flag */
 530:Drivers/STM32F3xx_HAL_Driver/Src/stm32f3xx_hal_dma.c ****     __HAL_DMA_CLEAR_FLAG(hdma, __HAL_DMA_GET_TC_FLAG_INDEX(hdma));
 2359              		.loc 1 530 0
 2360 0600 FB68     		ldr	r3, [r7, #12]
 2361 0602 1B68     		ldr	r3, [r3]
 2362 0604 1A46     		mov	r2, r3
 2363 0606 674B     		ldr	r3, .L456
 2364 0608 9A42     		cmp	r2, r3
 2365 060a 63D9     		bls	.L359
 2366              		.loc 1 530 0 is_stmt 0 discriminator 1
 2367 060c 664A     		ldr	r2, .L456+4
 2368 060e FB68     		ldr	r3, [r7, #12]
 2369 0610 1B68     		ldr	r3, [r3]
 2370 0612 1946     		mov	r1, r3
 2371 0614 664B     		ldr	r3, .L456+12
 2372 0616 9942     		cmp	r1, r3
 2373 0618 59D0     		beq	.L360
 2374 061a FB68     		ldr	r3, [r7, #12]
 2375 061c 1B68     		ldr	r3, [r3]
 2376 061e 1946     		mov	r1, r3
 2377 0620 644B     		ldr	r3, .L456+16
 2378 0622 9942     		cmp	r1, r3
 2379 0624 51D0     		beq	.L361
 2380 0626 FB68     		ldr	r3, [r7, #12]
 2381 0628 1B68     		ldr	r3, [r3]
 2382 062a 1946     		mov	r1, r3
ARM GAS  /tmp/ccWSeizr.s 			page 52


 2383 062c 624B     		ldr	r3, .L456+20
 2384 062e 9942     		cmp	r1, r3
 2385 0630 48D0     		beq	.L362
 2386 0632 FB68     		ldr	r3, [r7, #12]
 2387 0634 1B68     		ldr	r3, [r3]
 2388 0636 1946     		mov	r1, r3
 2389 0638 604B     		ldr	r3, .L456+24
 2390 063a 9942     		cmp	r1, r3
 2391 063c 3FD0     		beq	.L363
 2392 063e FB68     		ldr	r3, [r7, #12]
 2393 0640 1B68     		ldr	r3, [r3]
 2394 0642 1946     		mov	r1, r3
 2395 0644 5E4B     		ldr	r3, .L456+28
 2396 0646 9942     		cmp	r1, r3
 2397 0648 36D0     		beq	.L364
 2398 064a FB68     		ldr	r3, [r7, #12]
 2399 064c 1B68     		ldr	r3, [r3]
 2400 064e 1946     		mov	r1, r3
 2401 0650 5C4B     		ldr	r3, .L456+32
 2402 0652 9942     		cmp	r1, r3
 2403 0654 2DD0     		beq	.L365
 2404 0656 FB68     		ldr	r3, [r7, #12]
 2405 0658 1B68     		ldr	r3, [r3]
 2406 065a 1946     		mov	r1, r3
 2407 065c 514B     		ldr	r3, .L456
 2408 065e 9942     		cmp	r1, r3
 2409 0660 24D0     		beq	.L366
 2410 0662 FB68     		ldr	r3, [r7, #12]
 2411 0664 1B68     		ldr	r3, [r3]
 2412 0666 1946     		mov	r1, r3
 2413 0668 574B     		ldr	r3, .L456+36
 2414 066a 9942     		cmp	r1, r3
 2415 066c 1CD0     		beq	.L367
 2416 066e FB68     		ldr	r3, [r7, #12]
 2417 0670 1B68     		ldr	r3, [r3]
 2418 0672 1946     		mov	r1, r3
 2419 0674 554B     		ldr	r3, .L456+40
 2420 0676 9942     		cmp	r1, r3
 2421 0678 14D0     		beq	.L368
 2422 067a FB68     		ldr	r3, [r7, #12]
 2423 067c 1B68     		ldr	r3, [r3]
 2424 067e 1946     		mov	r1, r3
 2425 0680 534B     		ldr	r3, .L456+44
 2426 0682 9942     		cmp	r1, r3
 2427 0684 0BD0     		beq	.L369
 2428 0686 FB68     		ldr	r3, [r7, #12]
 2429 0688 1B68     		ldr	r3, [r3]
 2430 068a 1946     		mov	r1, r3
 2431 068c 514B     		ldr	r3, .L456+48
 2432 068e 9942     		cmp	r1, r3
 2433 0690 02D1     		bne	.L370
 2434 0692 4FF40053 		mov	r3, #8192
 2435 0696 1BE0     		b	.L381
 2436              	.L370:
 2437              		.loc 1 530 0 discriminator 2
 2438 0698 4FF40033 		mov	r3, #131072
 2439 069c 18E0     		b	.L381
ARM GAS  /tmp/ccWSeizr.s 			page 53


 2440              	.L369:
 2441 069e 4FF40073 		mov	r3, #512
 2442 06a2 15E0     		b	.L381
 2443              	.L368:
 2444 06a4 2023     		movs	r3, #32
 2445 06a6 13E0     		b	.L381
 2446              	.L367:
 2447 06a8 0223     		movs	r3, #2
 2448 06aa 11E0     		b	.L381
 2449              	.L366:
 2450 06ac 4FF00073 		mov	r3, #33554432
 2451 06b0 0EE0     		b	.L381
 2452              	.L365:
 2453 06b2 4FF40013 		mov	r3, #2097152
 2454 06b6 0BE0     		b	.L381
 2455              	.L364:
 2456 06b8 4FF40033 		mov	r3, #131072
 2457 06bc 08E0     		b	.L381
 2458              	.L363:
 2459 06be 4FF40053 		mov	r3, #8192
 2460 06c2 05E0     		b	.L381
 2461              	.L362:
 2462 06c4 4FF40073 		mov	r3, #512
 2463 06c8 02E0     		b	.L381
 2464              	.L361:
 2465 06ca 2023     		movs	r3, #32
 2466 06cc 00E0     		b	.L381
 2467              	.L360:
 2468 06ce 0223     		movs	r3, #2
 2469              	.L381:
 2470              		.loc 1 530 0 discriminator 74
 2471 06d0 5360     		str	r3, [r2, #4]
 2472 06d2 62E0     		b	.L382
 2473              	.L359:
 2474              		.loc 1 530 0 discriminator 2
 2475 06d4 354A     		ldr	r2, .L456+8
 2476 06d6 FB68     		ldr	r3, [r7, #12]
 2477 06d8 1B68     		ldr	r3, [r3]
 2478 06da 1946     		mov	r1, r3
 2479 06dc 344B     		ldr	r3, .L456+12
 2480 06de 9942     		cmp	r1, r3
 2481 06e0 59D0     		beq	.L383
 2482              		.loc 1 530 0 discriminator 1
 2483 06e2 FB68     		ldr	r3, [r7, #12]
 2484 06e4 1B68     		ldr	r3, [r3]
 2485 06e6 1946     		mov	r1, r3
 2486 06e8 324B     		ldr	r3, .L456+16
 2487 06ea 9942     		cmp	r1, r3
 2488 06ec 51D0     		beq	.L384
 2489 06ee FB68     		ldr	r3, [r7, #12]
 2490 06f0 1B68     		ldr	r3, [r3]
 2491 06f2 1946     		mov	r1, r3
 2492 06f4 304B     		ldr	r3, .L456+20
 2493 06f6 9942     		cmp	r1, r3
 2494 06f8 48D0     		beq	.L385
 2495 06fa FB68     		ldr	r3, [r7, #12]
 2496 06fc 1B68     		ldr	r3, [r3]
ARM GAS  /tmp/ccWSeizr.s 			page 54


 2497 06fe 1946     		mov	r1, r3
 2498 0700 2E4B     		ldr	r3, .L456+24
 2499 0702 9942     		cmp	r1, r3
 2500 0704 3FD0     		beq	.L386
 2501 0706 FB68     		ldr	r3, [r7, #12]
 2502 0708 1B68     		ldr	r3, [r3]
 2503 070a 1946     		mov	r1, r3
 2504 070c 2C4B     		ldr	r3, .L456+28
 2505 070e 9942     		cmp	r1, r3
 2506 0710 36D0     		beq	.L387
 2507 0712 FB68     		ldr	r3, [r7, #12]
 2508 0714 1B68     		ldr	r3, [r3]
 2509 0716 1946     		mov	r1, r3
 2510 0718 2A4B     		ldr	r3, .L456+32
 2511 071a 9942     		cmp	r1, r3
 2512 071c 2DD0     		beq	.L388
 2513 071e FB68     		ldr	r3, [r7, #12]
 2514 0720 1B68     		ldr	r3, [r3]
 2515 0722 1946     		mov	r1, r3
 2516 0724 1F4B     		ldr	r3, .L456
 2517 0726 9942     		cmp	r1, r3
 2518 0728 24D0     		beq	.L389
 2519 072a FB68     		ldr	r3, [r7, #12]
 2520 072c 1B68     		ldr	r3, [r3]
 2521 072e 1946     		mov	r1, r3
 2522 0730 254B     		ldr	r3, .L456+36
 2523 0732 9942     		cmp	r1, r3
 2524 0734 1CD0     		beq	.L390
 2525 0736 FB68     		ldr	r3, [r7, #12]
 2526 0738 1B68     		ldr	r3, [r3]
 2527 073a 1946     		mov	r1, r3
 2528 073c 234B     		ldr	r3, .L456+40
 2529 073e 9942     		cmp	r1, r3
 2530 0740 14D0     		beq	.L391
 2531 0742 FB68     		ldr	r3, [r7, #12]
 2532 0744 1B68     		ldr	r3, [r3]
 2533 0746 1946     		mov	r1, r3
 2534 0748 214B     		ldr	r3, .L456+44
 2535 074a 9942     		cmp	r1, r3
 2536 074c 0BD0     		beq	.L392
 2537 074e FB68     		ldr	r3, [r7, #12]
 2538 0750 1B68     		ldr	r3, [r3]
 2539 0752 1946     		mov	r1, r3
 2540 0754 1F4B     		ldr	r3, .L456+48
 2541 0756 9942     		cmp	r1, r3
 2542 0758 02D1     		bne	.L393
 2543 075a 4FF40053 		mov	r3, #8192
 2544 075e 1BE0     		b	.L404
 2545              	.L393:
 2546              		.loc 1 530 0 discriminator 2
 2547 0760 4FF40033 		mov	r3, #131072
 2548 0764 18E0     		b	.L404
 2549              	.L392:
 2550 0766 4FF40073 		mov	r3, #512
 2551 076a 15E0     		b	.L404
 2552              	.L391:
 2553 076c 2023     		movs	r3, #32
ARM GAS  /tmp/ccWSeizr.s 			page 55


 2554 076e 13E0     		b	.L404
 2555              	.L390:
 2556 0770 0223     		movs	r3, #2
 2557 0772 11E0     		b	.L404
 2558              	.L389:
 2559 0774 4FF00073 		mov	r3, #33554432
 2560 0778 0EE0     		b	.L404
 2561              	.L388:
 2562 077a 4FF40013 		mov	r3, #2097152
 2563 077e 0BE0     		b	.L404
 2564              	.L387:
 2565 0780 4FF40033 		mov	r3, #131072
 2566 0784 08E0     		b	.L404
 2567              	.L386:
 2568 0786 4FF40053 		mov	r3, #8192
 2569 078a 05E0     		b	.L404
 2570              	.L385:
 2571 078c 4FF40073 		mov	r3, #512
 2572 0790 02E0     		b	.L404
 2573              	.L384:
 2574 0792 2023     		movs	r3, #32
 2575 0794 00E0     		b	.L404
 2576              	.L383:
 2577 0796 0223     		movs	r3, #2
 2578              	.L404:
 2579              		.loc 1 530 0 discriminator 3
 2580 0798 5360     		str	r3, [r2, #4]
 2581              	.L382:
 531:Drivers/STM32F3xx_HAL_Driver/Src/stm32f3xx_hal_dma.c **** 
 532:Drivers/STM32F3xx_HAL_Driver/Src/stm32f3xx_hal_dma.c ****     /* The selected Channelx EN bit is cleared (DMA is disabled and 
 533:Drivers/STM32F3xx_HAL_Driver/Src/stm32f3xx_hal_dma.c ****     all transfers are complete) */
 534:Drivers/STM32F3xx_HAL_Driver/Src/stm32f3xx_hal_dma.c ****     hdma->State = HAL_DMA_STATE_READY;
 2582              		.loc 1 534 0 is_stmt 1 discriminator 75
 2583 079a FB68     		ldr	r3, [r7, #12]
 2584 079c 0122     		movs	r2, #1
 2585 079e 83F82120 		strb	r2, [r3, #33]
 2586 07a2 EAE0     		b	.L405
 2587              	.L457:
 2588              		.align	2
 2589              	.L456:
 2590 07a4 80000240 		.word	1073873024
 2591 07a8 00040240 		.word	1073873920
 2592 07ac 00000240 		.word	1073872896
 2593 07b0 08000240 		.word	1073872904
 2594 07b4 1C000240 		.word	1073872924
 2595 07b8 30000240 		.word	1073872944
 2596 07bc 44000240 		.word	1073872964
 2597 07c0 58000240 		.word	1073872984
 2598 07c4 6C000240 		.word	1073873004
 2599 07c8 08040240 		.word	1073873928
 2600 07cc 1C040240 		.word	1073873948
 2601 07d0 30040240 		.word	1073873968
 2602 07d4 44040240 		.word	1073873988
 2603              	.L358:
 535:Drivers/STM32F3xx_HAL_Driver/Src/stm32f3xx_hal_dma.c **** 
 536:Drivers/STM32F3xx_HAL_Driver/Src/stm32f3xx_hal_dma.c ****   }
 537:Drivers/STM32F3xx_HAL_Driver/Src/stm32f3xx_hal_dma.c ****   else
ARM GAS  /tmp/ccWSeizr.s 			page 56


 538:Drivers/STM32F3xx_HAL_Driver/Src/stm32f3xx_hal_dma.c ****   { 
 539:Drivers/STM32F3xx_HAL_Driver/Src/stm32f3xx_hal_dma.c ****     /* Clear the half transfer complete flag */
 540:Drivers/STM32F3xx_HAL_Driver/Src/stm32f3xx_hal_dma.c ****     __HAL_DMA_CLEAR_FLAG(hdma, __HAL_DMA_GET_HT_FLAG_INDEX(hdma));
 2604              		.loc 1 540 0
 2605 07d8 FB68     		ldr	r3, [r7, #12]
 2606 07da 1B68     		ldr	r3, [r3]
 2607 07dc 1A46     		mov	r2, r3
 2608 07de 6B4B     		ldr	r3, .L458
 2609 07e0 9A42     		cmp	r2, r3
 2610 07e2 63D9     		bls	.L406
 2611              		.loc 1 540 0 is_stmt 0 discriminator 1
 2612 07e4 6A4A     		ldr	r2, .L458+4
 2613 07e6 FB68     		ldr	r3, [r7, #12]
 2614 07e8 1B68     		ldr	r3, [r3]
 2615 07ea 1946     		mov	r1, r3
 2616 07ec 694B     		ldr	r3, .L458+8
 2617 07ee 9942     		cmp	r1, r3
 2618 07f0 59D0     		beq	.L407
 2619 07f2 FB68     		ldr	r3, [r7, #12]
 2620 07f4 1B68     		ldr	r3, [r3]
 2621 07f6 1946     		mov	r1, r3
 2622 07f8 674B     		ldr	r3, .L458+12
 2623 07fa 9942     		cmp	r1, r3
 2624 07fc 51D0     		beq	.L408
 2625 07fe FB68     		ldr	r3, [r7, #12]
 2626 0800 1B68     		ldr	r3, [r3]
 2627 0802 1946     		mov	r1, r3
 2628 0804 654B     		ldr	r3, .L458+16
 2629 0806 9942     		cmp	r1, r3
 2630 0808 48D0     		beq	.L409
 2631 080a FB68     		ldr	r3, [r7, #12]
 2632 080c 1B68     		ldr	r3, [r3]
 2633 080e 1946     		mov	r1, r3
 2634 0810 634B     		ldr	r3, .L458+20
 2635 0812 9942     		cmp	r1, r3
 2636 0814 3FD0     		beq	.L410
 2637 0816 FB68     		ldr	r3, [r7, #12]
 2638 0818 1B68     		ldr	r3, [r3]
 2639 081a 1946     		mov	r1, r3
 2640 081c 614B     		ldr	r3, .L458+24
 2641 081e 9942     		cmp	r1, r3
 2642 0820 36D0     		beq	.L411
 2643 0822 FB68     		ldr	r3, [r7, #12]
 2644 0824 1B68     		ldr	r3, [r3]
 2645 0826 1946     		mov	r1, r3
 2646 0828 5F4B     		ldr	r3, .L458+28
 2647 082a 9942     		cmp	r1, r3
 2648 082c 2DD0     		beq	.L412
 2649 082e FB68     		ldr	r3, [r7, #12]
 2650 0830 1B68     		ldr	r3, [r3]
 2651 0832 1946     		mov	r1, r3
 2652 0834 554B     		ldr	r3, .L458
 2653 0836 9942     		cmp	r1, r3
 2654 0838 24D0     		beq	.L413
 2655 083a FB68     		ldr	r3, [r7, #12]
 2656 083c 1B68     		ldr	r3, [r3]
 2657 083e 1946     		mov	r1, r3
ARM GAS  /tmp/ccWSeizr.s 			page 57


 2658 0840 5A4B     		ldr	r3, .L458+32
 2659 0842 9942     		cmp	r1, r3
 2660 0844 1CD0     		beq	.L414
 2661 0846 FB68     		ldr	r3, [r7, #12]
 2662 0848 1B68     		ldr	r3, [r3]
 2663 084a 1946     		mov	r1, r3
 2664 084c 584B     		ldr	r3, .L458+36
 2665 084e 9942     		cmp	r1, r3
 2666 0850 14D0     		beq	.L415
 2667 0852 FB68     		ldr	r3, [r7, #12]
 2668 0854 1B68     		ldr	r3, [r3]
 2669 0856 1946     		mov	r1, r3
 2670 0858 564B     		ldr	r3, .L458+40
 2671 085a 9942     		cmp	r1, r3
 2672 085c 0BD0     		beq	.L416
 2673 085e FB68     		ldr	r3, [r7, #12]
 2674 0860 1B68     		ldr	r3, [r3]
 2675 0862 1946     		mov	r1, r3
 2676 0864 544B     		ldr	r3, .L458+44
 2677 0866 9942     		cmp	r1, r3
 2678 0868 02D1     		bne	.L417
 2679 086a 4FF48043 		mov	r3, #16384
 2680 086e 1BE0     		b	.L428
 2681              	.L417:
 2682              		.loc 1 540 0 discriminator 2
 2683 0870 4FF48023 		mov	r3, #262144
 2684 0874 18E0     		b	.L428
 2685              	.L416:
 2686 0876 4FF48063 		mov	r3, #1024
 2687 087a 15E0     		b	.L428
 2688              	.L415:
 2689 087c 4023     		movs	r3, #64
 2690 087e 13E0     		b	.L428
 2691              	.L414:
 2692 0880 0423     		movs	r3, #4
 2693 0882 11E0     		b	.L428
 2694              	.L413:
 2695 0884 4FF08063 		mov	r3, #67108864
 2696 0888 0EE0     		b	.L428
 2697              	.L412:
 2698 088a 4FF48003 		mov	r3, #4194304
 2699 088e 0BE0     		b	.L428
 2700              	.L411:
 2701 0890 4FF48023 		mov	r3, #262144
 2702 0894 08E0     		b	.L428
 2703              	.L410:
 2704 0896 4FF48043 		mov	r3, #16384
 2705 089a 05E0     		b	.L428
 2706              	.L409:
 2707 089c 4FF48063 		mov	r3, #1024
 2708 08a0 02E0     		b	.L428
 2709              	.L408:
 2710 08a2 4023     		movs	r3, #64
 2711 08a4 00E0     		b	.L428
 2712              	.L407:
 2713 08a6 0423     		movs	r3, #4
 2714              	.L428:
ARM GAS  /tmp/ccWSeizr.s 			page 58


 2715              		.loc 1 540 0 discriminator 96
 2716 08a8 5360     		str	r3, [r2, #4]
 2717 08aa 62E0     		b	.L429
 2718              	.L406:
 2719              		.loc 1 540 0 discriminator 2
 2720 08ac 434A     		ldr	r2, .L458+48
 2721 08ae FB68     		ldr	r3, [r7, #12]
 2722 08b0 1B68     		ldr	r3, [r3]
 2723 08b2 1946     		mov	r1, r3
 2724 08b4 374B     		ldr	r3, .L458+8
 2725 08b6 9942     		cmp	r1, r3
 2726 08b8 59D0     		beq	.L430
 2727              		.loc 1 540 0 discriminator 1
 2728 08ba FB68     		ldr	r3, [r7, #12]
 2729 08bc 1B68     		ldr	r3, [r3]
 2730 08be 1946     		mov	r1, r3
 2731 08c0 354B     		ldr	r3, .L458+12
 2732 08c2 9942     		cmp	r1, r3
 2733 08c4 51D0     		beq	.L431
 2734 08c6 FB68     		ldr	r3, [r7, #12]
 2735 08c8 1B68     		ldr	r3, [r3]
 2736 08ca 1946     		mov	r1, r3
 2737 08cc 334B     		ldr	r3, .L458+16
 2738 08ce 9942     		cmp	r1, r3
 2739 08d0 48D0     		beq	.L432
 2740 08d2 FB68     		ldr	r3, [r7, #12]
 2741 08d4 1B68     		ldr	r3, [r3]
 2742 08d6 1946     		mov	r1, r3
 2743 08d8 314B     		ldr	r3, .L458+20
 2744 08da 9942     		cmp	r1, r3
 2745 08dc 3FD0     		beq	.L433
 2746 08de FB68     		ldr	r3, [r7, #12]
 2747 08e0 1B68     		ldr	r3, [r3]
 2748 08e2 1946     		mov	r1, r3
 2749 08e4 2F4B     		ldr	r3, .L458+24
 2750 08e6 9942     		cmp	r1, r3
 2751 08e8 36D0     		beq	.L434
 2752 08ea FB68     		ldr	r3, [r7, #12]
 2753 08ec 1B68     		ldr	r3, [r3]
 2754 08ee 1946     		mov	r1, r3
 2755 08f0 2D4B     		ldr	r3, .L458+28
 2756 08f2 9942     		cmp	r1, r3
 2757 08f4 2DD0     		beq	.L435
 2758 08f6 FB68     		ldr	r3, [r7, #12]
 2759 08f8 1B68     		ldr	r3, [r3]
 2760 08fa 1946     		mov	r1, r3
 2761 08fc 234B     		ldr	r3, .L458
 2762 08fe 9942     		cmp	r1, r3
 2763 0900 24D0     		beq	.L436
 2764 0902 FB68     		ldr	r3, [r7, #12]
 2765 0904 1B68     		ldr	r3, [r3]
 2766 0906 1946     		mov	r1, r3
 2767 0908 284B     		ldr	r3, .L458+32
 2768 090a 9942     		cmp	r1, r3
 2769 090c 1CD0     		beq	.L437
 2770 090e FB68     		ldr	r3, [r7, #12]
 2771 0910 1B68     		ldr	r3, [r3]
ARM GAS  /tmp/ccWSeizr.s 			page 59


 2772 0912 1946     		mov	r1, r3
 2773 0914 264B     		ldr	r3, .L458+36
 2774 0916 9942     		cmp	r1, r3
 2775 0918 14D0     		beq	.L438
 2776 091a FB68     		ldr	r3, [r7, #12]
 2777 091c 1B68     		ldr	r3, [r3]
 2778 091e 1946     		mov	r1, r3
 2779 0920 244B     		ldr	r3, .L458+40
 2780 0922 9942     		cmp	r1, r3
 2781 0924 0BD0     		beq	.L439
 2782 0926 FB68     		ldr	r3, [r7, #12]
 2783 0928 1B68     		ldr	r3, [r3]
 2784 092a 1946     		mov	r1, r3
 2785 092c 224B     		ldr	r3, .L458+44
 2786 092e 9942     		cmp	r1, r3
 2787 0930 02D1     		bne	.L440
 2788 0932 4FF48043 		mov	r3, #16384
 2789 0936 1BE0     		b	.L451
 2790              	.L440:
 2791              		.loc 1 540 0 discriminator 2
 2792 0938 4FF48023 		mov	r3, #262144
 2793 093c 18E0     		b	.L451
 2794              	.L439:
 2795 093e 4FF48063 		mov	r3, #1024
 2796 0942 15E0     		b	.L451
 2797              	.L438:
 2798 0944 4023     		movs	r3, #64
 2799 0946 13E0     		b	.L451
 2800              	.L437:
 2801 0948 0423     		movs	r3, #4
 2802 094a 11E0     		b	.L451
 2803              	.L436:
 2804 094c 4FF08063 		mov	r3, #67108864
 2805 0950 0EE0     		b	.L451
 2806              	.L435:
 2807 0952 4FF48003 		mov	r3, #4194304
 2808 0956 0BE0     		b	.L451
 2809              	.L434:
 2810 0958 4FF48023 		mov	r3, #262144
 2811 095c 08E0     		b	.L451
 2812              	.L433:
 2813 095e 4FF48043 		mov	r3, #16384
 2814 0962 05E0     		b	.L451
 2815              	.L432:
 2816 0964 4FF48063 		mov	r3, #1024
 2817 0968 02E0     		b	.L451
 2818              	.L431:
 2819 096a 4023     		movs	r3, #64
 2820 096c 00E0     		b	.L451
 2821              	.L430:
 2822 096e 0423     		movs	r3, #4
 2823              	.L451:
 2824              		.loc 1 540 0 discriminator 3
 2825 0970 5360     		str	r3, [r2, #4]
 2826              	.L429:
 541:Drivers/STM32F3xx_HAL_Driver/Src/stm32f3xx_hal_dma.c ****   
 542:Drivers/STM32F3xx_HAL_Driver/Src/stm32f3xx_hal_dma.c ****     /* The selected Channelx EN bit is cleared (DMA is disabled and 
ARM GAS  /tmp/ccWSeizr.s 			page 60


 543:Drivers/STM32F3xx_HAL_Driver/Src/stm32f3xx_hal_dma.c ****     all transfers of half buffer are complete) */
 544:Drivers/STM32F3xx_HAL_Driver/Src/stm32f3xx_hal_dma.c ****     hdma->State = HAL_DMA_STATE_READY_HALF;
 2827              		.loc 1 544 0 is_stmt 1
 2828 0972 FB68     		ldr	r3, [r7, #12]
 2829 0974 1122     		movs	r2, #17
 2830 0976 83F82120 		strb	r2, [r3, #33]
 2831              	.L405:
 545:Drivers/STM32F3xx_HAL_Driver/Src/stm32f3xx_hal_dma.c ****   }
 546:Drivers/STM32F3xx_HAL_Driver/Src/stm32f3xx_hal_dma.c ****   
 547:Drivers/STM32F3xx_HAL_Driver/Src/stm32f3xx_hal_dma.c ****   /* Process unlocked */
 548:Drivers/STM32F3xx_HAL_Driver/Src/stm32f3xx_hal_dma.c ****   __HAL_UNLOCK(hdma);  
 2832              		.loc 1 548 0
 2833 097a FB68     		ldr	r3, [r7, #12]
 2834 097c 0022     		movs	r2, #0
 2835 097e 83F82020 		strb	r2, [r3, #32]
 549:Drivers/STM32F3xx_HAL_Driver/Src/stm32f3xx_hal_dma.c **** 
 550:Drivers/STM32F3xx_HAL_Driver/Src/stm32f3xx_hal_dma.c ****   return HAL_OK;
 2836              		.loc 1 550 0
 2837 0982 0023     		movs	r3, #0
 2838              	.L353:
 551:Drivers/STM32F3xx_HAL_Driver/Src/stm32f3xx_hal_dma.c **** }
 2839              		.loc 1 551 0
 2840 0984 1846     		mov	r0, r3
 2841 0986 1837     		adds	r7, r7, #24
 2842 0988 BD46     		mov	sp, r7
 2843              		@ sp needed
 2844 098a 80BD     		pop	{r7, pc}
 2845              	.L459:
 2846              		.align	2
 2847              	.L458:
 2848 098c 80000240 		.word	1073873024
 2849 0990 00040240 		.word	1073873920
 2850 0994 08000240 		.word	1073872904
 2851 0998 1C000240 		.word	1073872924
 2852 099c 30000240 		.word	1073872944
 2853 09a0 44000240 		.word	1073872964
 2854 09a4 58000240 		.word	1073872984
 2855 09a8 6C000240 		.word	1073873004
 2856 09ac 08040240 		.word	1073873928
 2857 09b0 1C040240 		.word	1073873948
 2858 09b4 30040240 		.word	1073873968
 2859 09b8 44040240 		.word	1073873988
 2860 09bc 00000240 		.word	1073872896
 2861              		.cfi_endproc
 2862              	.LFE131:
 2864              		.section	.text.HAL_DMA_IRQHandler,"ax",%progbits
 2865              		.align	2
 2866              		.global	HAL_DMA_IRQHandler
 2867              		.thumb
 2868              		.thumb_func
 2870              	HAL_DMA_IRQHandler:
 2871              	.LFB132:
 552:Drivers/STM32F3xx_HAL_Driver/Src/stm32f3xx_hal_dma.c **** 
 553:Drivers/STM32F3xx_HAL_Driver/Src/stm32f3xx_hal_dma.c **** /**
 554:Drivers/STM32F3xx_HAL_Driver/Src/stm32f3xx_hal_dma.c ****   * @brief  Handles DMA interrupt request.
 555:Drivers/STM32F3xx_HAL_Driver/Src/stm32f3xx_hal_dma.c ****   * @param  hdma: pointer to a DMA_HandleTypeDef structure that contains
 556:Drivers/STM32F3xx_HAL_Driver/Src/stm32f3xx_hal_dma.c ****   *               the configuration information for the specified DMA Channel.  
ARM GAS  /tmp/ccWSeizr.s 			page 61


 557:Drivers/STM32F3xx_HAL_Driver/Src/stm32f3xx_hal_dma.c ****   * @retval None
 558:Drivers/STM32F3xx_HAL_Driver/Src/stm32f3xx_hal_dma.c ****   */
 559:Drivers/STM32F3xx_HAL_Driver/Src/stm32f3xx_hal_dma.c **** void HAL_DMA_IRQHandler(DMA_HandleTypeDef *hdma)
 560:Drivers/STM32F3xx_HAL_Driver/Src/stm32f3xx_hal_dma.c **** {        
 2872              		.loc 1 560 0
 2873              		.cfi_startproc
 2874              		@ args = 0, pretend = 0, frame = 8
 2875              		@ frame_needed = 1, uses_anonymous_args = 0
 2876 0000 80B5     		push	{r7, lr}
 2877              	.LCFI21:
 2878              		.cfi_def_cfa_offset 8
 2879              		.cfi_offset 7, -8
 2880              		.cfi_offset 14, -4
 2881 0002 82B0     		sub	sp, sp, #8
 2882              	.LCFI22:
 2883              		.cfi_def_cfa_offset 16
 2884 0004 00AF     		add	r7, sp, #0
 2885              	.LCFI23:
 2886              		.cfi_def_cfa_register 7
 2887 0006 7860     		str	r0, [r7, #4]
 561:Drivers/STM32F3xx_HAL_Driver/Src/stm32f3xx_hal_dma.c ****   /* Transfer Error Interrupt management ***************************************/
 562:Drivers/STM32F3xx_HAL_Driver/Src/stm32f3xx_hal_dma.c ****   if(__HAL_DMA_GET_FLAG(hdma, __HAL_DMA_GET_TE_FLAG_INDEX(hdma)) != RESET)
 2888              		.loc 1 562 0
 2889 0008 7B68     		ldr	r3, [r7, #4]
 2890 000a 1B68     		ldr	r3, [r3]
 2891 000c 1A46     		mov	r2, r3
 2892 000e 674B     		ldr	r3, .L742
 2893 0010 9A42     		cmp	r2, r3
 2894 0012 69D9     		bls	.L461
 2895              		.loc 1 562 0 is_stmt 0 discriminator 1
 2896 0014 664B     		ldr	r3, .L742+4
 2897 0016 1A68     		ldr	r2, [r3]
 2898 0018 7B68     		ldr	r3, [r7, #4]
 2899 001a 1B68     		ldr	r3, [r3]
 2900 001c 1946     		mov	r1, r3
 2901 001e 654B     		ldr	r3, .L742+8
 2902 0020 9942     		cmp	r1, r3
 2903 0022 59D0     		beq	.L462
 2904 0024 7B68     		ldr	r3, [r7, #4]
 2905 0026 1B68     		ldr	r3, [r3]
 2906 0028 1946     		mov	r1, r3
 2907 002a 634B     		ldr	r3, .L742+12
 2908 002c 9942     		cmp	r1, r3
 2909 002e 51D0     		beq	.L463
 2910 0030 7B68     		ldr	r3, [r7, #4]
 2911 0032 1B68     		ldr	r3, [r3]
 2912 0034 1946     		mov	r1, r3
 2913 0036 614B     		ldr	r3, .L742+16
 2914 0038 9942     		cmp	r1, r3
 2915 003a 48D0     		beq	.L464
 2916 003c 7B68     		ldr	r3, [r7, #4]
 2917 003e 1B68     		ldr	r3, [r3]
 2918 0040 1946     		mov	r1, r3
 2919 0042 5F4B     		ldr	r3, .L742+20
 2920 0044 9942     		cmp	r1, r3
 2921 0046 3FD0     		beq	.L465
 2922 0048 7B68     		ldr	r3, [r7, #4]
ARM GAS  /tmp/ccWSeizr.s 			page 62


 2923 004a 1B68     		ldr	r3, [r3]
 2924 004c 1946     		mov	r1, r3
 2925 004e 5D4B     		ldr	r3, .L742+24
 2926 0050 9942     		cmp	r1, r3
 2927 0052 36D0     		beq	.L466
 2928 0054 7B68     		ldr	r3, [r7, #4]
 2929 0056 1B68     		ldr	r3, [r3]
 2930 0058 1946     		mov	r1, r3
 2931 005a 5B4B     		ldr	r3, .L742+28
 2932 005c 9942     		cmp	r1, r3
 2933 005e 2DD0     		beq	.L467
 2934 0060 7B68     		ldr	r3, [r7, #4]
 2935 0062 1B68     		ldr	r3, [r3]
 2936 0064 1946     		mov	r1, r3
 2937 0066 514B     		ldr	r3, .L742
 2938 0068 9942     		cmp	r1, r3
 2939 006a 24D0     		beq	.L468
 2940 006c 7B68     		ldr	r3, [r7, #4]
 2941 006e 1B68     		ldr	r3, [r3]
 2942 0070 1946     		mov	r1, r3
 2943 0072 564B     		ldr	r3, .L742+32
 2944 0074 9942     		cmp	r1, r3
 2945 0076 1CD0     		beq	.L469
 2946 0078 7B68     		ldr	r3, [r7, #4]
 2947 007a 1B68     		ldr	r3, [r3]
 2948 007c 1946     		mov	r1, r3
 2949 007e 544B     		ldr	r3, .L742+36
 2950 0080 9942     		cmp	r1, r3
 2951 0082 14D0     		beq	.L470
 2952 0084 7B68     		ldr	r3, [r7, #4]
 2953 0086 1B68     		ldr	r3, [r3]
 2954 0088 1946     		mov	r1, r3
 2955 008a 524B     		ldr	r3, .L742+40
 2956 008c 9942     		cmp	r1, r3
 2957 008e 0BD0     		beq	.L471
 2958 0090 7B68     		ldr	r3, [r7, #4]
 2959 0092 1B68     		ldr	r3, [r3]
 2960 0094 1946     		mov	r1, r3
 2961 0096 504B     		ldr	r3, .L742+44
 2962 0098 9942     		cmp	r1, r3
 2963 009a 02D1     		bne	.L472
 2964 009c 4FF40043 		mov	r3, #32768
 2965 00a0 1BE0     		b	.L483
 2966              	.L472:
 2967              		.loc 1 562 0 discriminator 2
 2968 00a2 4FF40023 		mov	r3, #524288
 2969 00a6 18E0     		b	.L483
 2970              	.L471:
 2971 00a8 4FF40063 		mov	r3, #2048
 2972 00ac 15E0     		b	.L483
 2973              	.L470:
 2974 00ae 8023     		movs	r3, #128
 2975 00b0 13E0     		b	.L483
 2976              	.L469:
 2977 00b2 0823     		movs	r3, #8
 2978 00b4 11E0     		b	.L483
 2979              	.L468:
ARM GAS  /tmp/ccWSeizr.s 			page 63


 2980 00b6 4FF00063 		mov	r3, #134217728
 2981 00ba 0EE0     		b	.L483
 2982              	.L467:
 2983 00bc 4FF40003 		mov	r3, #8388608
 2984 00c0 0BE0     		b	.L483
 2985              	.L466:
 2986 00c2 4FF40023 		mov	r3, #524288
 2987 00c6 08E0     		b	.L483
 2988              	.L465:
 2989 00c8 4FF40043 		mov	r3, #32768
 2990 00cc 05E0     		b	.L483
 2991              	.L464:
 2992 00ce 4FF40063 		mov	r3, #2048
 2993 00d2 02E0     		b	.L483
 2994              	.L463:
 2995 00d4 8023     		movs	r3, #128
 2996 00d6 00E0     		b	.L483
 2997              	.L462:
 2998 00d8 0823     		movs	r3, #8
 2999              	.L483:
 3000              		.loc 1 562 0 discriminator 11
 3001 00da 1340     		ands	r3, r3, r2
 3002 00dc 002B     		cmp	r3, #0
 3003 00de 0CBF     		ite	eq
 3004 00e0 0023     		moveq	r3, #0
 3005 00e2 0123     		movne	r3, #1
 3006 00e4 DBB2     		uxtb	r3, r3
 3007 00e6 82E0     		b	.L484
 3008              	.L461:
 3009              		.loc 1 562 0 discriminator 2
 3010 00e8 3C4B     		ldr	r3, .L742+48
 3011 00ea 1A68     		ldr	r2, [r3]
 3012 00ec 7B68     		ldr	r3, [r7, #4]
 3013 00ee 1B68     		ldr	r3, [r3]
 3014 00f0 1946     		mov	r1, r3
 3015 00f2 304B     		ldr	r3, .L742+8
 3016 00f4 9942     		cmp	r1, r3
 3017 00f6 73D0     		beq	.L485
 3018              		.loc 1 562 0 discriminator 1
 3019 00f8 7B68     		ldr	r3, [r7, #4]
 3020 00fa 1B68     		ldr	r3, [r3]
 3021 00fc 1946     		mov	r1, r3
 3022 00fe 2E4B     		ldr	r3, .L742+12
 3023 0100 9942     		cmp	r1, r3
 3024 0102 51D0     		beq	.L486
 3025 0104 7B68     		ldr	r3, [r7, #4]
 3026 0106 1B68     		ldr	r3, [r3]
 3027 0108 1946     		mov	r1, r3
 3028 010a 2C4B     		ldr	r3, .L742+16
 3029 010c 9942     		cmp	r1, r3
 3030 010e 48D0     		beq	.L487
 3031 0110 7B68     		ldr	r3, [r7, #4]
 3032 0112 1B68     		ldr	r3, [r3]
 3033 0114 1946     		mov	r1, r3
 3034 0116 2A4B     		ldr	r3, .L742+20
 3035 0118 9942     		cmp	r1, r3
 3036 011a 3FD0     		beq	.L488
ARM GAS  /tmp/ccWSeizr.s 			page 64


 3037 011c 7B68     		ldr	r3, [r7, #4]
 3038 011e 1B68     		ldr	r3, [r3]
 3039 0120 1946     		mov	r1, r3
 3040 0122 284B     		ldr	r3, .L742+24
 3041 0124 9942     		cmp	r1, r3
 3042 0126 36D0     		beq	.L489
 3043 0128 7B68     		ldr	r3, [r7, #4]
 3044 012a 1B68     		ldr	r3, [r3]
 3045 012c 1946     		mov	r1, r3
 3046 012e 264B     		ldr	r3, .L742+28
 3047 0130 9942     		cmp	r1, r3
 3048 0132 2DD0     		beq	.L490
 3049 0134 7B68     		ldr	r3, [r7, #4]
 3050 0136 1B68     		ldr	r3, [r3]
 3051 0138 1946     		mov	r1, r3
 3052 013a 1C4B     		ldr	r3, .L742
 3053 013c 9942     		cmp	r1, r3
 3054 013e 24D0     		beq	.L491
 3055 0140 7B68     		ldr	r3, [r7, #4]
 3056 0142 1B68     		ldr	r3, [r3]
 3057 0144 1946     		mov	r1, r3
 3058 0146 214B     		ldr	r3, .L742+32
 3059 0148 9942     		cmp	r1, r3
 3060 014a 1CD0     		beq	.L492
 3061 014c 7B68     		ldr	r3, [r7, #4]
 3062 014e 1B68     		ldr	r3, [r3]
 3063 0150 1946     		mov	r1, r3
 3064 0152 1F4B     		ldr	r3, .L742+36
 3065 0154 9942     		cmp	r1, r3
 3066 0156 14D0     		beq	.L493
 3067 0158 7B68     		ldr	r3, [r7, #4]
 3068 015a 1B68     		ldr	r3, [r3]
 3069 015c 1946     		mov	r1, r3
 3070 015e 1D4B     		ldr	r3, .L742+40
 3071 0160 9942     		cmp	r1, r3
 3072 0162 0BD0     		beq	.L494
 3073 0164 7B68     		ldr	r3, [r7, #4]
 3074 0166 1B68     		ldr	r3, [r3]
 3075 0168 1946     		mov	r1, r3
 3076 016a 1B4B     		ldr	r3, .L742+44
 3077 016c 9942     		cmp	r1, r3
 3078 016e 02D1     		bne	.L495
 3079 0170 4FF40043 		mov	r3, #32768
 3080 0174 35E0     		b	.L506
 3081              	.L495:
 3082              		.loc 1 562 0 discriminator 2
 3083 0176 4FF40023 		mov	r3, #524288
 3084 017a 32E0     		b	.L506
 3085              	.L494:
 3086 017c 4FF40063 		mov	r3, #2048
 3087 0180 2FE0     		b	.L506
 3088              	.L493:
 3089 0182 8023     		movs	r3, #128
 3090 0184 2DE0     		b	.L506
 3091              	.L492:
 3092 0186 0823     		movs	r3, #8
 3093 0188 2BE0     		b	.L506
ARM GAS  /tmp/ccWSeizr.s 			page 65


 3094              	.L491:
 3095 018a 4FF00063 		mov	r3, #134217728
 3096 018e 28E0     		b	.L506
 3097              	.L490:
 3098 0190 4FF40003 		mov	r3, #8388608
 3099 0194 25E0     		b	.L506
 3100              	.L489:
 3101 0196 4FF40023 		mov	r3, #524288
 3102 019a 22E0     		b	.L506
 3103              	.L488:
 3104 019c 4FF40043 		mov	r3, #32768
 3105 01a0 1FE0     		b	.L506
 3106              	.L487:
 3107 01a2 4FF40063 		mov	r3, #2048
 3108 01a6 1CE0     		b	.L506
 3109              	.L486:
 3110 01a8 8023     		movs	r3, #128
 3111 01aa 1AE0     		b	.L506
 3112              	.L743:
 3113              		.align	2
 3114              	.L742:
 3115 01ac 80000240 		.word	1073873024
 3116 01b0 00040240 		.word	1073873920
 3117 01b4 08000240 		.word	1073872904
 3118 01b8 1C000240 		.word	1073872924
 3119 01bc 30000240 		.word	1073872944
 3120 01c0 44000240 		.word	1073872964
 3121 01c4 58000240 		.word	1073872984
 3122 01c8 6C000240 		.word	1073873004
 3123 01cc 08040240 		.word	1073873928
 3124 01d0 1C040240 		.word	1073873948
 3125 01d4 30040240 		.word	1073873968
 3126 01d8 44040240 		.word	1073873988
 3127 01dc 00000240 		.word	1073872896
 3128              	.L485:
 3129 01e0 0823     		movs	r3, #8
 3130              	.L506:
 3131              		.loc 1 562 0 discriminator 3
 3132 01e2 1340     		ands	r3, r3, r2
 3133 01e4 002B     		cmp	r3, #0
 3134 01e6 0CBF     		ite	eq
 3135 01e8 0023     		moveq	r3, #0
 3136 01ea 0123     		movne	r3, #1
 3137 01ec DBB2     		uxtb	r3, r3
 3138              	.L484:
 3139 01ee 002B     		cmp	r3, #0
 3140 01f0 00F00E81 		beq	.L507
 563:Drivers/STM32F3xx_HAL_Driver/Src/stm32f3xx_hal_dma.c ****   {
 564:Drivers/STM32F3xx_HAL_Driver/Src/stm32f3xx_hal_dma.c ****     if(__HAL_DMA_GET_IT_SOURCE(hdma, DMA_IT_TE) != RESET)
 3141              		.loc 1 564 0 is_stmt 1
 3142 01f4 7B68     		ldr	r3, [r7, #4]
 3143 01f6 1B68     		ldr	r3, [r3]
 3144 01f8 1B68     		ldr	r3, [r3]
 3145 01fa 03F00803 		and	r3, r3, #8
 3146 01fe 002B     		cmp	r3, #0
 3147 0200 00F00681 		beq	.L507
 565:Drivers/STM32F3xx_HAL_Driver/Src/stm32f3xx_hal_dma.c ****     {
ARM GAS  /tmp/ccWSeizr.s 			page 66


 566:Drivers/STM32F3xx_HAL_Driver/Src/stm32f3xx_hal_dma.c ****       /* Disable the transfer error interrupt */
 567:Drivers/STM32F3xx_HAL_Driver/Src/stm32f3xx_hal_dma.c ****       __HAL_DMA_DISABLE_IT(hdma, DMA_IT_TE);
 3148              		.loc 1 567 0
 3149 0204 7B68     		ldr	r3, [r7, #4]
 3150 0206 1B68     		ldr	r3, [r3]
 3151 0208 7A68     		ldr	r2, [r7, #4]
 3152 020a 1268     		ldr	r2, [r2]
 3153 020c 1268     		ldr	r2, [r2]
 3154 020e 22F00802 		bic	r2, r2, #8
 3155 0212 1A60     		str	r2, [r3]
 568:Drivers/STM32F3xx_HAL_Driver/Src/stm32f3xx_hal_dma.c ****     
 569:Drivers/STM32F3xx_HAL_Driver/Src/stm32f3xx_hal_dma.c ****       /* Clear the transfer error flag */
 570:Drivers/STM32F3xx_HAL_Driver/Src/stm32f3xx_hal_dma.c ****       __HAL_DMA_CLEAR_FLAG(hdma, __HAL_DMA_GET_TE_FLAG_INDEX(hdma));
 3156              		.loc 1 570 0
 3157 0214 7B68     		ldr	r3, [r7, #4]
 3158 0216 1B68     		ldr	r3, [r3]
 3159 0218 1A46     		mov	r2, r3
 3160 021a 644B     		ldr	r3, .L744
 3161 021c 9A42     		cmp	r2, r3
 3162 021e 63D9     		bls	.L508
 3163              		.loc 1 570 0 is_stmt 0 discriminator 1
 3164 0220 634A     		ldr	r2, .L744+4
 3165 0222 7B68     		ldr	r3, [r7, #4]
 3166 0224 1B68     		ldr	r3, [r3]
 3167 0226 1946     		mov	r1, r3
 3168 0228 624B     		ldr	r3, .L744+8
 3169 022a 9942     		cmp	r1, r3
 3170 022c 59D0     		beq	.L509
 3171 022e 7B68     		ldr	r3, [r7, #4]
 3172 0230 1B68     		ldr	r3, [r3]
 3173 0232 1946     		mov	r1, r3
 3174 0234 604B     		ldr	r3, .L744+12
 3175 0236 9942     		cmp	r1, r3
 3176 0238 51D0     		beq	.L510
 3177 023a 7B68     		ldr	r3, [r7, #4]
 3178 023c 1B68     		ldr	r3, [r3]
 3179 023e 1946     		mov	r1, r3
 3180 0240 5E4B     		ldr	r3, .L744+16
 3181 0242 9942     		cmp	r1, r3
 3182 0244 48D0     		beq	.L511
 3183 0246 7B68     		ldr	r3, [r7, #4]
 3184 0248 1B68     		ldr	r3, [r3]
 3185 024a 1946     		mov	r1, r3
 3186 024c 5C4B     		ldr	r3, .L744+20
 3187 024e 9942     		cmp	r1, r3
 3188 0250 3FD0     		beq	.L512
 3189 0252 7B68     		ldr	r3, [r7, #4]
 3190 0254 1B68     		ldr	r3, [r3]
 3191 0256 1946     		mov	r1, r3
 3192 0258 5A4B     		ldr	r3, .L744+24
 3193 025a 9942     		cmp	r1, r3
 3194 025c 36D0     		beq	.L513
 3195 025e 7B68     		ldr	r3, [r7, #4]
 3196 0260 1B68     		ldr	r3, [r3]
 3197 0262 1946     		mov	r1, r3
 3198 0264 584B     		ldr	r3, .L744+28
 3199 0266 9942     		cmp	r1, r3
ARM GAS  /tmp/ccWSeizr.s 			page 67


 3200 0268 2DD0     		beq	.L514
 3201 026a 7B68     		ldr	r3, [r7, #4]
 3202 026c 1B68     		ldr	r3, [r3]
 3203 026e 1946     		mov	r1, r3
 3204 0270 4E4B     		ldr	r3, .L744
 3205 0272 9942     		cmp	r1, r3
 3206 0274 24D0     		beq	.L515
 3207 0276 7B68     		ldr	r3, [r7, #4]
 3208 0278 1B68     		ldr	r3, [r3]
 3209 027a 1946     		mov	r1, r3
 3210 027c 534B     		ldr	r3, .L744+32
 3211 027e 9942     		cmp	r1, r3
 3212 0280 1CD0     		beq	.L516
 3213 0282 7B68     		ldr	r3, [r7, #4]
 3214 0284 1B68     		ldr	r3, [r3]
 3215 0286 1946     		mov	r1, r3
 3216 0288 514B     		ldr	r3, .L744+36
 3217 028a 9942     		cmp	r1, r3
 3218 028c 14D0     		beq	.L517
 3219 028e 7B68     		ldr	r3, [r7, #4]
 3220 0290 1B68     		ldr	r3, [r3]
 3221 0292 1946     		mov	r1, r3
 3222 0294 4F4B     		ldr	r3, .L744+40
 3223 0296 9942     		cmp	r1, r3
 3224 0298 0BD0     		beq	.L518
 3225 029a 7B68     		ldr	r3, [r7, #4]
 3226 029c 1B68     		ldr	r3, [r3]
 3227 029e 1946     		mov	r1, r3
 3228 02a0 4D4B     		ldr	r3, .L744+44
 3229 02a2 9942     		cmp	r1, r3
 3230 02a4 02D1     		bne	.L519
 3231 02a6 4FF40043 		mov	r3, #32768
 3232 02aa 1BE0     		b	.L530
 3233              	.L519:
 3234              		.loc 1 570 0 discriminator 2
 3235 02ac 4FF40023 		mov	r3, #524288
 3236 02b0 18E0     		b	.L530
 3237              	.L518:
 3238 02b2 4FF40063 		mov	r3, #2048
 3239 02b6 15E0     		b	.L530
 3240              	.L517:
 3241 02b8 8023     		movs	r3, #128
 3242 02ba 13E0     		b	.L530
 3243              	.L516:
 3244 02bc 0823     		movs	r3, #8
 3245 02be 11E0     		b	.L530
 3246              	.L515:
 3247 02c0 4FF00063 		mov	r3, #134217728
 3248 02c4 0EE0     		b	.L530
 3249              	.L514:
 3250 02c6 4FF40003 		mov	r3, #8388608
 3251 02ca 0BE0     		b	.L530
 3252              	.L513:
 3253 02cc 4FF40023 		mov	r3, #524288
 3254 02d0 08E0     		b	.L530
 3255              	.L512:
 3256 02d2 4FF40043 		mov	r3, #32768
ARM GAS  /tmp/ccWSeizr.s 			page 68


 3257 02d6 05E0     		b	.L530
 3258              	.L511:
 3259 02d8 4FF40063 		mov	r3, #2048
 3260 02dc 02E0     		b	.L530
 3261              	.L510:
 3262 02de 8023     		movs	r3, #128
 3263 02e0 00E0     		b	.L530
 3264              	.L509:
 3265 02e2 0823     		movs	r3, #8
 3266              	.L530:
 3267              		.loc 1 570 0 discriminator 32
 3268 02e4 5360     		str	r3, [r2, #4]
 3269 02e6 7DE0     		b	.L531
 3270              	.L508:
 3271              		.loc 1 570 0 discriminator 2
 3272 02e8 3C4A     		ldr	r2, .L744+48
 3273 02ea 7B68     		ldr	r3, [r7, #4]
 3274 02ec 1B68     		ldr	r3, [r3]
 3275 02ee 1946     		mov	r1, r3
 3276 02f0 304B     		ldr	r3, .L744+8
 3277 02f2 9942     		cmp	r1, r3
 3278 02f4 74D0     		beq	.L532
 3279              		.loc 1 570 0 discriminator 1
 3280 02f6 7B68     		ldr	r3, [r7, #4]
 3281 02f8 1B68     		ldr	r3, [r3]
 3282 02fa 1946     		mov	r1, r3
 3283 02fc 2E4B     		ldr	r3, .L744+12
 3284 02fe 9942     		cmp	r1, r3
 3285 0300 51D0     		beq	.L533
 3286 0302 7B68     		ldr	r3, [r7, #4]
 3287 0304 1B68     		ldr	r3, [r3]
 3288 0306 1946     		mov	r1, r3
 3289 0308 2C4B     		ldr	r3, .L744+16
 3290 030a 9942     		cmp	r1, r3
 3291 030c 48D0     		beq	.L534
 3292 030e 7B68     		ldr	r3, [r7, #4]
 3293 0310 1B68     		ldr	r3, [r3]
 3294 0312 1946     		mov	r1, r3
 3295 0314 2A4B     		ldr	r3, .L744+20
 3296 0316 9942     		cmp	r1, r3
 3297 0318 3FD0     		beq	.L535
 3298 031a 7B68     		ldr	r3, [r7, #4]
 3299 031c 1B68     		ldr	r3, [r3]
 3300 031e 1946     		mov	r1, r3
 3301 0320 284B     		ldr	r3, .L744+24
 3302 0322 9942     		cmp	r1, r3
 3303 0324 36D0     		beq	.L536
 3304 0326 7B68     		ldr	r3, [r7, #4]
 3305 0328 1B68     		ldr	r3, [r3]
 3306 032a 1946     		mov	r1, r3
 3307 032c 264B     		ldr	r3, .L744+28
 3308 032e 9942     		cmp	r1, r3
 3309 0330 2DD0     		beq	.L537
 3310 0332 7B68     		ldr	r3, [r7, #4]
 3311 0334 1B68     		ldr	r3, [r3]
 3312 0336 1946     		mov	r1, r3
 3313 0338 1C4B     		ldr	r3, .L744
ARM GAS  /tmp/ccWSeizr.s 			page 69


 3314 033a 9942     		cmp	r1, r3
 3315 033c 24D0     		beq	.L538
 3316 033e 7B68     		ldr	r3, [r7, #4]
 3317 0340 1B68     		ldr	r3, [r3]
 3318 0342 1946     		mov	r1, r3
 3319 0344 214B     		ldr	r3, .L744+32
 3320 0346 9942     		cmp	r1, r3
 3321 0348 1CD0     		beq	.L539
 3322 034a 7B68     		ldr	r3, [r7, #4]
 3323 034c 1B68     		ldr	r3, [r3]
 3324 034e 1946     		mov	r1, r3
 3325 0350 1F4B     		ldr	r3, .L744+36
 3326 0352 9942     		cmp	r1, r3
 3327 0354 14D0     		beq	.L540
 3328 0356 7B68     		ldr	r3, [r7, #4]
 3329 0358 1B68     		ldr	r3, [r3]
 3330 035a 1946     		mov	r1, r3
 3331 035c 1D4B     		ldr	r3, .L744+40
 3332 035e 9942     		cmp	r1, r3
 3333 0360 0BD0     		beq	.L541
 3334 0362 7B68     		ldr	r3, [r7, #4]
 3335 0364 1B68     		ldr	r3, [r3]
 3336 0366 1946     		mov	r1, r3
 3337 0368 1B4B     		ldr	r3, .L744+44
 3338 036a 9942     		cmp	r1, r3
 3339 036c 02D1     		bne	.L542
 3340 036e 4FF40043 		mov	r3, #32768
 3341 0372 36E0     		b	.L553
 3342              	.L542:
 3343              		.loc 1 570 0 discriminator 2
 3344 0374 4FF40023 		mov	r3, #524288
 3345 0378 33E0     		b	.L553
 3346              	.L541:
 3347 037a 4FF40063 		mov	r3, #2048
 3348 037e 30E0     		b	.L553
 3349              	.L540:
 3350 0380 8023     		movs	r3, #128
 3351 0382 2EE0     		b	.L553
 3352              	.L539:
 3353 0384 0823     		movs	r3, #8
 3354 0386 2CE0     		b	.L553
 3355              	.L538:
 3356 0388 4FF00063 		mov	r3, #134217728
 3357 038c 29E0     		b	.L553
 3358              	.L537:
 3359 038e 4FF40003 		mov	r3, #8388608
 3360 0392 26E0     		b	.L553
 3361              	.L536:
 3362 0394 4FF40023 		mov	r3, #524288
 3363 0398 23E0     		b	.L553
 3364              	.L535:
 3365 039a 4FF40043 		mov	r3, #32768
 3366 039e 20E0     		b	.L553
 3367              	.L534:
 3368 03a0 4FF40063 		mov	r3, #2048
 3369 03a4 1DE0     		b	.L553
 3370              	.L533:
ARM GAS  /tmp/ccWSeizr.s 			page 70


 3371 03a6 8023     		movs	r3, #128
 3372 03a8 1BE0     		b	.L553
 3373              	.L745:
 3374 03aa 00BF     		.align	2
 3375              	.L744:
 3376 03ac 80000240 		.word	1073873024
 3377 03b0 00040240 		.word	1073873920
 3378 03b4 08000240 		.word	1073872904
 3379 03b8 1C000240 		.word	1073872924
 3380 03bc 30000240 		.word	1073872944
 3381 03c0 44000240 		.word	1073872964
 3382 03c4 58000240 		.word	1073872984
 3383 03c8 6C000240 		.word	1073873004
 3384 03cc 08040240 		.word	1073873928
 3385 03d0 1C040240 		.word	1073873948
 3386 03d4 30040240 		.word	1073873968
 3387 03d8 44040240 		.word	1073873988
 3388 03dc 00000240 		.word	1073872896
 3389              	.L532:
 3390 03e0 0823     		movs	r3, #8
 3391              	.L553:
 3392              		.loc 1 570 0 discriminator 3
 3393 03e2 5360     		str	r3, [r2, #4]
 3394              	.L531:
 571:Drivers/STM32F3xx_HAL_Driver/Src/stm32f3xx_hal_dma.c ****     
 572:Drivers/STM32F3xx_HAL_Driver/Src/stm32f3xx_hal_dma.c ****       /* Update error code */
 573:Drivers/STM32F3xx_HAL_Driver/Src/stm32f3xx_hal_dma.c ****       SET_BIT(hdma->ErrorCode, HAL_DMA_ERROR_TE);
 3395              		.loc 1 573 0 is_stmt 1
 3396 03e4 7B68     		ldr	r3, [r7, #4]
 3397 03e6 9B6B     		ldr	r3, [r3, #56]
 3398 03e8 43F00102 		orr	r2, r3, #1
 3399 03ec 7B68     		ldr	r3, [r7, #4]
 3400 03ee 9A63     		str	r2, [r3, #56]
 574:Drivers/STM32F3xx_HAL_Driver/Src/stm32f3xx_hal_dma.c **** 
 575:Drivers/STM32F3xx_HAL_Driver/Src/stm32f3xx_hal_dma.c ****       /* Change the DMA state */
 576:Drivers/STM32F3xx_HAL_Driver/Src/stm32f3xx_hal_dma.c ****       hdma->State = HAL_DMA_STATE_ERROR;    
 3401              		.loc 1 576 0
 3402 03f0 7B68     		ldr	r3, [r7, #4]
 3403 03f2 0422     		movs	r2, #4
 3404 03f4 83F82120 		strb	r2, [r3, #33]
 577:Drivers/STM32F3xx_HAL_Driver/Src/stm32f3xx_hal_dma.c ****     
 578:Drivers/STM32F3xx_HAL_Driver/Src/stm32f3xx_hal_dma.c ****       /* Process Unlocked */
 579:Drivers/STM32F3xx_HAL_Driver/Src/stm32f3xx_hal_dma.c ****       __HAL_UNLOCK(hdma); 
 3405              		.loc 1 579 0
 3406 03f8 7B68     		ldr	r3, [r7, #4]
 3407 03fa 0022     		movs	r2, #0
 3408 03fc 83F82020 		strb	r2, [r3, #32]
 580:Drivers/STM32F3xx_HAL_Driver/Src/stm32f3xx_hal_dma.c ****     
 581:Drivers/STM32F3xx_HAL_Driver/Src/stm32f3xx_hal_dma.c ****       if (hdma->XferErrorCallback != NULL)
 3409              		.loc 1 581 0
 3410 0400 7B68     		ldr	r3, [r7, #4]
 3411 0402 1B6B     		ldr	r3, [r3, #48]
 3412 0404 002B     		cmp	r3, #0
 3413 0406 03D0     		beq	.L507
 582:Drivers/STM32F3xx_HAL_Driver/Src/stm32f3xx_hal_dma.c ****       {
 583:Drivers/STM32F3xx_HAL_Driver/Src/stm32f3xx_hal_dma.c ****         /* Transfer error callback */
 584:Drivers/STM32F3xx_HAL_Driver/Src/stm32f3xx_hal_dma.c ****         hdma->XferErrorCallback(hdma);
ARM GAS  /tmp/ccWSeizr.s 			page 71


 3414              		.loc 1 584 0
 3415 0408 7B68     		ldr	r3, [r7, #4]
 3416 040a 1B6B     		ldr	r3, [r3, #48]
 3417 040c 7868     		ldr	r0, [r7, #4]
 3418 040e 9847     		blx	r3
 3419              	.L507:
 585:Drivers/STM32F3xx_HAL_Driver/Src/stm32f3xx_hal_dma.c ****       }
 586:Drivers/STM32F3xx_HAL_Driver/Src/stm32f3xx_hal_dma.c ****     }
 587:Drivers/STM32F3xx_HAL_Driver/Src/stm32f3xx_hal_dma.c ****   }
 588:Drivers/STM32F3xx_HAL_Driver/Src/stm32f3xx_hal_dma.c **** 
 589:Drivers/STM32F3xx_HAL_Driver/Src/stm32f3xx_hal_dma.c ****   /* Half Transfer Complete Interrupt management ******************************/
 590:Drivers/STM32F3xx_HAL_Driver/Src/stm32f3xx_hal_dma.c ****   if(__HAL_DMA_GET_FLAG(hdma, __HAL_DMA_GET_HT_FLAG_INDEX(hdma)) != RESET)
 3420              		.loc 1 590 0
 3421 0410 7B68     		ldr	r3, [r7, #4]
 3422 0412 1B68     		ldr	r3, [r3]
 3423 0414 1A46     		mov	r2, r3
 3424 0416 674B     		ldr	r3, .L746
 3425 0418 9A42     		cmp	r2, r3
 3426 041a 69D9     		bls	.L554
 3427              		.loc 1 590 0 is_stmt 0 discriminator 1
 3428 041c 664B     		ldr	r3, .L746+4
 3429 041e 1A68     		ldr	r2, [r3]
 3430 0420 7B68     		ldr	r3, [r7, #4]
 3431 0422 1B68     		ldr	r3, [r3]
 3432 0424 1946     		mov	r1, r3
 3433 0426 654B     		ldr	r3, .L746+8
 3434 0428 9942     		cmp	r1, r3
 3435 042a 59D0     		beq	.L555
 3436 042c 7B68     		ldr	r3, [r7, #4]
 3437 042e 1B68     		ldr	r3, [r3]
 3438 0430 1946     		mov	r1, r3
 3439 0432 634B     		ldr	r3, .L746+12
 3440 0434 9942     		cmp	r1, r3
 3441 0436 51D0     		beq	.L556
 3442 0438 7B68     		ldr	r3, [r7, #4]
 3443 043a 1B68     		ldr	r3, [r3]
 3444 043c 1946     		mov	r1, r3
 3445 043e 614B     		ldr	r3, .L746+16
 3446 0440 9942     		cmp	r1, r3
 3447 0442 48D0     		beq	.L557
 3448 0444 7B68     		ldr	r3, [r7, #4]
 3449 0446 1B68     		ldr	r3, [r3]
 3450 0448 1946     		mov	r1, r3
 3451 044a 5F4B     		ldr	r3, .L746+20
 3452 044c 9942     		cmp	r1, r3
 3453 044e 3FD0     		beq	.L558
 3454 0450 7B68     		ldr	r3, [r7, #4]
 3455 0452 1B68     		ldr	r3, [r3]
 3456 0454 1946     		mov	r1, r3
 3457 0456 5D4B     		ldr	r3, .L746+24
 3458 0458 9942     		cmp	r1, r3
 3459 045a 36D0     		beq	.L559
 3460 045c 7B68     		ldr	r3, [r7, #4]
 3461 045e 1B68     		ldr	r3, [r3]
 3462 0460 1946     		mov	r1, r3
 3463 0462 5B4B     		ldr	r3, .L746+28
 3464 0464 9942     		cmp	r1, r3
ARM GAS  /tmp/ccWSeizr.s 			page 72


 3465 0466 2DD0     		beq	.L560
 3466 0468 7B68     		ldr	r3, [r7, #4]
 3467 046a 1B68     		ldr	r3, [r3]
 3468 046c 1946     		mov	r1, r3
 3469 046e 514B     		ldr	r3, .L746
 3470 0470 9942     		cmp	r1, r3
 3471 0472 24D0     		beq	.L561
 3472 0474 7B68     		ldr	r3, [r7, #4]
 3473 0476 1B68     		ldr	r3, [r3]
 3474 0478 1946     		mov	r1, r3
 3475 047a 564B     		ldr	r3, .L746+32
 3476 047c 9942     		cmp	r1, r3
 3477 047e 1CD0     		beq	.L562
 3478 0480 7B68     		ldr	r3, [r7, #4]
 3479 0482 1B68     		ldr	r3, [r3]
 3480 0484 1946     		mov	r1, r3
 3481 0486 544B     		ldr	r3, .L746+36
 3482 0488 9942     		cmp	r1, r3
 3483 048a 14D0     		beq	.L563
 3484 048c 7B68     		ldr	r3, [r7, #4]
 3485 048e 1B68     		ldr	r3, [r3]
 3486 0490 1946     		mov	r1, r3
 3487 0492 524B     		ldr	r3, .L746+40
 3488 0494 9942     		cmp	r1, r3
 3489 0496 0BD0     		beq	.L564
 3490 0498 7B68     		ldr	r3, [r7, #4]
 3491 049a 1B68     		ldr	r3, [r3]
 3492 049c 1946     		mov	r1, r3
 3493 049e 504B     		ldr	r3, .L746+44
 3494 04a0 9942     		cmp	r1, r3
 3495 04a2 02D1     		bne	.L565
 3496 04a4 4FF48043 		mov	r3, #16384
 3497 04a8 1BE0     		b	.L576
 3498              	.L565:
 3499              		.loc 1 590 0 discriminator 2
 3500 04aa 4FF48023 		mov	r3, #262144
 3501 04ae 18E0     		b	.L576
 3502              	.L564:
 3503 04b0 4FF48063 		mov	r3, #1024
 3504 04b4 15E0     		b	.L576
 3505              	.L563:
 3506 04b6 4023     		movs	r3, #64
 3507 04b8 13E0     		b	.L576
 3508              	.L562:
 3509 04ba 0423     		movs	r3, #4
 3510 04bc 11E0     		b	.L576
 3511              	.L561:
 3512 04be 4FF08063 		mov	r3, #67108864
 3513 04c2 0EE0     		b	.L576
 3514              	.L560:
 3515 04c4 4FF48003 		mov	r3, #4194304
 3516 04c8 0BE0     		b	.L576
 3517              	.L559:
 3518 04ca 4FF48023 		mov	r3, #262144
 3519 04ce 08E0     		b	.L576
 3520              	.L558:
 3521 04d0 4FF48043 		mov	r3, #16384
ARM GAS  /tmp/ccWSeizr.s 			page 73


 3522 04d4 05E0     		b	.L576
 3523              	.L557:
 3524 04d6 4FF48063 		mov	r3, #1024
 3525 04da 02E0     		b	.L576
 3526              	.L556:
 3527 04dc 4023     		movs	r3, #64
 3528 04de 00E0     		b	.L576
 3529              	.L555:
 3530 04e0 0423     		movs	r3, #4
 3531              	.L576:
 3532              		.loc 1 590 0 discriminator 53
 3533 04e2 1340     		ands	r3, r3, r2
 3534 04e4 002B     		cmp	r3, #0
 3535 04e6 0CBF     		ite	eq
 3536 04e8 0023     		moveq	r3, #0
 3537 04ea 0123     		movne	r3, #1
 3538 04ec DBB2     		uxtb	r3, r3
 3539 04ee 82E0     		b	.L577
 3540              	.L554:
 3541              		.loc 1 590 0 discriminator 2
 3542 04f0 3C4B     		ldr	r3, .L746+48
 3543 04f2 1A68     		ldr	r2, [r3]
 3544 04f4 7B68     		ldr	r3, [r7, #4]
 3545 04f6 1B68     		ldr	r3, [r3]
 3546 04f8 1946     		mov	r1, r3
 3547 04fa 304B     		ldr	r3, .L746+8
 3548 04fc 9942     		cmp	r1, r3
 3549 04fe 73D0     		beq	.L578
 3550              		.loc 1 590 0 discriminator 1
 3551 0500 7B68     		ldr	r3, [r7, #4]
 3552 0502 1B68     		ldr	r3, [r3]
 3553 0504 1946     		mov	r1, r3
 3554 0506 2E4B     		ldr	r3, .L746+12
 3555 0508 9942     		cmp	r1, r3
 3556 050a 51D0     		beq	.L579
 3557 050c 7B68     		ldr	r3, [r7, #4]
 3558 050e 1B68     		ldr	r3, [r3]
 3559 0510 1946     		mov	r1, r3
 3560 0512 2C4B     		ldr	r3, .L746+16
 3561 0514 9942     		cmp	r1, r3
 3562 0516 48D0     		beq	.L580
 3563 0518 7B68     		ldr	r3, [r7, #4]
 3564 051a 1B68     		ldr	r3, [r3]
 3565 051c 1946     		mov	r1, r3
 3566 051e 2A4B     		ldr	r3, .L746+20
 3567 0520 9942     		cmp	r1, r3
 3568 0522 3FD0     		beq	.L581
 3569 0524 7B68     		ldr	r3, [r7, #4]
 3570 0526 1B68     		ldr	r3, [r3]
 3571 0528 1946     		mov	r1, r3
 3572 052a 284B     		ldr	r3, .L746+24
 3573 052c 9942     		cmp	r1, r3
 3574 052e 36D0     		beq	.L582
 3575 0530 7B68     		ldr	r3, [r7, #4]
 3576 0532 1B68     		ldr	r3, [r3]
 3577 0534 1946     		mov	r1, r3
 3578 0536 264B     		ldr	r3, .L746+28
ARM GAS  /tmp/ccWSeizr.s 			page 74


 3579 0538 9942     		cmp	r1, r3
 3580 053a 2DD0     		beq	.L583
 3581 053c 7B68     		ldr	r3, [r7, #4]
 3582 053e 1B68     		ldr	r3, [r3]
 3583 0540 1946     		mov	r1, r3
 3584 0542 1C4B     		ldr	r3, .L746
 3585 0544 9942     		cmp	r1, r3
 3586 0546 24D0     		beq	.L584
 3587 0548 7B68     		ldr	r3, [r7, #4]
 3588 054a 1B68     		ldr	r3, [r3]
 3589 054c 1946     		mov	r1, r3
 3590 054e 214B     		ldr	r3, .L746+32
 3591 0550 9942     		cmp	r1, r3
 3592 0552 1CD0     		beq	.L585
 3593 0554 7B68     		ldr	r3, [r7, #4]
 3594 0556 1B68     		ldr	r3, [r3]
 3595 0558 1946     		mov	r1, r3
 3596 055a 1F4B     		ldr	r3, .L746+36
 3597 055c 9942     		cmp	r1, r3
 3598 055e 14D0     		beq	.L586
 3599 0560 7B68     		ldr	r3, [r7, #4]
 3600 0562 1B68     		ldr	r3, [r3]
 3601 0564 1946     		mov	r1, r3
 3602 0566 1D4B     		ldr	r3, .L746+40
 3603 0568 9942     		cmp	r1, r3
 3604 056a 0BD0     		beq	.L587
 3605 056c 7B68     		ldr	r3, [r7, #4]
 3606 056e 1B68     		ldr	r3, [r3]
 3607 0570 1946     		mov	r1, r3
 3608 0572 1B4B     		ldr	r3, .L746+44
 3609 0574 9942     		cmp	r1, r3
 3610 0576 02D1     		bne	.L588
 3611 0578 4FF48043 		mov	r3, #16384
 3612 057c 35E0     		b	.L599
 3613              	.L588:
 3614              		.loc 1 590 0 discriminator 2
 3615 057e 4FF48023 		mov	r3, #262144
 3616 0582 32E0     		b	.L599
 3617              	.L587:
 3618 0584 4FF48063 		mov	r3, #1024
 3619 0588 2FE0     		b	.L599
 3620              	.L586:
 3621 058a 4023     		movs	r3, #64
 3622 058c 2DE0     		b	.L599
 3623              	.L585:
 3624 058e 0423     		movs	r3, #4
 3625 0590 2BE0     		b	.L599
 3626              	.L584:
 3627 0592 4FF08063 		mov	r3, #67108864
 3628 0596 28E0     		b	.L599
 3629              	.L583:
 3630 0598 4FF48003 		mov	r3, #4194304
 3631 059c 25E0     		b	.L599
 3632              	.L582:
 3633 059e 4FF48023 		mov	r3, #262144
 3634 05a2 22E0     		b	.L599
 3635              	.L581:
ARM GAS  /tmp/ccWSeizr.s 			page 75


 3636 05a4 4FF48043 		mov	r3, #16384
 3637 05a8 1FE0     		b	.L599
 3638              	.L580:
 3639 05aa 4FF48063 		mov	r3, #1024
 3640 05ae 1CE0     		b	.L599
 3641              	.L579:
 3642 05b0 4023     		movs	r3, #64
 3643 05b2 1AE0     		b	.L599
 3644              	.L747:
 3645              		.align	2
 3646              	.L746:
 3647 05b4 80000240 		.word	1073873024
 3648 05b8 00040240 		.word	1073873920
 3649 05bc 08000240 		.word	1073872904
 3650 05c0 1C000240 		.word	1073872924
 3651 05c4 30000240 		.word	1073872944
 3652 05c8 44000240 		.word	1073872964
 3653 05cc 58000240 		.word	1073872984
 3654 05d0 6C000240 		.word	1073873004
 3655 05d4 08040240 		.word	1073873928
 3656 05d8 1C040240 		.word	1073873948
 3657 05dc 30040240 		.word	1073873968
 3658 05e0 44040240 		.word	1073873988
 3659 05e4 00000240 		.word	1073872896
 3660              	.L578:
 3661 05e8 0423     		movs	r3, #4
 3662              	.L599:
 3663              		.loc 1 590 0 discriminator 3
 3664 05ea 1340     		ands	r3, r3, r2
 3665 05ec 002B     		cmp	r3, #0
 3666 05ee 0CBF     		ite	eq
 3667 05f0 0023     		moveq	r3, #0
 3668 05f2 0123     		movne	r3, #1
 3669 05f4 DBB2     		uxtb	r3, r3
 3670              	.L577:
 3671 05f6 002B     		cmp	r3, #0
 3672 05f8 00F0F080 		beq	.L600
 591:Drivers/STM32F3xx_HAL_Driver/Src/stm32f3xx_hal_dma.c ****   {
 592:Drivers/STM32F3xx_HAL_Driver/Src/stm32f3xx_hal_dma.c ****     if(__HAL_DMA_GET_IT_SOURCE(hdma, DMA_IT_HT) != RESET)
 3673              		.loc 1 592 0 is_stmt 1
 3674 05fc 7B68     		ldr	r3, [r7, #4]
 3675 05fe 1B68     		ldr	r3, [r3]
 3676 0600 1B68     		ldr	r3, [r3]
 3677 0602 03F00403 		and	r3, r3, #4
 3678 0606 002B     		cmp	r3, #0
 3679 0608 00F0E880 		beq	.L600
 593:Drivers/STM32F3xx_HAL_Driver/Src/stm32f3xx_hal_dma.c ****     { 
 594:Drivers/STM32F3xx_HAL_Driver/Src/stm32f3xx_hal_dma.c ****       /* Disable the half transfer interrupt if the DMA mode is not CIRCULAR */
 595:Drivers/STM32F3xx_HAL_Driver/Src/stm32f3xx_hal_dma.c ****       if((hdma->Instance->CCR & DMA_CCR_CIRC) == 0)
 3680              		.loc 1 595 0
 3681 060c 7B68     		ldr	r3, [r7, #4]
 3682 060e 1B68     		ldr	r3, [r3]
 3683 0610 1B68     		ldr	r3, [r3]
 3684 0612 03F02003 		and	r3, r3, #32
 3685 0616 002B     		cmp	r3, #0
 3686 0618 07D1     		bne	.L601
 596:Drivers/STM32F3xx_HAL_Driver/Src/stm32f3xx_hal_dma.c ****       {
ARM GAS  /tmp/ccWSeizr.s 			page 76


 597:Drivers/STM32F3xx_HAL_Driver/Src/stm32f3xx_hal_dma.c ****         /* Disable the half transfer interrupt */
 598:Drivers/STM32F3xx_HAL_Driver/Src/stm32f3xx_hal_dma.c ****         __HAL_DMA_DISABLE_IT(hdma, DMA_IT_HT);
 3687              		.loc 1 598 0
 3688 061a 7B68     		ldr	r3, [r7, #4]
 3689 061c 1B68     		ldr	r3, [r3]
 3690 061e 7A68     		ldr	r2, [r7, #4]
 3691 0620 1268     		ldr	r2, [r2]
 3692 0622 1268     		ldr	r2, [r2]
 3693 0624 22F00402 		bic	r2, r2, #4
 3694 0628 1A60     		str	r2, [r3]
 3695              	.L601:
 599:Drivers/STM32F3xx_HAL_Driver/Src/stm32f3xx_hal_dma.c ****       }
 600:Drivers/STM32F3xx_HAL_Driver/Src/stm32f3xx_hal_dma.c ****       /* Clear the half transfer complete flag */
 601:Drivers/STM32F3xx_HAL_Driver/Src/stm32f3xx_hal_dma.c ****       __HAL_DMA_CLEAR_FLAG(hdma, __HAL_DMA_GET_HT_FLAG_INDEX(hdma));
 3696              		.loc 1 601 0
 3697 062a 7B68     		ldr	r3, [r7, #4]
 3698 062c 1B68     		ldr	r3, [r3]
 3699 062e 1A46     		mov	r2, r3
 3700 0630 934B     		ldr	r3, .L748
 3701 0632 9A42     		cmp	r2, r3
 3702 0634 63D9     		bls	.L602
 3703              		.loc 1 601 0 is_stmt 0 discriminator 1
 3704 0636 934A     		ldr	r2, .L748+4
 3705 0638 7B68     		ldr	r3, [r7, #4]
 3706 063a 1B68     		ldr	r3, [r3]
 3707 063c 1946     		mov	r1, r3
 3708 063e 924B     		ldr	r3, .L748+8
 3709 0640 9942     		cmp	r1, r3
 3710 0642 59D0     		beq	.L603
 3711 0644 7B68     		ldr	r3, [r7, #4]
 3712 0646 1B68     		ldr	r3, [r3]
 3713 0648 1946     		mov	r1, r3
 3714 064a 904B     		ldr	r3, .L748+12
 3715 064c 9942     		cmp	r1, r3
 3716 064e 51D0     		beq	.L604
 3717 0650 7B68     		ldr	r3, [r7, #4]
 3718 0652 1B68     		ldr	r3, [r3]
 3719 0654 1946     		mov	r1, r3
 3720 0656 8E4B     		ldr	r3, .L748+16
 3721 0658 9942     		cmp	r1, r3
 3722 065a 48D0     		beq	.L605
 3723 065c 7B68     		ldr	r3, [r7, #4]
 3724 065e 1B68     		ldr	r3, [r3]
 3725 0660 1946     		mov	r1, r3
 3726 0662 8C4B     		ldr	r3, .L748+20
 3727 0664 9942     		cmp	r1, r3
 3728 0666 3FD0     		beq	.L606
 3729 0668 7B68     		ldr	r3, [r7, #4]
 3730 066a 1B68     		ldr	r3, [r3]
 3731 066c 1946     		mov	r1, r3
 3732 066e 8A4B     		ldr	r3, .L748+24
 3733 0670 9942     		cmp	r1, r3
 3734 0672 36D0     		beq	.L607
 3735 0674 7B68     		ldr	r3, [r7, #4]
 3736 0676 1B68     		ldr	r3, [r3]
 3737 0678 1946     		mov	r1, r3
 3738 067a 884B     		ldr	r3, .L748+28
ARM GAS  /tmp/ccWSeizr.s 			page 77


 3739 067c 9942     		cmp	r1, r3
 3740 067e 2DD0     		beq	.L608
 3741 0680 7B68     		ldr	r3, [r7, #4]
 3742 0682 1B68     		ldr	r3, [r3]
 3743 0684 1946     		mov	r1, r3
 3744 0686 7E4B     		ldr	r3, .L748
 3745 0688 9942     		cmp	r1, r3
 3746 068a 24D0     		beq	.L609
 3747 068c 7B68     		ldr	r3, [r7, #4]
 3748 068e 1B68     		ldr	r3, [r3]
 3749 0690 1946     		mov	r1, r3
 3750 0692 834B     		ldr	r3, .L748+32
 3751 0694 9942     		cmp	r1, r3
 3752 0696 1CD0     		beq	.L610
 3753 0698 7B68     		ldr	r3, [r7, #4]
 3754 069a 1B68     		ldr	r3, [r3]
 3755 069c 1946     		mov	r1, r3
 3756 069e 814B     		ldr	r3, .L748+36
 3757 06a0 9942     		cmp	r1, r3
 3758 06a2 14D0     		beq	.L611
 3759 06a4 7B68     		ldr	r3, [r7, #4]
 3760 06a6 1B68     		ldr	r3, [r3]
 3761 06a8 1946     		mov	r1, r3
 3762 06aa 7F4B     		ldr	r3, .L748+40
 3763 06ac 9942     		cmp	r1, r3
 3764 06ae 0BD0     		beq	.L612
 3765 06b0 7B68     		ldr	r3, [r7, #4]
 3766 06b2 1B68     		ldr	r3, [r3]
 3767 06b4 1946     		mov	r1, r3
 3768 06b6 7D4B     		ldr	r3, .L748+44
 3769 06b8 9942     		cmp	r1, r3
 3770 06ba 02D1     		bne	.L613
 3771 06bc 4FF48043 		mov	r3, #16384
 3772 06c0 1BE0     		b	.L624
 3773              	.L613:
 3774              		.loc 1 601 0 discriminator 2
 3775 06c2 4FF48023 		mov	r3, #262144
 3776 06c6 18E0     		b	.L624
 3777              	.L612:
 3778 06c8 4FF48063 		mov	r3, #1024
 3779 06cc 15E0     		b	.L624
 3780              	.L611:
 3781 06ce 4023     		movs	r3, #64
 3782 06d0 13E0     		b	.L624
 3783              	.L610:
 3784 06d2 0423     		movs	r3, #4
 3785 06d4 11E0     		b	.L624
 3786              	.L609:
 3787 06d6 4FF08063 		mov	r3, #67108864
 3788 06da 0EE0     		b	.L624
 3789              	.L608:
 3790 06dc 4FF48003 		mov	r3, #4194304
 3791 06e0 0BE0     		b	.L624
 3792              	.L607:
 3793 06e2 4FF48023 		mov	r3, #262144
 3794 06e6 08E0     		b	.L624
 3795              	.L606:
ARM GAS  /tmp/ccWSeizr.s 			page 78


 3796 06e8 4FF48043 		mov	r3, #16384
 3797 06ec 05E0     		b	.L624
 3798              	.L605:
 3799 06ee 4FF48063 		mov	r3, #1024
 3800 06f2 02E0     		b	.L624
 3801              	.L604:
 3802 06f4 4023     		movs	r3, #64
 3803 06f6 00E0     		b	.L624
 3804              	.L603:
 3805 06f8 0423     		movs	r3, #4
 3806              	.L624:
 3807              		.loc 1 601 0 discriminator 74
 3808 06fa 5360     		str	r3, [r2, #4]
 3809 06fc 62E0     		b	.L625
 3810              	.L602:
 3811              		.loc 1 601 0 discriminator 2
 3812 06fe 6C4A     		ldr	r2, .L748+48
 3813 0700 7B68     		ldr	r3, [r7, #4]
 3814 0702 1B68     		ldr	r3, [r3]
 3815 0704 1946     		mov	r1, r3
 3816 0706 604B     		ldr	r3, .L748+8
 3817 0708 9942     		cmp	r1, r3
 3818 070a 59D0     		beq	.L626
 3819              		.loc 1 601 0 discriminator 1
 3820 070c 7B68     		ldr	r3, [r7, #4]
 3821 070e 1B68     		ldr	r3, [r3]
 3822 0710 1946     		mov	r1, r3
 3823 0712 5E4B     		ldr	r3, .L748+12
 3824 0714 9942     		cmp	r1, r3
 3825 0716 51D0     		beq	.L627
 3826 0718 7B68     		ldr	r3, [r7, #4]
 3827 071a 1B68     		ldr	r3, [r3]
 3828 071c 1946     		mov	r1, r3
 3829 071e 5C4B     		ldr	r3, .L748+16
 3830 0720 9942     		cmp	r1, r3
 3831 0722 48D0     		beq	.L628
 3832 0724 7B68     		ldr	r3, [r7, #4]
 3833 0726 1B68     		ldr	r3, [r3]
 3834 0728 1946     		mov	r1, r3
 3835 072a 5A4B     		ldr	r3, .L748+20
 3836 072c 9942     		cmp	r1, r3
 3837 072e 3FD0     		beq	.L629
 3838 0730 7B68     		ldr	r3, [r7, #4]
 3839 0732 1B68     		ldr	r3, [r3]
 3840 0734 1946     		mov	r1, r3
 3841 0736 584B     		ldr	r3, .L748+24
 3842 0738 9942     		cmp	r1, r3
 3843 073a 36D0     		beq	.L630
 3844 073c 7B68     		ldr	r3, [r7, #4]
 3845 073e 1B68     		ldr	r3, [r3]
 3846 0740 1946     		mov	r1, r3
 3847 0742 564B     		ldr	r3, .L748+28
 3848 0744 9942     		cmp	r1, r3
 3849 0746 2DD0     		beq	.L631
 3850 0748 7B68     		ldr	r3, [r7, #4]
 3851 074a 1B68     		ldr	r3, [r3]
 3852 074c 1946     		mov	r1, r3
ARM GAS  /tmp/ccWSeizr.s 			page 79


 3853 074e 4C4B     		ldr	r3, .L748
 3854 0750 9942     		cmp	r1, r3
 3855 0752 24D0     		beq	.L632
 3856 0754 7B68     		ldr	r3, [r7, #4]
 3857 0756 1B68     		ldr	r3, [r3]
 3858 0758 1946     		mov	r1, r3
 3859 075a 514B     		ldr	r3, .L748+32
 3860 075c 9942     		cmp	r1, r3
 3861 075e 1CD0     		beq	.L633
 3862 0760 7B68     		ldr	r3, [r7, #4]
 3863 0762 1B68     		ldr	r3, [r3]
 3864 0764 1946     		mov	r1, r3
 3865 0766 4F4B     		ldr	r3, .L748+36
 3866 0768 9942     		cmp	r1, r3
 3867 076a 14D0     		beq	.L634
 3868 076c 7B68     		ldr	r3, [r7, #4]
 3869 076e 1B68     		ldr	r3, [r3]
 3870 0770 1946     		mov	r1, r3
 3871 0772 4D4B     		ldr	r3, .L748+40
 3872 0774 9942     		cmp	r1, r3
 3873 0776 0BD0     		beq	.L635
 3874 0778 7B68     		ldr	r3, [r7, #4]
 3875 077a 1B68     		ldr	r3, [r3]
 3876 077c 1946     		mov	r1, r3
 3877 077e 4B4B     		ldr	r3, .L748+44
 3878 0780 9942     		cmp	r1, r3
 3879 0782 02D1     		bne	.L636
 3880 0784 4FF48043 		mov	r3, #16384
 3881 0788 1BE0     		b	.L647
 3882              	.L636:
 3883              		.loc 1 601 0 discriminator 2
 3884 078a 4FF48023 		mov	r3, #262144
 3885 078e 18E0     		b	.L647
 3886              	.L635:
 3887 0790 4FF48063 		mov	r3, #1024
 3888 0794 15E0     		b	.L647
 3889              	.L634:
 3890 0796 4023     		movs	r3, #64
 3891 0798 13E0     		b	.L647
 3892              	.L633:
 3893 079a 0423     		movs	r3, #4
 3894 079c 11E0     		b	.L647
 3895              	.L632:
 3896 079e 4FF08063 		mov	r3, #67108864
 3897 07a2 0EE0     		b	.L647
 3898              	.L631:
 3899 07a4 4FF48003 		mov	r3, #4194304
 3900 07a8 0BE0     		b	.L647
 3901              	.L630:
 3902 07aa 4FF48023 		mov	r3, #262144
 3903 07ae 08E0     		b	.L647
 3904              	.L629:
 3905 07b0 4FF48043 		mov	r3, #16384
 3906 07b4 05E0     		b	.L647
 3907              	.L628:
 3908 07b6 4FF48063 		mov	r3, #1024
 3909 07ba 02E0     		b	.L647
ARM GAS  /tmp/ccWSeizr.s 			page 80


 3910              	.L627:
 3911 07bc 4023     		movs	r3, #64
 3912 07be 00E0     		b	.L647
 3913              	.L626:
 3914 07c0 0423     		movs	r3, #4
 3915              	.L647:
 3916              		.loc 1 601 0 discriminator 3
 3917 07c2 5360     		str	r3, [r2, #4]
 3918              	.L625:
 602:Drivers/STM32F3xx_HAL_Driver/Src/stm32f3xx_hal_dma.c **** 
 603:Drivers/STM32F3xx_HAL_Driver/Src/stm32f3xx_hal_dma.c ****       /* Change DMA peripheral state */
 604:Drivers/STM32F3xx_HAL_Driver/Src/stm32f3xx_hal_dma.c ****       hdma->State = HAL_DMA_STATE_READY_HALF;
 3919              		.loc 1 604 0 is_stmt 1
 3920 07c4 7B68     		ldr	r3, [r7, #4]
 3921 07c6 1122     		movs	r2, #17
 3922 07c8 83F82120 		strb	r2, [r3, #33]
 605:Drivers/STM32F3xx_HAL_Driver/Src/stm32f3xx_hal_dma.c **** 
 606:Drivers/STM32F3xx_HAL_Driver/Src/stm32f3xx_hal_dma.c ****       if(hdma->XferHalfCpltCallback != NULL)
 3923              		.loc 1 606 0
 3924 07cc 7B68     		ldr	r3, [r7, #4]
 3925 07ce DB6A     		ldr	r3, [r3, #44]
 3926 07d0 002B     		cmp	r3, #0
 3927 07d2 03D0     		beq	.L600
 607:Drivers/STM32F3xx_HAL_Driver/Src/stm32f3xx_hal_dma.c ****       {
 608:Drivers/STM32F3xx_HAL_Driver/Src/stm32f3xx_hal_dma.c ****         /* Half transfer callback */
 609:Drivers/STM32F3xx_HAL_Driver/Src/stm32f3xx_hal_dma.c ****         hdma->XferHalfCpltCallback(hdma);
 3928              		.loc 1 609 0
 3929 07d4 7B68     		ldr	r3, [r7, #4]
 3930 07d6 DB6A     		ldr	r3, [r3, #44]
 3931 07d8 7868     		ldr	r0, [r7, #4]
 3932 07da 9847     		blx	r3
 3933              	.L600:
 610:Drivers/STM32F3xx_HAL_Driver/Src/stm32f3xx_hal_dma.c ****       }
 611:Drivers/STM32F3xx_HAL_Driver/Src/stm32f3xx_hal_dma.c ****     }
 612:Drivers/STM32F3xx_HAL_Driver/Src/stm32f3xx_hal_dma.c ****   }
 613:Drivers/STM32F3xx_HAL_Driver/Src/stm32f3xx_hal_dma.c ****   
 614:Drivers/STM32F3xx_HAL_Driver/Src/stm32f3xx_hal_dma.c ****   /* Transfer Complete Interrupt management ***********************************/
 615:Drivers/STM32F3xx_HAL_Driver/Src/stm32f3xx_hal_dma.c ****   if(__HAL_DMA_GET_FLAG(hdma, __HAL_DMA_GET_TC_FLAG_INDEX(hdma)) != RESET)
 3934              		.loc 1 615 0
 3935 07dc 7B68     		ldr	r3, [r7, #4]
 3936 07de 1B68     		ldr	r3, [r3]
 3937 07e0 1A46     		mov	r2, r3
 3938 07e2 274B     		ldr	r3, .L748
 3939 07e4 9A42     		cmp	r2, r3
 3940 07e6 40F28580 		bls	.L648
 3941              		.loc 1 615 0 is_stmt 0 discriminator 1
 3942 07ea 264B     		ldr	r3, .L748+4
 3943 07ec 1A68     		ldr	r2, [r3]
 3944 07ee 7B68     		ldr	r3, [r7, #4]
 3945 07f0 1B68     		ldr	r3, [r3]
 3946 07f2 1946     		mov	r1, r3
 3947 07f4 244B     		ldr	r3, .L748+8
 3948 07f6 9942     		cmp	r1, r3
 3949 07f8 74D0     		beq	.L649
 3950 07fa 7B68     		ldr	r3, [r7, #4]
 3951 07fc 1B68     		ldr	r3, [r3]
 3952 07fe 1946     		mov	r1, r3
ARM GAS  /tmp/ccWSeizr.s 			page 81


 3953 0800 224B     		ldr	r3, .L748+12
 3954 0802 9942     		cmp	r1, r3
 3955 0804 6CD0     		beq	.L650
 3956 0806 7B68     		ldr	r3, [r7, #4]
 3957 0808 1B68     		ldr	r3, [r3]
 3958 080a 1946     		mov	r1, r3
 3959 080c 204B     		ldr	r3, .L748+16
 3960 080e 9942     		cmp	r1, r3
 3961 0810 63D0     		beq	.L651
 3962 0812 7B68     		ldr	r3, [r7, #4]
 3963 0814 1B68     		ldr	r3, [r3]
 3964 0816 1946     		mov	r1, r3
 3965 0818 1E4B     		ldr	r3, .L748+20
 3966 081a 9942     		cmp	r1, r3
 3967 081c 5AD0     		beq	.L652
 3968 081e 7B68     		ldr	r3, [r7, #4]
 3969 0820 1B68     		ldr	r3, [r3]
 3970 0822 1946     		mov	r1, r3
 3971 0824 1C4B     		ldr	r3, .L748+24
 3972 0826 9942     		cmp	r1, r3
 3973 0828 51D0     		beq	.L653
 3974 082a 7B68     		ldr	r3, [r7, #4]
 3975 082c 1B68     		ldr	r3, [r3]
 3976 082e 1946     		mov	r1, r3
 3977 0830 1A4B     		ldr	r3, .L748+28
 3978 0832 9942     		cmp	r1, r3
 3979 0834 48D0     		beq	.L654
 3980 0836 7B68     		ldr	r3, [r7, #4]
 3981 0838 1B68     		ldr	r3, [r3]
 3982 083a 1946     		mov	r1, r3
 3983 083c 104B     		ldr	r3, .L748
 3984 083e 9942     		cmp	r1, r3
 3985 0840 3FD0     		beq	.L655
 3986 0842 7B68     		ldr	r3, [r7, #4]
 3987 0844 1B68     		ldr	r3, [r3]
 3988 0846 1946     		mov	r1, r3
 3989 0848 154B     		ldr	r3, .L748+32
 3990 084a 9942     		cmp	r1, r3
 3991 084c 37D0     		beq	.L656
 3992 084e 7B68     		ldr	r3, [r7, #4]
 3993 0850 1B68     		ldr	r3, [r3]
 3994 0852 1946     		mov	r1, r3
 3995 0854 134B     		ldr	r3, .L748+36
 3996 0856 9942     		cmp	r1, r3
 3997 0858 2FD0     		beq	.L657
 3998 085a 7B68     		ldr	r3, [r7, #4]
 3999 085c 1B68     		ldr	r3, [r3]
 4000 085e 1946     		mov	r1, r3
 4001 0860 114B     		ldr	r3, .L748+40
 4002 0862 9942     		cmp	r1, r3
 4003 0864 26D0     		beq	.L658
 4004 0866 7B68     		ldr	r3, [r7, #4]
 4005 0868 1B68     		ldr	r3, [r3]
 4006 086a 1946     		mov	r1, r3
 4007 086c 0F4B     		ldr	r3, .L748+44
 4008 086e 9942     		cmp	r1, r3
 4009 0870 02D1     		bne	.L659
ARM GAS  /tmp/ccWSeizr.s 			page 82


 4010 0872 4FF40053 		mov	r3, #8192
 4011 0876 36E0     		b	.L670
 4012              	.L659:
 4013              		.loc 1 615 0 discriminator 2
 4014 0878 4FF40033 		mov	r3, #131072
 4015 087c 33E0     		b	.L670
 4016              	.L749:
 4017 087e 00BF     		.align	2
 4018              	.L748:
 4019 0880 80000240 		.word	1073873024
 4020 0884 00040240 		.word	1073873920
 4021 0888 08000240 		.word	1073872904
 4022 088c 1C000240 		.word	1073872924
 4023 0890 30000240 		.word	1073872944
 4024 0894 44000240 		.word	1073872964
 4025 0898 58000240 		.word	1073872984
 4026 089c 6C000240 		.word	1073873004
 4027 08a0 08040240 		.word	1073873928
 4028 08a4 1C040240 		.word	1073873948
 4029 08a8 30040240 		.word	1073873968
 4030 08ac 44040240 		.word	1073873988
 4031 08b0 00000240 		.word	1073872896
 4032              	.L658:
 4033 08b4 4FF40073 		mov	r3, #512
 4034 08b8 15E0     		b	.L670
 4035              	.L657:
 4036 08ba 2023     		movs	r3, #32
 4037 08bc 13E0     		b	.L670
 4038              	.L656:
 4039 08be 0223     		movs	r3, #2
 4040 08c0 11E0     		b	.L670
 4041              	.L655:
 4042 08c2 4FF00073 		mov	r3, #33554432
 4043 08c6 0EE0     		b	.L670
 4044              	.L654:
 4045 08c8 4FF40013 		mov	r3, #2097152
 4046 08cc 0BE0     		b	.L670
 4047              	.L653:
 4048 08ce 4FF40033 		mov	r3, #131072
 4049 08d2 08E0     		b	.L670
 4050              	.L652:
 4051 08d4 4FF40053 		mov	r3, #8192
 4052 08d8 05E0     		b	.L670
 4053              	.L651:
 4054 08da 4FF40073 		mov	r3, #512
 4055 08de 02E0     		b	.L670
 4056              	.L650:
 4057 08e0 2023     		movs	r3, #32
 4058 08e2 00E0     		b	.L670
 4059              	.L649:
 4060 08e4 0223     		movs	r3, #2
 4061              	.L670:
 4062              		.loc 1 615 0 discriminator 95
 4063 08e6 1340     		ands	r3, r3, r2
 4064 08e8 002B     		cmp	r3, #0
 4065 08ea 0CBF     		ite	eq
 4066 08ec 0023     		moveq	r3, #0
ARM GAS  /tmp/ccWSeizr.s 			page 83


 4067 08ee 0123     		movne	r3, #1
 4068 08f0 DBB2     		uxtb	r3, r3
 4069 08f2 68E0     		b	.L671
 4070              	.L648:
 4071              		.loc 1 615 0 discriminator 2
 4072 08f4 764B     		ldr	r3, .L750
 4073 08f6 1A68     		ldr	r2, [r3]
 4074 08f8 7B68     		ldr	r3, [r7, #4]
 4075 08fa 1B68     		ldr	r3, [r3]
 4076 08fc 1946     		mov	r1, r3
 4077 08fe 754B     		ldr	r3, .L750+4
 4078 0900 9942     		cmp	r1, r3
 4079 0902 59D0     		beq	.L672
 4080              		.loc 1 615 0 discriminator 1
 4081 0904 7B68     		ldr	r3, [r7, #4]
 4082 0906 1B68     		ldr	r3, [r3]
 4083 0908 1946     		mov	r1, r3
 4084 090a 734B     		ldr	r3, .L750+8
 4085 090c 9942     		cmp	r1, r3
 4086 090e 51D0     		beq	.L673
 4087 0910 7B68     		ldr	r3, [r7, #4]
 4088 0912 1B68     		ldr	r3, [r3]
 4089 0914 1946     		mov	r1, r3
 4090 0916 714B     		ldr	r3, .L750+12
 4091 0918 9942     		cmp	r1, r3
 4092 091a 48D0     		beq	.L674
 4093 091c 7B68     		ldr	r3, [r7, #4]
 4094 091e 1B68     		ldr	r3, [r3]
 4095 0920 1946     		mov	r1, r3
 4096 0922 6F4B     		ldr	r3, .L750+16
 4097 0924 9942     		cmp	r1, r3
 4098 0926 3FD0     		beq	.L675
 4099 0928 7B68     		ldr	r3, [r7, #4]
 4100 092a 1B68     		ldr	r3, [r3]
 4101 092c 1946     		mov	r1, r3
 4102 092e 6D4B     		ldr	r3, .L750+20
 4103 0930 9942     		cmp	r1, r3
 4104 0932 36D0     		beq	.L676
 4105 0934 7B68     		ldr	r3, [r7, #4]
 4106 0936 1B68     		ldr	r3, [r3]
 4107 0938 1946     		mov	r1, r3
 4108 093a 6B4B     		ldr	r3, .L750+24
 4109 093c 9942     		cmp	r1, r3
 4110 093e 2DD0     		beq	.L677
 4111 0940 7B68     		ldr	r3, [r7, #4]
 4112 0942 1B68     		ldr	r3, [r3]
 4113 0944 1946     		mov	r1, r3
 4114 0946 694B     		ldr	r3, .L750+28
 4115 0948 9942     		cmp	r1, r3
 4116 094a 24D0     		beq	.L678
 4117 094c 7B68     		ldr	r3, [r7, #4]
 4118 094e 1B68     		ldr	r3, [r3]
 4119 0950 1946     		mov	r1, r3
 4120 0952 674B     		ldr	r3, .L750+32
 4121 0954 9942     		cmp	r1, r3
 4122 0956 1CD0     		beq	.L679
 4123 0958 7B68     		ldr	r3, [r7, #4]
ARM GAS  /tmp/ccWSeizr.s 			page 84


 4124 095a 1B68     		ldr	r3, [r3]
 4125 095c 1946     		mov	r1, r3
 4126 095e 654B     		ldr	r3, .L750+36
 4127 0960 9942     		cmp	r1, r3
 4128 0962 14D0     		beq	.L680
 4129 0964 7B68     		ldr	r3, [r7, #4]
 4130 0966 1B68     		ldr	r3, [r3]
 4131 0968 1946     		mov	r1, r3
 4132 096a 634B     		ldr	r3, .L750+40
 4133 096c 9942     		cmp	r1, r3
 4134 096e 0BD0     		beq	.L681
 4135 0970 7B68     		ldr	r3, [r7, #4]
 4136 0972 1B68     		ldr	r3, [r3]
 4137 0974 1946     		mov	r1, r3
 4138 0976 614B     		ldr	r3, .L750+44
 4139 0978 9942     		cmp	r1, r3
 4140 097a 02D1     		bne	.L682
 4141 097c 4FF40053 		mov	r3, #8192
 4142 0980 1BE0     		b	.L693
 4143              	.L682:
 4144              		.loc 1 615 0 discriminator 2
 4145 0982 4FF40033 		mov	r3, #131072
 4146 0986 18E0     		b	.L693
 4147              	.L681:
 4148 0988 4FF40073 		mov	r3, #512
 4149 098c 15E0     		b	.L693
 4150              	.L680:
 4151 098e 2023     		movs	r3, #32
 4152 0990 13E0     		b	.L693
 4153              	.L679:
 4154 0992 0223     		movs	r3, #2
 4155 0994 11E0     		b	.L693
 4156              	.L678:
 4157 0996 4FF00073 		mov	r3, #33554432
 4158 099a 0EE0     		b	.L693
 4159              	.L677:
 4160 099c 4FF40013 		mov	r3, #2097152
 4161 09a0 0BE0     		b	.L693
 4162              	.L676:
 4163 09a2 4FF40033 		mov	r3, #131072
 4164 09a6 08E0     		b	.L693
 4165              	.L675:
 4166 09a8 4FF40053 		mov	r3, #8192
 4167 09ac 05E0     		b	.L693
 4168              	.L674:
 4169 09ae 4FF40073 		mov	r3, #512
 4170 09b2 02E0     		b	.L693
 4171              	.L673:
 4172 09b4 2023     		movs	r3, #32
 4173 09b6 00E0     		b	.L693
 4174              	.L672:
 4175 09b8 0223     		movs	r3, #2
 4176              	.L693:
 4177              		.loc 1 615 0 discriminator 3
 4178 09ba 1340     		ands	r3, r3, r2
 4179 09bc 002B     		cmp	r3, #0
 4180 09be 0CBF     		ite	eq
ARM GAS  /tmp/ccWSeizr.s 			page 85


 4181 09c0 0023     		moveq	r3, #0
 4182 09c2 0123     		movne	r3, #1
 4183 09c4 DBB2     		uxtb	r3, r3
 4184              	.L671:
 4185 09c6 002B     		cmp	r3, #0
 4186 09c8 00F01381 		beq	.L460
 616:Drivers/STM32F3xx_HAL_Driver/Src/stm32f3xx_hal_dma.c ****   {
 617:Drivers/STM32F3xx_HAL_Driver/Src/stm32f3xx_hal_dma.c ****     if(__HAL_DMA_GET_IT_SOURCE(hdma, DMA_IT_TC) != RESET)
 4187              		.loc 1 617 0 is_stmt 1
 4188 09cc 7B68     		ldr	r3, [r7, #4]
 4189 09ce 1B68     		ldr	r3, [r3]
 4190 09d0 1B68     		ldr	r3, [r3]
 4191 09d2 03F00203 		and	r3, r3, #2
 4192 09d6 002B     		cmp	r3, #0
 4193 09d8 00F00B81 		beq	.L460
 618:Drivers/STM32F3xx_HAL_Driver/Src/stm32f3xx_hal_dma.c ****     {
 619:Drivers/STM32F3xx_HAL_Driver/Src/stm32f3xx_hal_dma.c ****       if((hdma->Instance->CCR & DMA_CCR_CIRC) == 0)
 4194              		.loc 1 619 0
 4195 09dc 7B68     		ldr	r3, [r7, #4]
 4196 09de 1B68     		ldr	r3, [r3]
 4197 09e0 1B68     		ldr	r3, [r3]
 4198 09e2 03F02003 		and	r3, r3, #32
 4199 09e6 002B     		cmp	r3, #0
 4200 09e8 07D1     		bne	.L695
 620:Drivers/STM32F3xx_HAL_Driver/Src/stm32f3xx_hal_dma.c ****       {
 621:Drivers/STM32F3xx_HAL_Driver/Src/stm32f3xx_hal_dma.c ****         /* Disable the transfer complete interrupt */
 622:Drivers/STM32F3xx_HAL_Driver/Src/stm32f3xx_hal_dma.c ****         __HAL_DMA_DISABLE_IT(hdma, DMA_IT_TC);
 4201              		.loc 1 622 0
 4202 09ea 7B68     		ldr	r3, [r7, #4]
 4203 09ec 1B68     		ldr	r3, [r3]
 4204 09ee 7A68     		ldr	r2, [r7, #4]
 4205 09f0 1268     		ldr	r2, [r2]
 4206 09f2 1268     		ldr	r2, [r2]
 4207 09f4 22F00202 		bic	r2, r2, #2
 4208 09f8 1A60     		str	r2, [r3]
 4209              	.L695:
 623:Drivers/STM32F3xx_HAL_Driver/Src/stm32f3xx_hal_dma.c ****       }
 624:Drivers/STM32F3xx_HAL_Driver/Src/stm32f3xx_hal_dma.c ****       /* Clear the transfer complete flag */
 625:Drivers/STM32F3xx_HAL_Driver/Src/stm32f3xx_hal_dma.c ****       __HAL_DMA_CLEAR_FLAG(hdma, __HAL_DMA_GET_TC_FLAG_INDEX(hdma));
 4210              		.loc 1 625 0
 4211 09fa 7B68     		ldr	r3, [r7, #4]
 4212 09fc 1B68     		ldr	r3, [r3]
 4213 09fe 1A46     		mov	r2, r3
 4214 0a00 3A4B     		ldr	r3, .L750+28
 4215 0a02 9A42     		cmp	r2, r3
 4216 0a04 7ED9     		bls	.L696
 4217              		.loc 1 625 0 is_stmt 0 discriminator 1
 4218 0a06 3E4A     		ldr	r2, .L750+48
 4219 0a08 7B68     		ldr	r3, [r7, #4]
 4220 0a0a 1B68     		ldr	r3, [r3]
 4221 0a0c 1946     		mov	r1, r3
 4222 0a0e 314B     		ldr	r3, .L750+4
 4223 0a10 9942     		cmp	r1, r3
 4224 0a12 59D0     		beq	.L697
 4225 0a14 7B68     		ldr	r3, [r7, #4]
 4226 0a16 1B68     		ldr	r3, [r3]
 4227 0a18 1946     		mov	r1, r3
ARM GAS  /tmp/ccWSeizr.s 			page 86


 4228 0a1a 2F4B     		ldr	r3, .L750+8
 4229 0a1c 9942     		cmp	r1, r3
 4230 0a1e 51D0     		beq	.L698
 4231 0a20 7B68     		ldr	r3, [r7, #4]
 4232 0a22 1B68     		ldr	r3, [r3]
 4233 0a24 1946     		mov	r1, r3
 4234 0a26 2D4B     		ldr	r3, .L750+12
 4235 0a28 9942     		cmp	r1, r3
 4236 0a2a 48D0     		beq	.L699
 4237 0a2c 7B68     		ldr	r3, [r7, #4]
 4238 0a2e 1B68     		ldr	r3, [r3]
 4239 0a30 1946     		mov	r1, r3
 4240 0a32 2B4B     		ldr	r3, .L750+16
 4241 0a34 9942     		cmp	r1, r3
 4242 0a36 3FD0     		beq	.L700
 4243 0a38 7B68     		ldr	r3, [r7, #4]
 4244 0a3a 1B68     		ldr	r3, [r3]
 4245 0a3c 1946     		mov	r1, r3
 4246 0a3e 294B     		ldr	r3, .L750+20
 4247 0a40 9942     		cmp	r1, r3
 4248 0a42 36D0     		beq	.L701
 4249 0a44 7B68     		ldr	r3, [r7, #4]
 4250 0a46 1B68     		ldr	r3, [r3]
 4251 0a48 1946     		mov	r1, r3
 4252 0a4a 274B     		ldr	r3, .L750+24
 4253 0a4c 9942     		cmp	r1, r3
 4254 0a4e 2DD0     		beq	.L702
 4255 0a50 7B68     		ldr	r3, [r7, #4]
 4256 0a52 1B68     		ldr	r3, [r3]
 4257 0a54 1946     		mov	r1, r3
 4258 0a56 254B     		ldr	r3, .L750+28
 4259 0a58 9942     		cmp	r1, r3
 4260 0a5a 24D0     		beq	.L703
 4261 0a5c 7B68     		ldr	r3, [r7, #4]
 4262 0a5e 1B68     		ldr	r3, [r3]
 4263 0a60 1946     		mov	r1, r3
 4264 0a62 234B     		ldr	r3, .L750+32
 4265 0a64 9942     		cmp	r1, r3
 4266 0a66 1CD0     		beq	.L704
 4267 0a68 7B68     		ldr	r3, [r7, #4]
 4268 0a6a 1B68     		ldr	r3, [r3]
 4269 0a6c 1946     		mov	r1, r3
 4270 0a6e 214B     		ldr	r3, .L750+36
 4271 0a70 9942     		cmp	r1, r3
 4272 0a72 14D0     		beq	.L705
 4273 0a74 7B68     		ldr	r3, [r7, #4]
 4274 0a76 1B68     		ldr	r3, [r3]
 4275 0a78 1946     		mov	r1, r3
 4276 0a7a 1F4B     		ldr	r3, .L750+40
 4277 0a7c 9942     		cmp	r1, r3
 4278 0a7e 0BD0     		beq	.L706
 4279 0a80 7B68     		ldr	r3, [r7, #4]
 4280 0a82 1B68     		ldr	r3, [r3]
 4281 0a84 1946     		mov	r1, r3
 4282 0a86 1D4B     		ldr	r3, .L750+44
 4283 0a88 9942     		cmp	r1, r3
 4284 0a8a 02D1     		bne	.L707
ARM GAS  /tmp/ccWSeizr.s 			page 87


 4285 0a8c 4FF40053 		mov	r3, #8192
 4286 0a90 1BE0     		b	.L718
 4287              	.L707:
 4288              		.loc 1 625 0 discriminator 2
 4289 0a92 4FF40033 		mov	r3, #131072
 4290 0a96 18E0     		b	.L718
 4291              	.L706:
 4292 0a98 4FF40073 		mov	r3, #512
 4293 0a9c 15E0     		b	.L718
 4294              	.L705:
 4295 0a9e 2023     		movs	r3, #32
 4296 0aa0 13E0     		b	.L718
 4297              	.L704:
 4298 0aa2 0223     		movs	r3, #2
 4299 0aa4 11E0     		b	.L718
 4300              	.L703:
 4301 0aa6 4FF00073 		mov	r3, #33554432
 4302 0aaa 0EE0     		b	.L718
 4303              	.L702:
 4304 0aac 4FF40013 		mov	r3, #2097152
 4305 0ab0 0BE0     		b	.L718
 4306              	.L701:
 4307 0ab2 4FF40033 		mov	r3, #131072
 4308 0ab6 08E0     		b	.L718
 4309              	.L700:
 4310 0ab8 4FF40053 		mov	r3, #8192
 4311 0abc 05E0     		b	.L718
 4312              	.L699:
 4313 0abe 4FF40073 		mov	r3, #512
 4314 0ac2 02E0     		b	.L718
 4315              	.L698:
 4316 0ac4 2023     		movs	r3, #32
 4317 0ac6 00E0     		b	.L718
 4318              	.L697:
 4319 0ac8 0223     		movs	r3, #2
 4320              	.L718:
 4321              		.loc 1 625 0 discriminator 116
 4322 0aca 5360     		str	r3, [r2, #4]
 4323 0acc 7DE0     		b	.L719
 4324              	.L751:
 4325 0ace 00BF     		.align	2
 4326              	.L750:
 4327 0ad0 00000240 		.word	1073872896
 4328 0ad4 08000240 		.word	1073872904
 4329 0ad8 1C000240 		.word	1073872924
 4330 0adc 30000240 		.word	1073872944
 4331 0ae0 44000240 		.word	1073872964
 4332 0ae4 58000240 		.word	1073872984
 4333 0ae8 6C000240 		.word	1073873004
 4334 0aec 80000240 		.word	1073873024
 4335 0af0 08040240 		.word	1073873928
 4336 0af4 1C040240 		.word	1073873948
 4337 0af8 30040240 		.word	1073873968
 4338 0afc 44040240 		.word	1073873988
 4339 0b00 00040240 		.word	1073873920
 4340              	.L696:
 4341              		.loc 1 625 0 discriminator 2
ARM GAS  /tmp/ccWSeizr.s 			page 88


 4342 0b04 3C4A     		ldr	r2, .L752
 4343 0b06 7B68     		ldr	r3, [r7, #4]
 4344 0b08 1B68     		ldr	r3, [r3]
 4345 0b0a 1946     		mov	r1, r3
 4346 0b0c 3B4B     		ldr	r3, .L752+4
 4347 0b0e 9942     		cmp	r1, r3
 4348 0b10 59D0     		beq	.L720
 4349              		.loc 1 625 0 discriminator 1
 4350 0b12 7B68     		ldr	r3, [r7, #4]
 4351 0b14 1B68     		ldr	r3, [r3]
 4352 0b16 1946     		mov	r1, r3
 4353 0b18 394B     		ldr	r3, .L752+8
 4354 0b1a 9942     		cmp	r1, r3
 4355 0b1c 51D0     		beq	.L721
 4356 0b1e 7B68     		ldr	r3, [r7, #4]
 4357 0b20 1B68     		ldr	r3, [r3]
 4358 0b22 1946     		mov	r1, r3
 4359 0b24 374B     		ldr	r3, .L752+12
 4360 0b26 9942     		cmp	r1, r3
 4361 0b28 48D0     		beq	.L722
 4362 0b2a 7B68     		ldr	r3, [r7, #4]
 4363 0b2c 1B68     		ldr	r3, [r3]
 4364 0b2e 1946     		mov	r1, r3
 4365 0b30 354B     		ldr	r3, .L752+16
 4366 0b32 9942     		cmp	r1, r3
 4367 0b34 3FD0     		beq	.L723
 4368 0b36 7B68     		ldr	r3, [r7, #4]
 4369 0b38 1B68     		ldr	r3, [r3]
 4370 0b3a 1946     		mov	r1, r3
 4371 0b3c 334B     		ldr	r3, .L752+20
 4372 0b3e 9942     		cmp	r1, r3
 4373 0b40 36D0     		beq	.L724
 4374 0b42 7B68     		ldr	r3, [r7, #4]
 4375 0b44 1B68     		ldr	r3, [r3]
 4376 0b46 1946     		mov	r1, r3
 4377 0b48 314B     		ldr	r3, .L752+24
 4378 0b4a 9942     		cmp	r1, r3
 4379 0b4c 2DD0     		beq	.L725
 4380 0b4e 7B68     		ldr	r3, [r7, #4]
 4381 0b50 1B68     		ldr	r3, [r3]
 4382 0b52 1946     		mov	r1, r3
 4383 0b54 2F4B     		ldr	r3, .L752+28
 4384 0b56 9942     		cmp	r1, r3
 4385 0b58 24D0     		beq	.L726
 4386 0b5a 7B68     		ldr	r3, [r7, #4]
 4387 0b5c 1B68     		ldr	r3, [r3]
 4388 0b5e 1946     		mov	r1, r3
 4389 0b60 2D4B     		ldr	r3, .L752+32
 4390 0b62 9942     		cmp	r1, r3
 4391 0b64 1CD0     		beq	.L727
 4392 0b66 7B68     		ldr	r3, [r7, #4]
 4393 0b68 1B68     		ldr	r3, [r3]
 4394 0b6a 1946     		mov	r1, r3
 4395 0b6c 2B4B     		ldr	r3, .L752+36
 4396 0b6e 9942     		cmp	r1, r3
 4397 0b70 14D0     		beq	.L728
 4398 0b72 7B68     		ldr	r3, [r7, #4]
ARM GAS  /tmp/ccWSeizr.s 			page 89


 4399 0b74 1B68     		ldr	r3, [r3]
 4400 0b76 1946     		mov	r1, r3
 4401 0b78 294B     		ldr	r3, .L752+40
 4402 0b7a 9942     		cmp	r1, r3
 4403 0b7c 0BD0     		beq	.L729
 4404 0b7e 7B68     		ldr	r3, [r7, #4]
 4405 0b80 1B68     		ldr	r3, [r3]
 4406 0b82 1946     		mov	r1, r3
 4407 0b84 274B     		ldr	r3, .L752+44
 4408 0b86 9942     		cmp	r1, r3
 4409 0b88 02D1     		bne	.L730
 4410 0b8a 4FF40053 		mov	r3, #8192
 4411 0b8e 1BE0     		b	.L741
 4412              	.L730:
 4413              		.loc 1 625 0 discriminator 2
 4414 0b90 4FF40033 		mov	r3, #131072
 4415 0b94 18E0     		b	.L741
 4416              	.L729:
 4417 0b96 4FF40073 		mov	r3, #512
 4418 0b9a 15E0     		b	.L741
 4419              	.L728:
 4420 0b9c 2023     		movs	r3, #32
 4421 0b9e 13E0     		b	.L741
 4422              	.L727:
 4423 0ba0 0223     		movs	r3, #2
 4424 0ba2 11E0     		b	.L741
 4425              	.L726:
 4426 0ba4 4FF00073 		mov	r3, #33554432
 4427 0ba8 0EE0     		b	.L741
 4428              	.L725:
 4429 0baa 4FF40013 		mov	r3, #2097152
 4430 0bae 0BE0     		b	.L741
 4431              	.L724:
 4432 0bb0 4FF40033 		mov	r3, #131072
 4433 0bb4 08E0     		b	.L741
 4434              	.L723:
 4435 0bb6 4FF40053 		mov	r3, #8192
 4436 0bba 05E0     		b	.L741
 4437              	.L722:
 4438 0bbc 4FF40073 		mov	r3, #512
 4439 0bc0 02E0     		b	.L741
 4440              	.L721:
 4441 0bc2 2023     		movs	r3, #32
 4442 0bc4 00E0     		b	.L741
 4443              	.L720:
 4444 0bc6 0223     		movs	r3, #2
 4445              	.L741:
 4446              		.loc 1 625 0 discriminator 3
 4447 0bc8 5360     		str	r3, [r2, #4]
 4448              	.L719:
 626:Drivers/STM32F3xx_HAL_Driver/Src/stm32f3xx_hal_dma.c ****     
 627:Drivers/STM32F3xx_HAL_Driver/Src/stm32f3xx_hal_dma.c ****       /* Update error code */
 628:Drivers/STM32F3xx_HAL_Driver/Src/stm32f3xx_hal_dma.c ****       SET_BIT(hdma->ErrorCode, HAL_DMA_ERROR_NONE);
 4449              		.loc 1 628 0 is_stmt 1
 4450 0bca 7B68     		ldr	r3, [r7, #4]
 4451 0bcc 9A6B     		ldr	r2, [r3, #56]
 4452 0bce 7B68     		ldr	r3, [r7, #4]
ARM GAS  /tmp/ccWSeizr.s 			page 90


 4453 0bd0 9A63     		str	r2, [r3, #56]
 629:Drivers/STM32F3xx_HAL_Driver/Src/stm32f3xx_hal_dma.c **** 
 630:Drivers/STM32F3xx_HAL_Driver/Src/stm32f3xx_hal_dma.c ****       /* Change the DMA state */
 631:Drivers/STM32F3xx_HAL_Driver/Src/stm32f3xx_hal_dma.c ****       hdma->State = HAL_DMA_STATE_READY;    
 4454              		.loc 1 631 0
 4455 0bd2 7B68     		ldr	r3, [r7, #4]
 4456 0bd4 0122     		movs	r2, #1
 4457 0bd6 83F82120 		strb	r2, [r3, #33]
 632:Drivers/STM32F3xx_HAL_Driver/Src/stm32f3xx_hal_dma.c ****     
 633:Drivers/STM32F3xx_HAL_Driver/Src/stm32f3xx_hal_dma.c ****       /* Process Unlocked */
 634:Drivers/STM32F3xx_HAL_Driver/Src/stm32f3xx_hal_dma.c ****       __HAL_UNLOCK(hdma);
 4458              		.loc 1 634 0
 4459 0bda 7B68     		ldr	r3, [r7, #4]
 4460 0bdc 0022     		movs	r2, #0
 4461 0bde 83F82020 		strb	r2, [r3, #32]
 635:Drivers/STM32F3xx_HAL_Driver/Src/stm32f3xx_hal_dma.c ****     
 636:Drivers/STM32F3xx_HAL_Driver/Src/stm32f3xx_hal_dma.c ****       if(hdma->XferCpltCallback != NULL)
 4462              		.loc 1 636 0
 4463 0be2 7B68     		ldr	r3, [r7, #4]
 4464 0be4 9B6A     		ldr	r3, [r3, #40]
 4465 0be6 002B     		cmp	r3, #0
 4466 0be8 03D0     		beq	.L460
 637:Drivers/STM32F3xx_HAL_Driver/Src/stm32f3xx_hal_dma.c ****       {       
 638:Drivers/STM32F3xx_HAL_Driver/Src/stm32f3xx_hal_dma.c ****         /* Transfer complete callback */
 639:Drivers/STM32F3xx_HAL_Driver/Src/stm32f3xx_hal_dma.c ****         hdma->XferCpltCallback(hdma);
 4467              		.loc 1 639 0
 4468 0bea 7B68     		ldr	r3, [r7, #4]
 4469 0bec 9B6A     		ldr	r3, [r3, #40]
 4470 0bee 7868     		ldr	r0, [r7, #4]
 4471 0bf0 9847     		blx	r3
 4472              	.L460:
 640:Drivers/STM32F3xx_HAL_Driver/Src/stm32f3xx_hal_dma.c ****       }
 641:Drivers/STM32F3xx_HAL_Driver/Src/stm32f3xx_hal_dma.c ****     }
 642:Drivers/STM32F3xx_HAL_Driver/Src/stm32f3xx_hal_dma.c ****   }
 643:Drivers/STM32F3xx_HAL_Driver/Src/stm32f3xx_hal_dma.c **** }  
 4473              		.loc 1 643 0
 4474 0bf2 0837     		adds	r7, r7, #8
 4475 0bf4 BD46     		mov	sp, r7
 4476              		@ sp needed
 4477 0bf6 80BD     		pop	{r7, pc}
 4478              	.L753:
 4479              		.align	2
 4480              	.L752:
 4481 0bf8 00000240 		.word	1073872896
 4482 0bfc 08000240 		.word	1073872904
 4483 0c00 1C000240 		.word	1073872924
 4484 0c04 30000240 		.word	1073872944
 4485 0c08 44000240 		.word	1073872964
 4486 0c0c 58000240 		.word	1073872984
 4487 0c10 6C000240 		.word	1073873004
 4488 0c14 80000240 		.word	1073873024
 4489 0c18 08040240 		.word	1073873928
 4490 0c1c 1C040240 		.word	1073873948
 4491 0c20 30040240 		.word	1073873968
 4492 0c24 44040240 		.word	1073873988
 4493              		.cfi_endproc
 4494              	.LFE132:
ARM GAS  /tmp/ccWSeizr.s 			page 91


 4496              		.section	.text.HAL_DMA_GetState,"ax",%progbits
 4497              		.align	2
 4498              		.global	HAL_DMA_GetState
 4499              		.thumb
 4500              		.thumb_func
 4502              	HAL_DMA_GetState:
 4503              	.LFB133:
 644:Drivers/STM32F3xx_HAL_Driver/Src/stm32f3xx_hal_dma.c **** 
 645:Drivers/STM32F3xx_HAL_Driver/Src/stm32f3xx_hal_dma.c **** /**
 646:Drivers/STM32F3xx_HAL_Driver/Src/stm32f3xx_hal_dma.c ****   * @}
 647:Drivers/STM32F3xx_HAL_Driver/Src/stm32f3xx_hal_dma.c ****   */
 648:Drivers/STM32F3xx_HAL_Driver/Src/stm32f3xx_hal_dma.c **** 
 649:Drivers/STM32F3xx_HAL_Driver/Src/stm32f3xx_hal_dma.c **** /** @defgroup DMA_Exported_Functions_Group3 Peripheral State functions
 650:Drivers/STM32F3xx_HAL_Driver/Src/stm32f3xx_hal_dma.c ****  *  @brief    Peripheral State functions 
 651:Drivers/STM32F3xx_HAL_Driver/Src/stm32f3xx_hal_dma.c ****  *
 652:Drivers/STM32F3xx_HAL_Driver/Src/stm32f3xx_hal_dma.c **** @verbatim   
 653:Drivers/STM32F3xx_HAL_Driver/Src/stm32f3xx_hal_dma.c ****  ===============================================================================
 654:Drivers/STM32F3xx_HAL_Driver/Src/stm32f3xx_hal_dma.c ****                     ##### State and Errors functions #####
 655:Drivers/STM32F3xx_HAL_Driver/Src/stm32f3xx_hal_dma.c ****  ===============================================================================  
 656:Drivers/STM32F3xx_HAL_Driver/Src/stm32f3xx_hal_dma.c ****     [..]
 657:Drivers/STM32F3xx_HAL_Driver/Src/stm32f3xx_hal_dma.c ****     This subsection provides functions allowing to
 658:Drivers/STM32F3xx_HAL_Driver/Src/stm32f3xx_hal_dma.c ****       (+) Check the DMA state
 659:Drivers/STM32F3xx_HAL_Driver/Src/stm32f3xx_hal_dma.c ****       (+) Get error code
 660:Drivers/STM32F3xx_HAL_Driver/Src/stm32f3xx_hal_dma.c **** 
 661:Drivers/STM32F3xx_HAL_Driver/Src/stm32f3xx_hal_dma.c **** @endverbatim
 662:Drivers/STM32F3xx_HAL_Driver/Src/stm32f3xx_hal_dma.c ****   * @{
 663:Drivers/STM32F3xx_HAL_Driver/Src/stm32f3xx_hal_dma.c ****   */  
 664:Drivers/STM32F3xx_HAL_Driver/Src/stm32f3xx_hal_dma.c **** 
 665:Drivers/STM32F3xx_HAL_Driver/Src/stm32f3xx_hal_dma.c **** /**
 666:Drivers/STM32F3xx_HAL_Driver/Src/stm32f3xx_hal_dma.c ****   * @brief  Returns the DMA state.
 667:Drivers/STM32F3xx_HAL_Driver/Src/stm32f3xx_hal_dma.c ****   * @param  hdma: pointer to a DMA_HandleTypeDef structure that contains
 668:Drivers/STM32F3xx_HAL_Driver/Src/stm32f3xx_hal_dma.c ****   *               the configuration information for the specified DMA Channel.  
 669:Drivers/STM32F3xx_HAL_Driver/Src/stm32f3xx_hal_dma.c ****   * @retval HAL state
 670:Drivers/STM32F3xx_HAL_Driver/Src/stm32f3xx_hal_dma.c ****   */
 671:Drivers/STM32F3xx_HAL_Driver/Src/stm32f3xx_hal_dma.c **** HAL_DMA_StateTypeDef HAL_DMA_GetState(DMA_HandleTypeDef *hdma)
 672:Drivers/STM32F3xx_HAL_Driver/Src/stm32f3xx_hal_dma.c **** {
 4504              		.loc 1 672 0
 4505              		.cfi_startproc
 4506              		@ args = 0, pretend = 0, frame = 8
 4507              		@ frame_needed = 1, uses_anonymous_args = 0
 4508              		@ link register save eliminated.
 4509 0000 80B4     		push	{r7}
 4510              	.LCFI24:
 4511              		.cfi_def_cfa_offset 4
 4512              		.cfi_offset 7, -4
 4513 0002 83B0     		sub	sp, sp, #12
 4514              	.LCFI25:
 4515              		.cfi_def_cfa_offset 16
 4516 0004 00AF     		add	r7, sp, #0
 4517              	.LCFI26:
 4518              		.cfi_def_cfa_register 7
 4519 0006 7860     		str	r0, [r7, #4]
 673:Drivers/STM32F3xx_HAL_Driver/Src/stm32f3xx_hal_dma.c ****   return hdma->State;
 4520              		.loc 1 673 0
 4521 0008 7B68     		ldr	r3, [r7, #4]
 4522 000a 93F82130 		ldrb	r3, [r3, #33]	@ zero_extendqisi2
 674:Drivers/STM32F3xx_HAL_Driver/Src/stm32f3xx_hal_dma.c **** }
ARM GAS  /tmp/ccWSeizr.s 			page 92


 4523              		.loc 1 674 0
 4524 000e 1846     		mov	r0, r3
 4525 0010 0C37     		adds	r7, r7, #12
 4526 0012 BD46     		mov	sp, r7
 4527              		@ sp needed
 4528 0014 5DF8047B 		ldr	r7, [sp], #4
 4529 0018 7047     		bx	lr
 4530              		.cfi_endproc
 4531              	.LFE133:
 4533 001a 00BF     		.section	.text.HAL_DMA_GetError,"ax",%progbits
 4534              		.align	2
 4535              		.global	HAL_DMA_GetError
 4536              		.thumb
 4537              		.thumb_func
 4539              	HAL_DMA_GetError:
 4540              	.LFB134:
 675:Drivers/STM32F3xx_HAL_Driver/Src/stm32f3xx_hal_dma.c **** 
 676:Drivers/STM32F3xx_HAL_Driver/Src/stm32f3xx_hal_dma.c **** /**
 677:Drivers/STM32F3xx_HAL_Driver/Src/stm32f3xx_hal_dma.c ****   * @brief  Return the DMA error code
 678:Drivers/STM32F3xx_HAL_Driver/Src/stm32f3xx_hal_dma.c ****   * @param  hdma: pointer to a DMA_HandleTypeDef structure that contains
 679:Drivers/STM32F3xx_HAL_Driver/Src/stm32f3xx_hal_dma.c ****   *               the configuration information for the specified DMA Channel.
 680:Drivers/STM32F3xx_HAL_Driver/Src/stm32f3xx_hal_dma.c ****   * @retval DMA Error Code
 681:Drivers/STM32F3xx_HAL_Driver/Src/stm32f3xx_hal_dma.c ****   */
 682:Drivers/STM32F3xx_HAL_Driver/Src/stm32f3xx_hal_dma.c **** uint32_t HAL_DMA_GetError(DMA_HandleTypeDef *hdma)
 683:Drivers/STM32F3xx_HAL_Driver/Src/stm32f3xx_hal_dma.c **** {
 4541              		.loc 1 683 0
 4542              		.cfi_startproc
 4543              		@ args = 0, pretend = 0, frame = 8
 4544              		@ frame_needed = 1, uses_anonymous_args = 0
 4545              		@ link register save eliminated.
 4546 0000 80B4     		push	{r7}
 4547              	.LCFI27:
 4548              		.cfi_def_cfa_offset 4
 4549              		.cfi_offset 7, -4
 4550 0002 83B0     		sub	sp, sp, #12
 4551              	.LCFI28:
 4552              		.cfi_def_cfa_offset 16
 4553 0004 00AF     		add	r7, sp, #0
 4554              	.LCFI29:
 4555              		.cfi_def_cfa_register 7
 4556 0006 7860     		str	r0, [r7, #4]
 684:Drivers/STM32F3xx_HAL_Driver/Src/stm32f3xx_hal_dma.c ****   return hdma->ErrorCode;
 4557              		.loc 1 684 0
 4558 0008 7B68     		ldr	r3, [r7, #4]
 4559 000a 9B6B     		ldr	r3, [r3, #56]
 685:Drivers/STM32F3xx_HAL_Driver/Src/stm32f3xx_hal_dma.c **** }
 4560              		.loc 1 685 0
 4561 000c 1846     		mov	r0, r3
 4562 000e 0C37     		adds	r7, r7, #12
 4563 0010 BD46     		mov	sp, r7
 4564              		@ sp needed
 4565 0012 5DF8047B 		ldr	r7, [sp], #4
 4566 0016 7047     		bx	lr
 4567              		.cfi_endproc
 4568              	.LFE134:
 4570              		.section	.text.DMA_SetConfig,"ax",%progbits
 4571              		.align	2
ARM GAS  /tmp/ccWSeizr.s 			page 93


 4572              		.thumb
 4573              		.thumb_func
 4575              	DMA_SetConfig:
 4576              	.LFB135:
 686:Drivers/STM32F3xx_HAL_Driver/Src/stm32f3xx_hal_dma.c **** 
 687:Drivers/STM32F3xx_HAL_Driver/Src/stm32f3xx_hal_dma.c **** /**
 688:Drivers/STM32F3xx_HAL_Driver/Src/stm32f3xx_hal_dma.c ****   * @}
 689:Drivers/STM32F3xx_HAL_Driver/Src/stm32f3xx_hal_dma.c ****   */
 690:Drivers/STM32F3xx_HAL_Driver/Src/stm32f3xx_hal_dma.c **** 
 691:Drivers/STM32F3xx_HAL_Driver/Src/stm32f3xx_hal_dma.c **** /**
 692:Drivers/STM32F3xx_HAL_Driver/Src/stm32f3xx_hal_dma.c ****   * @}
 693:Drivers/STM32F3xx_HAL_Driver/Src/stm32f3xx_hal_dma.c ****   */
 694:Drivers/STM32F3xx_HAL_Driver/Src/stm32f3xx_hal_dma.c **** 
 695:Drivers/STM32F3xx_HAL_Driver/Src/stm32f3xx_hal_dma.c **** /** @addtogroup DMA_Private_Functions DMA Private Functions
 696:Drivers/STM32F3xx_HAL_Driver/Src/stm32f3xx_hal_dma.c ****   * @{
 697:Drivers/STM32F3xx_HAL_Driver/Src/stm32f3xx_hal_dma.c ****   */
 698:Drivers/STM32F3xx_HAL_Driver/Src/stm32f3xx_hal_dma.c **** 
 699:Drivers/STM32F3xx_HAL_Driver/Src/stm32f3xx_hal_dma.c **** /**
 700:Drivers/STM32F3xx_HAL_Driver/Src/stm32f3xx_hal_dma.c ****   * @brief  Sets the DMA Transfer parameter.
 701:Drivers/STM32F3xx_HAL_Driver/Src/stm32f3xx_hal_dma.c ****   * @param  hdma:       pointer to a DMA_HandleTypeDef structure that contains
 702:Drivers/STM32F3xx_HAL_Driver/Src/stm32f3xx_hal_dma.c ****   *                     the configuration information for the specified DMA Channel.  
 703:Drivers/STM32F3xx_HAL_Driver/Src/stm32f3xx_hal_dma.c ****   * @param  SrcAddress: The source memory Buffer address
 704:Drivers/STM32F3xx_HAL_Driver/Src/stm32f3xx_hal_dma.c ****   * @param  DstAddress: The destination memory Buffer address
 705:Drivers/STM32F3xx_HAL_Driver/Src/stm32f3xx_hal_dma.c ****   * @param  DataLength: The length of data to be transferred from source to destination
 706:Drivers/STM32F3xx_HAL_Driver/Src/stm32f3xx_hal_dma.c ****   * @retval HAL status
 707:Drivers/STM32F3xx_HAL_Driver/Src/stm32f3xx_hal_dma.c ****   */
 708:Drivers/STM32F3xx_HAL_Driver/Src/stm32f3xx_hal_dma.c **** static void DMA_SetConfig(DMA_HandleTypeDef *hdma, uint32_t SrcAddress, uint32_t DstAddress, uint32
 709:Drivers/STM32F3xx_HAL_Driver/Src/stm32f3xx_hal_dma.c **** {  
 4577              		.loc 1 709 0
 4578              		.cfi_startproc
 4579              		@ args = 0, pretend = 0, frame = 16
 4580              		@ frame_needed = 1, uses_anonymous_args = 0
 4581              		@ link register save eliminated.
 4582 0000 80B4     		push	{r7}
 4583              	.LCFI30:
 4584              		.cfi_def_cfa_offset 4
 4585              		.cfi_offset 7, -4
 4586 0002 85B0     		sub	sp, sp, #20
 4587              	.LCFI31:
 4588              		.cfi_def_cfa_offset 24
 4589 0004 00AF     		add	r7, sp, #0
 4590              	.LCFI32:
 4591              		.cfi_def_cfa_register 7
 4592 0006 F860     		str	r0, [r7, #12]
 4593 0008 B960     		str	r1, [r7, #8]
 4594 000a 7A60     		str	r2, [r7, #4]
 4595 000c 3B60     		str	r3, [r7]
 710:Drivers/STM32F3xx_HAL_Driver/Src/stm32f3xx_hal_dma.c ****   /* Configure DMA Channel data length */
 711:Drivers/STM32F3xx_HAL_Driver/Src/stm32f3xx_hal_dma.c ****   hdma->Instance->CNDTR = DataLength;
 4596              		.loc 1 711 0
 4597 000e FB68     		ldr	r3, [r7, #12]
 4598 0010 1B68     		ldr	r3, [r3]
 4599 0012 3A68     		ldr	r2, [r7]
 4600 0014 5A60     		str	r2, [r3, #4]
 712:Drivers/STM32F3xx_HAL_Driver/Src/stm32f3xx_hal_dma.c ****   
 713:Drivers/STM32F3xx_HAL_Driver/Src/stm32f3xx_hal_dma.c ****   /* Peripheral to Memory */
 714:Drivers/STM32F3xx_HAL_Driver/Src/stm32f3xx_hal_dma.c ****   if((hdma->Init.Direction) == DMA_MEMORY_TO_PERIPH)
ARM GAS  /tmp/ccWSeizr.s 			page 94


 4601              		.loc 1 714 0
 4602 0016 FB68     		ldr	r3, [r7, #12]
 4603 0018 5B68     		ldr	r3, [r3, #4]
 4604 001a 102B     		cmp	r3, #16
 4605 001c 08D1     		bne	.L759
 715:Drivers/STM32F3xx_HAL_Driver/Src/stm32f3xx_hal_dma.c ****   {   
 716:Drivers/STM32F3xx_HAL_Driver/Src/stm32f3xx_hal_dma.c ****     /* Configure DMA Channel destination address */
 717:Drivers/STM32F3xx_HAL_Driver/Src/stm32f3xx_hal_dma.c ****     hdma->Instance->CPAR = DstAddress;
 4606              		.loc 1 717 0
 4607 001e FB68     		ldr	r3, [r7, #12]
 4608 0020 1B68     		ldr	r3, [r3]
 4609 0022 7A68     		ldr	r2, [r7, #4]
 4610 0024 9A60     		str	r2, [r3, #8]
 718:Drivers/STM32F3xx_HAL_Driver/Src/stm32f3xx_hal_dma.c ****     
 719:Drivers/STM32F3xx_HAL_Driver/Src/stm32f3xx_hal_dma.c ****     /* Configure DMA Channel source address */
 720:Drivers/STM32F3xx_HAL_Driver/Src/stm32f3xx_hal_dma.c ****     hdma->Instance->CMAR = SrcAddress;
 4611              		.loc 1 720 0
 4612 0026 FB68     		ldr	r3, [r7, #12]
 4613 0028 1B68     		ldr	r3, [r3]
 4614 002a BA68     		ldr	r2, [r7, #8]
 4615 002c DA60     		str	r2, [r3, #12]
 4616 002e 07E0     		b	.L758
 4617              	.L759:
 721:Drivers/STM32F3xx_HAL_Driver/Src/stm32f3xx_hal_dma.c ****   }
 722:Drivers/STM32F3xx_HAL_Driver/Src/stm32f3xx_hal_dma.c ****   /* Memory to Peripheral */
 723:Drivers/STM32F3xx_HAL_Driver/Src/stm32f3xx_hal_dma.c ****   else
 724:Drivers/STM32F3xx_HAL_Driver/Src/stm32f3xx_hal_dma.c ****   {
 725:Drivers/STM32F3xx_HAL_Driver/Src/stm32f3xx_hal_dma.c ****     /* Configure DMA Channel source address */
 726:Drivers/STM32F3xx_HAL_Driver/Src/stm32f3xx_hal_dma.c ****     hdma->Instance->CPAR = SrcAddress;
 4618              		.loc 1 726 0
 4619 0030 FB68     		ldr	r3, [r7, #12]
 4620 0032 1B68     		ldr	r3, [r3]
 4621 0034 BA68     		ldr	r2, [r7, #8]
 4622 0036 9A60     		str	r2, [r3, #8]
 727:Drivers/STM32F3xx_HAL_Driver/Src/stm32f3xx_hal_dma.c ****     
 728:Drivers/STM32F3xx_HAL_Driver/Src/stm32f3xx_hal_dma.c ****     /* Configure DMA Channel destination address */
 729:Drivers/STM32F3xx_HAL_Driver/Src/stm32f3xx_hal_dma.c ****     hdma->Instance->CMAR = DstAddress;
 4623              		.loc 1 729 0
 4624 0038 FB68     		ldr	r3, [r7, #12]
 4625 003a 1B68     		ldr	r3, [r3]
 4626 003c 7A68     		ldr	r2, [r7, #4]
 4627 003e DA60     		str	r2, [r3, #12]
 4628              	.L758:
 730:Drivers/STM32F3xx_HAL_Driver/Src/stm32f3xx_hal_dma.c ****   }
 731:Drivers/STM32F3xx_HAL_Driver/Src/stm32f3xx_hal_dma.c **** }
 4629              		.loc 1 731 0
 4630 0040 1437     		adds	r7, r7, #20
 4631 0042 BD46     		mov	sp, r7
 4632              		@ sp needed
 4633 0044 5DF8047B 		ldr	r7, [sp], #4
 4634 0048 7047     		bx	lr
 4635              		.cfi_endproc
 4636              	.LFE135:
 4638              		.text
 4639              	.Letext0:
 4640              		.file 2 "/usr/include/newlib/machine/_default_types.h"
 4641              		.file 3 "/usr/include/newlib/stdint.h"
ARM GAS  /tmp/ccWSeizr.s 			page 95


 4642              		.file 4 "Drivers/CMSIS/Device/ST/STM32F3xx/Include/stm32f303xc.h"
 4643              		.file 5 "Drivers/CMSIS/Device/ST/STM32F3xx/Include/stm32f3xx.h"
 4644              		.file 6 "Drivers/STM32F3xx_HAL_Driver/Inc/stm32f3xx_hal_def.h"
 4645              		.file 7 "Drivers/STM32F3xx_HAL_Driver/Inc/stm32f3xx_hal_dma.h"
 4646              		.file 8 "Drivers/CMSIS/Include/core_cm4.h"
ARM GAS  /tmp/ccWSeizr.s 			page 96

