ARM GAS  /tmp/ccRzvoJq.s 			page 1


   1              		.syntax unified
   2              		.cpu cortex-m4
   3              		.eabi_attribute 27, 3
   4              		.eabi_attribute 28, 1
   5              		.fpu fpv4-sp-d16
   6              		.eabi_attribute 20, 1
   7              		.eabi_attribute 21, 1
   8              		.eabi_attribute 23, 3
   9              		.eabi_attribute 24, 1
  10              		.eabi_attribute 25, 1
  11              		.eabi_attribute 26, 1
  12              		.eabi_attribute 30, 6
  13              		.eabi_attribute 34, 1
  14              		.eabi_attribute 18, 4
  15              		.thumb
  16              		.file	"stm32f3xx_hal_tim_ex.c"
  17              		.text
  18              	.Ltext0:
  19              		.cfi_sections	.debug_frame
  20              		.section	.text.HAL_TIMEx_HallSensor_Init,"ax",%progbits
  21              		.align	2
  22              		.global	HAL_TIMEx_HallSensor_Init
  23              		.thumb
  24              		.thumb_func
  26              	HAL_TIMEx_HallSensor_Init:
  27              	.LFB125:
  28              		.file 1 "Drivers/STM32F3xx_HAL_Driver/Src/stm32f3xx_hal_tim_ex.c"
   1:Drivers/STM32F3xx_HAL_Driver/Src/stm32f3xx_hal_tim_ex.c **** /**
   2:Drivers/STM32F3xx_HAL_Driver/Src/stm32f3xx_hal_tim_ex.c ****   ******************************************************************************
   3:Drivers/STM32F3xx_HAL_Driver/Src/stm32f3xx_hal_tim_ex.c ****   * @file    stm32f3xx_hal_tim_ex.c
   4:Drivers/STM32F3xx_HAL_Driver/Src/stm32f3xx_hal_tim_ex.c ****   * @author  MCD Application Team
   5:Drivers/STM32F3xx_HAL_Driver/Src/stm32f3xx_hal_tim_ex.c ****   * @version V1.2.1
   6:Drivers/STM32F3xx_HAL_Driver/Src/stm32f3xx_hal_tim_ex.c ****   * @date    29-April-2015
   7:Drivers/STM32F3xx_HAL_Driver/Src/stm32f3xx_hal_tim_ex.c ****   * @brief   TIM HAL module driver.
   8:Drivers/STM32F3xx_HAL_Driver/Src/stm32f3xx_hal_tim_ex.c ****   *          This file provides firmware functions to manage the following 
   9:Drivers/STM32F3xx_HAL_Driver/Src/stm32f3xx_hal_tim_ex.c ****   *          functionalities of the Timer Extended peripheral:
  10:Drivers/STM32F3xx_HAL_Driver/Src/stm32f3xx_hal_tim_ex.c ****   *           + Time Hall Sensor Interface Initialization
  11:Drivers/STM32F3xx_HAL_Driver/Src/stm32f3xx_hal_tim_ex.c ****   *           + Time Hall Sensor Interface Start
  12:Drivers/STM32F3xx_HAL_Driver/Src/stm32f3xx_hal_tim_ex.c ****   *           + Time Complementary signal bread and dead time configuration  
  13:Drivers/STM32F3xx_HAL_Driver/Src/stm32f3xx_hal_tim_ex.c ****   *           + Time Master and Slave synchronization configuration
  14:Drivers/STM32F3xx_HAL_Driver/Src/stm32f3xx_hal_tim_ex.c ****   *           + Time Output Compare/PWM Channel Configuration (for channels 5 and 6)
  15:Drivers/STM32F3xx_HAL_Driver/Src/stm32f3xx_hal_tim_ex.c ****   *           + Time OCRef clear configuration
  16:Drivers/STM32F3xx_HAL_Driver/Src/stm32f3xx_hal_tim_ex.c ****   *           + Timer remapping capabilities configuration
  17:Drivers/STM32F3xx_HAL_Driver/Src/stm32f3xx_hal_tim_ex.c ****   @verbatim
  18:Drivers/STM32F3xx_HAL_Driver/Src/stm32f3xx_hal_tim_ex.c ****   ==============================================================================
  19:Drivers/STM32F3xx_HAL_Driver/Src/stm32f3xx_hal_tim_ex.c ****                       ##### TIMER Extended features #####
  20:Drivers/STM32F3xx_HAL_Driver/Src/stm32f3xx_hal_tim_ex.c ****   ==============================================================================
  21:Drivers/STM32F3xx_HAL_Driver/Src/stm32f3xx_hal_tim_ex.c ****   [..] 
  22:Drivers/STM32F3xx_HAL_Driver/Src/stm32f3xx_hal_tim_ex.c ****     The Timer Extended features include: 
  23:Drivers/STM32F3xx_HAL_Driver/Src/stm32f3xx_hal_tim_ex.c ****     (#) Complementary outputs with programmable dead-time for :
  24:Drivers/STM32F3xx_HAL_Driver/Src/stm32f3xx_hal_tim_ex.c ****         (++) Output Compare
  25:Drivers/STM32F3xx_HAL_Driver/Src/stm32f3xx_hal_tim_ex.c ****         (++) PWM generation (Edge and Center-aligned Mode)
  26:Drivers/STM32F3xx_HAL_Driver/Src/stm32f3xx_hal_tim_ex.c ****         (++) One-pulse mode output
  27:Drivers/STM32F3xx_HAL_Driver/Src/stm32f3xx_hal_tim_ex.c ****     (#) Synchronization circuit to control the timer with external signals and to 
  28:Drivers/STM32F3xx_HAL_Driver/Src/stm32f3xx_hal_tim_ex.c ****         interconnect several timers together.
  29:Drivers/STM32F3xx_HAL_Driver/Src/stm32f3xx_hal_tim_ex.c ****     (#) Break input to put the timer output signals in reset state or in a known state.
  30:Drivers/STM32F3xx_HAL_Driver/Src/stm32f3xx_hal_tim_ex.c ****     (#) Supports incremental (quadrature) encoder and hall-sensor circuitry for 
ARM GAS  /tmp/ccRzvoJq.s 			page 2


  31:Drivers/STM32F3xx_HAL_Driver/Src/stm32f3xx_hal_tim_ex.c ****         positioning purposes                
  32:Drivers/STM32F3xx_HAL_Driver/Src/stm32f3xx_hal_tim_ex.c **** 
  33:Drivers/STM32F3xx_HAL_Driver/Src/stm32f3xx_hal_tim_ex.c ****             ##### How to use this driver #####
  34:Drivers/STM32F3xx_HAL_Driver/Src/stm32f3xx_hal_tim_ex.c ****   ==============================================================================
  35:Drivers/STM32F3xx_HAL_Driver/Src/stm32f3xx_hal_tim_ex.c ****     [..]
  36:Drivers/STM32F3xx_HAL_Driver/Src/stm32f3xx_hal_tim_ex.c ****      (#) Initialize the TIM low level resources by implementing the following functions 
  37:Drivers/STM32F3xx_HAL_Driver/Src/stm32f3xx_hal_tim_ex.c ****          depending from feature used :
  38:Drivers/STM32F3xx_HAL_Driver/Src/stm32f3xx_hal_tim_ex.c ****            (++) Complementary Output Compare : HAL_TIM_OC_MspInit()
  39:Drivers/STM32F3xx_HAL_Driver/Src/stm32f3xx_hal_tim_ex.c ****            (++) Complementary PWM generation : HAL_TIM_PWM_MspInit()
  40:Drivers/STM32F3xx_HAL_Driver/Src/stm32f3xx_hal_tim_ex.c ****            (++) Complementary One-pulse mode output : HAL_TIM_OnePulse_MspInit()
  41:Drivers/STM32F3xx_HAL_Driver/Src/stm32f3xx_hal_tim_ex.c ****            (++) Hall Sensor output : HAL_TIM_HallSensor_MspInit()
  42:Drivers/STM32F3xx_HAL_Driver/Src/stm32f3xx_hal_tim_ex.c ****            
  43:Drivers/STM32F3xx_HAL_Driver/Src/stm32f3xx_hal_tim_ex.c ****      (#) Initialize the TIM low level resources :
  44:Drivers/STM32F3xx_HAL_Driver/Src/stm32f3xx_hal_tim_ex.c ****         (##) Enable the TIM interface clock using __HAL_RCC_TIMx_CLK_ENABLE  (); 
  45:Drivers/STM32F3xx_HAL_Driver/Src/stm32f3xx_hal_tim_ex.c ****         (##) TIM pins configuration
  46:Drivers/STM32F3xx_HAL_Driver/Src/stm32f3xx_hal_tim_ex.c ****             (+++) Enable the clock for the TIM GPIOs using the following function:
  47:Drivers/STM32F3xx_HAL_Driver/Src/stm32f3xx_hal_tim_ex.c ****               __HAL_RCC_GPIOx_CLK_ENABLE();   
  48:Drivers/STM32F3xx_HAL_Driver/Src/stm32f3xx_hal_tim_ex.c ****             (+++) Configure these TIM pins in Alternate function mode using HAL_GPIO_Init();  
  49:Drivers/STM32F3xx_HAL_Driver/Src/stm32f3xx_hal_tim_ex.c **** 
  50:Drivers/STM32F3xx_HAL_Driver/Src/stm32f3xx_hal_tim_ex.c ****      (#) The external Clock can be configured, if needed (the default clock is the 
  51:Drivers/STM32F3xx_HAL_Driver/Src/stm32f3xx_hal_tim_ex.c ****          internal clock from the APBx), using the following function:
  52:Drivers/STM32F3xx_HAL_Driver/Src/stm32f3xx_hal_tim_ex.c ****          HAL_TIM_ConfigClockSource, the clock configuration should be done before 
  53:Drivers/STM32F3xx_HAL_Driver/Src/stm32f3xx_hal_tim_ex.c ****          any start function.
  54:Drivers/STM32F3xx_HAL_Driver/Src/stm32f3xx_hal_tim_ex.c ****   
  55:Drivers/STM32F3xx_HAL_Driver/Src/stm32f3xx_hal_tim_ex.c ****      (#) Configure the TIM in the desired functioning mode using one of the 
  56:Drivers/STM32F3xx_HAL_Driver/Src/stm32f3xx_hal_tim_ex.c ****          initialization function of this driver:
  57:Drivers/STM32F3xx_HAL_Driver/Src/stm32f3xx_hal_tim_ex.c ****           (++) HAL_TIMEx_HallSensor_Init and HAL_TIMEx_ConfigCommutationEvent: to use the 
  58:Drivers/STM32F3xx_HAL_Driver/Src/stm32f3xx_hal_tim_ex.c ****               Timer Hall Sensor Interface and the commutation event with the corresponding 
  59:Drivers/STM32F3xx_HAL_Driver/Src/stm32f3xx_hal_tim_ex.c ****               Interrupt and DMA request if needed (Note that One Timer is used to interface 
  60:Drivers/STM32F3xx_HAL_Driver/Src/stm32f3xx_hal_tim_ex.c ****              with the Hall sensor Interface and another Timer should be used to use 
  61:Drivers/STM32F3xx_HAL_Driver/Src/stm32f3xx_hal_tim_ex.c ****              the commutation event).
  62:Drivers/STM32F3xx_HAL_Driver/Src/stm32f3xx_hal_tim_ex.c **** 
  63:Drivers/STM32F3xx_HAL_Driver/Src/stm32f3xx_hal_tim_ex.c ****      (#) Activate the TIM peripheral using one of the start functions: 
  64:Drivers/STM32F3xx_HAL_Driver/Src/stm32f3xx_hal_tim_ex.c ****            (++) Complementary Output Compare : HAL_TIMEx_OCN_Start(), HAL_TIMEx_OCN_Start_DMA(), HA
  65:Drivers/STM32F3xx_HAL_Driver/Src/stm32f3xx_hal_tim_ex.c ****            (++) Complementary PWM generation : HAL_TIMEx_PWMN_Start(), HAL_TIMEx_PWMN_Start_DMA(), 
  66:Drivers/STM32F3xx_HAL_Driver/Src/stm32f3xx_hal_tim_ex.c ****            (++) Complementary One-pulse mode output : HAL_TIMEx_OnePulseN_Start(), HAL_TIMEx_OnePul
  67:Drivers/STM32F3xx_HAL_Driver/Src/stm32f3xx_hal_tim_ex.c ****            (++) Hall Sensor output : HAL_TIMEx_HallSensor_Start(), HAL_TIMEx_HallSensor_Start_DMA()
  68:Drivers/STM32F3xx_HAL_Driver/Src/stm32f3xx_hal_tim_ex.c **** 
  69:Drivers/STM32F3xx_HAL_Driver/Src/stm32f3xx_hal_tim_ex.c ****   
  70:Drivers/STM32F3xx_HAL_Driver/Src/stm32f3xx_hal_tim_ex.c ****   @endverbatim
  71:Drivers/STM32F3xx_HAL_Driver/Src/stm32f3xx_hal_tim_ex.c ****   ******************************************************************************
  72:Drivers/STM32F3xx_HAL_Driver/Src/stm32f3xx_hal_tim_ex.c ****   * @attention
  73:Drivers/STM32F3xx_HAL_Driver/Src/stm32f3xx_hal_tim_ex.c ****   *
  74:Drivers/STM32F3xx_HAL_Driver/Src/stm32f3xx_hal_tim_ex.c ****   * <h2><center>&copy; COPYRIGHT(c) 2016 STMicroelectronics</center></h2>
  75:Drivers/STM32F3xx_HAL_Driver/Src/stm32f3xx_hal_tim_ex.c ****   *
  76:Drivers/STM32F3xx_HAL_Driver/Src/stm32f3xx_hal_tim_ex.c ****   * Redistribution and use in source and binary forms, with or without modification,
  77:Drivers/STM32F3xx_HAL_Driver/Src/stm32f3xx_hal_tim_ex.c ****   * are permitted provided that the following conditions are met:
  78:Drivers/STM32F3xx_HAL_Driver/Src/stm32f3xx_hal_tim_ex.c ****   *   1. Redistributions of source code must retain the above copyright notice,
  79:Drivers/STM32F3xx_HAL_Driver/Src/stm32f3xx_hal_tim_ex.c ****   *      this list of conditions and the following disclaimer.
  80:Drivers/STM32F3xx_HAL_Driver/Src/stm32f3xx_hal_tim_ex.c ****   *   2. Redistributions in binary form must reproduce the above copyright notice,
  81:Drivers/STM32F3xx_HAL_Driver/Src/stm32f3xx_hal_tim_ex.c ****   *      this list of conditions and the following disclaimer in the documentation
  82:Drivers/STM32F3xx_HAL_Driver/Src/stm32f3xx_hal_tim_ex.c ****   *      and/or other materials provided with the distribution.
  83:Drivers/STM32F3xx_HAL_Driver/Src/stm32f3xx_hal_tim_ex.c ****   *   3. Neither the name of STMicroelectronics nor the names of its contributors
  84:Drivers/STM32F3xx_HAL_Driver/Src/stm32f3xx_hal_tim_ex.c ****   *      may be used to endorse or promote products derived from this software
  85:Drivers/STM32F3xx_HAL_Driver/Src/stm32f3xx_hal_tim_ex.c ****   *      without specific prior written permission.
  86:Drivers/STM32F3xx_HAL_Driver/Src/stm32f3xx_hal_tim_ex.c ****   *
  87:Drivers/STM32F3xx_HAL_Driver/Src/stm32f3xx_hal_tim_ex.c ****   * THIS SOFTWARE IS PROVIDED BY THE COPYRIGHT HOLDERS AND CONTRIBUTORS "AS IS"
ARM GAS  /tmp/ccRzvoJq.s 			page 3


  88:Drivers/STM32F3xx_HAL_Driver/Src/stm32f3xx_hal_tim_ex.c ****   * AND ANY EXPRESS OR IMPLIED WARRANTIES, INCLUDING, BUT NOT LIMITED TO, THE
  89:Drivers/STM32F3xx_HAL_Driver/Src/stm32f3xx_hal_tim_ex.c ****   * IMPLIED WARRANTIES OF MERCHANTABILITY AND FITNESS FOR A PARTICULAR PURPOSE ARE
  90:Drivers/STM32F3xx_HAL_Driver/Src/stm32f3xx_hal_tim_ex.c ****   * DISCLAIMED. IN NO EVENT SHALL THE COPYRIGHT HOLDER OR CONTRIBUTORS BE LIABLE
  91:Drivers/STM32F3xx_HAL_Driver/Src/stm32f3xx_hal_tim_ex.c ****   * FOR ANY DIRECT, INDIRECT, INCIDENTAL, SPECIAL, EXEMPLARY, OR CONSEQUENTIAL
  92:Drivers/STM32F3xx_HAL_Driver/Src/stm32f3xx_hal_tim_ex.c ****   * DAMAGES (INCLUDING, BUT NOT LIMITED TO, PROCUREMENT OF SUBSTITUTE GOODS OR
  93:Drivers/STM32F3xx_HAL_Driver/Src/stm32f3xx_hal_tim_ex.c ****   * SERVICES; LOSS OF USE, DATA, OR PROFITS; OR BUSINESS INTERRUPTION) HOWEVER
  94:Drivers/STM32F3xx_HAL_Driver/Src/stm32f3xx_hal_tim_ex.c ****   * CAUSED AND ON ANY THEORY OF LIABILITY, WHETHER IN CONTRACT, STRICT LIABILITY,
  95:Drivers/STM32F3xx_HAL_Driver/Src/stm32f3xx_hal_tim_ex.c ****   * OR TORT (INCLUDING NEGLIGENCE OR OTHERWISE) ARISING IN ANY WAY OUT OF THE USE
  96:Drivers/STM32F3xx_HAL_Driver/Src/stm32f3xx_hal_tim_ex.c ****   * OF THIS SOFTWARE, EVEN IF ADVISED OF THE POSSIBILITY OF SUCH DAMAGE.
  97:Drivers/STM32F3xx_HAL_Driver/Src/stm32f3xx_hal_tim_ex.c ****   *
  98:Drivers/STM32F3xx_HAL_Driver/Src/stm32f3xx_hal_tim_ex.c ****   ******************************************************************************
  99:Drivers/STM32F3xx_HAL_Driver/Src/stm32f3xx_hal_tim_ex.c **** */ 
 100:Drivers/STM32F3xx_HAL_Driver/Src/stm32f3xx_hal_tim_ex.c **** 
 101:Drivers/STM32F3xx_HAL_Driver/Src/stm32f3xx_hal_tim_ex.c **** /* Includes ------------------------------------------------------------------*/
 102:Drivers/STM32F3xx_HAL_Driver/Src/stm32f3xx_hal_tim_ex.c **** #include "stm32f3xx_hal.h"
 103:Drivers/STM32F3xx_HAL_Driver/Src/stm32f3xx_hal_tim_ex.c **** 
 104:Drivers/STM32F3xx_HAL_Driver/Src/stm32f3xx_hal_tim_ex.c **** /** @addtogroup STM32F3xx_HAL_Driver
 105:Drivers/STM32F3xx_HAL_Driver/Src/stm32f3xx_hal_tim_ex.c ****   * @{
 106:Drivers/STM32F3xx_HAL_Driver/Src/stm32f3xx_hal_tim_ex.c ****   */
 107:Drivers/STM32F3xx_HAL_Driver/Src/stm32f3xx_hal_tim_ex.c **** 
 108:Drivers/STM32F3xx_HAL_Driver/Src/stm32f3xx_hal_tim_ex.c **** /** @defgroup TIMEx TIMEx
 109:Drivers/STM32F3xx_HAL_Driver/Src/stm32f3xx_hal_tim_ex.c ****   * @brief TIM Extended HAL module driver
 110:Drivers/STM32F3xx_HAL_Driver/Src/stm32f3xx_hal_tim_ex.c ****   * @{
 111:Drivers/STM32F3xx_HAL_Driver/Src/stm32f3xx_hal_tim_ex.c ****   */
 112:Drivers/STM32F3xx_HAL_Driver/Src/stm32f3xx_hal_tim_ex.c **** 
 113:Drivers/STM32F3xx_HAL_Driver/Src/stm32f3xx_hal_tim_ex.c **** #ifdef HAL_TIM_MODULE_ENABLED
 114:Drivers/STM32F3xx_HAL_Driver/Src/stm32f3xx_hal_tim_ex.c **** 
 115:Drivers/STM32F3xx_HAL_Driver/Src/stm32f3xx_hal_tim_ex.c **** /* Private typedef -----------------------------------------------------------*/
 116:Drivers/STM32F3xx_HAL_Driver/Src/stm32f3xx_hal_tim_ex.c **** /* Private define ------------------------------------------------------------*/
 117:Drivers/STM32F3xx_HAL_Driver/Src/stm32f3xx_hal_tim_ex.c **** #if defined(STM32F302xE) || defined(STM32F303xE) || defined(STM32F398xx) || \
 118:Drivers/STM32F3xx_HAL_Driver/Src/stm32f3xx_hal_tim_ex.c ****     defined(STM32F302xC) || defined(STM32F303xC) || defined(STM32F358xx) || \
 119:Drivers/STM32F3xx_HAL_Driver/Src/stm32f3xx_hal_tim_ex.c ****     defined(STM32F303x8) || defined(STM32F334x8) || defined(STM32F328xx) || \
 120:Drivers/STM32F3xx_HAL_Driver/Src/stm32f3xx_hal_tim_ex.c ****     defined(STM32F301x8) || defined(STM32F302x8) || defined(STM32F318xx)
 121:Drivers/STM32F3xx_HAL_Driver/Src/stm32f3xx_hal_tim_ex.c ****       
 122:Drivers/STM32F3xx_HAL_Driver/Src/stm32f3xx_hal_tim_ex.c **** #define BDTR_BKF_SHIFT (16)
 123:Drivers/STM32F3xx_HAL_Driver/Src/stm32f3xx_hal_tim_ex.c **** #define BDTR_BK2F_SHIFT (20)
 124:Drivers/STM32F3xx_HAL_Driver/Src/stm32f3xx_hal_tim_ex.c **** #endif /* STM32F302xE || STM32F303xE || STM32F398xx || */
 125:Drivers/STM32F3xx_HAL_Driver/Src/stm32f3xx_hal_tim_ex.c ****        /* STM32F302xC || STM32F303xC || STM32F358xx || */
 126:Drivers/STM32F3xx_HAL_Driver/Src/stm32f3xx_hal_tim_ex.c ****        /* STM32F303x8 || STM32F334x8 || STM32F328xx || */
 127:Drivers/STM32F3xx_HAL_Driver/Src/stm32f3xx_hal_tim_ex.c ****        /* STM32F301x8 || STM32F302x8 || STM32F318xx    */
 128:Drivers/STM32F3xx_HAL_Driver/Src/stm32f3xx_hal_tim_ex.c ****       
 129:Drivers/STM32F3xx_HAL_Driver/Src/stm32f3xx_hal_tim_ex.c **** /* Private macro -------------------------------------------------------------*/
 130:Drivers/STM32F3xx_HAL_Driver/Src/stm32f3xx_hal_tim_ex.c **** /* Private variables ---------------------------------------------------------*/
 131:Drivers/STM32F3xx_HAL_Driver/Src/stm32f3xx_hal_tim_ex.c **** /* Private function prototypes -----------------------------------------------*/
 132:Drivers/STM32F3xx_HAL_Driver/Src/stm32f3xx_hal_tim_ex.c **** 
 133:Drivers/STM32F3xx_HAL_Driver/Src/stm32f3xx_hal_tim_ex.c **** /** @defgroup TIMEx_Private_Functions TIMEx Private Functions
 134:Drivers/STM32F3xx_HAL_Driver/Src/stm32f3xx_hal_tim_ex.c ****   * @{
 135:Drivers/STM32F3xx_HAL_Driver/Src/stm32f3xx_hal_tim_ex.c ****   */
 136:Drivers/STM32F3xx_HAL_Driver/Src/stm32f3xx_hal_tim_ex.c **** static void TIM_CCxNChannelCmd(TIM_TypeDef* TIMx, uint32_t Channel, uint32_t ChannelNState); 
 137:Drivers/STM32F3xx_HAL_Driver/Src/stm32f3xx_hal_tim_ex.c ****    
 138:Drivers/STM32F3xx_HAL_Driver/Src/stm32f3xx_hal_tim_ex.c **** #if defined(STM32F302xE) || defined(STM32F303xE) || defined(STM32F398xx) || \
 139:Drivers/STM32F3xx_HAL_Driver/Src/stm32f3xx_hal_tim_ex.c ****     defined(STM32F302xC) || defined(STM32F303xC) || defined(STM32F358xx) || \
 140:Drivers/STM32F3xx_HAL_Driver/Src/stm32f3xx_hal_tim_ex.c ****     defined(STM32F303x8) || defined(STM32F334x8) || defined(STM32F328xx) || \
 141:Drivers/STM32F3xx_HAL_Driver/Src/stm32f3xx_hal_tim_ex.c ****     defined(STM32F301x8) || defined(STM32F302x8) || defined(STM32F318xx)
 142:Drivers/STM32F3xx_HAL_Driver/Src/stm32f3xx_hal_tim_ex.c **** static void TIM_OC5_SetConfig(TIM_TypeDef *TIMx,
 143:Drivers/STM32F3xx_HAL_Driver/Src/stm32f3xx_hal_tim_ex.c ****                               TIM_OC_InitTypeDef *OC_Config);
 144:Drivers/STM32F3xx_HAL_Driver/Src/stm32f3xx_hal_tim_ex.c **** 
ARM GAS  /tmp/ccRzvoJq.s 			page 4


 145:Drivers/STM32F3xx_HAL_Driver/Src/stm32f3xx_hal_tim_ex.c **** static void TIM_OC6_SetConfig(TIM_TypeDef *TIMx, 
 146:Drivers/STM32F3xx_HAL_Driver/Src/stm32f3xx_hal_tim_ex.c ****                               TIM_OC_InitTypeDef *OC_Config);
 147:Drivers/STM32F3xx_HAL_Driver/Src/stm32f3xx_hal_tim_ex.c **** #endif /* STM32F302xE || STM32F303xE || STM32F398xx || */
 148:Drivers/STM32F3xx_HAL_Driver/Src/stm32f3xx_hal_tim_ex.c ****        /* STM32F302xC || STM32F303xC || STM32F358xx || */
 149:Drivers/STM32F3xx_HAL_Driver/Src/stm32f3xx_hal_tim_ex.c ****        /* STM32F303x8 || STM32F334x8 || STM32F328xx || */
 150:Drivers/STM32F3xx_HAL_Driver/Src/stm32f3xx_hal_tim_ex.c ****        /* STM32F301x8 || STM32F302x8 || STM32F318xx    */
 151:Drivers/STM32F3xx_HAL_Driver/Src/stm32f3xx_hal_tim_ex.c **** 
 152:Drivers/STM32F3xx_HAL_Driver/Src/stm32f3xx_hal_tim_ex.c **** /**
 153:Drivers/STM32F3xx_HAL_Driver/Src/stm32f3xx_hal_tim_ex.c ****   * @}
 154:Drivers/STM32F3xx_HAL_Driver/Src/stm32f3xx_hal_tim_ex.c ****   */
 155:Drivers/STM32F3xx_HAL_Driver/Src/stm32f3xx_hal_tim_ex.c **** 
 156:Drivers/STM32F3xx_HAL_Driver/Src/stm32f3xx_hal_tim_ex.c **** /* Exported functions ---------------------------------------------------------*/
 157:Drivers/STM32F3xx_HAL_Driver/Src/stm32f3xx_hal_tim_ex.c **** 
 158:Drivers/STM32F3xx_HAL_Driver/Src/stm32f3xx_hal_tim_ex.c **** /** @defgroup TIMEx_Exported_Functions TIMEx Exported Functions
 159:Drivers/STM32F3xx_HAL_Driver/Src/stm32f3xx_hal_tim_ex.c ****   * @{
 160:Drivers/STM32F3xx_HAL_Driver/Src/stm32f3xx_hal_tim_ex.c ****   */
 161:Drivers/STM32F3xx_HAL_Driver/Src/stm32f3xx_hal_tim_ex.c **** 
 162:Drivers/STM32F3xx_HAL_Driver/Src/stm32f3xx_hal_tim_ex.c **** /** @defgroup TIMEx_Exported_Functions_Group1 Timer Hall Sensor functions 
 163:Drivers/STM32F3xx_HAL_Driver/Src/stm32f3xx_hal_tim_ex.c ****   * @brief    Timer Hall Sensor functions
 164:Drivers/STM32F3xx_HAL_Driver/Src/stm32f3xx_hal_tim_ex.c ****   *
 165:Drivers/STM32F3xx_HAL_Driver/Src/stm32f3xx_hal_tim_ex.c **** @verbatim    
 166:Drivers/STM32F3xx_HAL_Driver/Src/stm32f3xx_hal_tim_ex.c ****   ==============================================================================
 167:Drivers/STM32F3xx_HAL_Driver/Src/stm32f3xx_hal_tim_ex.c ****                       ##### Timer Hall Sensor functions #####
 168:Drivers/STM32F3xx_HAL_Driver/Src/stm32f3xx_hal_tim_ex.c ****   ==============================================================================
 169:Drivers/STM32F3xx_HAL_Driver/Src/stm32f3xx_hal_tim_ex.c ****   [..]  
 170:Drivers/STM32F3xx_HAL_Driver/Src/stm32f3xx_hal_tim_ex.c ****     This section provides functions allowing to:
 171:Drivers/STM32F3xx_HAL_Driver/Src/stm32f3xx_hal_tim_ex.c ****     (+) Initialize and configure TIM HAL Sensor. 
 172:Drivers/STM32F3xx_HAL_Driver/Src/stm32f3xx_hal_tim_ex.c ****     (+) De-initialize TIM HAL Sensor.
 173:Drivers/STM32F3xx_HAL_Driver/Src/stm32f3xx_hal_tim_ex.c ****     (+) Start the Hall Sensor Interface.
 174:Drivers/STM32F3xx_HAL_Driver/Src/stm32f3xx_hal_tim_ex.c ****     (+) Stop the Hall Sensor Interface.
 175:Drivers/STM32F3xx_HAL_Driver/Src/stm32f3xx_hal_tim_ex.c ****     (+) Start the Hall Sensor Interface and enable interrupts.
 176:Drivers/STM32F3xx_HAL_Driver/Src/stm32f3xx_hal_tim_ex.c ****     (+) Stop the Hall Sensor Interface and disable interrupts.
 177:Drivers/STM32F3xx_HAL_Driver/Src/stm32f3xx_hal_tim_ex.c ****     (+) Start the Hall Sensor Interface and enable DMA transfers.
 178:Drivers/STM32F3xx_HAL_Driver/Src/stm32f3xx_hal_tim_ex.c ****     (+) Stop the Hall Sensor Interface and disable DMA transfers.
 179:Drivers/STM32F3xx_HAL_Driver/Src/stm32f3xx_hal_tim_ex.c ****  
 180:Drivers/STM32F3xx_HAL_Driver/Src/stm32f3xx_hal_tim_ex.c **** @endverbatim
 181:Drivers/STM32F3xx_HAL_Driver/Src/stm32f3xx_hal_tim_ex.c ****   * @{
 182:Drivers/STM32F3xx_HAL_Driver/Src/stm32f3xx_hal_tim_ex.c ****   */
 183:Drivers/STM32F3xx_HAL_Driver/Src/stm32f3xx_hal_tim_ex.c **** /**
 184:Drivers/STM32F3xx_HAL_Driver/Src/stm32f3xx_hal_tim_ex.c ****   * @brief  Initializes the TIM Hall Sensor Interface and create the associated handle.
 185:Drivers/STM32F3xx_HAL_Driver/Src/stm32f3xx_hal_tim_ex.c ****   * @param  htim: TIM Encoder Interface handle
 186:Drivers/STM32F3xx_HAL_Driver/Src/stm32f3xx_hal_tim_ex.c ****   * @param  sConfig: TIM Hall Sensor configuration structure
 187:Drivers/STM32F3xx_HAL_Driver/Src/stm32f3xx_hal_tim_ex.c ****   * @retval HAL status
 188:Drivers/STM32F3xx_HAL_Driver/Src/stm32f3xx_hal_tim_ex.c ****   */
 189:Drivers/STM32F3xx_HAL_Driver/Src/stm32f3xx_hal_tim_ex.c **** HAL_StatusTypeDef HAL_TIMEx_HallSensor_Init(TIM_HandleTypeDef *htim, TIM_HallSensor_InitTypeDef* sC
 190:Drivers/STM32F3xx_HAL_Driver/Src/stm32f3xx_hal_tim_ex.c **** {
  29              		.loc 1 190 0
  30              		.cfi_startproc
  31              		@ args = 0, pretend = 0, frame = 40
  32              		@ frame_needed = 1, uses_anonymous_args = 0
  33 0000 80B5     		push	{r7, lr}
  34              	.LCFI0:
  35              		.cfi_def_cfa_offset 8
  36              		.cfi_offset 7, -8
  37              		.cfi_offset 14, -4
  38 0002 8AB0     		sub	sp, sp, #40
  39              	.LCFI1:
ARM GAS  /tmp/ccRzvoJq.s 			page 5


  40              		.cfi_def_cfa_offset 48
  41 0004 00AF     		add	r7, sp, #0
  42              	.LCFI2:
  43              		.cfi_def_cfa_register 7
  44 0006 7860     		str	r0, [r7, #4]
  45 0008 3960     		str	r1, [r7]
 191:Drivers/STM32F3xx_HAL_Driver/Src/stm32f3xx_hal_tim_ex.c ****   TIM_OC_InitTypeDef OC_Config;
 192:Drivers/STM32F3xx_HAL_Driver/Src/stm32f3xx_hal_tim_ex.c ****     
 193:Drivers/STM32F3xx_HAL_Driver/Src/stm32f3xx_hal_tim_ex.c ****   /* Check the TIM handle allocation */
 194:Drivers/STM32F3xx_HAL_Driver/Src/stm32f3xx_hal_tim_ex.c ****   if(htim == NULL)
  46              		.loc 1 194 0
  47 000a 7B68     		ldr	r3, [r7, #4]
  48 000c 002B     		cmp	r3, #0
  49 000e 01D1     		bne	.L2
 195:Drivers/STM32F3xx_HAL_Driver/Src/stm32f3xx_hal_tim_ex.c ****   {
 196:Drivers/STM32F3xx_HAL_Driver/Src/stm32f3xx_hal_tim_ex.c ****     return HAL_ERROR;
  50              		.loc 1 196 0
  51 0010 0123     		movs	r3, #1
  52 0012 8AE0     		b	.L5
  53              	.L2:
 197:Drivers/STM32F3xx_HAL_Driver/Src/stm32f3xx_hal_tim_ex.c ****   }
 198:Drivers/STM32F3xx_HAL_Driver/Src/stm32f3xx_hal_tim_ex.c ****   
 199:Drivers/STM32F3xx_HAL_Driver/Src/stm32f3xx_hal_tim_ex.c ****   assert_param(IS_TIM_HALL_INTERFACE_INSTANCE(htim->Instance));
 200:Drivers/STM32F3xx_HAL_Driver/Src/stm32f3xx_hal_tim_ex.c ****   assert_param(IS_TIM_COUNTER_MODE(htim->Init.CounterMode));
 201:Drivers/STM32F3xx_HAL_Driver/Src/stm32f3xx_hal_tim_ex.c ****   assert_param(IS_TIM_CLOCKDIVISION_DIV(htim->Init.ClockDivision));
 202:Drivers/STM32F3xx_HAL_Driver/Src/stm32f3xx_hal_tim_ex.c ****   assert_param(IS_TIM_IC_POLARITY(sConfig->IC1Polarity));
 203:Drivers/STM32F3xx_HAL_Driver/Src/stm32f3xx_hal_tim_ex.c ****   assert_param(IS_TIM_IC_PRESCALER(sConfig->IC1Prescaler));
 204:Drivers/STM32F3xx_HAL_Driver/Src/stm32f3xx_hal_tim_ex.c ****   assert_param(IS_TIM_IC_FILTER(sConfig->IC1Filter));
 205:Drivers/STM32F3xx_HAL_Driver/Src/stm32f3xx_hal_tim_ex.c **** 
 206:Drivers/STM32F3xx_HAL_Driver/Src/stm32f3xx_hal_tim_ex.c ****   if(htim->State == HAL_TIM_STATE_RESET)
  54              		.loc 1 206 0
  55 0014 7B68     		ldr	r3, [r7, #4]
  56 0016 93F83930 		ldrb	r3, [r3, #57]
  57 001a DBB2     		uxtb	r3, r3
  58 001c 002B     		cmp	r3, #0
  59 001e 06D1     		bne	.L4
 207:Drivers/STM32F3xx_HAL_Driver/Src/stm32f3xx_hal_tim_ex.c ****   {
 208:Drivers/STM32F3xx_HAL_Driver/Src/stm32f3xx_hal_tim_ex.c ****     /* Allocate lock resource and initialize it */
 209:Drivers/STM32F3xx_HAL_Driver/Src/stm32f3xx_hal_tim_ex.c ****     htim->Lock = HAL_UNLOCKED;
  60              		.loc 1 209 0
  61 0020 7B68     		ldr	r3, [r7, #4]
  62 0022 0022     		movs	r2, #0
  63 0024 83F83820 		strb	r2, [r3, #56]
 210:Drivers/STM32F3xx_HAL_Driver/Src/stm32f3xx_hal_tim_ex.c **** 
 211:Drivers/STM32F3xx_HAL_Driver/Src/stm32f3xx_hal_tim_ex.c ****     /* Init the low level hardware : GPIO, CLOCK, NVIC and DMA */
 212:Drivers/STM32F3xx_HAL_Driver/Src/stm32f3xx_hal_tim_ex.c ****     HAL_TIMEx_HallSensor_MspInit(htim);
  64              		.loc 1 212 0
  65 0028 7868     		ldr	r0, [r7, #4]
  66 002a FFF7FEFF 		bl	HAL_TIMEx_HallSensor_MspInit
  67              	.L4:
 213:Drivers/STM32F3xx_HAL_Driver/Src/stm32f3xx_hal_tim_ex.c ****   }
 214:Drivers/STM32F3xx_HAL_Driver/Src/stm32f3xx_hal_tim_ex.c **** 
 215:Drivers/STM32F3xx_HAL_Driver/Src/stm32f3xx_hal_tim_ex.c ****   /* Set the TIM state */
 216:Drivers/STM32F3xx_HAL_Driver/Src/stm32f3xx_hal_tim_ex.c ****   htim->State = HAL_TIM_STATE_BUSY;
  68              		.loc 1 216 0
  69 002e 7B68     		ldr	r3, [r7, #4]
  70 0030 0222     		movs	r2, #2
ARM GAS  /tmp/ccRzvoJq.s 			page 6


  71 0032 83F83920 		strb	r2, [r3, #57]
 217:Drivers/STM32F3xx_HAL_Driver/Src/stm32f3xx_hal_tim_ex.c ****   
 218:Drivers/STM32F3xx_HAL_Driver/Src/stm32f3xx_hal_tim_ex.c ****   /* Configure the Time base in the Encoder Mode */
 219:Drivers/STM32F3xx_HAL_Driver/Src/stm32f3xx_hal_tim_ex.c ****   TIM_Base_SetConfig(htim->Instance, &htim->Init);
  72              		.loc 1 219 0
  73 0036 7B68     		ldr	r3, [r7, #4]
  74 0038 1A68     		ldr	r2, [r3]
  75 003a 7B68     		ldr	r3, [r7, #4]
  76 003c 0433     		adds	r3, r3, #4
  77 003e 1046     		mov	r0, r2
  78 0040 1946     		mov	r1, r3
  79 0042 FFF7FEFF 		bl	TIM_Base_SetConfig
 220:Drivers/STM32F3xx_HAL_Driver/Src/stm32f3xx_hal_tim_ex.c ****   
 221:Drivers/STM32F3xx_HAL_Driver/Src/stm32f3xx_hal_tim_ex.c ****   /* Configure the Channel 1 as Input Channel to interface with the three Outputs of the  Hall sens
 222:Drivers/STM32F3xx_HAL_Driver/Src/stm32f3xx_hal_tim_ex.c ****   TIM_TI1_SetConfig(htim->Instance, sConfig->IC1Polarity, TIM_ICSELECTION_TRC, sConfig->IC1Filter);
  80              		.loc 1 222 0
  81 0046 7B68     		ldr	r3, [r7, #4]
  82 0048 1968     		ldr	r1, [r3]
  83 004a 3B68     		ldr	r3, [r7]
  84 004c 1A68     		ldr	r2, [r3]
  85 004e 3B68     		ldr	r3, [r7]
  86 0050 9B68     		ldr	r3, [r3, #8]
  87 0052 0846     		mov	r0, r1
  88 0054 1146     		mov	r1, r2
  89 0056 0322     		movs	r2, #3
  90 0058 FFF7FEFF 		bl	TIM_TI1_SetConfig
 223:Drivers/STM32F3xx_HAL_Driver/Src/stm32f3xx_hal_tim_ex.c ****   
 224:Drivers/STM32F3xx_HAL_Driver/Src/stm32f3xx_hal_tim_ex.c ****   /* Reset the IC1PSC Bits */
 225:Drivers/STM32F3xx_HAL_Driver/Src/stm32f3xx_hal_tim_ex.c ****   htim->Instance->CCMR1 &= ~TIM_CCMR1_IC1PSC;
  91              		.loc 1 225 0
  92 005c 7B68     		ldr	r3, [r7, #4]
  93 005e 1B68     		ldr	r3, [r3]
  94 0060 7A68     		ldr	r2, [r7, #4]
  95 0062 1268     		ldr	r2, [r2]
  96 0064 9269     		ldr	r2, [r2, #24]
  97 0066 22F00C02 		bic	r2, r2, #12
  98 006a 9A61     		str	r2, [r3, #24]
 226:Drivers/STM32F3xx_HAL_Driver/Src/stm32f3xx_hal_tim_ex.c ****   /* Set the IC1PSC value */
 227:Drivers/STM32F3xx_HAL_Driver/Src/stm32f3xx_hal_tim_ex.c ****   htim->Instance->CCMR1 |= sConfig->IC1Prescaler;
  99              		.loc 1 227 0
 100 006c 7B68     		ldr	r3, [r7, #4]
 101 006e 1B68     		ldr	r3, [r3]
 102 0070 7A68     		ldr	r2, [r7, #4]
 103 0072 1268     		ldr	r2, [r2]
 104 0074 9169     		ldr	r1, [r2, #24]
 105 0076 3A68     		ldr	r2, [r7]
 106 0078 5268     		ldr	r2, [r2, #4]
 107 007a 0A43     		orrs	r2, r2, r1
 108 007c 9A61     		str	r2, [r3, #24]
 228:Drivers/STM32F3xx_HAL_Driver/Src/stm32f3xx_hal_tim_ex.c ****   
 229:Drivers/STM32F3xx_HAL_Driver/Src/stm32f3xx_hal_tim_ex.c ****   /* Enable the Hall sensor interface (XOR function of the three inputs) */
 230:Drivers/STM32F3xx_HAL_Driver/Src/stm32f3xx_hal_tim_ex.c ****   htim->Instance->CR2 |= TIM_CR2_TI1S;
 109              		.loc 1 230 0
 110 007e 7B68     		ldr	r3, [r7, #4]
 111 0080 1B68     		ldr	r3, [r3]
 112 0082 7A68     		ldr	r2, [r7, #4]
 113 0084 1268     		ldr	r2, [r2]
ARM GAS  /tmp/ccRzvoJq.s 			page 7


 114 0086 5268     		ldr	r2, [r2, #4]
 115 0088 42F08002 		orr	r2, r2, #128
 116 008c 5A60     		str	r2, [r3, #4]
 231:Drivers/STM32F3xx_HAL_Driver/Src/stm32f3xx_hal_tim_ex.c ****   
 232:Drivers/STM32F3xx_HAL_Driver/Src/stm32f3xx_hal_tim_ex.c ****   /* Select the TIM_TS_TI1F_ED signal as Input trigger for the TIM */
 233:Drivers/STM32F3xx_HAL_Driver/Src/stm32f3xx_hal_tim_ex.c ****   htim->Instance->SMCR &= ~TIM_SMCR_TS;
 117              		.loc 1 233 0
 118 008e 7B68     		ldr	r3, [r7, #4]
 119 0090 1B68     		ldr	r3, [r3]
 120 0092 7A68     		ldr	r2, [r7, #4]
 121 0094 1268     		ldr	r2, [r2]
 122 0096 9268     		ldr	r2, [r2, #8]
 123 0098 22F07002 		bic	r2, r2, #112
 124 009c 9A60     		str	r2, [r3, #8]
 234:Drivers/STM32F3xx_HAL_Driver/Src/stm32f3xx_hal_tim_ex.c ****   htim->Instance->SMCR |= TIM_TS_TI1F_ED;
 125              		.loc 1 234 0
 126 009e 7B68     		ldr	r3, [r7, #4]
 127 00a0 1B68     		ldr	r3, [r3]
 128 00a2 7A68     		ldr	r2, [r7, #4]
 129 00a4 1268     		ldr	r2, [r2]
 130 00a6 9268     		ldr	r2, [r2, #8]
 131 00a8 42F04002 		orr	r2, r2, #64
 132 00ac 9A60     		str	r2, [r3, #8]
 235:Drivers/STM32F3xx_HAL_Driver/Src/stm32f3xx_hal_tim_ex.c ****   
 236:Drivers/STM32F3xx_HAL_Driver/Src/stm32f3xx_hal_tim_ex.c ****   /* Use the TIM_TS_TI1F_ED signal to reset the TIM counter each edge detection */  
 237:Drivers/STM32F3xx_HAL_Driver/Src/stm32f3xx_hal_tim_ex.c ****   htim->Instance->SMCR &= ~TIM_SMCR_SMS;
 133              		.loc 1 237 0
 134 00ae 7B68     		ldr	r3, [r7, #4]
 135 00b0 1A68     		ldr	r2, [r3]
 136 00b2 7B68     		ldr	r3, [r7, #4]
 137 00b4 1B68     		ldr	r3, [r3]
 138 00b6 9B68     		ldr	r3, [r3, #8]
 139 00b8 23F48033 		bic	r3, r3, #65536
 140 00bc 23F00703 		bic	r3, r3, #7
 141 00c0 9360     		str	r3, [r2, #8]
 238:Drivers/STM32F3xx_HAL_Driver/Src/stm32f3xx_hal_tim_ex.c ****   htim->Instance->SMCR |= TIM_SLAVEMODE_RESET;
 142              		.loc 1 238 0
 143 00c2 7B68     		ldr	r3, [r7, #4]
 144 00c4 1B68     		ldr	r3, [r3]
 145 00c6 7A68     		ldr	r2, [r7, #4]
 146 00c8 1268     		ldr	r2, [r2]
 147 00ca 9268     		ldr	r2, [r2, #8]
 148 00cc 42F00402 		orr	r2, r2, #4
 149 00d0 9A60     		str	r2, [r3, #8]
 239:Drivers/STM32F3xx_HAL_Driver/Src/stm32f3xx_hal_tim_ex.c ****   
 240:Drivers/STM32F3xx_HAL_Driver/Src/stm32f3xx_hal_tim_ex.c ****   /* Program channel 2 in PWM 2 mode with the desired Commutation_Delay*/
 241:Drivers/STM32F3xx_HAL_Driver/Src/stm32f3xx_hal_tim_ex.c ****   OC_Config.OCFastMode = TIM_OCFAST_DISABLE;
 150              		.loc 1 241 0
 151 00d2 0023     		movs	r3, #0
 152 00d4 FB61     		str	r3, [r7, #28]
 242:Drivers/STM32F3xx_HAL_Driver/Src/stm32f3xx_hal_tim_ex.c ****   OC_Config.OCIdleState = TIM_OCIDLESTATE_RESET;
 153              		.loc 1 242 0
 154 00d6 0023     		movs	r3, #0
 155 00d8 3B62     		str	r3, [r7, #32]
 243:Drivers/STM32F3xx_HAL_Driver/Src/stm32f3xx_hal_tim_ex.c ****   OC_Config.OCMode = TIM_OCMODE_PWM2;
 156              		.loc 1 243 0
 157 00da 7023     		movs	r3, #112
ARM GAS  /tmp/ccRzvoJq.s 			page 8


 158 00dc FB60     		str	r3, [r7, #12]
 244:Drivers/STM32F3xx_HAL_Driver/Src/stm32f3xx_hal_tim_ex.c ****   OC_Config.OCNIdleState = TIM_OCNIDLESTATE_RESET;
 159              		.loc 1 244 0
 160 00de 0023     		movs	r3, #0
 161 00e0 7B62     		str	r3, [r7, #36]
 245:Drivers/STM32F3xx_HAL_Driver/Src/stm32f3xx_hal_tim_ex.c ****   OC_Config.OCNPolarity = TIM_OCNPOLARITY_HIGH;
 162              		.loc 1 245 0
 163 00e2 0023     		movs	r3, #0
 164 00e4 BB61     		str	r3, [r7, #24]
 246:Drivers/STM32F3xx_HAL_Driver/Src/stm32f3xx_hal_tim_ex.c ****   OC_Config.OCPolarity = TIM_OCPOLARITY_HIGH;
 165              		.loc 1 246 0
 166 00e6 0023     		movs	r3, #0
 167 00e8 7B61     		str	r3, [r7, #20]
 247:Drivers/STM32F3xx_HAL_Driver/Src/stm32f3xx_hal_tim_ex.c ****   OC_Config.Pulse = sConfig->Commutation_Delay; 
 168              		.loc 1 247 0
 169 00ea 3B68     		ldr	r3, [r7]
 170 00ec DB68     		ldr	r3, [r3, #12]
 171 00ee 3B61     		str	r3, [r7, #16]
 248:Drivers/STM32F3xx_HAL_Driver/Src/stm32f3xx_hal_tim_ex.c ****     
 249:Drivers/STM32F3xx_HAL_Driver/Src/stm32f3xx_hal_tim_ex.c ****   TIM_OC2_SetConfig(htim->Instance, &OC_Config);
 172              		.loc 1 249 0
 173 00f0 7B68     		ldr	r3, [r7, #4]
 174 00f2 1A68     		ldr	r2, [r3]
 175 00f4 07F10C03 		add	r3, r7, #12
 176 00f8 1046     		mov	r0, r2
 177 00fa 1946     		mov	r1, r3
 178 00fc FFF7FEFF 		bl	TIM_OC2_SetConfig
 250:Drivers/STM32F3xx_HAL_Driver/Src/stm32f3xx_hal_tim_ex.c ****   
 251:Drivers/STM32F3xx_HAL_Driver/Src/stm32f3xx_hal_tim_ex.c ****   /* Select OC2REF as trigger output on TRGO: write the MMS bits in the TIMx_CR2
 252:Drivers/STM32F3xx_HAL_Driver/Src/stm32f3xx_hal_tim_ex.c ****     register to 101 */
 253:Drivers/STM32F3xx_HAL_Driver/Src/stm32f3xx_hal_tim_ex.c ****   htim->Instance->CR2 &= ~TIM_CR2_MMS;
 179              		.loc 1 253 0
 180 0100 7B68     		ldr	r3, [r7, #4]
 181 0102 1B68     		ldr	r3, [r3]
 182 0104 7A68     		ldr	r2, [r7, #4]
 183 0106 1268     		ldr	r2, [r2]
 184 0108 5268     		ldr	r2, [r2, #4]
 185 010a 22F07002 		bic	r2, r2, #112
 186 010e 5A60     		str	r2, [r3, #4]
 254:Drivers/STM32F3xx_HAL_Driver/Src/stm32f3xx_hal_tim_ex.c ****   htim->Instance->CR2 |= TIM_TRGO_OC2REF; 
 187              		.loc 1 254 0
 188 0110 7B68     		ldr	r3, [r7, #4]
 189 0112 1B68     		ldr	r3, [r3]
 190 0114 7A68     		ldr	r2, [r7, #4]
 191 0116 1268     		ldr	r2, [r2]
 192 0118 5268     		ldr	r2, [r2, #4]
 193 011a 42F05002 		orr	r2, r2, #80
 194 011e 5A60     		str	r2, [r3, #4]
 255:Drivers/STM32F3xx_HAL_Driver/Src/stm32f3xx_hal_tim_ex.c ****   
 256:Drivers/STM32F3xx_HAL_Driver/Src/stm32f3xx_hal_tim_ex.c ****   /* Initialize the TIM state*/
 257:Drivers/STM32F3xx_HAL_Driver/Src/stm32f3xx_hal_tim_ex.c ****   htim->State= HAL_TIM_STATE_READY;
 195              		.loc 1 257 0
 196 0120 7B68     		ldr	r3, [r7, #4]
 197 0122 0122     		movs	r2, #1
 198 0124 83F83920 		strb	r2, [r3, #57]
 258:Drivers/STM32F3xx_HAL_Driver/Src/stm32f3xx_hal_tim_ex.c **** 
 259:Drivers/STM32F3xx_HAL_Driver/Src/stm32f3xx_hal_tim_ex.c ****   return HAL_OK;
ARM GAS  /tmp/ccRzvoJq.s 			page 9


 199              		.loc 1 259 0
 200 0128 0023     		movs	r3, #0
 201              	.L5:
 260:Drivers/STM32F3xx_HAL_Driver/Src/stm32f3xx_hal_tim_ex.c **** }
 202              		.loc 1 260 0
 203 012a 1846     		mov	r0, r3
 204 012c 2837     		adds	r7, r7, #40
 205 012e BD46     		mov	sp, r7
 206              		@ sp needed
 207 0130 80BD     		pop	{r7, pc}
 208              		.cfi_endproc
 209              	.LFE125:
 211 0132 00BF     		.section	.text.HAL_TIMEx_HallSensor_DeInit,"ax",%progbits
 212              		.align	2
 213              		.global	HAL_TIMEx_HallSensor_DeInit
 214              		.thumb
 215              		.thumb_func
 217              	HAL_TIMEx_HallSensor_DeInit:
 218              	.LFB126:
 261:Drivers/STM32F3xx_HAL_Driver/Src/stm32f3xx_hal_tim_ex.c **** 
 262:Drivers/STM32F3xx_HAL_Driver/Src/stm32f3xx_hal_tim_ex.c **** /**
 263:Drivers/STM32F3xx_HAL_Driver/Src/stm32f3xx_hal_tim_ex.c ****   * @brief  DeInitializes the TIM Hall Sensor interface  
 264:Drivers/STM32F3xx_HAL_Driver/Src/stm32f3xx_hal_tim_ex.c ****   * @param  htim: TIM Hall Sensor handle
 265:Drivers/STM32F3xx_HAL_Driver/Src/stm32f3xx_hal_tim_ex.c ****   * @retval HAL status
 266:Drivers/STM32F3xx_HAL_Driver/Src/stm32f3xx_hal_tim_ex.c ****   */
 267:Drivers/STM32F3xx_HAL_Driver/Src/stm32f3xx_hal_tim_ex.c **** HAL_StatusTypeDef HAL_TIMEx_HallSensor_DeInit(TIM_HandleTypeDef *htim)
 268:Drivers/STM32F3xx_HAL_Driver/Src/stm32f3xx_hal_tim_ex.c **** {
 219              		.loc 1 268 0
 220              		.cfi_startproc
 221              		@ args = 0, pretend = 0, frame = 8
 222              		@ frame_needed = 1, uses_anonymous_args = 0
 223 0000 80B5     		push	{r7, lr}
 224              	.LCFI3:
 225              		.cfi_def_cfa_offset 8
 226              		.cfi_offset 7, -8
 227              		.cfi_offset 14, -4
 228 0002 82B0     		sub	sp, sp, #8
 229              	.LCFI4:
 230              		.cfi_def_cfa_offset 16
 231 0004 00AF     		add	r7, sp, #0
 232              	.LCFI5:
 233              		.cfi_def_cfa_register 7
 234 0006 7860     		str	r0, [r7, #4]
 269:Drivers/STM32F3xx_HAL_Driver/Src/stm32f3xx_hal_tim_ex.c ****   /* Check the parameters */
 270:Drivers/STM32F3xx_HAL_Driver/Src/stm32f3xx_hal_tim_ex.c ****   assert_param(IS_TIM_INSTANCE(htim->Instance));
 271:Drivers/STM32F3xx_HAL_Driver/Src/stm32f3xx_hal_tim_ex.c **** 
 272:Drivers/STM32F3xx_HAL_Driver/Src/stm32f3xx_hal_tim_ex.c ****   htim->State = HAL_TIM_STATE_BUSY;
 235              		.loc 1 272 0
 236 0008 7B68     		ldr	r3, [r7, #4]
 237 000a 0222     		movs	r2, #2
 238 000c 83F83920 		strb	r2, [r3, #57]
 273:Drivers/STM32F3xx_HAL_Driver/Src/stm32f3xx_hal_tim_ex.c ****   
 274:Drivers/STM32F3xx_HAL_Driver/Src/stm32f3xx_hal_tim_ex.c ****   /* Disable the TIM Peripheral Clock */
 275:Drivers/STM32F3xx_HAL_Driver/Src/stm32f3xx_hal_tim_ex.c ****   __HAL_TIM_DISABLE(htim);
 239              		.loc 1 275 0
 240 0010 7B68     		ldr	r3, [r7, #4]
 241 0012 1B68     		ldr	r3, [r3]
ARM GAS  /tmp/ccRzvoJq.s 			page 10


 242 0014 1A6A     		ldr	r2, [r3, #32]
 243 0016 41F21113 		movw	r3, #4369
 244 001a 1340     		ands	r3, r3, r2
 245 001c 002B     		cmp	r3, #0
 246 001e 0FD1     		bne	.L7
 247              		.loc 1 275 0 is_stmt 0 discriminator 1
 248 0020 7B68     		ldr	r3, [r7, #4]
 249 0022 1B68     		ldr	r3, [r3]
 250 0024 1A6A     		ldr	r2, [r3, #32]
 251 0026 40F24443 		movw	r3, #1092
 252 002a 1340     		ands	r3, r3, r2
 253 002c 002B     		cmp	r3, #0
 254 002e 07D1     		bne	.L7
 255 0030 7B68     		ldr	r3, [r7, #4]
 256 0032 1B68     		ldr	r3, [r3]
 257 0034 7A68     		ldr	r2, [r7, #4]
 258 0036 1268     		ldr	r2, [r2]
 259 0038 1268     		ldr	r2, [r2]
 260 003a 22F00102 		bic	r2, r2, #1
 261 003e 1A60     		str	r2, [r3]
 262              	.L7:
 276:Drivers/STM32F3xx_HAL_Driver/Src/stm32f3xx_hal_tim_ex.c ****     
 277:Drivers/STM32F3xx_HAL_Driver/Src/stm32f3xx_hal_tim_ex.c ****   /* DeInit the low level hardware: GPIO, CLOCK, NVIC */
 278:Drivers/STM32F3xx_HAL_Driver/Src/stm32f3xx_hal_tim_ex.c ****   HAL_TIMEx_HallSensor_MspDeInit(htim);
 263              		.loc 1 278 0 is_stmt 1
 264 0040 7868     		ldr	r0, [r7, #4]
 265 0042 FFF7FEFF 		bl	HAL_TIMEx_HallSensor_MspDeInit
 279:Drivers/STM32F3xx_HAL_Driver/Src/stm32f3xx_hal_tim_ex.c ****     
 280:Drivers/STM32F3xx_HAL_Driver/Src/stm32f3xx_hal_tim_ex.c ****   /* Change TIM state */  
 281:Drivers/STM32F3xx_HAL_Driver/Src/stm32f3xx_hal_tim_ex.c ****   htim->State = HAL_TIM_STATE_RESET; 
 266              		.loc 1 281 0
 267 0046 7B68     		ldr	r3, [r7, #4]
 268 0048 0022     		movs	r2, #0
 269 004a 83F83920 		strb	r2, [r3, #57]
 282:Drivers/STM32F3xx_HAL_Driver/Src/stm32f3xx_hal_tim_ex.c ****   
 283:Drivers/STM32F3xx_HAL_Driver/Src/stm32f3xx_hal_tim_ex.c ****   /* Release Lock */
 284:Drivers/STM32F3xx_HAL_Driver/Src/stm32f3xx_hal_tim_ex.c ****   __HAL_UNLOCK(htim);
 270              		.loc 1 284 0
 271 004e 7B68     		ldr	r3, [r7, #4]
 272 0050 0022     		movs	r2, #0
 273 0052 83F83820 		strb	r2, [r3, #56]
 285:Drivers/STM32F3xx_HAL_Driver/Src/stm32f3xx_hal_tim_ex.c **** 
 286:Drivers/STM32F3xx_HAL_Driver/Src/stm32f3xx_hal_tim_ex.c ****   return HAL_OK;
 274              		.loc 1 286 0
 275 0056 0023     		movs	r3, #0
 287:Drivers/STM32F3xx_HAL_Driver/Src/stm32f3xx_hal_tim_ex.c **** }
 276              		.loc 1 287 0
 277 0058 1846     		mov	r0, r3
 278 005a 0837     		adds	r7, r7, #8
 279 005c BD46     		mov	sp, r7
 280              		@ sp needed
 281 005e 80BD     		pop	{r7, pc}
 282              		.cfi_endproc
 283              	.LFE126:
 285              		.section	.text.HAL_TIMEx_HallSensor_MspInit,"ax",%progbits
 286              		.align	2
 287              		.weak	HAL_TIMEx_HallSensor_MspInit
ARM GAS  /tmp/ccRzvoJq.s 			page 11


 288              		.thumb
 289              		.thumb_func
 291              	HAL_TIMEx_HallSensor_MspInit:
 292              	.LFB127:
 288:Drivers/STM32F3xx_HAL_Driver/Src/stm32f3xx_hal_tim_ex.c **** 
 289:Drivers/STM32F3xx_HAL_Driver/Src/stm32f3xx_hal_tim_ex.c **** /**
 290:Drivers/STM32F3xx_HAL_Driver/Src/stm32f3xx_hal_tim_ex.c ****   * @brief  Initializes the TIM Hall Sensor MSP.
 291:Drivers/STM32F3xx_HAL_Driver/Src/stm32f3xx_hal_tim_ex.c ****   * @param  htim: TIM handle
 292:Drivers/STM32F3xx_HAL_Driver/Src/stm32f3xx_hal_tim_ex.c ****   * @retval None
 293:Drivers/STM32F3xx_HAL_Driver/Src/stm32f3xx_hal_tim_ex.c ****   */
 294:Drivers/STM32F3xx_HAL_Driver/Src/stm32f3xx_hal_tim_ex.c **** __weak void HAL_TIMEx_HallSensor_MspInit(TIM_HandleTypeDef *htim)
 295:Drivers/STM32F3xx_HAL_Driver/Src/stm32f3xx_hal_tim_ex.c **** {
 293              		.loc 1 295 0
 294              		.cfi_startproc
 295              		@ args = 0, pretend = 0, frame = 8
 296              		@ frame_needed = 1, uses_anonymous_args = 0
 297              		@ link register save eliminated.
 298 0000 80B4     		push	{r7}
 299              	.LCFI6:
 300              		.cfi_def_cfa_offset 4
 301              		.cfi_offset 7, -4
 302 0002 83B0     		sub	sp, sp, #12
 303              	.LCFI7:
 304              		.cfi_def_cfa_offset 16
 305 0004 00AF     		add	r7, sp, #0
 306              	.LCFI8:
 307              		.cfi_def_cfa_register 7
 308 0006 7860     		str	r0, [r7, #4]
 296:Drivers/STM32F3xx_HAL_Driver/Src/stm32f3xx_hal_tim_ex.c ****   /* Prevent unused argument(s) compilation warning */
 297:Drivers/STM32F3xx_HAL_Driver/Src/stm32f3xx_hal_tim_ex.c ****   UNUSED(htim);
 298:Drivers/STM32F3xx_HAL_Driver/Src/stm32f3xx_hal_tim_ex.c **** 
 299:Drivers/STM32F3xx_HAL_Driver/Src/stm32f3xx_hal_tim_ex.c ****   /* NOTE : This function Should not be modified, when the callback is needed,
 300:Drivers/STM32F3xx_HAL_Driver/Src/stm32f3xx_hal_tim_ex.c ****             the HAL_TIMEx_HallSensor_MspInit could be implemented in the user file
 301:Drivers/STM32F3xx_HAL_Driver/Src/stm32f3xx_hal_tim_ex.c ****    */
 302:Drivers/STM32F3xx_HAL_Driver/Src/stm32f3xx_hal_tim_ex.c **** }
 309              		.loc 1 302 0
 310 0008 0C37     		adds	r7, r7, #12
 311 000a BD46     		mov	sp, r7
 312              		@ sp needed
 313 000c 5DF8047B 		ldr	r7, [sp], #4
 314 0010 7047     		bx	lr
 315              		.cfi_endproc
 316              	.LFE127:
 318 0012 00BF     		.section	.text.HAL_TIMEx_HallSensor_MspDeInit,"ax",%progbits
 319              		.align	2
 320              		.weak	HAL_TIMEx_HallSensor_MspDeInit
 321              		.thumb
 322              		.thumb_func
 324              	HAL_TIMEx_HallSensor_MspDeInit:
 325              	.LFB128:
 303:Drivers/STM32F3xx_HAL_Driver/Src/stm32f3xx_hal_tim_ex.c **** 
 304:Drivers/STM32F3xx_HAL_Driver/Src/stm32f3xx_hal_tim_ex.c **** /**
 305:Drivers/STM32F3xx_HAL_Driver/Src/stm32f3xx_hal_tim_ex.c ****   * @brief  DeInitializes TIM Hall Sensor MSP.
 306:Drivers/STM32F3xx_HAL_Driver/Src/stm32f3xx_hal_tim_ex.c ****   * @param  htim: TIM handle
 307:Drivers/STM32F3xx_HAL_Driver/Src/stm32f3xx_hal_tim_ex.c ****   * @retval None
 308:Drivers/STM32F3xx_HAL_Driver/Src/stm32f3xx_hal_tim_ex.c ****   */
 309:Drivers/STM32F3xx_HAL_Driver/Src/stm32f3xx_hal_tim_ex.c **** __weak void HAL_TIMEx_HallSensor_MspDeInit(TIM_HandleTypeDef *htim)
ARM GAS  /tmp/ccRzvoJq.s 			page 12


 310:Drivers/STM32F3xx_HAL_Driver/Src/stm32f3xx_hal_tim_ex.c **** {
 326              		.loc 1 310 0
 327              		.cfi_startproc
 328              		@ args = 0, pretend = 0, frame = 8
 329              		@ frame_needed = 1, uses_anonymous_args = 0
 330              		@ link register save eliminated.
 331 0000 80B4     		push	{r7}
 332              	.LCFI9:
 333              		.cfi_def_cfa_offset 4
 334              		.cfi_offset 7, -4
 335 0002 83B0     		sub	sp, sp, #12
 336              	.LCFI10:
 337              		.cfi_def_cfa_offset 16
 338 0004 00AF     		add	r7, sp, #0
 339              	.LCFI11:
 340              		.cfi_def_cfa_register 7
 341 0006 7860     		str	r0, [r7, #4]
 311:Drivers/STM32F3xx_HAL_Driver/Src/stm32f3xx_hal_tim_ex.c ****   /* Prevent unused argument(s) compilation warning */
 312:Drivers/STM32F3xx_HAL_Driver/Src/stm32f3xx_hal_tim_ex.c ****   UNUSED(htim);
 313:Drivers/STM32F3xx_HAL_Driver/Src/stm32f3xx_hal_tim_ex.c **** 
 314:Drivers/STM32F3xx_HAL_Driver/Src/stm32f3xx_hal_tim_ex.c ****   /* NOTE : This function Should not be modified, when the callback is needed,
 315:Drivers/STM32F3xx_HAL_Driver/Src/stm32f3xx_hal_tim_ex.c ****             the HAL_TIMEx_HallSensor_MspDeInit could be implemented in the user file
 316:Drivers/STM32F3xx_HAL_Driver/Src/stm32f3xx_hal_tim_ex.c ****    */
 317:Drivers/STM32F3xx_HAL_Driver/Src/stm32f3xx_hal_tim_ex.c **** }
 342              		.loc 1 317 0
 343 0008 0C37     		adds	r7, r7, #12
 344 000a BD46     		mov	sp, r7
 345              		@ sp needed
 346 000c 5DF8047B 		ldr	r7, [sp], #4
 347 0010 7047     		bx	lr
 348              		.cfi_endproc
 349              	.LFE128:
 351 0012 00BF     		.section	.text.HAL_TIMEx_HallSensor_Start,"ax",%progbits
 352              		.align	2
 353              		.global	HAL_TIMEx_HallSensor_Start
 354              		.thumb
 355              		.thumb_func
 357              	HAL_TIMEx_HallSensor_Start:
 358              	.LFB129:
 318:Drivers/STM32F3xx_HAL_Driver/Src/stm32f3xx_hal_tim_ex.c **** 
 319:Drivers/STM32F3xx_HAL_Driver/Src/stm32f3xx_hal_tim_ex.c **** /**
 320:Drivers/STM32F3xx_HAL_Driver/Src/stm32f3xx_hal_tim_ex.c ****   * @brief  Starts the TIM Hall Sensor Interface.
 321:Drivers/STM32F3xx_HAL_Driver/Src/stm32f3xx_hal_tim_ex.c ****   * @param  htim: TIM Hall Sensor handle
 322:Drivers/STM32F3xx_HAL_Driver/Src/stm32f3xx_hal_tim_ex.c ****   * @retval HAL status
 323:Drivers/STM32F3xx_HAL_Driver/Src/stm32f3xx_hal_tim_ex.c ****   */
 324:Drivers/STM32F3xx_HAL_Driver/Src/stm32f3xx_hal_tim_ex.c **** HAL_StatusTypeDef HAL_TIMEx_HallSensor_Start(TIM_HandleTypeDef *htim)
 325:Drivers/STM32F3xx_HAL_Driver/Src/stm32f3xx_hal_tim_ex.c **** {
 359              		.loc 1 325 0
 360              		.cfi_startproc
 361              		@ args = 0, pretend = 0, frame = 8
 362              		@ frame_needed = 1, uses_anonymous_args = 0
 363 0000 80B5     		push	{r7, lr}
 364              	.LCFI12:
 365              		.cfi_def_cfa_offset 8
 366              		.cfi_offset 7, -8
 367              		.cfi_offset 14, -4
 368 0002 82B0     		sub	sp, sp, #8
ARM GAS  /tmp/ccRzvoJq.s 			page 13


 369              	.LCFI13:
 370              		.cfi_def_cfa_offset 16
 371 0004 00AF     		add	r7, sp, #0
 372              	.LCFI14:
 373              		.cfi_def_cfa_register 7
 374 0006 7860     		str	r0, [r7, #4]
 326:Drivers/STM32F3xx_HAL_Driver/Src/stm32f3xx_hal_tim_ex.c ****   /* Check the parameters */
 327:Drivers/STM32F3xx_HAL_Driver/Src/stm32f3xx_hal_tim_ex.c ****   assert_param(IS_TIM_HALL_INTERFACE_INSTANCE(htim->Instance));
 328:Drivers/STM32F3xx_HAL_Driver/Src/stm32f3xx_hal_tim_ex.c ****   
 329:Drivers/STM32F3xx_HAL_Driver/Src/stm32f3xx_hal_tim_ex.c ****   /* Enable the Input Capture channel 1
 330:Drivers/STM32F3xx_HAL_Driver/Src/stm32f3xx_hal_tim_ex.c ****     (in the Hall Sensor Interface the three possible channels that can be used are TIM_CHANNEL_1, T
 331:Drivers/STM32F3xx_HAL_Driver/Src/stm32f3xx_hal_tim_ex.c ****   TIM_CCxChannelCmd(htim->Instance, TIM_CHANNEL_1, TIM_CCx_ENABLE); 
 375              		.loc 1 331 0
 376 0008 7B68     		ldr	r3, [r7, #4]
 377 000a 1B68     		ldr	r3, [r3]
 378 000c 1846     		mov	r0, r3
 379 000e 0021     		movs	r1, #0
 380 0010 0122     		movs	r2, #1
 381 0012 FFF7FEFF 		bl	TIM_CCxChannelCmd
 332:Drivers/STM32F3xx_HAL_Driver/Src/stm32f3xx_hal_tim_ex.c ****   
 333:Drivers/STM32F3xx_HAL_Driver/Src/stm32f3xx_hal_tim_ex.c ****   /* Enable the Peripheral */
 334:Drivers/STM32F3xx_HAL_Driver/Src/stm32f3xx_hal_tim_ex.c ****   __HAL_TIM_ENABLE(htim);
 382              		.loc 1 334 0
 383 0016 7B68     		ldr	r3, [r7, #4]
 384 0018 1B68     		ldr	r3, [r3]
 385 001a 7A68     		ldr	r2, [r7, #4]
 386 001c 1268     		ldr	r2, [r2]
 387 001e 1268     		ldr	r2, [r2]
 388 0020 42F00102 		orr	r2, r2, #1
 389 0024 1A60     		str	r2, [r3]
 335:Drivers/STM32F3xx_HAL_Driver/Src/stm32f3xx_hal_tim_ex.c ****   
 336:Drivers/STM32F3xx_HAL_Driver/Src/stm32f3xx_hal_tim_ex.c ****   /* Return function status */
 337:Drivers/STM32F3xx_HAL_Driver/Src/stm32f3xx_hal_tim_ex.c ****   return HAL_OK;
 390              		.loc 1 337 0
 391 0026 0023     		movs	r3, #0
 338:Drivers/STM32F3xx_HAL_Driver/Src/stm32f3xx_hal_tim_ex.c **** }
 392              		.loc 1 338 0
 393 0028 1846     		mov	r0, r3
 394 002a 0837     		adds	r7, r7, #8
 395 002c BD46     		mov	sp, r7
 396              		@ sp needed
 397 002e 80BD     		pop	{r7, pc}
 398              		.cfi_endproc
 399              	.LFE129:
 401              		.section	.text.HAL_TIMEx_HallSensor_Stop,"ax",%progbits
 402              		.align	2
 403              		.global	HAL_TIMEx_HallSensor_Stop
 404              		.thumb
 405              		.thumb_func
 407              	HAL_TIMEx_HallSensor_Stop:
 408              	.LFB130:
 339:Drivers/STM32F3xx_HAL_Driver/Src/stm32f3xx_hal_tim_ex.c **** 
 340:Drivers/STM32F3xx_HAL_Driver/Src/stm32f3xx_hal_tim_ex.c **** /**
 341:Drivers/STM32F3xx_HAL_Driver/Src/stm32f3xx_hal_tim_ex.c ****   * @brief  Stops the TIM Hall sensor Interface.
 342:Drivers/STM32F3xx_HAL_Driver/Src/stm32f3xx_hal_tim_ex.c ****   * @param  htim: TIM Hall Sensor handle
 343:Drivers/STM32F3xx_HAL_Driver/Src/stm32f3xx_hal_tim_ex.c ****   * @retval HAL status
 344:Drivers/STM32F3xx_HAL_Driver/Src/stm32f3xx_hal_tim_ex.c ****   */
ARM GAS  /tmp/ccRzvoJq.s 			page 14


 345:Drivers/STM32F3xx_HAL_Driver/Src/stm32f3xx_hal_tim_ex.c **** HAL_StatusTypeDef HAL_TIMEx_HallSensor_Stop(TIM_HandleTypeDef *htim)
 346:Drivers/STM32F3xx_HAL_Driver/Src/stm32f3xx_hal_tim_ex.c **** {
 409              		.loc 1 346 0
 410              		.cfi_startproc
 411              		@ args = 0, pretend = 0, frame = 8
 412              		@ frame_needed = 1, uses_anonymous_args = 0
 413 0000 80B5     		push	{r7, lr}
 414              	.LCFI15:
 415              		.cfi_def_cfa_offset 8
 416              		.cfi_offset 7, -8
 417              		.cfi_offset 14, -4
 418 0002 82B0     		sub	sp, sp, #8
 419              	.LCFI16:
 420              		.cfi_def_cfa_offset 16
 421 0004 00AF     		add	r7, sp, #0
 422              	.LCFI17:
 423              		.cfi_def_cfa_register 7
 424 0006 7860     		str	r0, [r7, #4]
 347:Drivers/STM32F3xx_HAL_Driver/Src/stm32f3xx_hal_tim_ex.c ****   /* Check the parameters */
 348:Drivers/STM32F3xx_HAL_Driver/Src/stm32f3xx_hal_tim_ex.c ****   assert_param(IS_TIM_HALL_INTERFACE_INSTANCE(htim->Instance));
 349:Drivers/STM32F3xx_HAL_Driver/Src/stm32f3xx_hal_tim_ex.c ****   
 350:Drivers/STM32F3xx_HAL_Driver/Src/stm32f3xx_hal_tim_ex.c ****   /* Disable the Input Capture channels 1, 2 and 3
 351:Drivers/STM32F3xx_HAL_Driver/Src/stm32f3xx_hal_tim_ex.c ****     (in the Hall Sensor Interface the three possible channels that can be used are TIM_CHANNEL_1, T
 352:Drivers/STM32F3xx_HAL_Driver/Src/stm32f3xx_hal_tim_ex.c ****   TIM_CCxChannelCmd(htim->Instance, TIM_CHANNEL_1, TIM_CCx_DISABLE); 
 425              		.loc 1 352 0
 426 0008 7B68     		ldr	r3, [r7, #4]
 427 000a 1B68     		ldr	r3, [r3]
 428 000c 1846     		mov	r0, r3
 429 000e 0021     		movs	r1, #0
 430 0010 0022     		movs	r2, #0
 431 0012 FFF7FEFF 		bl	TIM_CCxChannelCmd
 353:Drivers/STM32F3xx_HAL_Driver/Src/stm32f3xx_hal_tim_ex.c **** 
 354:Drivers/STM32F3xx_HAL_Driver/Src/stm32f3xx_hal_tim_ex.c ****   /* Disable the Peripheral */
 355:Drivers/STM32F3xx_HAL_Driver/Src/stm32f3xx_hal_tim_ex.c ****   __HAL_TIM_DISABLE(htim);
 432              		.loc 1 355 0
 433 0016 7B68     		ldr	r3, [r7, #4]
 434 0018 1B68     		ldr	r3, [r3]
 435 001a 1A6A     		ldr	r2, [r3, #32]
 436 001c 41F21113 		movw	r3, #4369
 437 0020 1340     		ands	r3, r3, r2
 438 0022 002B     		cmp	r3, #0
 439 0024 0FD1     		bne	.L14
 440              		.loc 1 355 0 is_stmt 0 discriminator 1
 441 0026 7B68     		ldr	r3, [r7, #4]
 442 0028 1B68     		ldr	r3, [r3]
 443 002a 1A6A     		ldr	r2, [r3, #32]
 444 002c 40F24443 		movw	r3, #1092
 445 0030 1340     		ands	r3, r3, r2
 446 0032 002B     		cmp	r3, #0
 447 0034 07D1     		bne	.L14
 448 0036 7B68     		ldr	r3, [r7, #4]
 449 0038 1B68     		ldr	r3, [r3]
 450 003a 7A68     		ldr	r2, [r7, #4]
 451 003c 1268     		ldr	r2, [r2]
 452 003e 1268     		ldr	r2, [r2]
 453 0040 22F00102 		bic	r2, r2, #1
 454 0044 1A60     		str	r2, [r3]
ARM GAS  /tmp/ccRzvoJq.s 			page 15


 455              	.L14:
 356:Drivers/STM32F3xx_HAL_Driver/Src/stm32f3xx_hal_tim_ex.c ****   
 357:Drivers/STM32F3xx_HAL_Driver/Src/stm32f3xx_hal_tim_ex.c ****   /* Return function status */
 358:Drivers/STM32F3xx_HAL_Driver/Src/stm32f3xx_hal_tim_ex.c ****   return HAL_OK;
 456              		.loc 1 358 0 is_stmt 1
 457 0046 0023     		movs	r3, #0
 359:Drivers/STM32F3xx_HAL_Driver/Src/stm32f3xx_hal_tim_ex.c **** }
 458              		.loc 1 359 0
 459 0048 1846     		mov	r0, r3
 460 004a 0837     		adds	r7, r7, #8
 461 004c BD46     		mov	sp, r7
 462              		@ sp needed
 463 004e 80BD     		pop	{r7, pc}
 464              		.cfi_endproc
 465              	.LFE130:
 467              		.section	.text.HAL_TIMEx_HallSensor_Start_IT,"ax",%progbits
 468              		.align	2
 469              		.global	HAL_TIMEx_HallSensor_Start_IT
 470              		.thumb
 471              		.thumb_func
 473              	HAL_TIMEx_HallSensor_Start_IT:
 474              	.LFB131:
 360:Drivers/STM32F3xx_HAL_Driver/Src/stm32f3xx_hal_tim_ex.c **** 
 361:Drivers/STM32F3xx_HAL_Driver/Src/stm32f3xx_hal_tim_ex.c **** /**
 362:Drivers/STM32F3xx_HAL_Driver/Src/stm32f3xx_hal_tim_ex.c ****   * @brief  Starts the TIM Hall Sensor Interface in interrupt mode.
 363:Drivers/STM32F3xx_HAL_Driver/Src/stm32f3xx_hal_tim_ex.c ****   * @param  htim: TIM Hall Sensor handle
 364:Drivers/STM32F3xx_HAL_Driver/Src/stm32f3xx_hal_tim_ex.c ****   * @retval HAL status
 365:Drivers/STM32F3xx_HAL_Driver/Src/stm32f3xx_hal_tim_ex.c ****   */
 366:Drivers/STM32F3xx_HAL_Driver/Src/stm32f3xx_hal_tim_ex.c **** HAL_StatusTypeDef HAL_TIMEx_HallSensor_Start_IT(TIM_HandleTypeDef *htim)
 367:Drivers/STM32F3xx_HAL_Driver/Src/stm32f3xx_hal_tim_ex.c **** { 
 475              		.loc 1 367 0
 476              		.cfi_startproc
 477              		@ args = 0, pretend = 0, frame = 8
 478              		@ frame_needed = 1, uses_anonymous_args = 0
 479 0000 80B5     		push	{r7, lr}
 480              	.LCFI18:
 481              		.cfi_def_cfa_offset 8
 482              		.cfi_offset 7, -8
 483              		.cfi_offset 14, -4
 484 0002 82B0     		sub	sp, sp, #8
 485              	.LCFI19:
 486              		.cfi_def_cfa_offset 16
 487 0004 00AF     		add	r7, sp, #0
 488              	.LCFI20:
 489              		.cfi_def_cfa_register 7
 490 0006 7860     		str	r0, [r7, #4]
 368:Drivers/STM32F3xx_HAL_Driver/Src/stm32f3xx_hal_tim_ex.c ****   /* Check the parameters */
 369:Drivers/STM32F3xx_HAL_Driver/Src/stm32f3xx_hal_tim_ex.c ****   assert_param(IS_TIM_HALL_INTERFACE_INSTANCE(htim->Instance));
 370:Drivers/STM32F3xx_HAL_Driver/Src/stm32f3xx_hal_tim_ex.c ****   
 371:Drivers/STM32F3xx_HAL_Driver/Src/stm32f3xx_hal_tim_ex.c ****   /* Enable the capture compare Interrupts 1 event */
 372:Drivers/STM32F3xx_HAL_Driver/Src/stm32f3xx_hal_tim_ex.c ****   __HAL_TIM_ENABLE_IT(htim, TIM_IT_CC1);
 491              		.loc 1 372 0
 492 0008 7B68     		ldr	r3, [r7, #4]
 493 000a 1B68     		ldr	r3, [r3]
 494 000c 7A68     		ldr	r2, [r7, #4]
 495 000e 1268     		ldr	r2, [r2]
 496 0010 D268     		ldr	r2, [r2, #12]
ARM GAS  /tmp/ccRzvoJq.s 			page 16


 497 0012 42F00202 		orr	r2, r2, #2
 498 0016 DA60     		str	r2, [r3, #12]
 373:Drivers/STM32F3xx_HAL_Driver/Src/stm32f3xx_hal_tim_ex.c ****   
 374:Drivers/STM32F3xx_HAL_Driver/Src/stm32f3xx_hal_tim_ex.c ****   /* Enable the Input Capture channel 1
 375:Drivers/STM32F3xx_HAL_Driver/Src/stm32f3xx_hal_tim_ex.c ****     (in the Hall Sensor Interface the three possible channels that can be used are TIM_CHANNEL_1, T
 376:Drivers/STM32F3xx_HAL_Driver/Src/stm32f3xx_hal_tim_ex.c ****   TIM_CCxChannelCmd(htim->Instance, TIM_CHANNEL_1, TIM_CCx_ENABLE);  
 499              		.loc 1 376 0
 500 0018 7B68     		ldr	r3, [r7, #4]
 501 001a 1B68     		ldr	r3, [r3]
 502 001c 1846     		mov	r0, r3
 503 001e 0021     		movs	r1, #0
 504 0020 0122     		movs	r2, #1
 505 0022 FFF7FEFF 		bl	TIM_CCxChannelCmd
 377:Drivers/STM32F3xx_HAL_Driver/Src/stm32f3xx_hal_tim_ex.c ****   
 378:Drivers/STM32F3xx_HAL_Driver/Src/stm32f3xx_hal_tim_ex.c ****   /* Enable the Peripheral */
 379:Drivers/STM32F3xx_HAL_Driver/Src/stm32f3xx_hal_tim_ex.c ****   __HAL_TIM_ENABLE(htim);
 506              		.loc 1 379 0
 507 0026 7B68     		ldr	r3, [r7, #4]
 508 0028 1B68     		ldr	r3, [r3]
 509 002a 7A68     		ldr	r2, [r7, #4]
 510 002c 1268     		ldr	r2, [r2]
 511 002e 1268     		ldr	r2, [r2]
 512 0030 42F00102 		orr	r2, r2, #1
 513 0034 1A60     		str	r2, [r3]
 380:Drivers/STM32F3xx_HAL_Driver/Src/stm32f3xx_hal_tim_ex.c ****   
 381:Drivers/STM32F3xx_HAL_Driver/Src/stm32f3xx_hal_tim_ex.c ****   /* Return function status */
 382:Drivers/STM32F3xx_HAL_Driver/Src/stm32f3xx_hal_tim_ex.c ****   return HAL_OK;
 514              		.loc 1 382 0
 515 0036 0023     		movs	r3, #0
 383:Drivers/STM32F3xx_HAL_Driver/Src/stm32f3xx_hal_tim_ex.c **** }
 516              		.loc 1 383 0
 517 0038 1846     		mov	r0, r3
 518 003a 0837     		adds	r7, r7, #8
 519 003c BD46     		mov	sp, r7
 520              		@ sp needed
 521 003e 80BD     		pop	{r7, pc}
 522              		.cfi_endproc
 523              	.LFE131:
 525              		.section	.text.HAL_TIMEx_HallSensor_Stop_IT,"ax",%progbits
 526              		.align	2
 527              		.global	HAL_TIMEx_HallSensor_Stop_IT
 528              		.thumb
 529              		.thumb_func
 531              	HAL_TIMEx_HallSensor_Stop_IT:
 532              	.LFB132:
 384:Drivers/STM32F3xx_HAL_Driver/Src/stm32f3xx_hal_tim_ex.c **** 
 385:Drivers/STM32F3xx_HAL_Driver/Src/stm32f3xx_hal_tim_ex.c **** /**
 386:Drivers/STM32F3xx_HAL_Driver/Src/stm32f3xx_hal_tim_ex.c ****   * @brief  Stops the TIM Hall Sensor Interface in interrupt mode.
 387:Drivers/STM32F3xx_HAL_Driver/Src/stm32f3xx_hal_tim_ex.c ****   * @param  htim: TIM handle
 388:Drivers/STM32F3xx_HAL_Driver/Src/stm32f3xx_hal_tim_ex.c ****   * @retval HAL status
 389:Drivers/STM32F3xx_HAL_Driver/Src/stm32f3xx_hal_tim_ex.c ****   */
 390:Drivers/STM32F3xx_HAL_Driver/Src/stm32f3xx_hal_tim_ex.c **** HAL_StatusTypeDef HAL_TIMEx_HallSensor_Stop_IT(TIM_HandleTypeDef *htim)
 391:Drivers/STM32F3xx_HAL_Driver/Src/stm32f3xx_hal_tim_ex.c **** {
 533              		.loc 1 391 0
 534              		.cfi_startproc
 535              		@ args = 0, pretend = 0, frame = 8
 536              		@ frame_needed = 1, uses_anonymous_args = 0
ARM GAS  /tmp/ccRzvoJq.s 			page 17


 537 0000 80B5     		push	{r7, lr}
 538              	.LCFI21:
 539              		.cfi_def_cfa_offset 8
 540              		.cfi_offset 7, -8
 541              		.cfi_offset 14, -4
 542 0002 82B0     		sub	sp, sp, #8
 543              	.LCFI22:
 544              		.cfi_def_cfa_offset 16
 545 0004 00AF     		add	r7, sp, #0
 546              	.LCFI23:
 547              		.cfi_def_cfa_register 7
 548 0006 7860     		str	r0, [r7, #4]
 392:Drivers/STM32F3xx_HAL_Driver/Src/stm32f3xx_hal_tim_ex.c ****   /* Check the parameters */
 393:Drivers/STM32F3xx_HAL_Driver/Src/stm32f3xx_hal_tim_ex.c ****   assert_param(IS_TIM_HALL_INTERFACE_INSTANCE(htim->Instance));
 394:Drivers/STM32F3xx_HAL_Driver/Src/stm32f3xx_hal_tim_ex.c ****   
 395:Drivers/STM32F3xx_HAL_Driver/Src/stm32f3xx_hal_tim_ex.c ****   /* Disable the Input Capture channel 1
 396:Drivers/STM32F3xx_HAL_Driver/Src/stm32f3xx_hal_tim_ex.c ****     (in the Hall Sensor Interface the three possible channels that can be used are TIM_CHANNEL_1, T
 397:Drivers/STM32F3xx_HAL_Driver/Src/stm32f3xx_hal_tim_ex.c ****   TIM_CCxChannelCmd(htim->Instance, TIM_CHANNEL_1, TIM_CCx_DISABLE); 
 549              		.loc 1 397 0
 550 0008 7B68     		ldr	r3, [r7, #4]
 551 000a 1B68     		ldr	r3, [r3]
 552 000c 1846     		mov	r0, r3
 553 000e 0021     		movs	r1, #0
 554 0010 0022     		movs	r2, #0
 555 0012 FFF7FEFF 		bl	TIM_CCxChannelCmd
 398:Drivers/STM32F3xx_HAL_Driver/Src/stm32f3xx_hal_tim_ex.c ****   
 399:Drivers/STM32F3xx_HAL_Driver/Src/stm32f3xx_hal_tim_ex.c ****   /* Disable the capture compare Interrupts event */
 400:Drivers/STM32F3xx_HAL_Driver/Src/stm32f3xx_hal_tim_ex.c ****   __HAL_TIM_DISABLE_IT(htim, TIM_IT_CC1);
 556              		.loc 1 400 0
 557 0016 7B68     		ldr	r3, [r7, #4]
 558 0018 1B68     		ldr	r3, [r3]
 559 001a 7A68     		ldr	r2, [r7, #4]
 560 001c 1268     		ldr	r2, [r2]
 561 001e D268     		ldr	r2, [r2, #12]
 562 0020 22F00202 		bic	r2, r2, #2
 563 0024 DA60     		str	r2, [r3, #12]
 401:Drivers/STM32F3xx_HAL_Driver/Src/stm32f3xx_hal_tim_ex.c ****   
 402:Drivers/STM32F3xx_HAL_Driver/Src/stm32f3xx_hal_tim_ex.c ****   /* Disable the Peripheral */
 403:Drivers/STM32F3xx_HAL_Driver/Src/stm32f3xx_hal_tim_ex.c ****   __HAL_TIM_DISABLE(htim);
 564              		.loc 1 403 0
 565 0026 7B68     		ldr	r3, [r7, #4]
 566 0028 1B68     		ldr	r3, [r3]
 567 002a 1A6A     		ldr	r2, [r3, #32]
 568 002c 41F21113 		movw	r3, #4369
 569 0030 1340     		ands	r3, r3, r2
 570 0032 002B     		cmp	r3, #0
 571 0034 0FD1     		bne	.L19
 572              		.loc 1 403 0 is_stmt 0 discriminator 1
 573 0036 7B68     		ldr	r3, [r7, #4]
 574 0038 1B68     		ldr	r3, [r3]
 575 003a 1A6A     		ldr	r2, [r3, #32]
 576 003c 40F24443 		movw	r3, #1092
 577 0040 1340     		ands	r3, r3, r2
 578 0042 002B     		cmp	r3, #0
 579 0044 07D1     		bne	.L19
 580 0046 7B68     		ldr	r3, [r7, #4]
 581 0048 1B68     		ldr	r3, [r3]
ARM GAS  /tmp/ccRzvoJq.s 			page 18


 582 004a 7A68     		ldr	r2, [r7, #4]
 583 004c 1268     		ldr	r2, [r2]
 584 004e 1268     		ldr	r2, [r2]
 585 0050 22F00102 		bic	r2, r2, #1
 586 0054 1A60     		str	r2, [r3]
 587              	.L19:
 404:Drivers/STM32F3xx_HAL_Driver/Src/stm32f3xx_hal_tim_ex.c ****   
 405:Drivers/STM32F3xx_HAL_Driver/Src/stm32f3xx_hal_tim_ex.c ****   /* Return function status */
 406:Drivers/STM32F3xx_HAL_Driver/Src/stm32f3xx_hal_tim_ex.c ****   return HAL_OK;
 588              		.loc 1 406 0 is_stmt 1
 589 0056 0023     		movs	r3, #0
 407:Drivers/STM32F3xx_HAL_Driver/Src/stm32f3xx_hal_tim_ex.c **** }
 590              		.loc 1 407 0
 591 0058 1846     		mov	r0, r3
 592 005a 0837     		adds	r7, r7, #8
 593 005c BD46     		mov	sp, r7
 594              		@ sp needed
 595 005e 80BD     		pop	{r7, pc}
 596              		.cfi_endproc
 597              	.LFE132:
 599              		.section	.text.HAL_TIMEx_HallSensor_Start_DMA,"ax",%progbits
 600              		.align	2
 601              		.global	HAL_TIMEx_HallSensor_Start_DMA
 602              		.thumb
 603              		.thumb_func
 605              	HAL_TIMEx_HallSensor_Start_DMA:
 606              	.LFB133:
 408:Drivers/STM32F3xx_HAL_Driver/Src/stm32f3xx_hal_tim_ex.c **** 
 409:Drivers/STM32F3xx_HAL_Driver/Src/stm32f3xx_hal_tim_ex.c **** /**
 410:Drivers/STM32F3xx_HAL_Driver/Src/stm32f3xx_hal_tim_ex.c ****   * @brief  Starts the TIM Hall Sensor Interface in DMA mode.
 411:Drivers/STM32F3xx_HAL_Driver/Src/stm32f3xx_hal_tim_ex.c ****   * @param  htim: TIM Hall Sensor handle
 412:Drivers/STM32F3xx_HAL_Driver/Src/stm32f3xx_hal_tim_ex.c ****   * @param  pData: The destination Buffer address.
 413:Drivers/STM32F3xx_HAL_Driver/Src/stm32f3xx_hal_tim_ex.c ****   * @param  Length: The length of data to be transferred from TIM peripheral to memory.
 414:Drivers/STM32F3xx_HAL_Driver/Src/stm32f3xx_hal_tim_ex.c ****   * @retval HAL status
 415:Drivers/STM32F3xx_HAL_Driver/Src/stm32f3xx_hal_tim_ex.c ****   */
 416:Drivers/STM32F3xx_HAL_Driver/Src/stm32f3xx_hal_tim_ex.c **** HAL_StatusTypeDef HAL_TIMEx_HallSensor_Start_DMA(TIM_HandleTypeDef *htim, uint32_t *pData, uint16_t
 417:Drivers/STM32F3xx_HAL_Driver/Src/stm32f3xx_hal_tim_ex.c **** {
 607              		.loc 1 417 0
 608              		.cfi_startproc
 609              		@ args = 0, pretend = 0, frame = 16
 610              		@ frame_needed = 1, uses_anonymous_args = 0
 611 0000 80B5     		push	{r7, lr}
 612              	.LCFI24:
 613              		.cfi_def_cfa_offset 8
 614              		.cfi_offset 7, -8
 615              		.cfi_offset 14, -4
 616 0002 84B0     		sub	sp, sp, #16
 617              	.LCFI25:
 618              		.cfi_def_cfa_offset 24
 619 0004 00AF     		add	r7, sp, #0
 620              	.LCFI26:
 621              		.cfi_def_cfa_register 7
 622 0006 F860     		str	r0, [r7, #12]
 623 0008 B960     		str	r1, [r7, #8]
 624 000a 1346     		mov	r3, r2
 625 000c FB80     		strh	r3, [r7, #6]	@ movhi
 418:Drivers/STM32F3xx_HAL_Driver/Src/stm32f3xx_hal_tim_ex.c ****   /* Check the parameters */
ARM GAS  /tmp/ccRzvoJq.s 			page 19


 419:Drivers/STM32F3xx_HAL_Driver/Src/stm32f3xx_hal_tim_ex.c ****   assert_param(IS_TIM_HALL_INTERFACE_INSTANCE(htim->Instance));
 420:Drivers/STM32F3xx_HAL_Driver/Src/stm32f3xx_hal_tim_ex.c ****   
 421:Drivers/STM32F3xx_HAL_Driver/Src/stm32f3xx_hal_tim_ex.c ****    if((htim->State == HAL_TIM_STATE_BUSY))
 626              		.loc 1 421 0
 627 000e FB68     		ldr	r3, [r7, #12]
 628 0010 93F83930 		ldrb	r3, [r3, #57]
 629 0014 DBB2     		uxtb	r3, r3
 630 0016 022B     		cmp	r3, #2
 631 0018 01D1     		bne	.L22
 422:Drivers/STM32F3xx_HAL_Driver/Src/stm32f3xx_hal_tim_ex.c ****   {
 423:Drivers/STM32F3xx_HAL_Driver/Src/stm32f3xx_hal_tim_ex.c ****      return HAL_BUSY;
 632              		.loc 1 423 0
 633 001a 0223     		movs	r3, #2
 634 001c 3BE0     		b	.L23
 635              	.L22:
 424:Drivers/STM32F3xx_HAL_Driver/Src/stm32f3xx_hal_tim_ex.c ****   }
 425:Drivers/STM32F3xx_HAL_Driver/Src/stm32f3xx_hal_tim_ex.c ****   else if((htim->State == HAL_TIM_STATE_READY))
 636              		.loc 1 425 0
 637 001e FB68     		ldr	r3, [r7, #12]
 638 0020 93F83930 		ldrb	r3, [r3, #57]
 639 0024 DBB2     		uxtb	r3, r3
 640 0026 012B     		cmp	r3, #1
 641 0028 0BD1     		bne	.L24
 426:Drivers/STM32F3xx_HAL_Driver/Src/stm32f3xx_hal_tim_ex.c ****   {
 427:Drivers/STM32F3xx_HAL_Driver/Src/stm32f3xx_hal_tim_ex.c ****     if(((uint32_t)pData == 0 ) && (Length > 0)) 
 642              		.loc 1 427 0
 643 002a BB68     		ldr	r3, [r7, #8]
 644 002c 002B     		cmp	r3, #0
 645 002e 04D1     		bne	.L25
 646              		.loc 1 427 0 is_stmt 0 discriminator 1
 647 0030 FB88     		ldrh	r3, [r7, #6]
 648 0032 002B     		cmp	r3, #0
 649 0034 01D0     		beq	.L25
 428:Drivers/STM32F3xx_HAL_Driver/Src/stm32f3xx_hal_tim_ex.c ****     {
 429:Drivers/STM32F3xx_HAL_Driver/Src/stm32f3xx_hal_tim_ex.c ****       return HAL_ERROR;                                    
 650              		.loc 1 429 0 is_stmt 1
 651 0036 0123     		movs	r3, #1
 652 0038 2DE0     		b	.L23
 653              	.L25:
 430:Drivers/STM32F3xx_HAL_Driver/Src/stm32f3xx_hal_tim_ex.c ****     }
 431:Drivers/STM32F3xx_HAL_Driver/Src/stm32f3xx_hal_tim_ex.c ****     else
 432:Drivers/STM32F3xx_HAL_Driver/Src/stm32f3xx_hal_tim_ex.c ****     {
 433:Drivers/STM32F3xx_HAL_Driver/Src/stm32f3xx_hal_tim_ex.c ****       htim->State = HAL_TIM_STATE_BUSY;
 654              		.loc 1 433 0
 655 003a FB68     		ldr	r3, [r7, #12]
 656 003c 0222     		movs	r2, #2
 657 003e 83F83920 		strb	r2, [r3, #57]
 658              	.L24:
 434:Drivers/STM32F3xx_HAL_Driver/Src/stm32f3xx_hal_tim_ex.c ****     }
 435:Drivers/STM32F3xx_HAL_Driver/Src/stm32f3xx_hal_tim_ex.c ****   }
 436:Drivers/STM32F3xx_HAL_Driver/Src/stm32f3xx_hal_tim_ex.c ****   /* Enable the Input Capture channel 1
 437:Drivers/STM32F3xx_HAL_Driver/Src/stm32f3xx_hal_tim_ex.c ****     (in the Hall Sensor Interface the three possible channels that can be used are TIM_CHANNEL_1, T
 438:Drivers/STM32F3xx_HAL_Driver/Src/stm32f3xx_hal_tim_ex.c ****   TIM_CCxChannelCmd(htim->Instance, TIM_CHANNEL_1, TIM_CCx_ENABLE); 
 659              		.loc 1 438 0
 660 0042 FB68     		ldr	r3, [r7, #12]
 661 0044 1B68     		ldr	r3, [r3]
 662 0046 1846     		mov	r0, r3
ARM GAS  /tmp/ccRzvoJq.s 			page 20


 663 0048 0021     		movs	r1, #0
 664 004a 0122     		movs	r2, #1
 665 004c FFF7FEFF 		bl	TIM_CCxChannelCmd
 439:Drivers/STM32F3xx_HAL_Driver/Src/stm32f3xx_hal_tim_ex.c ****   
 440:Drivers/STM32F3xx_HAL_Driver/Src/stm32f3xx_hal_tim_ex.c ****   /* Set the DMA Input Capture 1 Callback */
 441:Drivers/STM32F3xx_HAL_Driver/Src/stm32f3xx_hal_tim_ex.c ****   htim->hdma[TIM_DMA_ID_CC1]->XferCpltCallback = TIM_DMACaptureCplt;     
 666              		.loc 1 441 0
 667 0050 FB68     		ldr	r3, [r7, #12]
 668 0052 1B6A     		ldr	r3, [r3, #32]
 669 0054 124A     		ldr	r2, .L26
 670 0056 9A62     		str	r2, [r3, #40]
 442:Drivers/STM32F3xx_HAL_Driver/Src/stm32f3xx_hal_tim_ex.c ****   /* Set the DMA error callback */
 443:Drivers/STM32F3xx_HAL_Driver/Src/stm32f3xx_hal_tim_ex.c ****   htim->hdma[TIM_DMA_ID_CC1]->XferErrorCallback = TIM_DMAError ;
 671              		.loc 1 443 0
 672 0058 FB68     		ldr	r3, [r7, #12]
 673 005a 1B6A     		ldr	r3, [r3, #32]
 674 005c 114A     		ldr	r2, .L26+4
 675 005e 1A63     		str	r2, [r3, #48]
 444:Drivers/STM32F3xx_HAL_Driver/Src/stm32f3xx_hal_tim_ex.c ****   
 445:Drivers/STM32F3xx_HAL_Driver/Src/stm32f3xx_hal_tim_ex.c ****   /* Enable the DMA channel for Capture 1*/
 446:Drivers/STM32F3xx_HAL_Driver/Src/stm32f3xx_hal_tim_ex.c ****   HAL_DMA_Start_IT(htim->hdma[TIM_DMA_ID_CC1], (uint32_t)&htim->Instance->CCR1, (uint32_t)pData, Le
 676              		.loc 1 446 0
 677 0060 FB68     		ldr	r3, [r7, #12]
 678 0062 186A     		ldr	r0, [r3, #32]
 679 0064 FB68     		ldr	r3, [r7, #12]
 680 0066 1B68     		ldr	r3, [r3]
 681 0068 3433     		adds	r3, r3, #52
 682 006a 1946     		mov	r1, r3
 683 006c BA68     		ldr	r2, [r7, #8]
 684 006e FB88     		ldrh	r3, [r7, #6]
 685 0070 FFF7FEFF 		bl	HAL_DMA_Start_IT
 447:Drivers/STM32F3xx_HAL_Driver/Src/stm32f3xx_hal_tim_ex.c ****   
 448:Drivers/STM32F3xx_HAL_Driver/Src/stm32f3xx_hal_tim_ex.c ****   /* Enable the capture compare 1 Interrupt */
 449:Drivers/STM32F3xx_HAL_Driver/Src/stm32f3xx_hal_tim_ex.c ****   __HAL_TIM_ENABLE_DMA(htim, TIM_DMA_CC1);
 686              		.loc 1 449 0
 687 0074 FB68     		ldr	r3, [r7, #12]
 688 0076 1B68     		ldr	r3, [r3]
 689 0078 FA68     		ldr	r2, [r7, #12]
 690 007a 1268     		ldr	r2, [r2]
 691 007c D268     		ldr	r2, [r2, #12]
 692 007e 42F40072 		orr	r2, r2, #512
 693 0082 DA60     		str	r2, [r3, #12]
 450:Drivers/STM32F3xx_HAL_Driver/Src/stm32f3xx_hal_tim_ex.c ****  
 451:Drivers/STM32F3xx_HAL_Driver/Src/stm32f3xx_hal_tim_ex.c ****   /* Enable the Peripheral */
 452:Drivers/STM32F3xx_HAL_Driver/Src/stm32f3xx_hal_tim_ex.c ****   __HAL_TIM_ENABLE(htim);
 694              		.loc 1 452 0
 695 0084 FB68     		ldr	r3, [r7, #12]
 696 0086 1B68     		ldr	r3, [r3]
 697 0088 FA68     		ldr	r2, [r7, #12]
 698 008a 1268     		ldr	r2, [r2]
 699 008c 1268     		ldr	r2, [r2]
 700 008e 42F00102 		orr	r2, r2, #1
 701 0092 1A60     		str	r2, [r3]
 453:Drivers/STM32F3xx_HAL_Driver/Src/stm32f3xx_hal_tim_ex.c ****   
 454:Drivers/STM32F3xx_HAL_Driver/Src/stm32f3xx_hal_tim_ex.c ****   /* Return function status */
 455:Drivers/STM32F3xx_HAL_Driver/Src/stm32f3xx_hal_tim_ex.c ****   return HAL_OK;
 702              		.loc 1 455 0
ARM GAS  /tmp/ccRzvoJq.s 			page 21


 703 0094 0023     		movs	r3, #0
 704              	.L23:
 456:Drivers/STM32F3xx_HAL_Driver/Src/stm32f3xx_hal_tim_ex.c **** }
 705              		.loc 1 456 0
 706 0096 1846     		mov	r0, r3
 707 0098 1037     		adds	r7, r7, #16
 708 009a BD46     		mov	sp, r7
 709              		@ sp needed
 710 009c 80BD     		pop	{r7, pc}
 711              	.L27:
 712 009e 00BF     		.align	2
 713              	.L26:
 714 00a0 00000000 		.word	TIM_DMACaptureCplt
 715 00a4 00000000 		.word	TIM_DMAError
 716              		.cfi_endproc
 717              	.LFE133:
 719              		.section	.text.HAL_TIMEx_HallSensor_Stop_DMA,"ax",%progbits
 720              		.align	2
 721              		.global	HAL_TIMEx_HallSensor_Stop_DMA
 722              		.thumb
 723              		.thumb_func
 725              	HAL_TIMEx_HallSensor_Stop_DMA:
 726              	.LFB134:
 457:Drivers/STM32F3xx_HAL_Driver/Src/stm32f3xx_hal_tim_ex.c **** 
 458:Drivers/STM32F3xx_HAL_Driver/Src/stm32f3xx_hal_tim_ex.c **** /**
 459:Drivers/STM32F3xx_HAL_Driver/Src/stm32f3xx_hal_tim_ex.c ****   * @brief  Stops the TIM Hall Sensor Interface in DMA mode.
 460:Drivers/STM32F3xx_HAL_Driver/Src/stm32f3xx_hal_tim_ex.c ****   * @param  htim: TIM handle
 461:Drivers/STM32F3xx_HAL_Driver/Src/stm32f3xx_hal_tim_ex.c ****   * @retval HAL status
 462:Drivers/STM32F3xx_HAL_Driver/Src/stm32f3xx_hal_tim_ex.c ****   */
 463:Drivers/STM32F3xx_HAL_Driver/Src/stm32f3xx_hal_tim_ex.c **** HAL_StatusTypeDef HAL_TIMEx_HallSensor_Stop_DMA(TIM_HandleTypeDef *htim)
 464:Drivers/STM32F3xx_HAL_Driver/Src/stm32f3xx_hal_tim_ex.c **** {
 727              		.loc 1 464 0
 728              		.cfi_startproc
 729              		@ args = 0, pretend = 0, frame = 8
 730              		@ frame_needed = 1, uses_anonymous_args = 0
 731 0000 80B5     		push	{r7, lr}
 732              	.LCFI27:
 733              		.cfi_def_cfa_offset 8
 734              		.cfi_offset 7, -8
 735              		.cfi_offset 14, -4
 736 0002 82B0     		sub	sp, sp, #8
 737              	.LCFI28:
 738              		.cfi_def_cfa_offset 16
 739 0004 00AF     		add	r7, sp, #0
 740              	.LCFI29:
 741              		.cfi_def_cfa_register 7
 742 0006 7860     		str	r0, [r7, #4]
 465:Drivers/STM32F3xx_HAL_Driver/Src/stm32f3xx_hal_tim_ex.c ****   /* Check the parameters */
 466:Drivers/STM32F3xx_HAL_Driver/Src/stm32f3xx_hal_tim_ex.c ****   assert_param(IS_TIM_HALL_INTERFACE_INSTANCE(htim->Instance));
 467:Drivers/STM32F3xx_HAL_Driver/Src/stm32f3xx_hal_tim_ex.c ****   
 468:Drivers/STM32F3xx_HAL_Driver/Src/stm32f3xx_hal_tim_ex.c ****   /* Disable the Input Capture channel 1
 469:Drivers/STM32F3xx_HAL_Driver/Src/stm32f3xx_hal_tim_ex.c ****     (in the Hall Sensor Interface the three possible channels that can be used are TIM_CHANNEL_1, T
 470:Drivers/STM32F3xx_HAL_Driver/Src/stm32f3xx_hal_tim_ex.c ****   TIM_CCxChannelCmd(htim->Instance, TIM_CHANNEL_1, TIM_CCx_DISABLE); 
 743              		.loc 1 470 0
 744 0008 7B68     		ldr	r3, [r7, #4]
 745 000a 1B68     		ldr	r3, [r3]
 746 000c 1846     		mov	r0, r3
ARM GAS  /tmp/ccRzvoJq.s 			page 22


 747 000e 0021     		movs	r1, #0
 748 0010 0022     		movs	r2, #0
 749 0012 FFF7FEFF 		bl	TIM_CCxChannelCmd
 471:Drivers/STM32F3xx_HAL_Driver/Src/stm32f3xx_hal_tim_ex.c ****  
 472:Drivers/STM32F3xx_HAL_Driver/Src/stm32f3xx_hal_tim_ex.c ****   
 473:Drivers/STM32F3xx_HAL_Driver/Src/stm32f3xx_hal_tim_ex.c ****   /* Disable the capture compare Interrupts 1 event */
 474:Drivers/STM32F3xx_HAL_Driver/Src/stm32f3xx_hal_tim_ex.c ****   __HAL_TIM_DISABLE_DMA(htim, TIM_DMA_CC1);
 750              		.loc 1 474 0
 751 0016 7B68     		ldr	r3, [r7, #4]
 752 0018 1B68     		ldr	r3, [r3]
 753 001a 7A68     		ldr	r2, [r7, #4]
 754 001c 1268     		ldr	r2, [r2]
 755 001e D268     		ldr	r2, [r2, #12]
 756 0020 22F40072 		bic	r2, r2, #512
 757 0024 DA60     		str	r2, [r3, #12]
 475:Drivers/STM32F3xx_HAL_Driver/Src/stm32f3xx_hal_tim_ex.c ****  
 476:Drivers/STM32F3xx_HAL_Driver/Src/stm32f3xx_hal_tim_ex.c ****   /* Disable the Peripheral */
 477:Drivers/STM32F3xx_HAL_Driver/Src/stm32f3xx_hal_tim_ex.c ****   __HAL_TIM_DISABLE(htim);
 758              		.loc 1 477 0
 759 0026 7B68     		ldr	r3, [r7, #4]
 760 0028 1B68     		ldr	r3, [r3]
 761 002a 1A6A     		ldr	r2, [r3, #32]
 762 002c 41F21113 		movw	r3, #4369
 763 0030 1340     		ands	r3, r3, r2
 764 0032 002B     		cmp	r3, #0
 765 0034 0FD1     		bne	.L29
 766              		.loc 1 477 0 is_stmt 0 discriminator 1
 767 0036 7B68     		ldr	r3, [r7, #4]
 768 0038 1B68     		ldr	r3, [r3]
 769 003a 1A6A     		ldr	r2, [r3, #32]
 770 003c 40F24443 		movw	r3, #1092
 771 0040 1340     		ands	r3, r3, r2
 772 0042 002B     		cmp	r3, #0
 773 0044 07D1     		bne	.L29
 774 0046 7B68     		ldr	r3, [r7, #4]
 775 0048 1B68     		ldr	r3, [r3]
 776 004a 7A68     		ldr	r2, [r7, #4]
 777 004c 1268     		ldr	r2, [r2]
 778 004e 1268     		ldr	r2, [r2]
 779 0050 22F00102 		bic	r2, r2, #1
 780 0054 1A60     		str	r2, [r3]
 781              	.L29:
 478:Drivers/STM32F3xx_HAL_Driver/Src/stm32f3xx_hal_tim_ex.c ****   
 479:Drivers/STM32F3xx_HAL_Driver/Src/stm32f3xx_hal_tim_ex.c ****   /* Return function status */
 480:Drivers/STM32F3xx_HAL_Driver/Src/stm32f3xx_hal_tim_ex.c ****   return HAL_OK;
 782              		.loc 1 480 0 is_stmt 1
 783 0056 0023     		movs	r3, #0
 481:Drivers/STM32F3xx_HAL_Driver/Src/stm32f3xx_hal_tim_ex.c **** }
 784              		.loc 1 481 0
 785 0058 1846     		mov	r0, r3
 786 005a 0837     		adds	r7, r7, #8
 787 005c BD46     		mov	sp, r7
 788              		@ sp needed
 789 005e 80BD     		pop	{r7, pc}
 790              		.cfi_endproc
 791              	.LFE134:
 793              		.section	.text.HAL_TIMEx_OCN_Start,"ax",%progbits
ARM GAS  /tmp/ccRzvoJq.s 			page 23


 794              		.align	2
 795              		.global	HAL_TIMEx_OCN_Start
 796              		.thumb
 797              		.thumb_func
 799              	HAL_TIMEx_OCN_Start:
 800              	.LFB135:
 482:Drivers/STM32F3xx_HAL_Driver/Src/stm32f3xx_hal_tim_ex.c **** 
 483:Drivers/STM32F3xx_HAL_Driver/Src/stm32f3xx_hal_tim_ex.c **** /**
 484:Drivers/STM32F3xx_HAL_Driver/Src/stm32f3xx_hal_tim_ex.c ****   * @}
 485:Drivers/STM32F3xx_HAL_Driver/Src/stm32f3xx_hal_tim_ex.c ****   */
 486:Drivers/STM32F3xx_HAL_Driver/Src/stm32f3xx_hal_tim_ex.c ****   
 487:Drivers/STM32F3xx_HAL_Driver/Src/stm32f3xx_hal_tim_ex.c **** /** @defgroup TIMEx_Exported_Functions_Group2 Timer Complementary Output Compare functions
 488:Drivers/STM32F3xx_HAL_Driver/Src/stm32f3xx_hal_tim_ex.c ****   *  @brief   Timer Complementary Output Compare functions
 489:Drivers/STM32F3xx_HAL_Driver/Src/stm32f3xx_hal_tim_ex.c ****   *
 490:Drivers/STM32F3xx_HAL_Driver/Src/stm32f3xx_hal_tim_ex.c **** @verbatim   
 491:Drivers/STM32F3xx_HAL_Driver/Src/stm32f3xx_hal_tim_ex.c ****   ==============================================================================
 492:Drivers/STM32F3xx_HAL_Driver/Src/stm32f3xx_hal_tim_ex.c ****               ##### Timer Complementary Output Compare functions #####
 493:Drivers/STM32F3xx_HAL_Driver/Src/stm32f3xx_hal_tim_ex.c ****   ==============================================================================  
 494:Drivers/STM32F3xx_HAL_Driver/Src/stm32f3xx_hal_tim_ex.c ****   [..]  
 495:Drivers/STM32F3xx_HAL_Driver/Src/stm32f3xx_hal_tim_ex.c ****     This section provides functions allowing to:
 496:Drivers/STM32F3xx_HAL_Driver/Src/stm32f3xx_hal_tim_ex.c ****     (+) Start the Complementary Output Compare.
 497:Drivers/STM32F3xx_HAL_Driver/Src/stm32f3xx_hal_tim_ex.c ****     (+) Stop the Complementary Output Compare.
 498:Drivers/STM32F3xx_HAL_Driver/Src/stm32f3xx_hal_tim_ex.c ****     (+) Start the Complementary Output Compare and enable interrupts.
 499:Drivers/STM32F3xx_HAL_Driver/Src/stm32f3xx_hal_tim_ex.c ****     (+) Stop the Complementary Output Compare and disable interrupts.
 500:Drivers/STM32F3xx_HAL_Driver/Src/stm32f3xx_hal_tim_ex.c ****     (+) Start the Complementary Output Compare and enable DMA transfers.
 501:Drivers/STM32F3xx_HAL_Driver/Src/stm32f3xx_hal_tim_ex.c ****     (+) Stop the Complementary Output Compare and disable DMA transfers.
 502:Drivers/STM32F3xx_HAL_Driver/Src/stm32f3xx_hal_tim_ex.c ****                
 503:Drivers/STM32F3xx_HAL_Driver/Src/stm32f3xx_hal_tim_ex.c **** @endverbatim
 504:Drivers/STM32F3xx_HAL_Driver/Src/stm32f3xx_hal_tim_ex.c ****   * @{
 505:Drivers/STM32F3xx_HAL_Driver/Src/stm32f3xx_hal_tim_ex.c ****   */
 506:Drivers/STM32F3xx_HAL_Driver/Src/stm32f3xx_hal_tim_ex.c ****   
 507:Drivers/STM32F3xx_HAL_Driver/Src/stm32f3xx_hal_tim_ex.c **** /**
 508:Drivers/STM32F3xx_HAL_Driver/Src/stm32f3xx_hal_tim_ex.c ****   * @brief  Starts the TIM Output Compare signal generation on the complementary
 509:Drivers/STM32F3xx_HAL_Driver/Src/stm32f3xx_hal_tim_ex.c ****   *         output.
 510:Drivers/STM32F3xx_HAL_Driver/Src/stm32f3xx_hal_tim_ex.c ****   * @param  htim: TIM Output Compare handle  
 511:Drivers/STM32F3xx_HAL_Driver/Src/stm32f3xx_hal_tim_ex.c ****   * @param  Channel: TIM Channel to be enabled
 512:Drivers/STM32F3xx_HAL_Driver/Src/stm32f3xx_hal_tim_ex.c ****   *          This parameter can be one of the following values:
 513:Drivers/STM32F3xx_HAL_Driver/Src/stm32f3xx_hal_tim_ex.c ****   *            @arg TIM_CHANNEL_1: TIM Channel 1 selected
 514:Drivers/STM32F3xx_HAL_Driver/Src/stm32f3xx_hal_tim_ex.c ****   *            @arg TIM_CHANNEL_2: TIM Channel 2 selected
 515:Drivers/STM32F3xx_HAL_Driver/Src/stm32f3xx_hal_tim_ex.c ****   *            @arg TIM_CHANNEL_3: TIM Channel 3 selected
 516:Drivers/STM32F3xx_HAL_Driver/Src/stm32f3xx_hal_tim_ex.c ****   *            @arg TIM_CHANNEL_4: TIM Channel 4 selected
 517:Drivers/STM32F3xx_HAL_Driver/Src/stm32f3xx_hal_tim_ex.c ****   * @retval HAL status
 518:Drivers/STM32F3xx_HAL_Driver/Src/stm32f3xx_hal_tim_ex.c ****   */
 519:Drivers/STM32F3xx_HAL_Driver/Src/stm32f3xx_hal_tim_ex.c **** HAL_StatusTypeDef HAL_TIMEx_OCN_Start(TIM_HandleTypeDef *htim, uint32_t Channel)
 520:Drivers/STM32F3xx_HAL_Driver/Src/stm32f3xx_hal_tim_ex.c **** {
 801              		.loc 1 520 0
 802              		.cfi_startproc
 803              		@ args = 0, pretend = 0, frame = 8
 804              		@ frame_needed = 1, uses_anonymous_args = 0
 805 0000 80B5     		push	{r7, lr}
 806              	.LCFI30:
 807              		.cfi_def_cfa_offset 8
 808              		.cfi_offset 7, -8
 809              		.cfi_offset 14, -4
 810 0002 82B0     		sub	sp, sp, #8
 811              	.LCFI31:
 812              		.cfi_def_cfa_offset 16
ARM GAS  /tmp/ccRzvoJq.s 			page 24


 813 0004 00AF     		add	r7, sp, #0
 814              	.LCFI32:
 815              		.cfi_def_cfa_register 7
 816 0006 7860     		str	r0, [r7, #4]
 817 0008 3960     		str	r1, [r7]
 521:Drivers/STM32F3xx_HAL_Driver/Src/stm32f3xx_hal_tim_ex.c ****   /* Check the parameters */
 522:Drivers/STM32F3xx_HAL_Driver/Src/stm32f3xx_hal_tim_ex.c ****   assert_param(IS_TIM_CCXN_INSTANCE(htim->Instance, Channel)); 
 523:Drivers/STM32F3xx_HAL_Driver/Src/stm32f3xx_hal_tim_ex.c ****   
 524:Drivers/STM32F3xx_HAL_Driver/Src/stm32f3xx_hal_tim_ex.c ****      /* Enable the Capture compare channel N */
 525:Drivers/STM32F3xx_HAL_Driver/Src/stm32f3xx_hal_tim_ex.c ****      TIM_CCxNChannelCmd(htim->Instance, Channel, TIM_CCxN_ENABLE);
 818              		.loc 1 525 0
 819 000a 7B68     		ldr	r3, [r7, #4]
 820 000c 1B68     		ldr	r3, [r3]
 821 000e 1846     		mov	r0, r3
 822 0010 3968     		ldr	r1, [r7]
 823 0012 0422     		movs	r2, #4
 824 0014 FFF7FEFF 		bl	TIM_CCxNChannelCmd
 526:Drivers/STM32F3xx_HAL_Driver/Src/stm32f3xx_hal_tim_ex.c ****     
 527:Drivers/STM32F3xx_HAL_Driver/Src/stm32f3xx_hal_tim_ex.c ****   /* Enable the Main Ouput */
 528:Drivers/STM32F3xx_HAL_Driver/Src/stm32f3xx_hal_tim_ex.c ****     __HAL_TIM_MOE_ENABLE(htim);
 825              		.loc 1 528 0
 826 0018 7B68     		ldr	r3, [r7, #4]
 827 001a 1B68     		ldr	r3, [r3]
 828 001c 7A68     		ldr	r2, [r7, #4]
 829 001e 1268     		ldr	r2, [r2]
 830 0020 526C     		ldr	r2, [r2, #68]
 831 0022 42F40042 		orr	r2, r2, #32768
 832 0026 5A64     		str	r2, [r3, #68]
 529:Drivers/STM32F3xx_HAL_Driver/Src/stm32f3xx_hal_tim_ex.c **** 
 530:Drivers/STM32F3xx_HAL_Driver/Src/stm32f3xx_hal_tim_ex.c ****   /* Enable the Peripheral */
 531:Drivers/STM32F3xx_HAL_Driver/Src/stm32f3xx_hal_tim_ex.c ****   __HAL_TIM_ENABLE(htim);
 833              		.loc 1 531 0
 834 0028 7B68     		ldr	r3, [r7, #4]
 835 002a 1B68     		ldr	r3, [r3]
 836 002c 7A68     		ldr	r2, [r7, #4]
 837 002e 1268     		ldr	r2, [r2]
 838 0030 1268     		ldr	r2, [r2]
 839 0032 42F00102 		orr	r2, r2, #1
 840 0036 1A60     		str	r2, [r3]
 532:Drivers/STM32F3xx_HAL_Driver/Src/stm32f3xx_hal_tim_ex.c ****   
 533:Drivers/STM32F3xx_HAL_Driver/Src/stm32f3xx_hal_tim_ex.c ****   /* Return function status */
 534:Drivers/STM32F3xx_HAL_Driver/Src/stm32f3xx_hal_tim_ex.c ****   return HAL_OK;
 841              		.loc 1 534 0
 842 0038 0023     		movs	r3, #0
 535:Drivers/STM32F3xx_HAL_Driver/Src/stm32f3xx_hal_tim_ex.c **** } 
 843              		.loc 1 535 0
 844 003a 1846     		mov	r0, r3
 845 003c 0837     		adds	r7, r7, #8
 846 003e BD46     		mov	sp, r7
 847              		@ sp needed
 848 0040 80BD     		pop	{r7, pc}
 849              		.cfi_endproc
 850              	.LFE135:
 852 0042 00BF     		.section	.text.HAL_TIMEx_OCN_Stop,"ax",%progbits
 853              		.align	2
 854              		.global	HAL_TIMEx_OCN_Stop
 855              		.thumb
ARM GAS  /tmp/ccRzvoJq.s 			page 25


 856              		.thumb_func
 858              	HAL_TIMEx_OCN_Stop:
 859              	.LFB136:
 536:Drivers/STM32F3xx_HAL_Driver/Src/stm32f3xx_hal_tim_ex.c **** 
 537:Drivers/STM32F3xx_HAL_Driver/Src/stm32f3xx_hal_tim_ex.c **** /**
 538:Drivers/STM32F3xx_HAL_Driver/Src/stm32f3xx_hal_tim_ex.c ****   * @brief  Stops the TIM Output Compare signal generation on the complementary
 539:Drivers/STM32F3xx_HAL_Driver/Src/stm32f3xx_hal_tim_ex.c ****   *         output.
 540:Drivers/STM32F3xx_HAL_Driver/Src/stm32f3xx_hal_tim_ex.c ****   * @param  htim: TIM handle
 541:Drivers/STM32F3xx_HAL_Driver/Src/stm32f3xx_hal_tim_ex.c ****   * @param  Channel: TIM Channel to be disabled
 542:Drivers/STM32F3xx_HAL_Driver/Src/stm32f3xx_hal_tim_ex.c ****   *          This parameter can be one of the following values:
 543:Drivers/STM32F3xx_HAL_Driver/Src/stm32f3xx_hal_tim_ex.c ****   *            @arg TIM_CHANNEL_1: TIM Channel 1 selected
 544:Drivers/STM32F3xx_HAL_Driver/Src/stm32f3xx_hal_tim_ex.c ****   *            @arg TIM_CHANNEL_2: TIM Channel 2 selected
 545:Drivers/STM32F3xx_HAL_Driver/Src/stm32f3xx_hal_tim_ex.c ****   *            @arg TIM_CHANNEL_3: TIM Channel 3 selected
 546:Drivers/STM32F3xx_HAL_Driver/Src/stm32f3xx_hal_tim_ex.c ****   *            @arg TIM_CHANNEL_4: TIM Channel 4 selected
 547:Drivers/STM32F3xx_HAL_Driver/Src/stm32f3xx_hal_tim_ex.c ****   * @retval HAL status
 548:Drivers/STM32F3xx_HAL_Driver/Src/stm32f3xx_hal_tim_ex.c ****   */
 549:Drivers/STM32F3xx_HAL_Driver/Src/stm32f3xx_hal_tim_ex.c **** HAL_StatusTypeDef HAL_TIMEx_OCN_Stop(TIM_HandleTypeDef *htim, uint32_t Channel)
 550:Drivers/STM32F3xx_HAL_Driver/Src/stm32f3xx_hal_tim_ex.c **** { 
 860              		.loc 1 550 0
 861              		.cfi_startproc
 862              		@ args = 0, pretend = 0, frame = 8
 863              		@ frame_needed = 1, uses_anonymous_args = 0
 864 0000 80B5     		push	{r7, lr}
 865              	.LCFI33:
 866              		.cfi_def_cfa_offset 8
 867              		.cfi_offset 7, -8
 868              		.cfi_offset 14, -4
 869 0002 82B0     		sub	sp, sp, #8
 870              	.LCFI34:
 871              		.cfi_def_cfa_offset 16
 872 0004 00AF     		add	r7, sp, #0
 873              	.LCFI35:
 874              		.cfi_def_cfa_register 7
 875 0006 7860     		str	r0, [r7, #4]
 876 0008 3960     		str	r1, [r7]
 551:Drivers/STM32F3xx_HAL_Driver/Src/stm32f3xx_hal_tim_ex.c ****   /* Check the parameters */
 552:Drivers/STM32F3xx_HAL_Driver/Src/stm32f3xx_hal_tim_ex.c ****   assert_param(IS_TIM_CCXN_INSTANCE(htim->Instance, Channel)); 
 553:Drivers/STM32F3xx_HAL_Driver/Src/stm32f3xx_hal_tim_ex.c ****   
 554:Drivers/STM32F3xx_HAL_Driver/Src/stm32f3xx_hal_tim_ex.c ****     /* Disable the Capture compare channel N */
 555:Drivers/STM32F3xx_HAL_Driver/Src/stm32f3xx_hal_tim_ex.c ****   TIM_CCxNChannelCmd(htim->Instance, Channel, TIM_CCxN_DISABLE);
 877              		.loc 1 555 0
 878 000a 7B68     		ldr	r3, [r7, #4]
 879 000c 1B68     		ldr	r3, [r3]
 880 000e 1846     		mov	r0, r3
 881 0010 3968     		ldr	r1, [r7]
 882 0012 0022     		movs	r2, #0
 883 0014 FFF7FEFF 		bl	TIM_CCxNChannelCmd
 556:Drivers/STM32F3xx_HAL_Driver/Src/stm32f3xx_hal_tim_ex.c ****     
 557:Drivers/STM32F3xx_HAL_Driver/Src/stm32f3xx_hal_tim_ex.c ****   /* Disable the Main Ouput */
 558:Drivers/STM32F3xx_HAL_Driver/Src/stm32f3xx_hal_tim_ex.c ****     __HAL_TIM_MOE_DISABLE(htim);
 884              		.loc 1 558 0
 885 0018 7B68     		ldr	r3, [r7, #4]
 886 001a 1B68     		ldr	r3, [r3]
 887 001c 1A6A     		ldr	r2, [r3, #32]
 888 001e 41F21113 		movw	r3, #4369
 889 0022 1340     		ands	r3, r3, r2
 890 0024 002B     		cmp	r3, #0
ARM GAS  /tmp/ccRzvoJq.s 			page 26


 891 0026 0FD1     		bne	.L34
 892              		.loc 1 558 0 is_stmt 0 discriminator 1
 893 0028 7B68     		ldr	r3, [r7, #4]
 894 002a 1B68     		ldr	r3, [r3]
 895 002c 1A6A     		ldr	r2, [r3, #32]
 896 002e 40F24443 		movw	r3, #1092
 897 0032 1340     		ands	r3, r3, r2
 898 0034 002B     		cmp	r3, #0
 899 0036 07D1     		bne	.L34
 900 0038 7B68     		ldr	r3, [r7, #4]
 901 003a 1B68     		ldr	r3, [r3]
 902 003c 7A68     		ldr	r2, [r7, #4]
 903 003e 1268     		ldr	r2, [r2]
 904 0040 526C     		ldr	r2, [r2, #68]
 905 0042 22F40042 		bic	r2, r2, #32768
 906 0046 5A64     		str	r2, [r3, #68]
 907              	.L34:
 559:Drivers/STM32F3xx_HAL_Driver/Src/stm32f3xx_hal_tim_ex.c **** 
 560:Drivers/STM32F3xx_HAL_Driver/Src/stm32f3xx_hal_tim_ex.c ****   /* Disable the Peripheral */
 561:Drivers/STM32F3xx_HAL_Driver/Src/stm32f3xx_hal_tim_ex.c ****   __HAL_TIM_DISABLE(htim);
 908              		.loc 1 561 0 is_stmt 1
 909 0048 7B68     		ldr	r3, [r7, #4]
 910 004a 1B68     		ldr	r3, [r3]
 911 004c 1A6A     		ldr	r2, [r3, #32]
 912 004e 41F21113 		movw	r3, #4369
 913 0052 1340     		ands	r3, r3, r2
 914 0054 002B     		cmp	r3, #0
 915 0056 0FD1     		bne	.L35
 916              		.loc 1 561 0 is_stmt 0 discriminator 1
 917 0058 7B68     		ldr	r3, [r7, #4]
 918 005a 1B68     		ldr	r3, [r3]
 919 005c 1A6A     		ldr	r2, [r3, #32]
 920 005e 40F24443 		movw	r3, #1092
 921 0062 1340     		ands	r3, r3, r2
 922 0064 002B     		cmp	r3, #0
 923 0066 07D1     		bne	.L35
 924 0068 7B68     		ldr	r3, [r7, #4]
 925 006a 1B68     		ldr	r3, [r3]
 926 006c 7A68     		ldr	r2, [r7, #4]
 927 006e 1268     		ldr	r2, [r2]
 928 0070 1268     		ldr	r2, [r2]
 929 0072 22F00102 		bic	r2, r2, #1
 930 0076 1A60     		str	r2, [r3]
 931              	.L35:
 562:Drivers/STM32F3xx_HAL_Driver/Src/stm32f3xx_hal_tim_ex.c ****   
 563:Drivers/STM32F3xx_HAL_Driver/Src/stm32f3xx_hal_tim_ex.c ****   /* Return function status */
 564:Drivers/STM32F3xx_HAL_Driver/Src/stm32f3xx_hal_tim_ex.c ****   return HAL_OK;
 932              		.loc 1 564 0 is_stmt 1
 933 0078 0023     		movs	r3, #0
 565:Drivers/STM32F3xx_HAL_Driver/Src/stm32f3xx_hal_tim_ex.c **** } 
 934              		.loc 1 565 0
 935 007a 1846     		mov	r0, r3
 936 007c 0837     		adds	r7, r7, #8
 937 007e BD46     		mov	sp, r7
 938              		@ sp needed
 939 0080 80BD     		pop	{r7, pc}
 940              		.cfi_endproc
ARM GAS  /tmp/ccRzvoJq.s 			page 27


 941              	.LFE136:
 943 0082 00BF     		.section	.text.HAL_TIMEx_OCN_Start_IT,"ax",%progbits
 944              		.align	2
 945              		.global	HAL_TIMEx_OCN_Start_IT
 946              		.thumb
 947              		.thumb_func
 949              	HAL_TIMEx_OCN_Start_IT:
 950              	.LFB137:
 566:Drivers/STM32F3xx_HAL_Driver/Src/stm32f3xx_hal_tim_ex.c **** 
 567:Drivers/STM32F3xx_HAL_Driver/Src/stm32f3xx_hal_tim_ex.c **** /**
 568:Drivers/STM32F3xx_HAL_Driver/Src/stm32f3xx_hal_tim_ex.c ****   * @brief  Starts the TIM Output Compare signal generation in interrupt mode 
 569:Drivers/STM32F3xx_HAL_Driver/Src/stm32f3xx_hal_tim_ex.c ****   *         on the complementary output.
 570:Drivers/STM32F3xx_HAL_Driver/Src/stm32f3xx_hal_tim_ex.c ****   * @param  htim: TIM OC handle
 571:Drivers/STM32F3xx_HAL_Driver/Src/stm32f3xx_hal_tim_ex.c ****   * @param  Channel: TIM Channel to be enabled
 572:Drivers/STM32F3xx_HAL_Driver/Src/stm32f3xx_hal_tim_ex.c ****   *          This parameter can be one of the following values:
 573:Drivers/STM32F3xx_HAL_Driver/Src/stm32f3xx_hal_tim_ex.c ****   *            @arg TIM_CHANNEL_1: TIM Channel 1 selected
 574:Drivers/STM32F3xx_HAL_Driver/Src/stm32f3xx_hal_tim_ex.c ****   *            @arg TIM_CHANNEL_2: TIM Channel 2 selected
 575:Drivers/STM32F3xx_HAL_Driver/Src/stm32f3xx_hal_tim_ex.c ****   *            @arg TIM_CHANNEL_3: TIM Channel 3 selected
 576:Drivers/STM32F3xx_HAL_Driver/Src/stm32f3xx_hal_tim_ex.c ****   *            @arg TIM_CHANNEL_4: TIM Channel 4 selected
 577:Drivers/STM32F3xx_HAL_Driver/Src/stm32f3xx_hal_tim_ex.c ****   * @retval HAL status
 578:Drivers/STM32F3xx_HAL_Driver/Src/stm32f3xx_hal_tim_ex.c ****   */
 579:Drivers/STM32F3xx_HAL_Driver/Src/stm32f3xx_hal_tim_ex.c **** HAL_StatusTypeDef HAL_TIMEx_OCN_Start_IT(TIM_HandleTypeDef *htim, uint32_t Channel)
 580:Drivers/STM32F3xx_HAL_Driver/Src/stm32f3xx_hal_tim_ex.c **** {
 951              		.loc 1 580 0
 952              		.cfi_startproc
 953              		@ args = 0, pretend = 0, frame = 8
 954              		@ frame_needed = 1, uses_anonymous_args = 0
 955 0000 80B5     		push	{r7, lr}
 956              	.LCFI36:
 957              		.cfi_def_cfa_offset 8
 958              		.cfi_offset 7, -8
 959              		.cfi_offset 14, -4
 960 0002 82B0     		sub	sp, sp, #8
 961              	.LCFI37:
 962              		.cfi_def_cfa_offset 16
 963 0004 00AF     		add	r7, sp, #0
 964              	.LCFI38:
 965              		.cfi_def_cfa_register 7
 966 0006 7860     		str	r0, [r7, #4]
 967 0008 3960     		str	r1, [r7]
 581:Drivers/STM32F3xx_HAL_Driver/Src/stm32f3xx_hal_tim_ex.c ****   /* Check the parameters */
 582:Drivers/STM32F3xx_HAL_Driver/Src/stm32f3xx_hal_tim_ex.c ****   assert_param(IS_TIM_CCXN_INSTANCE(htim->Instance, Channel)); 
 583:Drivers/STM32F3xx_HAL_Driver/Src/stm32f3xx_hal_tim_ex.c ****   
 584:Drivers/STM32F3xx_HAL_Driver/Src/stm32f3xx_hal_tim_ex.c ****   switch (Channel)
 968              		.loc 1 584 0
 969 000a 3B68     		ldr	r3, [r7]
 970 000c 0C2B     		cmp	r3, #12
 971 000e 41D8     		bhi	.L46
 972 0010 01A2     		adr	r2, .L40
 973 0012 52F823F0 		ldr	pc, [r2, r3, lsl #2]
 974 0016 00BF     		.p2align 2
 975              	.L40:
 976 0018 4D000000 		.word	.L39+1
 977 001c 95000000 		.word	.L46+1
 978 0020 95000000 		.word	.L46+1
 979 0024 95000000 		.word	.L46+1
 980 0028 5F000000 		.word	.L41+1
ARM GAS  /tmp/ccRzvoJq.s 			page 28


 981 002c 95000000 		.word	.L46+1
 982 0030 95000000 		.word	.L46+1
 983 0034 95000000 		.word	.L46+1
 984 0038 71000000 		.word	.L42+1
 985 003c 95000000 		.word	.L46+1
 986 0040 95000000 		.word	.L46+1
 987 0044 95000000 		.word	.L46+1
 988 0048 83000000 		.word	.L43+1
 989              		.p2align 1
 990              	.L39:
 585:Drivers/STM32F3xx_HAL_Driver/Src/stm32f3xx_hal_tim_ex.c ****   {
 586:Drivers/STM32F3xx_HAL_Driver/Src/stm32f3xx_hal_tim_ex.c ****     case TIM_CHANNEL_1:
 587:Drivers/STM32F3xx_HAL_Driver/Src/stm32f3xx_hal_tim_ex.c ****     {       
 588:Drivers/STM32F3xx_HAL_Driver/Src/stm32f3xx_hal_tim_ex.c ****       /* Enable the TIM Output Compare interrupt */
 589:Drivers/STM32F3xx_HAL_Driver/Src/stm32f3xx_hal_tim_ex.c ****       __HAL_TIM_ENABLE_IT(htim, TIM_IT_CC1);
 991              		.loc 1 589 0
 992 004c 7B68     		ldr	r3, [r7, #4]
 993 004e 1B68     		ldr	r3, [r3]
 994 0050 7A68     		ldr	r2, [r7, #4]
 995 0052 1268     		ldr	r2, [r2]
 996 0054 D268     		ldr	r2, [r2, #12]
 997 0056 42F00202 		orr	r2, r2, #2
 998 005a DA60     		str	r2, [r3, #12]
 590:Drivers/STM32F3xx_HAL_Driver/Src/stm32f3xx_hal_tim_ex.c ****     }
 591:Drivers/STM32F3xx_HAL_Driver/Src/stm32f3xx_hal_tim_ex.c ****     break;
 999              		.loc 1 591 0
 1000 005c 1BE0     		b	.L44
 1001              	.L41:
 592:Drivers/STM32F3xx_HAL_Driver/Src/stm32f3xx_hal_tim_ex.c ****     
 593:Drivers/STM32F3xx_HAL_Driver/Src/stm32f3xx_hal_tim_ex.c ****     case TIM_CHANNEL_2:
 594:Drivers/STM32F3xx_HAL_Driver/Src/stm32f3xx_hal_tim_ex.c ****     {
 595:Drivers/STM32F3xx_HAL_Driver/Src/stm32f3xx_hal_tim_ex.c ****       /* Enable the TIM Output Compare interrupt */
 596:Drivers/STM32F3xx_HAL_Driver/Src/stm32f3xx_hal_tim_ex.c ****       __HAL_TIM_ENABLE_IT(htim, TIM_IT_CC2);
 1002              		.loc 1 596 0
 1003 005e 7B68     		ldr	r3, [r7, #4]
 1004 0060 1B68     		ldr	r3, [r3]
 1005 0062 7A68     		ldr	r2, [r7, #4]
 1006 0064 1268     		ldr	r2, [r2]
 1007 0066 D268     		ldr	r2, [r2, #12]
 1008 0068 42F00402 		orr	r2, r2, #4
 1009 006c DA60     		str	r2, [r3, #12]
 597:Drivers/STM32F3xx_HAL_Driver/Src/stm32f3xx_hal_tim_ex.c ****     }
 598:Drivers/STM32F3xx_HAL_Driver/Src/stm32f3xx_hal_tim_ex.c ****     break;
 1010              		.loc 1 598 0
 1011 006e 12E0     		b	.L44
 1012              	.L42:
 599:Drivers/STM32F3xx_HAL_Driver/Src/stm32f3xx_hal_tim_ex.c ****     
 600:Drivers/STM32F3xx_HAL_Driver/Src/stm32f3xx_hal_tim_ex.c ****     case TIM_CHANNEL_3:
 601:Drivers/STM32F3xx_HAL_Driver/Src/stm32f3xx_hal_tim_ex.c ****     {
 602:Drivers/STM32F3xx_HAL_Driver/Src/stm32f3xx_hal_tim_ex.c ****       /* Enable the TIM Output Compare interrupt */
 603:Drivers/STM32F3xx_HAL_Driver/Src/stm32f3xx_hal_tim_ex.c ****       __HAL_TIM_ENABLE_IT(htim, TIM_IT_CC3);
 1013              		.loc 1 603 0
 1014 0070 7B68     		ldr	r3, [r7, #4]
 1015 0072 1B68     		ldr	r3, [r3]
 1016 0074 7A68     		ldr	r2, [r7, #4]
 1017 0076 1268     		ldr	r2, [r2]
 1018 0078 D268     		ldr	r2, [r2, #12]
ARM GAS  /tmp/ccRzvoJq.s 			page 29


 1019 007a 42F00802 		orr	r2, r2, #8
 1020 007e DA60     		str	r2, [r3, #12]
 604:Drivers/STM32F3xx_HAL_Driver/Src/stm32f3xx_hal_tim_ex.c ****     }
 605:Drivers/STM32F3xx_HAL_Driver/Src/stm32f3xx_hal_tim_ex.c ****     break;
 1021              		.loc 1 605 0
 1022 0080 09E0     		b	.L44
 1023              	.L43:
 606:Drivers/STM32F3xx_HAL_Driver/Src/stm32f3xx_hal_tim_ex.c ****     
 607:Drivers/STM32F3xx_HAL_Driver/Src/stm32f3xx_hal_tim_ex.c ****     case TIM_CHANNEL_4:
 608:Drivers/STM32F3xx_HAL_Driver/Src/stm32f3xx_hal_tim_ex.c ****     {
 609:Drivers/STM32F3xx_HAL_Driver/Src/stm32f3xx_hal_tim_ex.c ****       /* Enable the TIM Output Compare interrupt */
 610:Drivers/STM32F3xx_HAL_Driver/Src/stm32f3xx_hal_tim_ex.c ****       __HAL_TIM_ENABLE_IT(htim, TIM_IT_CC4);
 1024              		.loc 1 610 0
 1025 0082 7B68     		ldr	r3, [r7, #4]
 1026 0084 1B68     		ldr	r3, [r3]
 1027 0086 7A68     		ldr	r2, [r7, #4]
 1028 0088 1268     		ldr	r2, [r2]
 1029 008a D268     		ldr	r2, [r2, #12]
 1030 008c 42F01002 		orr	r2, r2, #16
 1031 0090 DA60     		str	r2, [r3, #12]
 611:Drivers/STM32F3xx_HAL_Driver/Src/stm32f3xx_hal_tim_ex.c ****     }
 612:Drivers/STM32F3xx_HAL_Driver/Src/stm32f3xx_hal_tim_ex.c ****     break;
 1032              		.loc 1 612 0
 1033 0092 00E0     		b	.L44
 1034              	.L46:
 613:Drivers/STM32F3xx_HAL_Driver/Src/stm32f3xx_hal_tim_ex.c ****     
 614:Drivers/STM32F3xx_HAL_Driver/Src/stm32f3xx_hal_tim_ex.c ****     default:
 615:Drivers/STM32F3xx_HAL_Driver/Src/stm32f3xx_hal_tim_ex.c ****     break;
 1035              		.loc 1 615 0
 1036 0094 00BF     		nop
 1037              	.L44:
 616:Drivers/STM32F3xx_HAL_Driver/Src/stm32f3xx_hal_tim_ex.c ****   } 
 617:Drivers/STM32F3xx_HAL_Driver/Src/stm32f3xx_hal_tim_ex.c ****   
 618:Drivers/STM32F3xx_HAL_Driver/Src/stm32f3xx_hal_tim_ex.c ****   /* Enable the TIM Break interrupt */
 619:Drivers/STM32F3xx_HAL_Driver/Src/stm32f3xx_hal_tim_ex.c ****   __HAL_TIM_ENABLE_IT(htim, TIM_IT_BREAK);
 1038              		.loc 1 619 0
 1039 0096 7B68     		ldr	r3, [r7, #4]
 1040 0098 1B68     		ldr	r3, [r3]
 1041 009a 7A68     		ldr	r2, [r7, #4]
 1042 009c 1268     		ldr	r2, [r2]
 1043 009e D268     		ldr	r2, [r2, #12]
 1044 00a0 42F08002 		orr	r2, r2, #128
 1045 00a4 DA60     		str	r2, [r3, #12]
 620:Drivers/STM32F3xx_HAL_Driver/Src/stm32f3xx_hal_tim_ex.c ****   
 621:Drivers/STM32F3xx_HAL_Driver/Src/stm32f3xx_hal_tim_ex.c ****   /* Enable the Capture compare channel N */
 622:Drivers/STM32F3xx_HAL_Driver/Src/stm32f3xx_hal_tim_ex.c ****   TIM_CCxNChannelCmd(htim->Instance, Channel, TIM_CCxN_ENABLE);
 1046              		.loc 1 622 0
 1047 00a6 7B68     		ldr	r3, [r7, #4]
 1048 00a8 1B68     		ldr	r3, [r3]
 1049 00aa 1846     		mov	r0, r3
 1050 00ac 3968     		ldr	r1, [r7]
 1051 00ae 0422     		movs	r2, #4
 1052 00b0 FFF7FEFF 		bl	TIM_CCxNChannelCmd
 623:Drivers/STM32F3xx_HAL_Driver/Src/stm32f3xx_hal_tim_ex.c ****   
 624:Drivers/STM32F3xx_HAL_Driver/Src/stm32f3xx_hal_tim_ex.c ****   /* Enable the Main Ouput */
 625:Drivers/STM32F3xx_HAL_Driver/Src/stm32f3xx_hal_tim_ex.c ****     __HAL_TIM_MOE_ENABLE(htim);
 1053              		.loc 1 625 0
ARM GAS  /tmp/ccRzvoJq.s 			page 30


 1054 00b4 7B68     		ldr	r3, [r7, #4]
 1055 00b6 1B68     		ldr	r3, [r3]
 1056 00b8 7A68     		ldr	r2, [r7, #4]
 1057 00ba 1268     		ldr	r2, [r2]
 1058 00bc 526C     		ldr	r2, [r2, #68]
 1059 00be 42F40042 		orr	r2, r2, #32768
 1060 00c2 5A64     		str	r2, [r3, #68]
 626:Drivers/STM32F3xx_HAL_Driver/Src/stm32f3xx_hal_tim_ex.c **** 
 627:Drivers/STM32F3xx_HAL_Driver/Src/stm32f3xx_hal_tim_ex.c ****   /* Enable the Peripheral */
 628:Drivers/STM32F3xx_HAL_Driver/Src/stm32f3xx_hal_tim_ex.c ****   __HAL_TIM_ENABLE(htim);
 1061              		.loc 1 628 0
 1062 00c4 7B68     		ldr	r3, [r7, #4]
 1063 00c6 1B68     		ldr	r3, [r3]
 1064 00c8 7A68     		ldr	r2, [r7, #4]
 1065 00ca 1268     		ldr	r2, [r2]
 1066 00cc 1268     		ldr	r2, [r2]
 1067 00ce 42F00102 		orr	r2, r2, #1
 1068 00d2 1A60     		str	r2, [r3]
 629:Drivers/STM32F3xx_HAL_Driver/Src/stm32f3xx_hal_tim_ex.c ****   
 630:Drivers/STM32F3xx_HAL_Driver/Src/stm32f3xx_hal_tim_ex.c ****   /* Return function status */
 631:Drivers/STM32F3xx_HAL_Driver/Src/stm32f3xx_hal_tim_ex.c ****   return HAL_OK;
 1069              		.loc 1 631 0
 1070 00d4 0023     		movs	r3, #0
 632:Drivers/STM32F3xx_HAL_Driver/Src/stm32f3xx_hal_tim_ex.c **** } 
 1071              		.loc 1 632 0
 1072 00d6 1846     		mov	r0, r3
 1073 00d8 0837     		adds	r7, r7, #8
 1074 00da BD46     		mov	sp, r7
 1075              		@ sp needed
 1076 00dc 80BD     		pop	{r7, pc}
 1077              		.cfi_endproc
 1078              	.LFE137:
 1080 00de 00BF     		.section	.text.HAL_TIMEx_OCN_Stop_IT,"ax",%progbits
 1081              		.align	2
 1082              		.global	HAL_TIMEx_OCN_Stop_IT
 1083              		.thumb
 1084              		.thumb_func
 1086              	HAL_TIMEx_OCN_Stop_IT:
 1087              	.LFB138:
 633:Drivers/STM32F3xx_HAL_Driver/Src/stm32f3xx_hal_tim_ex.c **** 
 634:Drivers/STM32F3xx_HAL_Driver/Src/stm32f3xx_hal_tim_ex.c **** /**
 635:Drivers/STM32F3xx_HAL_Driver/Src/stm32f3xx_hal_tim_ex.c ****   * @brief  Stops the TIM Output Compare signal generation in interrupt mode 
 636:Drivers/STM32F3xx_HAL_Driver/Src/stm32f3xx_hal_tim_ex.c ****   *         on the complementary output.
 637:Drivers/STM32F3xx_HAL_Driver/Src/stm32f3xx_hal_tim_ex.c ****   * @param  htim: TIM Output Compare handle
 638:Drivers/STM32F3xx_HAL_Driver/Src/stm32f3xx_hal_tim_ex.c ****   * @param  Channel: TIM Channel to be disabled
 639:Drivers/STM32F3xx_HAL_Driver/Src/stm32f3xx_hal_tim_ex.c ****   *          This parameter can be one of the following values:
 640:Drivers/STM32F3xx_HAL_Driver/Src/stm32f3xx_hal_tim_ex.c ****   *            @arg TIM_CHANNEL_1: TIM Channel 1 selected
 641:Drivers/STM32F3xx_HAL_Driver/Src/stm32f3xx_hal_tim_ex.c ****   *            @arg TIM_CHANNEL_2: TIM Channel 2 selected
 642:Drivers/STM32F3xx_HAL_Driver/Src/stm32f3xx_hal_tim_ex.c ****   *            @arg TIM_CHANNEL_3: TIM Channel 3 selected
 643:Drivers/STM32F3xx_HAL_Driver/Src/stm32f3xx_hal_tim_ex.c ****   *            @arg TIM_CHANNEL_4: TIM Channel 4 selected
 644:Drivers/STM32F3xx_HAL_Driver/Src/stm32f3xx_hal_tim_ex.c ****   * @retval HAL status
 645:Drivers/STM32F3xx_HAL_Driver/Src/stm32f3xx_hal_tim_ex.c ****   */
 646:Drivers/STM32F3xx_HAL_Driver/Src/stm32f3xx_hal_tim_ex.c **** HAL_StatusTypeDef HAL_TIMEx_OCN_Stop_IT(TIM_HandleTypeDef *htim, uint32_t Channel)
 647:Drivers/STM32F3xx_HAL_Driver/Src/stm32f3xx_hal_tim_ex.c **** {
 1088              		.loc 1 647 0
 1089              		.cfi_startproc
 1090              		@ args = 0, pretend = 0, frame = 16
ARM GAS  /tmp/ccRzvoJq.s 			page 31


 1091              		@ frame_needed = 1, uses_anonymous_args = 0
 1092 0000 80B5     		push	{r7, lr}
 1093              	.LCFI39:
 1094              		.cfi_def_cfa_offset 8
 1095              		.cfi_offset 7, -8
 1096              		.cfi_offset 14, -4
 1097 0002 84B0     		sub	sp, sp, #16
 1098              	.LCFI40:
 1099              		.cfi_def_cfa_offset 24
 1100 0004 00AF     		add	r7, sp, #0
 1101              	.LCFI41:
 1102              		.cfi_def_cfa_register 7
 1103 0006 7860     		str	r0, [r7, #4]
 1104 0008 3960     		str	r1, [r7]
 648:Drivers/STM32F3xx_HAL_Driver/Src/stm32f3xx_hal_tim_ex.c ****   uint32_t tmpccer = 0;
 1105              		.loc 1 648 0
 1106 000a 0023     		movs	r3, #0
 1107 000c FB60     		str	r3, [r7, #12]
 649:Drivers/STM32F3xx_HAL_Driver/Src/stm32f3xx_hal_tim_ex.c **** 
 650:Drivers/STM32F3xx_HAL_Driver/Src/stm32f3xx_hal_tim_ex.c ****   /* Check the parameters */
 651:Drivers/STM32F3xx_HAL_Driver/Src/stm32f3xx_hal_tim_ex.c ****   assert_param(IS_TIM_CCXN_INSTANCE(htim->Instance, Channel)); 
 652:Drivers/STM32F3xx_HAL_Driver/Src/stm32f3xx_hal_tim_ex.c ****   
 653:Drivers/STM32F3xx_HAL_Driver/Src/stm32f3xx_hal_tim_ex.c ****   switch (Channel)
 1108              		.loc 1 653 0
 1109 000e 3B68     		ldr	r3, [r7]
 1110 0010 0C2B     		cmp	r3, #12
 1111 0012 41D8     		bhi	.L59
 1112 0014 01A2     		adr	r2, .L50
 1113 0016 52F823F0 		ldr	pc, [r2, r3, lsl #2]
 1114 001a 00BF     		.p2align 2
 1115              	.L50:
 1116 001c 51000000 		.word	.L49+1
 1117 0020 99000000 		.word	.L59+1
 1118 0024 99000000 		.word	.L59+1
 1119 0028 99000000 		.word	.L59+1
 1120 002c 63000000 		.word	.L51+1
 1121 0030 99000000 		.word	.L59+1
 1122 0034 99000000 		.word	.L59+1
 1123 0038 99000000 		.word	.L59+1
 1124 003c 75000000 		.word	.L52+1
 1125 0040 99000000 		.word	.L59+1
 1126 0044 99000000 		.word	.L59+1
 1127 0048 99000000 		.word	.L59+1
 1128 004c 87000000 		.word	.L53+1
 1129              		.p2align 1
 1130              	.L49:
 654:Drivers/STM32F3xx_HAL_Driver/Src/stm32f3xx_hal_tim_ex.c ****   {
 655:Drivers/STM32F3xx_HAL_Driver/Src/stm32f3xx_hal_tim_ex.c ****     case TIM_CHANNEL_1:
 656:Drivers/STM32F3xx_HAL_Driver/Src/stm32f3xx_hal_tim_ex.c ****     {       
 657:Drivers/STM32F3xx_HAL_Driver/Src/stm32f3xx_hal_tim_ex.c ****       /* Disable the TIM Output Compare interrupt */
 658:Drivers/STM32F3xx_HAL_Driver/Src/stm32f3xx_hal_tim_ex.c ****       __HAL_TIM_DISABLE_IT(htim, TIM_IT_CC1);
 1131              		.loc 1 658 0
 1132 0050 7B68     		ldr	r3, [r7, #4]
 1133 0052 1B68     		ldr	r3, [r3]
 1134 0054 7A68     		ldr	r2, [r7, #4]
 1135 0056 1268     		ldr	r2, [r2]
 1136 0058 D268     		ldr	r2, [r2, #12]
ARM GAS  /tmp/ccRzvoJq.s 			page 32


 1137 005a 22F00202 		bic	r2, r2, #2
 1138 005e DA60     		str	r2, [r3, #12]
 659:Drivers/STM32F3xx_HAL_Driver/Src/stm32f3xx_hal_tim_ex.c ****     }
 660:Drivers/STM32F3xx_HAL_Driver/Src/stm32f3xx_hal_tim_ex.c ****     break;
 1139              		.loc 1 660 0
 1140 0060 1BE0     		b	.L54
 1141              	.L51:
 661:Drivers/STM32F3xx_HAL_Driver/Src/stm32f3xx_hal_tim_ex.c ****     
 662:Drivers/STM32F3xx_HAL_Driver/Src/stm32f3xx_hal_tim_ex.c ****     case TIM_CHANNEL_2:
 663:Drivers/STM32F3xx_HAL_Driver/Src/stm32f3xx_hal_tim_ex.c ****     {
 664:Drivers/STM32F3xx_HAL_Driver/Src/stm32f3xx_hal_tim_ex.c ****       /* Disable the TIM Output Compare interrupt */
 665:Drivers/STM32F3xx_HAL_Driver/Src/stm32f3xx_hal_tim_ex.c ****       __HAL_TIM_DISABLE_IT(htim, TIM_IT_CC2);
 1142              		.loc 1 665 0
 1143 0062 7B68     		ldr	r3, [r7, #4]
 1144 0064 1B68     		ldr	r3, [r3]
 1145 0066 7A68     		ldr	r2, [r7, #4]
 1146 0068 1268     		ldr	r2, [r2]
 1147 006a D268     		ldr	r2, [r2, #12]
 1148 006c 22F00402 		bic	r2, r2, #4
 1149 0070 DA60     		str	r2, [r3, #12]
 666:Drivers/STM32F3xx_HAL_Driver/Src/stm32f3xx_hal_tim_ex.c ****     }
 667:Drivers/STM32F3xx_HAL_Driver/Src/stm32f3xx_hal_tim_ex.c ****     break;
 1150              		.loc 1 667 0
 1151 0072 12E0     		b	.L54
 1152              	.L52:
 668:Drivers/STM32F3xx_HAL_Driver/Src/stm32f3xx_hal_tim_ex.c ****     
 669:Drivers/STM32F3xx_HAL_Driver/Src/stm32f3xx_hal_tim_ex.c ****     case TIM_CHANNEL_3:
 670:Drivers/STM32F3xx_HAL_Driver/Src/stm32f3xx_hal_tim_ex.c ****     {
 671:Drivers/STM32F3xx_HAL_Driver/Src/stm32f3xx_hal_tim_ex.c ****       /* Disable the TIM Output Compare interrupt */
 672:Drivers/STM32F3xx_HAL_Driver/Src/stm32f3xx_hal_tim_ex.c ****       __HAL_TIM_DISABLE_IT(htim, TIM_IT_CC3);
 1153              		.loc 1 672 0
 1154 0074 7B68     		ldr	r3, [r7, #4]
 1155 0076 1B68     		ldr	r3, [r3]
 1156 0078 7A68     		ldr	r2, [r7, #4]
 1157 007a 1268     		ldr	r2, [r2]
 1158 007c D268     		ldr	r2, [r2, #12]
 1159 007e 22F00802 		bic	r2, r2, #8
 1160 0082 DA60     		str	r2, [r3, #12]
 673:Drivers/STM32F3xx_HAL_Driver/Src/stm32f3xx_hal_tim_ex.c ****     }
 674:Drivers/STM32F3xx_HAL_Driver/Src/stm32f3xx_hal_tim_ex.c ****     break;
 1161              		.loc 1 674 0
 1162 0084 09E0     		b	.L54
 1163              	.L53:
 675:Drivers/STM32F3xx_HAL_Driver/Src/stm32f3xx_hal_tim_ex.c ****     
 676:Drivers/STM32F3xx_HAL_Driver/Src/stm32f3xx_hal_tim_ex.c ****     case TIM_CHANNEL_4:
 677:Drivers/STM32F3xx_HAL_Driver/Src/stm32f3xx_hal_tim_ex.c ****     {
 678:Drivers/STM32F3xx_HAL_Driver/Src/stm32f3xx_hal_tim_ex.c ****       /* Disable the TIM Output Compare interrupt */
 679:Drivers/STM32F3xx_HAL_Driver/Src/stm32f3xx_hal_tim_ex.c ****       __HAL_TIM_DISABLE_IT(htim, TIM_IT_CC4);
 1164              		.loc 1 679 0
 1165 0086 7B68     		ldr	r3, [r7, #4]
 1166 0088 1B68     		ldr	r3, [r3]
 1167 008a 7A68     		ldr	r2, [r7, #4]
 1168 008c 1268     		ldr	r2, [r2]
 1169 008e D268     		ldr	r2, [r2, #12]
 1170 0090 22F01002 		bic	r2, r2, #16
 1171 0094 DA60     		str	r2, [r3, #12]
 680:Drivers/STM32F3xx_HAL_Driver/Src/stm32f3xx_hal_tim_ex.c ****     }
ARM GAS  /tmp/ccRzvoJq.s 			page 33


 681:Drivers/STM32F3xx_HAL_Driver/Src/stm32f3xx_hal_tim_ex.c ****     break;
 1172              		.loc 1 681 0
 1173 0096 00E0     		b	.L54
 1174              	.L59:
 682:Drivers/STM32F3xx_HAL_Driver/Src/stm32f3xx_hal_tim_ex.c ****     
 683:Drivers/STM32F3xx_HAL_Driver/Src/stm32f3xx_hal_tim_ex.c ****     default:
 684:Drivers/STM32F3xx_HAL_Driver/Src/stm32f3xx_hal_tim_ex.c ****     break; 
 1175              		.loc 1 684 0
 1176 0098 00BF     		nop
 1177              	.L54:
 685:Drivers/STM32F3xx_HAL_Driver/Src/stm32f3xx_hal_tim_ex.c ****   }
 686:Drivers/STM32F3xx_HAL_Driver/Src/stm32f3xx_hal_tim_ex.c ****     
 687:Drivers/STM32F3xx_HAL_Driver/Src/stm32f3xx_hal_tim_ex.c ****   /* Disable the Capture compare channel N */
 688:Drivers/STM32F3xx_HAL_Driver/Src/stm32f3xx_hal_tim_ex.c ****   TIM_CCxNChannelCmd(htim->Instance, Channel, TIM_CCxN_DISABLE);
 1178              		.loc 1 688 0
 1179 009a 7B68     		ldr	r3, [r7, #4]
 1180 009c 1B68     		ldr	r3, [r3]
 1181 009e 1846     		mov	r0, r3
 1182 00a0 3968     		ldr	r1, [r7]
 1183 00a2 0022     		movs	r2, #0
 1184 00a4 FFF7FEFF 		bl	TIM_CCxNChannelCmd
 689:Drivers/STM32F3xx_HAL_Driver/Src/stm32f3xx_hal_tim_ex.c ****     
 690:Drivers/STM32F3xx_HAL_Driver/Src/stm32f3xx_hal_tim_ex.c ****   /* Disable the TIM Break interrupt (only if no more channel is active) */
 691:Drivers/STM32F3xx_HAL_Driver/Src/stm32f3xx_hal_tim_ex.c ****   tmpccer = htim->Instance->CCER;
 1185              		.loc 1 691 0
 1186 00a8 7B68     		ldr	r3, [r7, #4]
 1187 00aa 1B68     		ldr	r3, [r3]
 1188 00ac 1B6A     		ldr	r3, [r3, #32]
 1189 00ae FB60     		str	r3, [r7, #12]
 692:Drivers/STM32F3xx_HAL_Driver/Src/stm32f3xx_hal_tim_ex.c ****   if ((tmpccer & (TIM_CCER_CC1NE | TIM_CCER_CC2NE | TIM_CCER_CC3NE)) == RESET)
 1190              		.loc 1 692 0
 1191 00b0 FA68     		ldr	r2, [r7, #12]
 1192 00b2 40F24443 		movw	r3, #1092
 1193 00b6 1340     		ands	r3, r3, r2
 1194 00b8 002B     		cmp	r3, #0
 1195 00ba 07D1     		bne	.L55
 693:Drivers/STM32F3xx_HAL_Driver/Src/stm32f3xx_hal_tim_ex.c ****   {
 694:Drivers/STM32F3xx_HAL_Driver/Src/stm32f3xx_hal_tim_ex.c ****     __HAL_TIM_DISABLE_IT(htim, TIM_IT_BREAK);
 1196              		.loc 1 694 0
 1197 00bc 7B68     		ldr	r3, [r7, #4]
 1198 00be 1B68     		ldr	r3, [r3]
 1199 00c0 7A68     		ldr	r2, [r7, #4]
 1200 00c2 1268     		ldr	r2, [r2]
 1201 00c4 D268     		ldr	r2, [r2, #12]
 1202 00c6 22F08002 		bic	r2, r2, #128
 1203 00ca DA60     		str	r2, [r3, #12]
 1204              	.L55:
 695:Drivers/STM32F3xx_HAL_Driver/Src/stm32f3xx_hal_tim_ex.c ****   }
 696:Drivers/STM32F3xx_HAL_Driver/Src/stm32f3xx_hal_tim_ex.c **** 
 697:Drivers/STM32F3xx_HAL_Driver/Src/stm32f3xx_hal_tim_ex.c ****   /* Disable the Main Ouput */
 698:Drivers/STM32F3xx_HAL_Driver/Src/stm32f3xx_hal_tim_ex.c ****   __HAL_TIM_MOE_DISABLE(htim);
 1205              		.loc 1 698 0
 1206 00cc 7B68     		ldr	r3, [r7, #4]
 1207 00ce 1B68     		ldr	r3, [r3]
 1208 00d0 1A6A     		ldr	r2, [r3, #32]
 1209 00d2 41F21113 		movw	r3, #4369
 1210 00d6 1340     		ands	r3, r3, r2
ARM GAS  /tmp/ccRzvoJq.s 			page 34


 1211 00d8 002B     		cmp	r3, #0
 1212 00da 0FD1     		bne	.L56
 1213              		.loc 1 698 0 is_stmt 0 discriminator 1
 1214 00dc 7B68     		ldr	r3, [r7, #4]
 1215 00de 1B68     		ldr	r3, [r3]
 1216 00e0 1A6A     		ldr	r2, [r3, #32]
 1217 00e2 40F24443 		movw	r3, #1092
 1218 00e6 1340     		ands	r3, r3, r2
 1219 00e8 002B     		cmp	r3, #0
 1220 00ea 07D1     		bne	.L56
 1221 00ec 7B68     		ldr	r3, [r7, #4]
 1222 00ee 1B68     		ldr	r3, [r3]
 1223 00f0 7A68     		ldr	r2, [r7, #4]
 1224 00f2 1268     		ldr	r2, [r2]
 1225 00f4 526C     		ldr	r2, [r2, #68]
 1226 00f6 22F40042 		bic	r2, r2, #32768
 1227 00fa 5A64     		str	r2, [r3, #68]
 1228              	.L56:
 699:Drivers/STM32F3xx_HAL_Driver/Src/stm32f3xx_hal_tim_ex.c **** 
 700:Drivers/STM32F3xx_HAL_Driver/Src/stm32f3xx_hal_tim_ex.c ****   /* Disable the Peripheral */
 701:Drivers/STM32F3xx_HAL_Driver/Src/stm32f3xx_hal_tim_ex.c ****   __HAL_TIM_DISABLE(htim);
 1229              		.loc 1 701 0 is_stmt 1
 1230 00fc 7B68     		ldr	r3, [r7, #4]
 1231 00fe 1B68     		ldr	r3, [r3]
 1232 0100 1A6A     		ldr	r2, [r3, #32]
 1233 0102 41F21113 		movw	r3, #4369
 1234 0106 1340     		ands	r3, r3, r2
 1235 0108 002B     		cmp	r3, #0
 1236 010a 0FD1     		bne	.L57
 1237              		.loc 1 701 0 is_stmt 0 discriminator 1
 1238 010c 7B68     		ldr	r3, [r7, #4]
 1239 010e 1B68     		ldr	r3, [r3]
 1240 0110 1A6A     		ldr	r2, [r3, #32]
 1241 0112 40F24443 		movw	r3, #1092
 1242 0116 1340     		ands	r3, r3, r2
 1243 0118 002B     		cmp	r3, #0
 1244 011a 07D1     		bne	.L57
 1245 011c 7B68     		ldr	r3, [r7, #4]
 1246 011e 1B68     		ldr	r3, [r3]
 1247 0120 7A68     		ldr	r2, [r7, #4]
 1248 0122 1268     		ldr	r2, [r2]
 1249 0124 1268     		ldr	r2, [r2]
 1250 0126 22F00102 		bic	r2, r2, #1
 1251 012a 1A60     		str	r2, [r3]
 1252              	.L57:
 702:Drivers/STM32F3xx_HAL_Driver/Src/stm32f3xx_hal_tim_ex.c ****   
 703:Drivers/STM32F3xx_HAL_Driver/Src/stm32f3xx_hal_tim_ex.c ****   /* Return function status */
 704:Drivers/STM32F3xx_HAL_Driver/Src/stm32f3xx_hal_tim_ex.c ****   return HAL_OK;
 1253              		.loc 1 704 0 is_stmt 1
 1254 012c 0023     		movs	r3, #0
 705:Drivers/STM32F3xx_HAL_Driver/Src/stm32f3xx_hal_tim_ex.c **** } 
 1255              		.loc 1 705 0
 1256 012e 1846     		mov	r0, r3
 1257 0130 1037     		adds	r7, r7, #16
 1258 0132 BD46     		mov	sp, r7
 1259              		@ sp needed
 1260 0134 80BD     		pop	{r7, pc}
ARM GAS  /tmp/ccRzvoJq.s 			page 35


 1261              		.cfi_endproc
 1262              	.LFE138:
 1264 0136 00BF     		.section	.text.HAL_TIMEx_OCN_Start_DMA,"ax",%progbits
 1265              		.align	2
 1266              		.global	HAL_TIMEx_OCN_Start_DMA
 1267              		.thumb
 1268              		.thumb_func
 1270              	HAL_TIMEx_OCN_Start_DMA:
 1271              	.LFB139:
 706:Drivers/STM32F3xx_HAL_Driver/Src/stm32f3xx_hal_tim_ex.c **** 
 707:Drivers/STM32F3xx_HAL_Driver/Src/stm32f3xx_hal_tim_ex.c **** /**
 708:Drivers/STM32F3xx_HAL_Driver/Src/stm32f3xx_hal_tim_ex.c ****   * @brief  Starts the TIM Output Compare signal generation in DMA mode 
 709:Drivers/STM32F3xx_HAL_Driver/Src/stm32f3xx_hal_tim_ex.c ****   *         on the complementary output.
 710:Drivers/STM32F3xx_HAL_Driver/Src/stm32f3xx_hal_tim_ex.c ****   * @param  htim: TIM Output Compare handle
 711:Drivers/STM32F3xx_HAL_Driver/Src/stm32f3xx_hal_tim_ex.c ****   * @param  Channel: TIM Channel to be enabled
 712:Drivers/STM32F3xx_HAL_Driver/Src/stm32f3xx_hal_tim_ex.c ****   *          This parameter can be one of the following values:
 713:Drivers/STM32F3xx_HAL_Driver/Src/stm32f3xx_hal_tim_ex.c ****   *            @arg TIM_CHANNEL_1: TIM Channel 1 selected
 714:Drivers/STM32F3xx_HAL_Driver/Src/stm32f3xx_hal_tim_ex.c ****   *            @arg TIM_CHANNEL_2: TIM Channel 2 selected
 715:Drivers/STM32F3xx_HAL_Driver/Src/stm32f3xx_hal_tim_ex.c ****   *            @arg TIM_CHANNEL_3: TIM Channel 3 selected
 716:Drivers/STM32F3xx_HAL_Driver/Src/stm32f3xx_hal_tim_ex.c ****   *            @arg TIM_CHANNEL_4: TIM Channel 4 selected
 717:Drivers/STM32F3xx_HAL_Driver/Src/stm32f3xx_hal_tim_ex.c ****   * @param  pData: The source Buffer address.
 718:Drivers/STM32F3xx_HAL_Driver/Src/stm32f3xx_hal_tim_ex.c ****   * @param  Length: The length of data to be transferred from memory to TIM peripheral
 719:Drivers/STM32F3xx_HAL_Driver/Src/stm32f3xx_hal_tim_ex.c ****   * @retval HAL status
 720:Drivers/STM32F3xx_HAL_Driver/Src/stm32f3xx_hal_tim_ex.c ****   */
 721:Drivers/STM32F3xx_HAL_Driver/Src/stm32f3xx_hal_tim_ex.c **** HAL_StatusTypeDef HAL_TIMEx_OCN_Start_DMA(TIM_HandleTypeDef *htim, uint32_t Channel, uint32_t *pDat
 722:Drivers/STM32F3xx_HAL_Driver/Src/stm32f3xx_hal_tim_ex.c **** {
 1272              		.loc 1 722 0
 1273              		.cfi_startproc
 1274              		@ args = 0, pretend = 0, frame = 16
 1275              		@ frame_needed = 1, uses_anonymous_args = 0
 1276 0000 80B5     		push	{r7, lr}
 1277              	.LCFI42:
 1278              		.cfi_def_cfa_offset 8
 1279              		.cfi_offset 7, -8
 1280              		.cfi_offset 14, -4
 1281 0002 84B0     		sub	sp, sp, #16
 1282              	.LCFI43:
 1283              		.cfi_def_cfa_offset 24
 1284 0004 00AF     		add	r7, sp, #0
 1285              	.LCFI44:
 1286              		.cfi_def_cfa_register 7
 1287 0006 F860     		str	r0, [r7, #12]
 1288 0008 B960     		str	r1, [r7, #8]
 1289 000a 7A60     		str	r2, [r7, #4]
 1290 000c 7B80     		strh	r3, [r7, #2]	@ movhi
 723:Drivers/STM32F3xx_HAL_Driver/Src/stm32f3xx_hal_tim_ex.c ****   /* Check the parameters */
 724:Drivers/STM32F3xx_HAL_Driver/Src/stm32f3xx_hal_tim_ex.c ****   assert_param(IS_TIM_CCXN_INSTANCE(htim->Instance, Channel)); 
 725:Drivers/STM32F3xx_HAL_Driver/Src/stm32f3xx_hal_tim_ex.c ****   
 726:Drivers/STM32F3xx_HAL_Driver/Src/stm32f3xx_hal_tim_ex.c ****   if((htim->State == HAL_TIM_STATE_BUSY))
 1291              		.loc 1 726 0
 1292 000e FB68     		ldr	r3, [r7, #12]
 1293 0010 93F83930 		ldrb	r3, [r3, #57]
 1294 0014 DBB2     		uxtb	r3, r3
 1295 0016 022B     		cmp	r3, #2
 1296 0018 01D1     		bne	.L61
 727:Drivers/STM32F3xx_HAL_Driver/Src/stm32f3xx_hal_tim_ex.c ****   {
 728:Drivers/STM32F3xx_HAL_Driver/Src/stm32f3xx_hal_tim_ex.c ****      return HAL_BUSY;
ARM GAS  /tmp/ccRzvoJq.s 			page 36


 1297              		.loc 1 728 0
 1298 001a 0223     		movs	r3, #2
 1299 001c B7E0     		b	.L62
 1300              	.L61:
 729:Drivers/STM32F3xx_HAL_Driver/Src/stm32f3xx_hal_tim_ex.c ****   }
 730:Drivers/STM32F3xx_HAL_Driver/Src/stm32f3xx_hal_tim_ex.c ****   else if((htim->State == HAL_TIM_STATE_READY))
 1301              		.loc 1 730 0
 1302 001e FB68     		ldr	r3, [r7, #12]
 1303 0020 93F83930 		ldrb	r3, [r3, #57]
 1304 0024 DBB2     		uxtb	r3, r3
 1305 0026 012B     		cmp	r3, #1
 1306 0028 0BD1     		bne	.L63
 731:Drivers/STM32F3xx_HAL_Driver/Src/stm32f3xx_hal_tim_ex.c ****   {
 732:Drivers/STM32F3xx_HAL_Driver/Src/stm32f3xx_hal_tim_ex.c ****     if(((uint32_t)pData == 0 ) && (Length > 0)) 
 1307              		.loc 1 732 0
 1308 002a 7B68     		ldr	r3, [r7, #4]
 1309 002c 002B     		cmp	r3, #0
 1310 002e 04D1     		bne	.L64
 1311              		.loc 1 732 0 is_stmt 0 discriminator 1
 1312 0030 7B88     		ldrh	r3, [r7, #2]
 1313 0032 002B     		cmp	r3, #0
 1314 0034 01D0     		beq	.L64
 733:Drivers/STM32F3xx_HAL_Driver/Src/stm32f3xx_hal_tim_ex.c ****     {
 734:Drivers/STM32F3xx_HAL_Driver/Src/stm32f3xx_hal_tim_ex.c ****       return HAL_ERROR;                                    
 1315              		.loc 1 734 0 is_stmt 1
 1316 0036 0123     		movs	r3, #1
 1317 0038 A9E0     		b	.L62
 1318              	.L64:
 735:Drivers/STM32F3xx_HAL_Driver/Src/stm32f3xx_hal_tim_ex.c ****     }
 736:Drivers/STM32F3xx_HAL_Driver/Src/stm32f3xx_hal_tim_ex.c ****     else
 737:Drivers/STM32F3xx_HAL_Driver/Src/stm32f3xx_hal_tim_ex.c ****     {
 738:Drivers/STM32F3xx_HAL_Driver/Src/stm32f3xx_hal_tim_ex.c ****       htim->State = HAL_TIM_STATE_BUSY;
 1319              		.loc 1 738 0
 1320 003a FB68     		ldr	r3, [r7, #12]
 1321 003c 0222     		movs	r2, #2
 1322 003e 83F83920 		strb	r2, [r3, #57]
 1323              	.L63:
 739:Drivers/STM32F3xx_HAL_Driver/Src/stm32f3xx_hal_tim_ex.c ****     }
 740:Drivers/STM32F3xx_HAL_Driver/Src/stm32f3xx_hal_tim_ex.c ****   }    
 741:Drivers/STM32F3xx_HAL_Driver/Src/stm32f3xx_hal_tim_ex.c ****   switch (Channel)
 1324              		.loc 1 741 0
 1325 0042 BB68     		ldr	r3, [r7, #8]
 1326 0044 0C2B     		cmp	r3, #12
 1327 0046 00F28980 		bhi	.L72
 1328 004a 01A2     		adr	r2, .L67
 1329 004c 52F823F0 		ldr	pc, [r2, r3, lsl #2]
 1330              		.p2align 2
 1331              	.L67:
 1332 0050 85000000 		.word	.L66+1
 1333 0054 5D010000 		.word	.L72+1
 1334 0058 5D010000 		.word	.L72+1
 1335 005c 5D010000 		.word	.L72+1
 1336 0060 BB000000 		.word	.L68+1
 1337 0064 5D010000 		.word	.L72+1
 1338 0068 5D010000 		.word	.L72+1
 1339 006c 5D010000 		.word	.L72+1
 1340 0070 F1000000 		.word	.L69+1
ARM GAS  /tmp/ccRzvoJq.s 			page 37


 1341 0074 5D010000 		.word	.L72+1
 1342 0078 5D010000 		.word	.L72+1
 1343 007c 5D010000 		.word	.L72+1
 1344 0080 27010000 		.word	.L70+1
 1345              		.p2align 1
 1346              	.L66:
 742:Drivers/STM32F3xx_HAL_Driver/Src/stm32f3xx_hal_tim_ex.c ****   {
 743:Drivers/STM32F3xx_HAL_Driver/Src/stm32f3xx_hal_tim_ex.c ****     case TIM_CHANNEL_1:
 744:Drivers/STM32F3xx_HAL_Driver/Src/stm32f3xx_hal_tim_ex.c ****     {      
 745:Drivers/STM32F3xx_HAL_Driver/Src/stm32f3xx_hal_tim_ex.c ****       /* Set the DMA Period elapsed callback */
 746:Drivers/STM32F3xx_HAL_Driver/Src/stm32f3xx_hal_tim_ex.c ****       htim->hdma[TIM_DMA_ID_CC1]->XferCpltCallback = TIM_DMADelayPulseCplt;
 1347              		.loc 1 746 0
 1348 0084 FB68     		ldr	r3, [r7, #12]
 1349 0086 1B6A     		ldr	r3, [r3, #32]
 1350 0088 434A     		ldr	r2, .L73
 1351 008a 9A62     		str	r2, [r3, #40]
 747:Drivers/STM32F3xx_HAL_Driver/Src/stm32f3xx_hal_tim_ex.c ****      
 748:Drivers/STM32F3xx_HAL_Driver/Src/stm32f3xx_hal_tim_ex.c ****       /* Set the DMA error callback */
 749:Drivers/STM32F3xx_HAL_Driver/Src/stm32f3xx_hal_tim_ex.c ****       htim->hdma[TIM_DMA_ID_CC1]->XferErrorCallback = TIM_DMAError ;
 1352              		.loc 1 749 0
 1353 008c FB68     		ldr	r3, [r7, #12]
 1354 008e 1B6A     		ldr	r3, [r3, #32]
 1355 0090 424A     		ldr	r2, .L73+4
 1356 0092 1A63     		str	r2, [r3, #48]
 750:Drivers/STM32F3xx_HAL_Driver/Src/stm32f3xx_hal_tim_ex.c ****       
 751:Drivers/STM32F3xx_HAL_Driver/Src/stm32f3xx_hal_tim_ex.c ****       /* Enable the DMA channel */
 752:Drivers/STM32F3xx_HAL_Driver/Src/stm32f3xx_hal_tim_ex.c ****       HAL_DMA_Start_IT(htim->hdma[TIM_DMA_ID_CC1], (uint32_t)pData, (uint32_t)&htim->Instance->CCR1
 1357              		.loc 1 752 0
 1358 0094 FB68     		ldr	r3, [r7, #12]
 1359 0096 186A     		ldr	r0, [r3, #32]
 1360 0098 7968     		ldr	r1, [r7, #4]
 1361 009a FB68     		ldr	r3, [r7, #12]
 1362 009c 1B68     		ldr	r3, [r3]
 1363 009e 3433     		adds	r3, r3, #52
 1364 00a0 1A46     		mov	r2, r3
 1365 00a2 7B88     		ldrh	r3, [r7, #2]
 1366 00a4 FFF7FEFF 		bl	HAL_DMA_Start_IT
 753:Drivers/STM32F3xx_HAL_Driver/Src/stm32f3xx_hal_tim_ex.c ****       
 754:Drivers/STM32F3xx_HAL_Driver/Src/stm32f3xx_hal_tim_ex.c ****       /* Enable the TIM Output Compare DMA request */
 755:Drivers/STM32F3xx_HAL_Driver/Src/stm32f3xx_hal_tim_ex.c ****       __HAL_TIM_ENABLE_DMA(htim, TIM_DMA_CC1);
 1367              		.loc 1 755 0
 1368 00a8 FB68     		ldr	r3, [r7, #12]
 1369 00aa 1B68     		ldr	r3, [r3]
 1370 00ac FA68     		ldr	r2, [r7, #12]
 1371 00ae 1268     		ldr	r2, [r2]
 1372 00b0 D268     		ldr	r2, [r2, #12]
 1373 00b2 42F40072 		orr	r2, r2, #512
 1374 00b6 DA60     		str	r2, [r3, #12]
 756:Drivers/STM32F3xx_HAL_Driver/Src/stm32f3xx_hal_tim_ex.c ****     }
 757:Drivers/STM32F3xx_HAL_Driver/Src/stm32f3xx_hal_tim_ex.c ****     break;
 1375              		.loc 1 757 0
 1376 00b8 51E0     		b	.L71
 1377              	.L68:
 758:Drivers/STM32F3xx_HAL_Driver/Src/stm32f3xx_hal_tim_ex.c ****     
 759:Drivers/STM32F3xx_HAL_Driver/Src/stm32f3xx_hal_tim_ex.c ****     case TIM_CHANNEL_2:
 760:Drivers/STM32F3xx_HAL_Driver/Src/stm32f3xx_hal_tim_ex.c ****     {
 761:Drivers/STM32F3xx_HAL_Driver/Src/stm32f3xx_hal_tim_ex.c ****       /* Set the DMA Period elapsed callback */
ARM GAS  /tmp/ccRzvoJq.s 			page 38


 762:Drivers/STM32F3xx_HAL_Driver/Src/stm32f3xx_hal_tim_ex.c ****       htim->hdma[TIM_DMA_ID_CC2]->XferCpltCallback = TIM_DMADelayPulseCplt;
 1378              		.loc 1 762 0
 1379 00ba FB68     		ldr	r3, [r7, #12]
 1380 00bc 5B6A     		ldr	r3, [r3, #36]
 1381 00be 364A     		ldr	r2, .L73
 1382 00c0 9A62     		str	r2, [r3, #40]
 763:Drivers/STM32F3xx_HAL_Driver/Src/stm32f3xx_hal_tim_ex.c ****      
 764:Drivers/STM32F3xx_HAL_Driver/Src/stm32f3xx_hal_tim_ex.c ****       /* Set the DMA error callback */
 765:Drivers/STM32F3xx_HAL_Driver/Src/stm32f3xx_hal_tim_ex.c ****       htim->hdma[TIM_DMA_ID_CC2]->XferErrorCallback = TIM_DMAError ;
 1383              		.loc 1 765 0
 1384 00c2 FB68     		ldr	r3, [r7, #12]
 1385 00c4 5B6A     		ldr	r3, [r3, #36]
 1386 00c6 354A     		ldr	r2, .L73+4
 1387 00c8 1A63     		str	r2, [r3, #48]
 766:Drivers/STM32F3xx_HAL_Driver/Src/stm32f3xx_hal_tim_ex.c ****       
 767:Drivers/STM32F3xx_HAL_Driver/Src/stm32f3xx_hal_tim_ex.c ****       /* Enable the DMA channel */
 768:Drivers/STM32F3xx_HAL_Driver/Src/stm32f3xx_hal_tim_ex.c ****       HAL_DMA_Start_IT(htim->hdma[TIM_DMA_ID_CC2], (uint32_t)pData, (uint32_t)&htim->Instance->CCR2
 1388              		.loc 1 768 0
 1389 00ca FB68     		ldr	r3, [r7, #12]
 1390 00cc 586A     		ldr	r0, [r3, #36]
 1391 00ce 7968     		ldr	r1, [r7, #4]
 1392 00d0 FB68     		ldr	r3, [r7, #12]
 1393 00d2 1B68     		ldr	r3, [r3]
 1394 00d4 3833     		adds	r3, r3, #56
 1395 00d6 1A46     		mov	r2, r3
 1396 00d8 7B88     		ldrh	r3, [r7, #2]
 1397 00da FFF7FEFF 		bl	HAL_DMA_Start_IT
 769:Drivers/STM32F3xx_HAL_Driver/Src/stm32f3xx_hal_tim_ex.c ****       
 770:Drivers/STM32F3xx_HAL_Driver/Src/stm32f3xx_hal_tim_ex.c ****       /* Enable the TIM Output Compare DMA request */
 771:Drivers/STM32F3xx_HAL_Driver/Src/stm32f3xx_hal_tim_ex.c ****       __HAL_TIM_ENABLE_DMA(htim, TIM_DMA_CC2);
 1398              		.loc 1 771 0
 1399 00de FB68     		ldr	r3, [r7, #12]
 1400 00e0 1B68     		ldr	r3, [r3]
 1401 00e2 FA68     		ldr	r2, [r7, #12]
 1402 00e4 1268     		ldr	r2, [r2]
 1403 00e6 D268     		ldr	r2, [r2, #12]
 1404 00e8 42F48062 		orr	r2, r2, #1024
 1405 00ec DA60     		str	r2, [r3, #12]
 772:Drivers/STM32F3xx_HAL_Driver/Src/stm32f3xx_hal_tim_ex.c ****     }
 773:Drivers/STM32F3xx_HAL_Driver/Src/stm32f3xx_hal_tim_ex.c ****     break;
 1406              		.loc 1 773 0
 1407 00ee 36E0     		b	.L71
 1408              	.L69:
 774:Drivers/STM32F3xx_HAL_Driver/Src/stm32f3xx_hal_tim_ex.c ****     
 775:Drivers/STM32F3xx_HAL_Driver/Src/stm32f3xx_hal_tim_ex.c ****     case TIM_CHANNEL_3:
 776:Drivers/STM32F3xx_HAL_Driver/Src/stm32f3xx_hal_tim_ex.c **** {
 777:Drivers/STM32F3xx_HAL_Driver/Src/stm32f3xx_hal_tim_ex.c ****       /* Set the DMA Period elapsed callback */
 778:Drivers/STM32F3xx_HAL_Driver/Src/stm32f3xx_hal_tim_ex.c ****       htim->hdma[TIM_DMA_ID_CC3]->XferCpltCallback = TIM_DMADelayPulseCplt;
 1409              		.loc 1 778 0
 1410 00f0 FB68     		ldr	r3, [r7, #12]
 1411 00f2 9B6A     		ldr	r3, [r3, #40]
 1412 00f4 284A     		ldr	r2, .L73
 1413 00f6 9A62     		str	r2, [r3, #40]
 779:Drivers/STM32F3xx_HAL_Driver/Src/stm32f3xx_hal_tim_ex.c ****      
 780:Drivers/STM32F3xx_HAL_Driver/Src/stm32f3xx_hal_tim_ex.c ****       /* Set the DMA error callback */
 781:Drivers/STM32F3xx_HAL_Driver/Src/stm32f3xx_hal_tim_ex.c ****       htim->hdma[TIM_DMA_ID_CC3]->XferErrorCallback = TIM_DMAError ;
 1414              		.loc 1 781 0
ARM GAS  /tmp/ccRzvoJq.s 			page 39


 1415 00f8 FB68     		ldr	r3, [r7, #12]
 1416 00fa 9B6A     		ldr	r3, [r3, #40]
 1417 00fc 274A     		ldr	r2, .L73+4
 1418 00fe 1A63     		str	r2, [r3, #48]
 782:Drivers/STM32F3xx_HAL_Driver/Src/stm32f3xx_hal_tim_ex.c ****       
 783:Drivers/STM32F3xx_HAL_Driver/Src/stm32f3xx_hal_tim_ex.c ****       /* Enable the DMA channel */
 784:Drivers/STM32F3xx_HAL_Driver/Src/stm32f3xx_hal_tim_ex.c ****       HAL_DMA_Start_IT(htim->hdma[TIM_DMA_ID_CC3], (uint32_t)pData, (uint32_t)&htim->Instance->CCR3
 1419              		.loc 1 784 0
 1420 0100 FB68     		ldr	r3, [r7, #12]
 1421 0102 986A     		ldr	r0, [r3, #40]
 1422 0104 7968     		ldr	r1, [r7, #4]
 1423 0106 FB68     		ldr	r3, [r7, #12]
 1424 0108 1B68     		ldr	r3, [r3]
 1425 010a 3C33     		adds	r3, r3, #60
 1426 010c 1A46     		mov	r2, r3
 1427 010e 7B88     		ldrh	r3, [r7, #2]
 1428 0110 FFF7FEFF 		bl	HAL_DMA_Start_IT
 785:Drivers/STM32F3xx_HAL_Driver/Src/stm32f3xx_hal_tim_ex.c ****       
 786:Drivers/STM32F3xx_HAL_Driver/Src/stm32f3xx_hal_tim_ex.c ****       /* Enable the TIM Output Compare DMA request */
 787:Drivers/STM32F3xx_HAL_Driver/Src/stm32f3xx_hal_tim_ex.c ****       __HAL_TIM_ENABLE_DMA(htim, TIM_DMA_CC3);
 1429              		.loc 1 787 0
 1430 0114 FB68     		ldr	r3, [r7, #12]
 1431 0116 1B68     		ldr	r3, [r3]
 1432 0118 FA68     		ldr	r2, [r7, #12]
 1433 011a 1268     		ldr	r2, [r2]
 1434 011c D268     		ldr	r2, [r2, #12]
 1435 011e 42F40062 		orr	r2, r2, #2048
 1436 0122 DA60     		str	r2, [r3, #12]
 788:Drivers/STM32F3xx_HAL_Driver/Src/stm32f3xx_hal_tim_ex.c ****     }
 789:Drivers/STM32F3xx_HAL_Driver/Src/stm32f3xx_hal_tim_ex.c ****     break;
 1437              		.loc 1 789 0
 1438 0124 1BE0     		b	.L71
 1439              	.L70:
 790:Drivers/STM32F3xx_HAL_Driver/Src/stm32f3xx_hal_tim_ex.c ****     
 791:Drivers/STM32F3xx_HAL_Driver/Src/stm32f3xx_hal_tim_ex.c ****     case TIM_CHANNEL_4:
 792:Drivers/STM32F3xx_HAL_Driver/Src/stm32f3xx_hal_tim_ex.c ****     {
 793:Drivers/STM32F3xx_HAL_Driver/Src/stm32f3xx_hal_tim_ex.c ****      /* Set the DMA Period elapsed callback */
 794:Drivers/STM32F3xx_HAL_Driver/Src/stm32f3xx_hal_tim_ex.c ****       htim->hdma[TIM_DMA_ID_CC4]->XferCpltCallback = TIM_DMADelayPulseCplt;
 1440              		.loc 1 794 0
 1441 0126 FB68     		ldr	r3, [r7, #12]
 1442 0128 DB6A     		ldr	r3, [r3, #44]
 1443 012a 1B4A     		ldr	r2, .L73
 1444 012c 9A62     		str	r2, [r3, #40]
 795:Drivers/STM32F3xx_HAL_Driver/Src/stm32f3xx_hal_tim_ex.c ****      
 796:Drivers/STM32F3xx_HAL_Driver/Src/stm32f3xx_hal_tim_ex.c ****       /* Set the DMA error callback */
 797:Drivers/STM32F3xx_HAL_Driver/Src/stm32f3xx_hal_tim_ex.c ****       htim->hdma[TIM_DMA_ID_CC4]->XferErrorCallback = TIM_DMAError ;
 1445              		.loc 1 797 0
 1446 012e FB68     		ldr	r3, [r7, #12]
 1447 0130 DB6A     		ldr	r3, [r3, #44]
 1448 0132 1A4A     		ldr	r2, .L73+4
 1449 0134 1A63     		str	r2, [r3, #48]
 798:Drivers/STM32F3xx_HAL_Driver/Src/stm32f3xx_hal_tim_ex.c ****       
 799:Drivers/STM32F3xx_HAL_Driver/Src/stm32f3xx_hal_tim_ex.c ****       /* Enable the DMA channel */
 800:Drivers/STM32F3xx_HAL_Driver/Src/stm32f3xx_hal_tim_ex.c ****       HAL_DMA_Start_IT(htim->hdma[TIM_DMA_ID_CC4], (uint32_t)pData, (uint32_t)&htim->Instance->CCR4
 1450              		.loc 1 800 0
 1451 0136 FB68     		ldr	r3, [r7, #12]
 1452 0138 D86A     		ldr	r0, [r3, #44]
ARM GAS  /tmp/ccRzvoJq.s 			page 40


 1453 013a 7968     		ldr	r1, [r7, #4]
 1454 013c FB68     		ldr	r3, [r7, #12]
 1455 013e 1B68     		ldr	r3, [r3]
 1456 0140 4033     		adds	r3, r3, #64
 1457 0142 1A46     		mov	r2, r3
 1458 0144 7B88     		ldrh	r3, [r7, #2]
 1459 0146 FFF7FEFF 		bl	HAL_DMA_Start_IT
 801:Drivers/STM32F3xx_HAL_Driver/Src/stm32f3xx_hal_tim_ex.c ****       
 802:Drivers/STM32F3xx_HAL_Driver/Src/stm32f3xx_hal_tim_ex.c ****       /* Enable the TIM Output Compare DMA request */
 803:Drivers/STM32F3xx_HAL_Driver/Src/stm32f3xx_hal_tim_ex.c ****       __HAL_TIM_ENABLE_DMA(htim, TIM_DMA_CC4);
 1460              		.loc 1 803 0
 1461 014a FB68     		ldr	r3, [r7, #12]
 1462 014c 1B68     		ldr	r3, [r3]
 1463 014e FA68     		ldr	r2, [r7, #12]
 1464 0150 1268     		ldr	r2, [r2]
 1465 0152 D268     		ldr	r2, [r2, #12]
 1466 0154 42F48052 		orr	r2, r2, #4096
 1467 0158 DA60     		str	r2, [r3, #12]
 804:Drivers/STM32F3xx_HAL_Driver/Src/stm32f3xx_hal_tim_ex.c ****     }
 805:Drivers/STM32F3xx_HAL_Driver/Src/stm32f3xx_hal_tim_ex.c ****     break;
 1468              		.loc 1 805 0
 1469 015a 00E0     		b	.L71
 1470              	.L72:
 806:Drivers/STM32F3xx_HAL_Driver/Src/stm32f3xx_hal_tim_ex.c ****     
 807:Drivers/STM32F3xx_HAL_Driver/Src/stm32f3xx_hal_tim_ex.c ****     default:
 808:Drivers/STM32F3xx_HAL_Driver/Src/stm32f3xx_hal_tim_ex.c ****     break;
 1471              		.loc 1 808 0
 1472 015c 00BF     		nop
 1473              	.L71:
 809:Drivers/STM32F3xx_HAL_Driver/Src/stm32f3xx_hal_tim_ex.c ****   }
 810:Drivers/STM32F3xx_HAL_Driver/Src/stm32f3xx_hal_tim_ex.c **** 
 811:Drivers/STM32F3xx_HAL_Driver/Src/stm32f3xx_hal_tim_ex.c ****   /* Enable the Capture compare channel N */
 812:Drivers/STM32F3xx_HAL_Driver/Src/stm32f3xx_hal_tim_ex.c ****   TIM_CCxNChannelCmd(htim->Instance, Channel, TIM_CCxN_ENABLE);
 1474              		.loc 1 812 0
 1475 015e FB68     		ldr	r3, [r7, #12]
 1476 0160 1B68     		ldr	r3, [r3]
 1477 0162 1846     		mov	r0, r3
 1478 0164 B968     		ldr	r1, [r7, #8]
 1479 0166 0422     		movs	r2, #4
 1480 0168 FFF7FEFF 		bl	TIM_CCxNChannelCmd
 813:Drivers/STM32F3xx_HAL_Driver/Src/stm32f3xx_hal_tim_ex.c ****   
 814:Drivers/STM32F3xx_HAL_Driver/Src/stm32f3xx_hal_tim_ex.c ****   /* Enable the Main Ouput */
 815:Drivers/STM32F3xx_HAL_Driver/Src/stm32f3xx_hal_tim_ex.c ****   __HAL_TIM_MOE_ENABLE(htim);
 1481              		.loc 1 815 0
 1482 016c FB68     		ldr	r3, [r7, #12]
 1483 016e 1B68     		ldr	r3, [r3]
 1484 0170 FA68     		ldr	r2, [r7, #12]
 1485 0172 1268     		ldr	r2, [r2]
 1486 0174 526C     		ldr	r2, [r2, #68]
 1487 0176 42F40042 		orr	r2, r2, #32768
 1488 017a 5A64     		str	r2, [r3, #68]
 816:Drivers/STM32F3xx_HAL_Driver/Src/stm32f3xx_hal_tim_ex.c ****   
 817:Drivers/STM32F3xx_HAL_Driver/Src/stm32f3xx_hal_tim_ex.c ****   /* Enable the Peripheral */
 818:Drivers/STM32F3xx_HAL_Driver/Src/stm32f3xx_hal_tim_ex.c ****   __HAL_TIM_ENABLE(htim); 
 1489              		.loc 1 818 0
 1490 017c FB68     		ldr	r3, [r7, #12]
 1491 017e 1B68     		ldr	r3, [r3]
ARM GAS  /tmp/ccRzvoJq.s 			page 41


 1492 0180 FA68     		ldr	r2, [r7, #12]
 1493 0182 1268     		ldr	r2, [r2]
 1494 0184 1268     		ldr	r2, [r2]
 1495 0186 42F00102 		orr	r2, r2, #1
 1496 018a 1A60     		str	r2, [r3]
 819:Drivers/STM32F3xx_HAL_Driver/Src/stm32f3xx_hal_tim_ex.c ****   
 820:Drivers/STM32F3xx_HAL_Driver/Src/stm32f3xx_hal_tim_ex.c ****   /* Return function status */
 821:Drivers/STM32F3xx_HAL_Driver/Src/stm32f3xx_hal_tim_ex.c ****   return HAL_OK;
 1497              		.loc 1 821 0
 1498 018c 0023     		movs	r3, #0
 1499              	.L62:
 822:Drivers/STM32F3xx_HAL_Driver/Src/stm32f3xx_hal_tim_ex.c **** }
 1500              		.loc 1 822 0
 1501 018e 1846     		mov	r0, r3
 1502 0190 1037     		adds	r7, r7, #16
 1503 0192 BD46     		mov	sp, r7
 1504              		@ sp needed
 1505 0194 80BD     		pop	{r7, pc}
 1506              	.L74:
 1507 0196 00BF     		.align	2
 1508              	.L73:
 1509 0198 00000000 		.word	TIM_DMADelayPulseCplt
 1510 019c 00000000 		.word	TIM_DMAError
 1511              		.cfi_endproc
 1512              	.LFE139:
 1514              		.section	.text.HAL_TIMEx_OCN_Stop_DMA,"ax",%progbits
 1515              		.align	2
 1516              		.global	HAL_TIMEx_OCN_Stop_DMA
 1517              		.thumb
 1518              		.thumb_func
 1520              	HAL_TIMEx_OCN_Stop_DMA:
 1521              	.LFB140:
 823:Drivers/STM32F3xx_HAL_Driver/Src/stm32f3xx_hal_tim_ex.c **** 
 824:Drivers/STM32F3xx_HAL_Driver/Src/stm32f3xx_hal_tim_ex.c **** /**
 825:Drivers/STM32F3xx_HAL_Driver/Src/stm32f3xx_hal_tim_ex.c ****   * @brief  Stops the TIM Output Compare signal generation in DMA mode 
 826:Drivers/STM32F3xx_HAL_Driver/Src/stm32f3xx_hal_tim_ex.c ****   *         on the complementary output.
 827:Drivers/STM32F3xx_HAL_Driver/Src/stm32f3xx_hal_tim_ex.c ****   * @param  htim: TIM Output Compare handle
 828:Drivers/STM32F3xx_HAL_Driver/Src/stm32f3xx_hal_tim_ex.c ****   * @param  Channel: TIM Channel to be disabled
 829:Drivers/STM32F3xx_HAL_Driver/Src/stm32f3xx_hal_tim_ex.c ****   *          This parameter can be one of the following values:
 830:Drivers/STM32F3xx_HAL_Driver/Src/stm32f3xx_hal_tim_ex.c ****   *            @arg TIM_CHANNEL_1: TIM Channel 1 selected
 831:Drivers/STM32F3xx_HAL_Driver/Src/stm32f3xx_hal_tim_ex.c ****   *            @arg TIM_CHANNEL_2: TIM Channel 2 selected
 832:Drivers/STM32F3xx_HAL_Driver/Src/stm32f3xx_hal_tim_ex.c ****   *            @arg TIM_CHANNEL_3: TIM Channel 3 selected
 833:Drivers/STM32F3xx_HAL_Driver/Src/stm32f3xx_hal_tim_ex.c ****   *            @arg TIM_CHANNEL_4: TIM Channel 4 selected
 834:Drivers/STM32F3xx_HAL_Driver/Src/stm32f3xx_hal_tim_ex.c ****   * @retval HAL status
 835:Drivers/STM32F3xx_HAL_Driver/Src/stm32f3xx_hal_tim_ex.c ****   */
 836:Drivers/STM32F3xx_HAL_Driver/Src/stm32f3xx_hal_tim_ex.c **** HAL_StatusTypeDef HAL_TIMEx_OCN_Stop_DMA(TIM_HandleTypeDef *htim, uint32_t Channel)
 837:Drivers/STM32F3xx_HAL_Driver/Src/stm32f3xx_hal_tim_ex.c **** {
 1522              		.loc 1 837 0
 1523              		.cfi_startproc
 1524              		@ args = 0, pretend = 0, frame = 8
 1525              		@ frame_needed = 1, uses_anonymous_args = 0
 1526 0000 80B5     		push	{r7, lr}
 1527              	.LCFI45:
 1528              		.cfi_def_cfa_offset 8
 1529              		.cfi_offset 7, -8
 1530              		.cfi_offset 14, -4
 1531 0002 82B0     		sub	sp, sp, #8
ARM GAS  /tmp/ccRzvoJq.s 			page 42


 1532              	.LCFI46:
 1533              		.cfi_def_cfa_offset 16
 1534 0004 00AF     		add	r7, sp, #0
 1535              	.LCFI47:
 1536              		.cfi_def_cfa_register 7
 1537 0006 7860     		str	r0, [r7, #4]
 1538 0008 3960     		str	r1, [r7]
 838:Drivers/STM32F3xx_HAL_Driver/Src/stm32f3xx_hal_tim_ex.c ****   /* Check the parameters */
 839:Drivers/STM32F3xx_HAL_Driver/Src/stm32f3xx_hal_tim_ex.c ****   assert_param(IS_TIM_CCXN_INSTANCE(htim->Instance, Channel)); 
 840:Drivers/STM32F3xx_HAL_Driver/Src/stm32f3xx_hal_tim_ex.c ****   
 841:Drivers/STM32F3xx_HAL_Driver/Src/stm32f3xx_hal_tim_ex.c ****   switch (Channel)
 1539              		.loc 1 841 0
 1540 000a 3B68     		ldr	r3, [r7]
 1541 000c 0C2B     		cmp	r3, #12
 1542 000e 41D8     		bhi	.L86
 1543 0010 01A2     		adr	r2, .L78
 1544 0012 52F823F0 		ldr	pc, [r2, r3, lsl #2]
 1545 0016 00BF     		.p2align 2
 1546              	.L78:
 1547 0018 4D000000 		.word	.L77+1
 1548 001c 95000000 		.word	.L86+1
 1549 0020 95000000 		.word	.L86+1
 1550 0024 95000000 		.word	.L86+1
 1551 0028 5F000000 		.word	.L79+1
 1552 002c 95000000 		.word	.L86+1
 1553 0030 95000000 		.word	.L86+1
 1554 0034 95000000 		.word	.L86+1
 1555 0038 71000000 		.word	.L80+1
 1556 003c 95000000 		.word	.L86+1
 1557 0040 95000000 		.word	.L86+1
 1558 0044 95000000 		.word	.L86+1
 1559 0048 83000000 		.word	.L81+1
 1560              		.p2align 1
 1561              	.L77:
 842:Drivers/STM32F3xx_HAL_Driver/Src/stm32f3xx_hal_tim_ex.c ****   {
 843:Drivers/STM32F3xx_HAL_Driver/Src/stm32f3xx_hal_tim_ex.c ****     case TIM_CHANNEL_1:
 844:Drivers/STM32F3xx_HAL_Driver/Src/stm32f3xx_hal_tim_ex.c ****     {       
 845:Drivers/STM32F3xx_HAL_Driver/Src/stm32f3xx_hal_tim_ex.c ****       /* Disable the TIM Output Compare DMA request */
 846:Drivers/STM32F3xx_HAL_Driver/Src/stm32f3xx_hal_tim_ex.c ****       __HAL_TIM_DISABLE_DMA(htim, TIM_DMA_CC1);
 1562              		.loc 1 846 0
 1563 004c 7B68     		ldr	r3, [r7, #4]
 1564 004e 1B68     		ldr	r3, [r3]
 1565 0050 7A68     		ldr	r2, [r7, #4]
 1566 0052 1268     		ldr	r2, [r2]
 1567 0054 D268     		ldr	r2, [r2, #12]
 1568 0056 22F40072 		bic	r2, r2, #512
 1569 005a DA60     		str	r2, [r3, #12]
 847:Drivers/STM32F3xx_HAL_Driver/Src/stm32f3xx_hal_tim_ex.c ****     }
 848:Drivers/STM32F3xx_HAL_Driver/Src/stm32f3xx_hal_tim_ex.c ****     break;
 1570              		.loc 1 848 0
 1571 005c 1BE0     		b	.L82
 1572              	.L79:
 849:Drivers/STM32F3xx_HAL_Driver/Src/stm32f3xx_hal_tim_ex.c ****     
 850:Drivers/STM32F3xx_HAL_Driver/Src/stm32f3xx_hal_tim_ex.c ****     case TIM_CHANNEL_2:
 851:Drivers/STM32F3xx_HAL_Driver/Src/stm32f3xx_hal_tim_ex.c ****     {
 852:Drivers/STM32F3xx_HAL_Driver/Src/stm32f3xx_hal_tim_ex.c ****       /* Disable the TIM Output Compare DMA request */
 853:Drivers/STM32F3xx_HAL_Driver/Src/stm32f3xx_hal_tim_ex.c ****       __HAL_TIM_DISABLE_DMA(htim, TIM_DMA_CC2);
ARM GAS  /tmp/ccRzvoJq.s 			page 43


 1573              		.loc 1 853 0
 1574 005e 7B68     		ldr	r3, [r7, #4]
 1575 0060 1B68     		ldr	r3, [r3]
 1576 0062 7A68     		ldr	r2, [r7, #4]
 1577 0064 1268     		ldr	r2, [r2]
 1578 0066 D268     		ldr	r2, [r2, #12]
 1579 0068 22F48062 		bic	r2, r2, #1024
 1580 006c DA60     		str	r2, [r3, #12]
 854:Drivers/STM32F3xx_HAL_Driver/Src/stm32f3xx_hal_tim_ex.c ****     }
 855:Drivers/STM32F3xx_HAL_Driver/Src/stm32f3xx_hal_tim_ex.c ****     break;
 1581              		.loc 1 855 0
 1582 006e 12E0     		b	.L82
 1583              	.L80:
 856:Drivers/STM32F3xx_HAL_Driver/Src/stm32f3xx_hal_tim_ex.c ****     
 857:Drivers/STM32F3xx_HAL_Driver/Src/stm32f3xx_hal_tim_ex.c ****     case TIM_CHANNEL_3:
 858:Drivers/STM32F3xx_HAL_Driver/Src/stm32f3xx_hal_tim_ex.c ****     {
 859:Drivers/STM32F3xx_HAL_Driver/Src/stm32f3xx_hal_tim_ex.c ****       /* Disable the TIM Output Compare DMA request */
 860:Drivers/STM32F3xx_HAL_Driver/Src/stm32f3xx_hal_tim_ex.c ****       __HAL_TIM_DISABLE_DMA(htim, TIM_DMA_CC3);
 1584              		.loc 1 860 0
 1585 0070 7B68     		ldr	r3, [r7, #4]
 1586 0072 1B68     		ldr	r3, [r3]
 1587 0074 7A68     		ldr	r2, [r7, #4]
 1588 0076 1268     		ldr	r2, [r2]
 1589 0078 D268     		ldr	r2, [r2, #12]
 1590 007a 22F40062 		bic	r2, r2, #2048
 1591 007e DA60     		str	r2, [r3, #12]
 861:Drivers/STM32F3xx_HAL_Driver/Src/stm32f3xx_hal_tim_ex.c ****     }
 862:Drivers/STM32F3xx_HAL_Driver/Src/stm32f3xx_hal_tim_ex.c ****     break;
 1592              		.loc 1 862 0
 1593 0080 09E0     		b	.L82
 1594              	.L81:
 863:Drivers/STM32F3xx_HAL_Driver/Src/stm32f3xx_hal_tim_ex.c ****     
 864:Drivers/STM32F3xx_HAL_Driver/Src/stm32f3xx_hal_tim_ex.c ****     case TIM_CHANNEL_4:
 865:Drivers/STM32F3xx_HAL_Driver/Src/stm32f3xx_hal_tim_ex.c ****     {
 866:Drivers/STM32F3xx_HAL_Driver/Src/stm32f3xx_hal_tim_ex.c ****       /* Disable the TIM Output Compare interrupt */
 867:Drivers/STM32F3xx_HAL_Driver/Src/stm32f3xx_hal_tim_ex.c ****       __HAL_TIM_DISABLE_DMA(htim, TIM_DMA_CC4);
 1595              		.loc 1 867 0
 1596 0082 7B68     		ldr	r3, [r7, #4]
 1597 0084 1B68     		ldr	r3, [r3]
 1598 0086 7A68     		ldr	r2, [r7, #4]
 1599 0088 1268     		ldr	r2, [r2]
 1600 008a D268     		ldr	r2, [r2, #12]
 1601 008c 22F48052 		bic	r2, r2, #4096
 1602 0090 DA60     		str	r2, [r3, #12]
 868:Drivers/STM32F3xx_HAL_Driver/Src/stm32f3xx_hal_tim_ex.c ****     }
 869:Drivers/STM32F3xx_HAL_Driver/Src/stm32f3xx_hal_tim_ex.c ****     break;
 1603              		.loc 1 869 0
 1604 0092 00E0     		b	.L82
 1605              	.L86:
 870:Drivers/STM32F3xx_HAL_Driver/Src/stm32f3xx_hal_tim_ex.c ****     
 871:Drivers/STM32F3xx_HAL_Driver/Src/stm32f3xx_hal_tim_ex.c ****     default:
 872:Drivers/STM32F3xx_HAL_Driver/Src/stm32f3xx_hal_tim_ex.c ****     break;
 1606              		.loc 1 872 0
 1607 0094 00BF     		nop
 1608              	.L82:
 873:Drivers/STM32F3xx_HAL_Driver/Src/stm32f3xx_hal_tim_ex.c ****   } 
 874:Drivers/STM32F3xx_HAL_Driver/Src/stm32f3xx_hal_tim_ex.c ****   
ARM GAS  /tmp/ccRzvoJq.s 			page 44


 875:Drivers/STM32F3xx_HAL_Driver/Src/stm32f3xx_hal_tim_ex.c ****   /* Disable the Capture compare channel N */
 876:Drivers/STM32F3xx_HAL_Driver/Src/stm32f3xx_hal_tim_ex.c ****   TIM_CCxNChannelCmd(htim->Instance, Channel, TIM_CCxN_DISABLE);
 1609              		.loc 1 876 0
 1610 0096 7B68     		ldr	r3, [r7, #4]
 1611 0098 1B68     		ldr	r3, [r3]
 1612 009a 1846     		mov	r0, r3
 1613 009c 3968     		ldr	r1, [r7]
 1614 009e 0022     		movs	r2, #0
 1615 00a0 FFF7FEFF 		bl	TIM_CCxNChannelCmd
 877:Drivers/STM32F3xx_HAL_Driver/Src/stm32f3xx_hal_tim_ex.c ****   
 878:Drivers/STM32F3xx_HAL_Driver/Src/stm32f3xx_hal_tim_ex.c ****   /* Disable the Main Ouput */
 879:Drivers/STM32F3xx_HAL_Driver/Src/stm32f3xx_hal_tim_ex.c ****   __HAL_TIM_MOE_DISABLE(htim);
 1616              		.loc 1 879 0
 1617 00a4 7B68     		ldr	r3, [r7, #4]
 1618 00a6 1B68     		ldr	r3, [r3]
 1619 00a8 1A6A     		ldr	r2, [r3, #32]
 1620 00aa 41F21113 		movw	r3, #4369
 1621 00ae 1340     		ands	r3, r3, r2
 1622 00b0 002B     		cmp	r3, #0
 1623 00b2 0FD1     		bne	.L83
 1624              		.loc 1 879 0 is_stmt 0 discriminator 1
 1625 00b4 7B68     		ldr	r3, [r7, #4]
 1626 00b6 1B68     		ldr	r3, [r3]
 1627 00b8 1A6A     		ldr	r2, [r3, #32]
 1628 00ba 40F24443 		movw	r3, #1092
 1629 00be 1340     		ands	r3, r3, r2
 1630 00c0 002B     		cmp	r3, #0
 1631 00c2 07D1     		bne	.L83
 1632 00c4 7B68     		ldr	r3, [r7, #4]
 1633 00c6 1B68     		ldr	r3, [r3]
 1634 00c8 7A68     		ldr	r2, [r7, #4]
 1635 00ca 1268     		ldr	r2, [r2]
 1636 00cc 526C     		ldr	r2, [r2, #68]
 1637 00ce 22F40042 		bic	r2, r2, #32768
 1638 00d2 5A64     		str	r2, [r3, #68]
 1639              	.L83:
 880:Drivers/STM32F3xx_HAL_Driver/Src/stm32f3xx_hal_tim_ex.c ****   
 881:Drivers/STM32F3xx_HAL_Driver/Src/stm32f3xx_hal_tim_ex.c ****   /* Disable the Peripheral */
 882:Drivers/STM32F3xx_HAL_Driver/Src/stm32f3xx_hal_tim_ex.c ****   __HAL_TIM_DISABLE(htim);
 1640              		.loc 1 882 0 is_stmt 1
 1641 00d4 7B68     		ldr	r3, [r7, #4]
 1642 00d6 1B68     		ldr	r3, [r3]
 1643 00d8 1A6A     		ldr	r2, [r3, #32]
 1644 00da 41F21113 		movw	r3, #4369
 1645 00de 1340     		ands	r3, r3, r2
 1646 00e0 002B     		cmp	r3, #0
 1647 00e2 0FD1     		bne	.L84
 1648              		.loc 1 882 0 is_stmt 0 discriminator 1
 1649 00e4 7B68     		ldr	r3, [r7, #4]
 1650 00e6 1B68     		ldr	r3, [r3]
 1651 00e8 1A6A     		ldr	r2, [r3, #32]
 1652 00ea 40F24443 		movw	r3, #1092
 1653 00ee 1340     		ands	r3, r3, r2
 1654 00f0 002B     		cmp	r3, #0
 1655 00f2 07D1     		bne	.L84
 1656 00f4 7B68     		ldr	r3, [r7, #4]
 1657 00f6 1B68     		ldr	r3, [r3]
ARM GAS  /tmp/ccRzvoJq.s 			page 45


 1658 00f8 7A68     		ldr	r2, [r7, #4]
 1659 00fa 1268     		ldr	r2, [r2]
 1660 00fc 1268     		ldr	r2, [r2]
 1661 00fe 22F00102 		bic	r2, r2, #1
 1662 0102 1A60     		str	r2, [r3]
 1663              	.L84:
 883:Drivers/STM32F3xx_HAL_Driver/Src/stm32f3xx_hal_tim_ex.c ****   
 884:Drivers/STM32F3xx_HAL_Driver/Src/stm32f3xx_hal_tim_ex.c ****   /* Change the htim state */
 885:Drivers/STM32F3xx_HAL_Driver/Src/stm32f3xx_hal_tim_ex.c ****   htim->State = HAL_TIM_STATE_READY;
 1664              		.loc 1 885 0 is_stmt 1
 1665 0104 7B68     		ldr	r3, [r7, #4]
 1666 0106 0122     		movs	r2, #1
 1667 0108 83F83920 		strb	r2, [r3, #57]
 886:Drivers/STM32F3xx_HAL_Driver/Src/stm32f3xx_hal_tim_ex.c ****   
 887:Drivers/STM32F3xx_HAL_Driver/Src/stm32f3xx_hal_tim_ex.c ****   /* Return function status */
 888:Drivers/STM32F3xx_HAL_Driver/Src/stm32f3xx_hal_tim_ex.c ****   return HAL_OK;
 1668              		.loc 1 888 0
 1669 010c 0023     		movs	r3, #0
 889:Drivers/STM32F3xx_HAL_Driver/Src/stm32f3xx_hal_tim_ex.c **** }
 1670              		.loc 1 889 0
 1671 010e 1846     		mov	r0, r3
 1672 0110 0837     		adds	r7, r7, #8
 1673 0112 BD46     		mov	sp, r7
 1674              		@ sp needed
 1675 0114 80BD     		pop	{r7, pc}
 1676              		.cfi_endproc
 1677              	.LFE140:
 1679 0116 00BF     		.section	.text.HAL_TIMEx_PWMN_Start,"ax",%progbits
 1680              		.align	2
 1681              		.global	HAL_TIMEx_PWMN_Start
 1682              		.thumb
 1683              		.thumb_func
 1685              	HAL_TIMEx_PWMN_Start:
 1686              	.LFB141:
 890:Drivers/STM32F3xx_HAL_Driver/Src/stm32f3xx_hal_tim_ex.c **** 
 891:Drivers/STM32F3xx_HAL_Driver/Src/stm32f3xx_hal_tim_ex.c **** /**
 892:Drivers/STM32F3xx_HAL_Driver/Src/stm32f3xx_hal_tim_ex.c ****   * @}
 893:Drivers/STM32F3xx_HAL_Driver/Src/stm32f3xx_hal_tim_ex.c ****   */
 894:Drivers/STM32F3xx_HAL_Driver/Src/stm32f3xx_hal_tim_ex.c ****   
 895:Drivers/STM32F3xx_HAL_Driver/Src/stm32f3xx_hal_tim_ex.c **** /** @defgroup TIMEx_Exported_Functions_Group3 Timer Complementary PWM functions
 896:Drivers/STM32F3xx_HAL_Driver/Src/stm32f3xx_hal_tim_ex.c ****   * @brief    Timer Complementary PWM functions
 897:Drivers/STM32F3xx_HAL_Driver/Src/stm32f3xx_hal_tim_ex.c ****   *
 898:Drivers/STM32F3xx_HAL_Driver/Src/stm32f3xx_hal_tim_ex.c **** @verbatim   
 899:Drivers/STM32F3xx_HAL_Driver/Src/stm32f3xx_hal_tim_ex.c ****   ==============================================================================
 900:Drivers/STM32F3xx_HAL_Driver/Src/stm32f3xx_hal_tim_ex.c ****                  ##### Timer Complementary PWM functions #####
 901:Drivers/STM32F3xx_HAL_Driver/Src/stm32f3xx_hal_tim_ex.c ****   ==============================================================================  
 902:Drivers/STM32F3xx_HAL_Driver/Src/stm32f3xx_hal_tim_ex.c ****   [..]  
 903:Drivers/STM32F3xx_HAL_Driver/Src/stm32f3xx_hal_tim_ex.c ****     This section provides functions allowing to:
 904:Drivers/STM32F3xx_HAL_Driver/Src/stm32f3xx_hal_tim_ex.c ****     (+) Start the Complementary PWM.
 905:Drivers/STM32F3xx_HAL_Driver/Src/stm32f3xx_hal_tim_ex.c ****     (+) Stop the Complementary PWM.
 906:Drivers/STM32F3xx_HAL_Driver/Src/stm32f3xx_hal_tim_ex.c ****     (+) Start the Complementary PWM and enable interrupts.
 907:Drivers/STM32F3xx_HAL_Driver/Src/stm32f3xx_hal_tim_ex.c ****     (+) Stop the Complementary PWM and disable interrupts.
 908:Drivers/STM32F3xx_HAL_Driver/Src/stm32f3xx_hal_tim_ex.c ****     (+) Start the Complementary PWM and enable DMA transfers.
 909:Drivers/STM32F3xx_HAL_Driver/Src/stm32f3xx_hal_tim_ex.c ****     (+) Stop the Complementary PWM and disable DMA transfers.
 910:Drivers/STM32F3xx_HAL_Driver/Src/stm32f3xx_hal_tim_ex.c ****     (+) Start the Complementary Input Capture measurement.
 911:Drivers/STM32F3xx_HAL_Driver/Src/stm32f3xx_hal_tim_ex.c ****     (+) Stop the Complementary Input Capture.
 912:Drivers/STM32F3xx_HAL_Driver/Src/stm32f3xx_hal_tim_ex.c ****     (+) Start the Complementary Input Capture and enable interrupts.
ARM GAS  /tmp/ccRzvoJq.s 			page 46


 913:Drivers/STM32F3xx_HAL_Driver/Src/stm32f3xx_hal_tim_ex.c ****     (+) Stop the Complementary Input Capture and disable interrupts.
 914:Drivers/STM32F3xx_HAL_Driver/Src/stm32f3xx_hal_tim_ex.c ****     (+) Start the Complementary Input Capture and enable DMA transfers.
 915:Drivers/STM32F3xx_HAL_Driver/Src/stm32f3xx_hal_tim_ex.c ****     (+) Stop the Complementary Input Capture and disable DMA transfers.
 916:Drivers/STM32F3xx_HAL_Driver/Src/stm32f3xx_hal_tim_ex.c ****     (+) Start the Complementary One Pulse generation.
 917:Drivers/STM32F3xx_HAL_Driver/Src/stm32f3xx_hal_tim_ex.c ****     (+) Stop the Complementary One Pulse.
 918:Drivers/STM32F3xx_HAL_Driver/Src/stm32f3xx_hal_tim_ex.c ****     (+) Start the Complementary One Pulse and enable interrupts.
 919:Drivers/STM32F3xx_HAL_Driver/Src/stm32f3xx_hal_tim_ex.c ****     (+) Stop the Complementary One Pulse and disable interrupts.
 920:Drivers/STM32F3xx_HAL_Driver/Src/stm32f3xx_hal_tim_ex.c ****                
 921:Drivers/STM32F3xx_HAL_Driver/Src/stm32f3xx_hal_tim_ex.c **** @endverbatim
 922:Drivers/STM32F3xx_HAL_Driver/Src/stm32f3xx_hal_tim_ex.c ****   * @{
 923:Drivers/STM32F3xx_HAL_Driver/Src/stm32f3xx_hal_tim_ex.c ****   */
 924:Drivers/STM32F3xx_HAL_Driver/Src/stm32f3xx_hal_tim_ex.c **** 
 925:Drivers/STM32F3xx_HAL_Driver/Src/stm32f3xx_hal_tim_ex.c **** /**
 926:Drivers/STM32F3xx_HAL_Driver/Src/stm32f3xx_hal_tim_ex.c ****   * @brief  Starts the PWM signal generation on the complementary output.
 927:Drivers/STM32F3xx_HAL_Driver/Src/stm32f3xx_hal_tim_ex.c ****   * @param  htim: TIM handle
 928:Drivers/STM32F3xx_HAL_Driver/Src/stm32f3xx_hal_tim_ex.c ****   * @param  Channel: TIM Channel to be enabled
 929:Drivers/STM32F3xx_HAL_Driver/Src/stm32f3xx_hal_tim_ex.c ****   *          This parameter can be one of the following values:
 930:Drivers/STM32F3xx_HAL_Driver/Src/stm32f3xx_hal_tim_ex.c ****   *            @arg TIM_CHANNEL_1: TIM Channel 1 selected
 931:Drivers/STM32F3xx_HAL_Driver/Src/stm32f3xx_hal_tim_ex.c ****   *            @arg TIM_CHANNEL_2: TIM Channel 2 selected
 932:Drivers/STM32F3xx_HAL_Driver/Src/stm32f3xx_hal_tim_ex.c ****   *            @arg TIM_CHANNEL_3: TIM Channel 3 selected
 933:Drivers/STM32F3xx_HAL_Driver/Src/stm32f3xx_hal_tim_ex.c ****   *            @arg TIM_CHANNEL_4: TIM Channel 4 selected
 934:Drivers/STM32F3xx_HAL_Driver/Src/stm32f3xx_hal_tim_ex.c ****   * @retval HAL status
 935:Drivers/STM32F3xx_HAL_Driver/Src/stm32f3xx_hal_tim_ex.c ****   */
 936:Drivers/STM32F3xx_HAL_Driver/Src/stm32f3xx_hal_tim_ex.c **** HAL_StatusTypeDef HAL_TIMEx_PWMN_Start(TIM_HandleTypeDef *htim, uint32_t Channel)
 937:Drivers/STM32F3xx_HAL_Driver/Src/stm32f3xx_hal_tim_ex.c **** {
 1687              		.loc 1 937 0
 1688              		.cfi_startproc
 1689              		@ args = 0, pretend = 0, frame = 8
 1690              		@ frame_needed = 1, uses_anonymous_args = 0
 1691 0000 80B5     		push	{r7, lr}
 1692              	.LCFI48:
 1693              		.cfi_def_cfa_offset 8
 1694              		.cfi_offset 7, -8
 1695              		.cfi_offset 14, -4
 1696 0002 82B0     		sub	sp, sp, #8
 1697              	.LCFI49:
 1698              		.cfi_def_cfa_offset 16
 1699 0004 00AF     		add	r7, sp, #0
 1700              	.LCFI50:
 1701              		.cfi_def_cfa_register 7
 1702 0006 7860     		str	r0, [r7, #4]
 1703 0008 3960     		str	r1, [r7]
 938:Drivers/STM32F3xx_HAL_Driver/Src/stm32f3xx_hal_tim_ex.c ****   /* Check the parameters */
 939:Drivers/STM32F3xx_HAL_Driver/Src/stm32f3xx_hal_tim_ex.c ****   assert_param(IS_TIM_CCXN_INSTANCE(htim->Instance, Channel)); 
 940:Drivers/STM32F3xx_HAL_Driver/Src/stm32f3xx_hal_tim_ex.c ****   
 941:Drivers/STM32F3xx_HAL_Driver/Src/stm32f3xx_hal_tim_ex.c ****   /* Enable the complementary PWM output  */
 942:Drivers/STM32F3xx_HAL_Driver/Src/stm32f3xx_hal_tim_ex.c ****   TIM_CCxNChannelCmd(htim->Instance, Channel, TIM_CCxN_ENABLE);
 1704              		.loc 1 942 0
 1705 000a 7B68     		ldr	r3, [r7, #4]
 1706 000c 1B68     		ldr	r3, [r3]
 1707 000e 1846     		mov	r0, r3
 1708 0010 3968     		ldr	r1, [r7]
 1709 0012 0422     		movs	r2, #4
 1710 0014 FFF7FEFF 		bl	TIM_CCxNChannelCmd
 943:Drivers/STM32F3xx_HAL_Driver/Src/stm32f3xx_hal_tim_ex.c ****   
 944:Drivers/STM32F3xx_HAL_Driver/Src/stm32f3xx_hal_tim_ex.c ****   /* Enable the Main Ouput */
 945:Drivers/STM32F3xx_HAL_Driver/Src/stm32f3xx_hal_tim_ex.c ****   __HAL_TIM_MOE_ENABLE(htim);
ARM GAS  /tmp/ccRzvoJq.s 			page 47


 1711              		.loc 1 945 0
 1712 0018 7B68     		ldr	r3, [r7, #4]
 1713 001a 1B68     		ldr	r3, [r3]
 1714 001c 7A68     		ldr	r2, [r7, #4]
 1715 001e 1268     		ldr	r2, [r2]
 1716 0020 526C     		ldr	r2, [r2, #68]
 1717 0022 42F40042 		orr	r2, r2, #32768
 1718 0026 5A64     		str	r2, [r3, #68]
 946:Drivers/STM32F3xx_HAL_Driver/Src/stm32f3xx_hal_tim_ex.c ****   
 947:Drivers/STM32F3xx_HAL_Driver/Src/stm32f3xx_hal_tim_ex.c ****   /* Enable the Peripheral */
 948:Drivers/STM32F3xx_HAL_Driver/Src/stm32f3xx_hal_tim_ex.c ****   __HAL_TIM_ENABLE(htim);
 1719              		.loc 1 948 0
 1720 0028 7B68     		ldr	r3, [r7, #4]
 1721 002a 1B68     		ldr	r3, [r3]
 1722 002c 7A68     		ldr	r2, [r7, #4]
 1723 002e 1268     		ldr	r2, [r2]
 1724 0030 1268     		ldr	r2, [r2]
 1725 0032 42F00102 		orr	r2, r2, #1
 1726 0036 1A60     		str	r2, [r3]
 949:Drivers/STM32F3xx_HAL_Driver/Src/stm32f3xx_hal_tim_ex.c ****   
 950:Drivers/STM32F3xx_HAL_Driver/Src/stm32f3xx_hal_tim_ex.c ****   /* Return function status */
 951:Drivers/STM32F3xx_HAL_Driver/Src/stm32f3xx_hal_tim_ex.c ****   return HAL_OK;
 1727              		.loc 1 951 0
 1728 0038 0023     		movs	r3, #0
 952:Drivers/STM32F3xx_HAL_Driver/Src/stm32f3xx_hal_tim_ex.c **** } 
 1729              		.loc 1 952 0
 1730 003a 1846     		mov	r0, r3
 1731 003c 0837     		adds	r7, r7, #8
 1732 003e BD46     		mov	sp, r7
 1733              		@ sp needed
 1734 0040 80BD     		pop	{r7, pc}
 1735              		.cfi_endproc
 1736              	.LFE141:
 1738 0042 00BF     		.section	.text.HAL_TIMEx_PWMN_Stop,"ax",%progbits
 1739              		.align	2
 1740              		.global	HAL_TIMEx_PWMN_Stop
 1741              		.thumb
 1742              		.thumb_func
 1744              	HAL_TIMEx_PWMN_Stop:
 1745              	.LFB142:
 953:Drivers/STM32F3xx_HAL_Driver/Src/stm32f3xx_hal_tim_ex.c **** 
 954:Drivers/STM32F3xx_HAL_Driver/Src/stm32f3xx_hal_tim_ex.c **** /**
 955:Drivers/STM32F3xx_HAL_Driver/Src/stm32f3xx_hal_tim_ex.c ****   * @brief  Stops the PWM signal generation on the complementary output.
 956:Drivers/STM32F3xx_HAL_Driver/Src/stm32f3xx_hal_tim_ex.c ****   * @param  htim: TIM handle
 957:Drivers/STM32F3xx_HAL_Driver/Src/stm32f3xx_hal_tim_ex.c ****   * @param  Channel: TIM Channel to be disabled
 958:Drivers/STM32F3xx_HAL_Driver/Src/stm32f3xx_hal_tim_ex.c ****   *          This parameter can be one of the following values:
 959:Drivers/STM32F3xx_HAL_Driver/Src/stm32f3xx_hal_tim_ex.c ****   *            @arg TIM_CHANNEL_1: TIM Channel 1 selected
 960:Drivers/STM32F3xx_HAL_Driver/Src/stm32f3xx_hal_tim_ex.c ****   *            @arg TIM_CHANNEL_2: TIM Channel 2 selected
 961:Drivers/STM32F3xx_HAL_Driver/Src/stm32f3xx_hal_tim_ex.c ****   *            @arg TIM_CHANNEL_3: TIM Channel 3 selected
 962:Drivers/STM32F3xx_HAL_Driver/Src/stm32f3xx_hal_tim_ex.c ****   *            @arg TIM_CHANNEL_4: TIM Channel 4 selected
 963:Drivers/STM32F3xx_HAL_Driver/Src/stm32f3xx_hal_tim_ex.c ****   * @retval HAL status
 964:Drivers/STM32F3xx_HAL_Driver/Src/stm32f3xx_hal_tim_ex.c ****   */
 965:Drivers/STM32F3xx_HAL_Driver/Src/stm32f3xx_hal_tim_ex.c **** HAL_StatusTypeDef HAL_TIMEx_PWMN_Stop(TIM_HandleTypeDef *htim, uint32_t Channel)
 966:Drivers/STM32F3xx_HAL_Driver/Src/stm32f3xx_hal_tim_ex.c **** { 
 1746              		.loc 1 966 0
 1747              		.cfi_startproc
 1748              		@ args = 0, pretend = 0, frame = 8
ARM GAS  /tmp/ccRzvoJq.s 			page 48


 1749              		@ frame_needed = 1, uses_anonymous_args = 0
 1750 0000 80B5     		push	{r7, lr}
 1751              	.LCFI51:
 1752              		.cfi_def_cfa_offset 8
 1753              		.cfi_offset 7, -8
 1754              		.cfi_offset 14, -4
 1755 0002 82B0     		sub	sp, sp, #8
 1756              	.LCFI52:
 1757              		.cfi_def_cfa_offset 16
 1758 0004 00AF     		add	r7, sp, #0
 1759              	.LCFI53:
 1760              		.cfi_def_cfa_register 7
 1761 0006 7860     		str	r0, [r7, #4]
 1762 0008 3960     		str	r1, [r7]
 967:Drivers/STM32F3xx_HAL_Driver/Src/stm32f3xx_hal_tim_ex.c ****   /* Check the parameters */
 968:Drivers/STM32F3xx_HAL_Driver/Src/stm32f3xx_hal_tim_ex.c ****   assert_param(IS_TIM_CCXN_INSTANCE(htim->Instance, Channel)); 
 969:Drivers/STM32F3xx_HAL_Driver/Src/stm32f3xx_hal_tim_ex.c ****   
 970:Drivers/STM32F3xx_HAL_Driver/Src/stm32f3xx_hal_tim_ex.c ****   /* Disable the complementary PWM output  */
 971:Drivers/STM32F3xx_HAL_Driver/Src/stm32f3xx_hal_tim_ex.c ****   TIM_CCxNChannelCmd(htim->Instance, Channel, TIM_CCxN_DISABLE);  
 1763              		.loc 1 971 0
 1764 000a 7B68     		ldr	r3, [r7, #4]
 1765 000c 1B68     		ldr	r3, [r3]
 1766 000e 1846     		mov	r0, r3
 1767 0010 3968     		ldr	r1, [r7]
 1768 0012 0022     		movs	r2, #0
 1769 0014 FFF7FEFF 		bl	TIM_CCxNChannelCmd
 972:Drivers/STM32F3xx_HAL_Driver/Src/stm32f3xx_hal_tim_ex.c ****   
 973:Drivers/STM32F3xx_HAL_Driver/Src/stm32f3xx_hal_tim_ex.c ****   /* Disable the Main Ouput */
 974:Drivers/STM32F3xx_HAL_Driver/Src/stm32f3xx_hal_tim_ex.c ****   __HAL_TIM_MOE_DISABLE(htim);
 1770              		.loc 1 974 0
 1771 0018 7B68     		ldr	r3, [r7, #4]
 1772 001a 1B68     		ldr	r3, [r3]
 1773 001c 1A6A     		ldr	r2, [r3, #32]
 1774 001e 41F21113 		movw	r3, #4369
 1775 0022 1340     		ands	r3, r3, r2
 1776 0024 002B     		cmp	r3, #0
 1777 0026 0FD1     		bne	.L90
 1778              		.loc 1 974 0 is_stmt 0 discriminator 1
 1779 0028 7B68     		ldr	r3, [r7, #4]
 1780 002a 1B68     		ldr	r3, [r3]
 1781 002c 1A6A     		ldr	r2, [r3, #32]
 1782 002e 40F24443 		movw	r3, #1092
 1783 0032 1340     		ands	r3, r3, r2
 1784 0034 002B     		cmp	r3, #0
 1785 0036 07D1     		bne	.L90
 1786 0038 7B68     		ldr	r3, [r7, #4]
 1787 003a 1B68     		ldr	r3, [r3]
 1788 003c 7A68     		ldr	r2, [r7, #4]
 1789 003e 1268     		ldr	r2, [r2]
 1790 0040 526C     		ldr	r2, [r2, #68]
 1791 0042 22F40042 		bic	r2, r2, #32768
 1792 0046 5A64     		str	r2, [r3, #68]
 1793              	.L90:
 975:Drivers/STM32F3xx_HAL_Driver/Src/stm32f3xx_hal_tim_ex.c ****   
 976:Drivers/STM32F3xx_HAL_Driver/Src/stm32f3xx_hal_tim_ex.c ****   /* Disable the Peripheral */
 977:Drivers/STM32F3xx_HAL_Driver/Src/stm32f3xx_hal_tim_ex.c ****   __HAL_TIM_DISABLE(htim);
 1794              		.loc 1 977 0 is_stmt 1
ARM GAS  /tmp/ccRzvoJq.s 			page 49


 1795 0048 7B68     		ldr	r3, [r7, #4]
 1796 004a 1B68     		ldr	r3, [r3]
 1797 004c 1A6A     		ldr	r2, [r3, #32]
 1798 004e 41F21113 		movw	r3, #4369
 1799 0052 1340     		ands	r3, r3, r2
 1800 0054 002B     		cmp	r3, #0
 1801 0056 0FD1     		bne	.L91
 1802              		.loc 1 977 0 is_stmt 0 discriminator 1
 1803 0058 7B68     		ldr	r3, [r7, #4]
 1804 005a 1B68     		ldr	r3, [r3]
 1805 005c 1A6A     		ldr	r2, [r3, #32]
 1806 005e 40F24443 		movw	r3, #1092
 1807 0062 1340     		ands	r3, r3, r2
 1808 0064 002B     		cmp	r3, #0
 1809 0066 07D1     		bne	.L91
 1810 0068 7B68     		ldr	r3, [r7, #4]
 1811 006a 1B68     		ldr	r3, [r3]
 1812 006c 7A68     		ldr	r2, [r7, #4]
 1813 006e 1268     		ldr	r2, [r2]
 1814 0070 1268     		ldr	r2, [r2]
 1815 0072 22F00102 		bic	r2, r2, #1
 1816 0076 1A60     		str	r2, [r3]
 1817              	.L91:
 978:Drivers/STM32F3xx_HAL_Driver/Src/stm32f3xx_hal_tim_ex.c ****   
 979:Drivers/STM32F3xx_HAL_Driver/Src/stm32f3xx_hal_tim_ex.c ****   /* Return function status */
 980:Drivers/STM32F3xx_HAL_Driver/Src/stm32f3xx_hal_tim_ex.c ****   return HAL_OK;
 1818              		.loc 1 980 0 is_stmt 1
 1819 0078 0023     		movs	r3, #0
 981:Drivers/STM32F3xx_HAL_Driver/Src/stm32f3xx_hal_tim_ex.c **** } 
 1820              		.loc 1 981 0
 1821 007a 1846     		mov	r0, r3
 1822 007c 0837     		adds	r7, r7, #8
 1823 007e BD46     		mov	sp, r7
 1824              		@ sp needed
 1825 0080 80BD     		pop	{r7, pc}
 1826              		.cfi_endproc
 1827              	.LFE142:
 1829 0082 00BF     		.section	.text.HAL_TIMEx_PWMN_Start_IT,"ax",%progbits
 1830              		.align	2
 1831              		.global	HAL_TIMEx_PWMN_Start_IT
 1832              		.thumb
 1833              		.thumb_func
 1835              	HAL_TIMEx_PWMN_Start_IT:
 1836              	.LFB143:
 982:Drivers/STM32F3xx_HAL_Driver/Src/stm32f3xx_hal_tim_ex.c **** 
 983:Drivers/STM32F3xx_HAL_Driver/Src/stm32f3xx_hal_tim_ex.c **** /**
 984:Drivers/STM32F3xx_HAL_Driver/Src/stm32f3xx_hal_tim_ex.c ****   * @brief  Starts the PWM signal generation in interrupt mode on the 
 985:Drivers/STM32F3xx_HAL_Driver/Src/stm32f3xx_hal_tim_ex.c ****   *         complementary output.
 986:Drivers/STM32F3xx_HAL_Driver/Src/stm32f3xx_hal_tim_ex.c ****   * @param  htim: TIM handle
 987:Drivers/STM32F3xx_HAL_Driver/Src/stm32f3xx_hal_tim_ex.c ****   * @param  Channel: TIM Channel to be disabled
 988:Drivers/STM32F3xx_HAL_Driver/Src/stm32f3xx_hal_tim_ex.c ****   *          This parameter can be one of the following values:
 989:Drivers/STM32F3xx_HAL_Driver/Src/stm32f3xx_hal_tim_ex.c ****   *            @arg TIM_CHANNEL_1: TIM Channel 1 selected
 990:Drivers/STM32F3xx_HAL_Driver/Src/stm32f3xx_hal_tim_ex.c ****   *            @arg TIM_CHANNEL_2: TIM Channel 2 selected
 991:Drivers/STM32F3xx_HAL_Driver/Src/stm32f3xx_hal_tim_ex.c ****   *            @arg TIM_CHANNEL_3: TIM Channel 3 selected
 992:Drivers/STM32F3xx_HAL_Driver/Src/stm32f3xx_hal_tim_ex.c ****   *            @arg TIM_CHANNEL_4: TIM Channel 4 selected
 993:Drivers/STM32F3xx_HAL_Driver/Src/stm32f3xx_hal_tim_ex.c ****   * @retval HAL status
 994:Drivers/STM32F3xx_HAL_Driver/Src/stm32f3xx_hal_tim_ex.c ****   */
ARM GAS  /tmp/ccRzvoJq.s 			page 50


 995:Drivers/STM32F3xx_HAL_Driver/Src/stm32f3xx_hal_tim_ex.c **** HAL_StatusTypeDef HAL_TIMEx_PWMN_Start_IT(TIM_HandleTypeDef *htim, uint32_t Channel)
 996:Drivers/STM32F3xx_HAL_Driver/Src/stm32f3xx_hal_tim_ex.c **** {
 1837              		.loc 1 996 0
 1838              		.cfi_startproc
 1839              		@ args = 0, pretend = 0, frame = 8
 1840              		@ frame_needed = 1, uses_anonymous_args = 0
 1841 0000 80B5     		push	{r7, lr}
 1842              	.LCFI54:
 1843              		.cfi_def_cfa_offset 8
 1844              		.cfi_offset 7, -8
 1845              		.cfi_offset 14, -4
 1846 0002 82B0     		sub	sp, sp, #8
 1847              	.LCFI55:
 1848              		.cfi_def_cfa_offset 16
 1849 0004 00AF     		add	r7, sp, #0
 1850              	.LCFI56:
 1851              		.cfi_def_cfa_register 7
 1852 0006 7860     		str	r0, [r7, #4]
 1853 0008 3960     		str	r1, [r7]
 997:Drivers/STM32F3xx_HAL_Driver/Src/stm32f3xx_hal_tim_ex.c ****   /* Check the parameters */
 998:Drivers/STM32F3xx_HAL_Driver/Src/stm32f3xx_hal_tim_ex.c ****   assert_param(IS_TIM_CCXN_INSTANCE(htim->Instance, Channel)); 
 999:Drivers/STM32F3xx_HAL_Driver/Src/stm32f3xx_hal_tim_ex.c ****   
1000:Drivers/STM32F3xx_HAL_Driver/Src/stm32f3xx_hal_tim_ex.c ****   switch (Channel)
 1854              		.loc 1 1000 0
 1855 000a 3B68     		ldr	r3, [r7]
 1856 000c 0C2B     		cmp	r3, #12
 1857 000e 41D8     		bhi	.L102
 1858 0010 01A2     		adr	r2, .L96
 1859 0012 52F823F0 		ldr	pc, [r2, r3, lsl #2]
 1860 0016 00BF     		.p2align 2
 1861              	.L96:
 1862 0018 4D000000 		.word	.L95+1
 1863 001c 95000000 		.word	.L102+1
 1864 0020 95000000 		.word	.L102+1
 1865 0024 95000000 		.word	.L102+1
 1866 0028 5F000000 		.word	.L97+1
 1867 002c 95000000 		.word	.L102+1
 1868 0030 95000000 		.word	.L102+1
 1869 0034 95000000 		.word	.L102+1
 1870 0038 71000000 		.word	.L98+1
 1871 003c 95000000 		.word	.L102+1
 1872 0040 95000000 		.word	.L102+1
 1873 0044 95000000 		.word	.L102+1
 1874 0048 83000000 		.word	.L99+1
 1875              		.p2align 1
 1876              	.L95:
1001:Drivers/STM32F3xx_HAL_Driver/Src/stm32f3xx_hal_tim_ex.c ****   {
1002:Drivers/STM32F3xx_HAL_Driver/Src/stm32f3xx_hal_tim_ex.c ****     case TIM_CHANNEL_1:
1003:Drivers/STM32F3xx_HAL_Driver/Src/stm32f3xx_hal_tim_ex.c ****     {       
1004:Drivers/STM32F3xx_HAL_Driver/Src/stm32f3xx_hal_tim_ex.c ****       /* Enable the TIM Capture/Compare 1 interrupt */
1005:Drivers/STM32F3xx_HAL_Driver/Src/stm32f3xx_hal_tim_ex.c ****       __HAL_TIM_ENABLE_IT(htim, TIM_IT_CC1);
 1877              		.loc 1 1005 0
 1878 004c 7B68     		ldr	r3, [r7, #4]
 1879 004e 1B68     		ldr	r3, [r3]
 1880 0050 7A68     		ldr	r2, [r7, #4]
 1881 0052 1268     		ldr	r2, [r2]
 1882 0054 D268     		ldr	r2, [r2, #12]
ARM GAS  /tmp/ccRzvoJq.s 			page 51


 1883 0056 42F00202 		orr	r2, r2, #2
 1884 005a DA60     		str	r2, [r3, #12]
1006:Drivers/STM32F3xx_HAL_Driver/Src/stm32f3xx_hal_tim_ex.c ****     }
1007:Drivers/STM32F3xx_HAL_Driver/Src/stm32f3xx_hal_tim_ex.c ****     break;
 1885              		.loc 1 1007 0
 1886 005c 1BE0     		b	.L100
 1887              	.L97:
1008:Drivers/STM32F3xx_HAL_Driver/Src/stm32f3xx_hal_tim_ex.c ****     
1009:Drivers/STM32F3xx_HAL_Driver/Src/stm32f3xx_hal_tim_ex.c ****     case TIM_CHANNEL_2:
1010:Drivers/STM32F3xx_HAL_Driver/Src/stm32f3xx_hal_tim_ex.c ****     {
1011:Drivers/STM32F3xx_HAL_Driver/Src/stm32f3xx_hal_tim_ex.c ****       /* Enable the TIM Capture/Compare 2 interrupt */
1012:Drivers/STM32F3xx_HAL_Driver/Src/stm32f3xx_hal_tim_ex.c ****       __HAL_TIM_ENABLE_IT(htim, TIM_IT_CC2);
 1888              		.loc 1 1012 0
 1889 005e 7B68     		ldr	r3, [r7, #4]
 1890 0060 1B68     		ldr	r3, [r3]
 1891 0062 7A68     		ldr	r2, [r7, #4]
 1892 0064 1268     		ldr	r2, [r2]
 1893 0066 D268     		ldr	r2, [r2, #12]
 1894 0068 42F00402 		orr	r2, r2, #4
 1895 006c DA60     		str	r2, [r3, #12]
1013:Drivers/STM32F3xx_HAL_Driver/Src/stm32f3xx_hal_tim_ex.c ****     }
1014:Drivers/STM32F3xx_HAL_Driver/Src/stm32f3xx_hal_tim_ex.c ****     break;
 1896              		.loc 1 1014 0
 1897 006e 12E0     		b	.L100
 1898              	.L98:
1015:Drivers/STM32F3xx_HAL_Driver/Src/stm32f3xx_hal_tim_ex.c ****     
1016:Drivers/STM32F3xx_HAL_Driver/Src/stm32f3xx_hal_tim_ex.c ****     case TIM_CHANNEL_3:
1017:Drivers/STM32F3xx_HAL_Driver/Src/stm32f3xx_hal_tim_ex.c ****     {
1018:Drivers/STM32F3xx_HAL_Driver/Src/stm32f3xx_hal_tim_ex.c ****       /* Enable the TIM Capture/Compare 3 interrupt */
1019:Drivers/STM32F3xx_HAL_Driver/Src/stm32f3xx_hal_tim_ex.c ****       __HAL_TIM_ENABLE_IT(htim, TIM_IT_CC3);
 1899              		.loc 1 1019 0
 1900 0070 7B68     		ldr	r3, [r7, #4]
 1901 0072 1B68     		ldr	r3, [r3]
 1902 0074 7A68     		ldr	r2, [r7, #4]
 1903 0076 1268     		ldr	r2, [r2]
 1904 0078 D268     		ldr	r2, [r2, #12]
 1905 007a 42F00802 		orr	r2, r2, #8
 1906 007e DA60     		str	r2, [r3, #12]
1020:Drivers/STM32F3xx_HAL_Driver/Src/stm32f3xx_hal_tim_ex.c ****     }
1021:Drivers/STM32F3xx_HAL_Driver/Src/stm32f3xx_hal_tim_ex.c ****     break;
 1907              		.loc 1 1021 0
 1908 0080 09E0     		b	.L100
 1909              	.L99:
1022:Drivers/STM32F3xx_HAL_Driver/Src/stm32f3xx_hal_tim_ex.c ****     
1023:Drivers/STM32F3xx_HAL_Driver/Src/stm32f3xx_hal_tim_ex.c ****     case TIM_CHANNEL_4:
1024:Drivers/STM32F3xx_HAL_Driver/Src/stm32f3xx_hal_tim_ex.c ****     {
1025:Drivers/STM32F3xx_HAL_Driver/Src/stm32f3xx_hal_tim_ex.c ****       /* Enable the TIM Capture/Compare 4 interrupt */
1026:Drivers/STM32F3xx_HAL_Driver/Src/stm32f3xx_hal_tim_ex.c ****       __HAL_TIM_ENABLE_IT(htim, TIM_IT_CC4);
 1910              		.loc 1 1026 0
 1911 0082 7B68     		ldr	r3, [r7, #4]
 1912 0084 1B68     		ldr	r3, [r3]
 1913 0086 7A68     		ldr	r2, [r7, #4]
 1914 0088 1268     		ldr	r2, [r2]
 1915 008a D268     		ldr	r2, [r2, #12]
 1916 008c 42F01002 		orr	r2, r2, #16
 1917 0090 DA60     		str	r2, [r3, #12]
1027:Drivers/STM32F3xx_HAL_Driver/Src/stm32f3xx_hal_tim_ex.c ****     }
ARM GAS  /tmp/ccRzvoJq.s 			page 52


1028:Drivers/STM32F3xx_HAL_Driver/Src/stm32f3xx_hal_tim_ex.c ****     break;
 1918              		.loc 1 1028 0
 1919 0092 00E0     		b	.L100
 1920              	.L102:
1029:Drivers/STM32F3xx_HAL_Driver/Src/stm32f3xx_hal_tim_ex.c ****     
1030:Drivers/STM32F3xx_HAL_Driver/Src/stm32f3xx_hal_tim_ex.c ****     default:
1031:Drivers/STM32F3xx_HAL_Driver/Src/stm32f3xx_hal_tim_ex.c ****     break;
 1921              		.loc 1 1031 0
 1922 0094 00BF     		nop
 1923              	.L100:
1032:Drivers/STM32F3xx_HAL_Driver/Src/stm32f3xx_hal_tim_ex.c ****   } 
1033:Drivers/STM32F3xx_HAL_Driver/Src/stm32f3xx_hal_tim_ex.c ****   
1034:Drivers/STM32F3xx_HAL_Driver/Src/stm32f3xx_hal_tim_ex.c ****   /* Enable the TIM Break interrupt */
1035:Drivers/STM32F3xx_HAL_Driver/Src/stm32f3xx_hal_tim_ex.c ****   __HAL_TIM_ENABLE_IT(htim, TIM_IT_BREAK);
 1924              		.loc 1 1035 0
 1925 0096 7B68     		ldr	r3, [r7, #4]
 1926 0098 1B68     		ldr	r3, [r3]
 1927 009a 7A68     		ldr	r2, [r7, #4]
 1928 009c 1268     		ldr	r2, [r2]
 1929 009e D268     		ldr	r2, [r2, #12]
 1930 00a0 42F08002 		orr	r2, r2, #128
 1931 00a4 DA60     		str	r2, [r3, #12]
1036:Drivers/STM32F3xx_HAL_Driver/Src/stm32f3xx_hal_tim_ex.c ****   
1037:Drivers/STM32F3xx_HAL_Driver/Src/stm32f3xx_hal_tim_ex.c ****   /* Enable the complementary PWM output  */
1038:Drivers/STM32F3xx_HAL_Driver/Src/stm32f3xx_hal_tim_ex.c ****   TIM_CCxNChannelCmd(htim->Instance, Channel, TIM_CCxN_ENABLE);
 1932              		.loc 1 1038 0
 1933 00a6 7B68     		ldr	r3, [r7, #4]
 1934 00a8 1B68     		ldr	r3, [r3]
 1935 00aa 1846     		mov	r0, r3
 1936 00ac 3968     		ldr	r1, [r7]
 1937 00ae 0422     		movs	r2, #4
 1938 00b0 FFF7FEFF 		bl	TIM_CCxNChannelCmd
1039:Drivers/STM32F3xx_HAL_Driver/Src/stm32f3xx_hal_tim_ex.c ****   
1040:Drivers/STM32F3xx_HAL_Driver/Src/stm32f3xx_hal_tim_ex.c ****   /* Enable the Main Ouput */
1041:Drivers/STM32F3xx_HAL_Driver/Src/stm32f3xx_hal_tim_ex.c ****   __HAL_TIM_MOE_ENABLE(htim);
 1939              		.loc 1 1041 0
 1940 00b4 7B68     		ldr	r3, [r7, #4]
 1941 00b6 1B68     		ldr	r3, [r3]
 1942 00b8 7A68     		ldr	r2, [r7, #4]
 1943 00ba 1268     		ldr	r2, [r2]
 1944 00bc 526C     		ldr	r2, [r2, #68]
 1945 00be 42F40042 		orr	r2, r2, #32768
 1946 00c2 5A64     		str	r2, [r3, #68]
1042:Drivers/STM32F3xx_HAL_Driver/Src/stm32f3xx_hal_tim_ex.c ****   
1043:Drivers/STM32F3xx_HAL_Driver/Src/stm32f3xx_hal_tim_ex.c ****   /* Enable the Peripheral */
1044:Drivers/STM32F3xx_HAL_Driver/Src/stm32f3xx_hal_tim_ex.c ****   __HAL_TIM_ENABLE(htim);
 1947              		.loc 1 1044 0
 1948 00c4 7B68     		ldr	r3, [r7, #4]
 1949 00c6 1B68     		ldr	r3, [r3]
 1950 00c8 7A68     		ldr	r2, [r7, #4]
 1951 00ca 1268     		ldr	r2, [r2]
 1952 00cc 1268     		ldr	r2, [r2]
 1953 00ce 42F00102 		orr	r2, r2, #1
 1954 00d2 1A60     		str	r2, [r3]
1045:Drivers/STM32F3xx_HAL_Driver/Src/stm32f3xx_hal_tim_ex.c ****   
1046:Drivers/STM32F3xx_HAL_Driver/Src/stm32f3xx_hal_tim_ex.c ****   /* Return function status */
1047:Drivers/STM32F3xx_HAL_Driver/Src/stm32f3xx_hal_tim_ex.c ****   return HAL_OK;
ARM GAS  /tmp/ccRzvoJq.s 			page 53


 1955              		.loc 1 1047 0
 1956 00d4 0023     		movs	r3, #0
1048:Drivers/STM32F3xx_HAL_Driver/Src/stm32f3xx_hal_tim_ex.c **** } 
 1957              		.loc 1 1048 0
 1958 00d6 1846     		mov	r0, r3
 1959 00d8 0837     		adds	r7, r7, #8
 1960 00da BD46     		mov	sp, r7
 1961              		@ sp needed
 1962 00dc 80BD     		pop	{r7, pc}
 1963              		.cfi_endproc
 1964              	.LFE143:
 1966 00de 00BF     		.section	.text.HAL_TIMEx_PWMN_Stop_IT,"ax",%progbits
 1967              		.align	2
 1968              		.global	HAL_TIMEx_PWMN_Stop_IT
 1969              		.thumb
 1970              		.thumb_func
 1972              	HAL_TIMEx_PWMN_Stop_IT:
 1973              	.LFB144:
1049:Drivers/STM32F3xx_HAL_Driver/Src/stm32f3xx_hal_tim_ex.c **** 
1050:Drivers/STM32F3xx_HAL_Driver/Src/stm32f3xx_hal_tim_ex.c **** /**
1051:Drivers/STM32F3xx_HAL_Driver/Src/stm32f3xx_hal_tim_ex.c ****   * @brief  Stops the PWM signal generation in interrupt mode on the 
1052:Drivers/STM32F3xx_HAL_Driver/Src/stm32f3xx_hal_tim_ex.c ****   *         complementary output.
1053:Drivers/STM32F3xx_HAL_Driver/Src/stm32f3xx_hal_tim_ex.c ****   * @param  htim: TIM handle
1054:Drivers/STM32F3xx_HAL_Driver/Src/stm32f3xx_hal_tim_ex.c ****   * @param  Channel: TIM Channel to be disabled
1055:Drivers/STM32F3xx_HAL_Driver/Src/stm32f3xx_hal_tim_ex.c ****   *          This parameter can be one of the following values:
1056:Drivers/STM32F3xx_HAL_Driver/Src/stm32f3xx_hal_tim_ex.c ****   *            @arg TIM_CHANNEL_1: TIM Channel 1 selected
1057:Drivers/STM32F3xx_HAL_Driver/Src/stm32f3xx_hal_tim_ex.c ****   *            @arg TIM_CHANNEL_2: TIM Channel 2 selected
1058:Drivers/STM32F3xx_HAL_Driver/Src/stm32f3xx_hal_tim_ex.c ****   *            @arg TIM_CHANNEL_3: TIM Channel 3 selected
1059:Drivers/STM32F3xx_HAL_Driver/Src/stm32f3xx_hal_tim_ex.c ****   *            @arg TIM_CHANNEL_4: TIM Channel 4 selected
1060:Drivers/STM32F3xx_HAL_Driver/Src/stm32f3xx_hal_tim_ex.c ****   * @retval HAL status
1061:Drivers/STM32F3xx_HAL_Driver/Src/stm32f3xx_hal_tim_ex.c ****   */
1062:Drivers/STM32F3xx_HAL_Driver/Src/stm32f3xx_hal_tim_ex.c **** HAL_StatusTypeDef HAL_TIMEx_PWMN_Stop_IT (TIM_HandleTypeDef *htim, uint32_t Channel)
1063:Drivers/STM32F3xx_HAL_Driver/Src/stm32f3xx_hal_tim_ex.c **** {
 1974              		.loc 1 1063 0
 1975              		.cfi_startproc
 1976              		@ args = 0, pretend = 0, frame = 16
 1977              		@ frame_needed = 1, uses_anonymous_args = 0
 1978 0000 80B5     		push	{r7, lr}
 1979              	.LCFI57:
 1980              		.cfi_def_cfa_offset 8
 1981              		.cfi_offset 7, -8
 1982              		.cfi_offset 14, -4
 1983 0002 84B0     		sub	sp, sp, #16
 1984              	.LCFI58:
 1985              		.cfi_def_cfa_offset 24
 1986 0004 00AF     		add	r7, sp, #0
 1987              	.LCFI59:
 1988              		.cfi_def_cfa_register 7
 1989 0006 7860     		str	r0, [r7, #4]
 1990 0008 3960     		str	r1, [r7]
1064:Drivers/STM32F3xx_HAL_Driver/Src/stm32f3xx_hal_tim_ex.c ****   uint32_t tmpccer = 0;
 1991              		.loc 1 1064 0
 1992 000a 0023     		movs	r3, #0
 1993 000c FB60     		str	r3, [r7, #12]
1065:Drivers/STM32F3xx_HAL_Driver/Src/stm32f3xx_hal_tim_ex.c **** 
1066:Drivers/STM32F3xx_HAL_Driver/Src/stm32f3xx_hal_tim_ex.c ****   /* Check the parameters */
1067:Drivers/STM32F3xx_HAL_Driver/Src/stm32f3xx_hal_tim_ex.c ****   assert_param(IS_TIM_CCXN_INSTANCE(htim->Instance, Channel)); 
ARM GAS  /tmp/ccRzvoJq.s 			page 54


1068:Drivers/STM32F3xx_HAL_Driver/Src/stm32f3xx_hal_tim_ex.c **** 
1069:Drivers/STM32F3xx_HAL_Driver/Src/stm32f3xx_hal_tim_ex.c ****   switch (Channel)
 1994              		.loc 1 1069 0
 1995 000e 3B68     		ldr	r3, [r7]
 1996 0010 0C2B     		cmp	r3, #12
 1997 0012 41D8     		bhi	.L115
 1998 0014 01A2     		adr	r2, .L106
 1999 0016 52F823F0 		ldr	pc, [r2, r3, lsl #2]
 2000 001a 00BF     		.p2align 2
 2001              	.L106:
 2002 001c 51000000 		.word	.L105+1
 2003 0020 99000000 		.word	.L115+1
 2004 0024 99000000 		.word	.L115+1
 2005 0028 99000000 		.word	.L115+1
 2006 002c 63000000 		.word	.L107+1
 2007 0030 99000000 		.word	.L115+1
 2008 0034 99000000 		.word	.L115+1
 2009 0038 99000000 		.word	.L115+1
 2010 003c 75000000 		.word	.L108+1
 2011 0040 99000000 		.word	.L115+1
 2012 0044 99000000 		.word	.L115+1
 2013 0048 99000000 		.word	.L115+1
 2014 004c 87000000 		.word	.L109+1
 2015              		.p2align 1
 2016              	.L105:
1070:Drivers/STM32F3xx_HAL_Driver/Src/stm32f3xx_hal_tim_ex.c ****   {
1071:Drivers/STM32F3xx_HAL_Driver/Src/stm32f3xx_hal_tim_ex.c ****     case TIM_CHANNEL_1:
1072:Drivers/STM32F3xx_HAL_Driver/Src/stm32f3xx_hal_tim_ex.c ****     {       
1073:Drivers/STM32F3xx_HAL_Driver/Src/stm32f3xx_hal_tim_ex.c ****       /* Disable the TIM Capture/Compare 1 interrupt */
1074:Drivers/STM32F3xx_HAL_Driver/Src/stm32f3xx_hal_tim_ex.c ****       __HAL_TIM_DISABLE_IT(htim, TIM_IT_CC1);
 2017              		.loc 1 1074 0
 2018 0050 7B68     		ldr	r3, [r7, #4]
 2019 0052 1B68     		ldr	r3, [r3]
 2020 0054 7A68     		ldr	r2, [r7, #4]
 2021 0056 1268     		ldr	r2, [r2]
 2022 0058 D268     		ldr	r2, [r2, #12]
 2023 005a 22F00202 		bic	r2, r2, #2
 2024 005e DA60     		str	r2, [r3, #12]
1075:Drivers/STM32F3xx_HAL_Driver/Src/stm32f3xx_hal_tim_ex.c ****     }
1076:Drivers/STM32F3xx_HAL_Driver/Src/stm32f3xx_hal_tim_ex.c ****     break;
 2025              		.loc 1 1076 0
 2026 0060 1BE0     		b	.L110
 2027              	.L107:
1077:Drivers/STM32F3xx_HAL_Driver/Src/stm32f3xx_hal_tim_ex.c ****     
1078:Drivers/STM32F3xx_HAL_Driver/Src/stm32f3xx_hal_tim_ex.c ****     case TIM_CHANNEL_2:
1079:Drivers/STM32F3xx_HAL_Driver/Src/stm32f3xx_hal_tim_ex.c ****     {
1080:Drivers/STM32F3xx_HAL_Driver/Src/stm32f3xx_hal_tim_ex.c ****       /* Disable the TIM Capture/Compare 2 interrupt */
1081:Drivers/STM32F3xx_HAL_Driver/Src/stm32f3xx_hal_tim_ex.c ****       __HAL_TIM_DISABLE_IT(htim, TIM_IT_CC2);
 2028              		.loc 1 1081 0
 2029 0062 7B68     		ldr	r3, [r7, #4]
 2030 0064 1B68     		ldr	r3, [r3]
 2031 0066 7A68     		ldr	r2, [r7, #4]
 2032 0068 1268     		ldr	r2, [r2]
 2033 006a D268     		ldr	r2, [r2, #12]
 2034 006c 22F00402 		bic	r2, r2, #4
 2035 0070 DA60     		str	r2, [r3, #12]
1082:Drivers/STM32F3xx_HAL_Driver/Src/stm32f3xx_hal_tim_ex.c ****     }
ARM GAS  /tmp/ccRzvoJq.s 			page 55


1083:Drivers/STM32F3xx_HAL_Driver/Src/stm32f3xx_hal_tim_ex.c ****     break;
 2036              		.loc 1 1083 0
 2037 0072 12E0     		b	.L110
 2038              	.L108:
1084:Drivers/STM32F3xx_HAL_Driver/Src/stm32f3xx_hal_tim_ex.c ****     
1085:Drivers/STM32F3xx_HAL_Driver/Src/stm32f3xx_hal_tim_ex.c ****     case TIM_CHANNEL_3:
1086:Drivers/STM32F3xx_HAL_Driver/Src/stm32f3xx_hal_tim_ex.c ****     {
1087:Drivers/STM32F3xx_HAL_Driver/Src/stm32f3xx_hal_tim_ex.c ****       /* Disable the TIM Capture/Compare 3 interrupt */
1088:Drivers/STM32F3xx_HAL_Driver/Src/stm32f3xx_hal_tim_ex.c ****       __HAL_TIM_DISABLE_IT(htim, TIM_IT_CC3);
 2039              		.loc 1 1088 0
 2040 0074 7B68     		ldr	r3, [r7, #4]
 2041 0076 1B68     		ldr	r3, [r3]
 2042 0078 7A68     		ldr	r2, [r7, #4]
 2043 007a 1268     		ldr	r2, [r2]
 2044 007c D268     		ldr	r2, [r2, #12]
 2045 007e 22F00802 		bic	r2, r2, #8
 2046 0082 DA60     		str	r2, [r3, #12]
1089:Drivers/STM32F3xx_HAL_Driver/Src/stm32f3xx_hal_tim_ex.c ****     }
1090:Drivers/STM32F3xx_HAL_Driver/Src/stm32f3xx_hal_tim_ex.c ****     break;
 2047              		.loc 1 1090 0
 2048 0084 09E0     		b	.L110
 2049              	.L109:
1091:Drivers/STM32F3xx_HAL_Driver/Src/stm32f3xx_hal_tim_ex.c ****     
1092:Drivers/STM32F3xx_HAL_Driver/Src/stm32f3xx_hal_tim_ex.c ****     case TIM_CHANNEL_4:
1093:Drivers/STM32F3xx_HAL_Driver/Src/stm32f3xx_hal_tim_ex.c ****     {
1094:Drivers/STM32F3xx_HAL_Driver/Src/stm32f3xx_hal_tim_ex.c ****       /* Disable the TIM Capture/Compare 3 interrupt */
1095:Drivers/STM32F3xx_HAL_Driver/Src/stm32f3xx_hal_tim_ex.c ****       __HAL_TIM_DISABLE_IT(htim, TIM_IT_CC4);
 2050              		.loc 1 1095 0
 2051 0086 7B68     		ldr	r3, [r7, #4]
 2052 0088 1B68     		ldr	r3, [r3]
 2053 008a 7A68     		ldr	r2, [r7, #4]
 2054 008c 1268     		ldr	r2, [r2]
 2055 008e D268     		ldr	r2, [r2, #12]
 2056 0090 22F01002 		bic	r2, r2, #16
 2057 0094 DA60     		str	r2, [r3, #12]
1096:Drivers/STM32F3xx_HAL_Driver/Src/stm32f3xx_hal_tim_ex.c ****     }
1097:Drivers/STM32F3xx_HAL_Driver/Src/stm32f3xx_hal_tim_ex.c ****     break;
 2058              		.loc 1 1097 0
 2059 0096 00E0     		b	.L110
 2060              	.L115:
1098:Drivers/STM32F3xx_HAL_Driver/Src/stm32f3xx_hal_tim_ex.c ****     
1099:Drivers/STM32F3xx_HAL_Driver/Src/stm32f3xx_hal_tim_ex.c ****     default:
1100:Drivers/STM32F3xx_HAL_Driver/Src/stm32f3xx_hal_tim_ex.c ****     break; 
 2061              		.loc 1 1100 0
 2062 0098 00BF     		nop
 2063              	.L110:
1101:Drivers/STM32F3xx_HAL_Driver/Src/stm32f3xx_hal_tim_ex.c ****   }
1102:Drivers/STM32F3xx_HAL_Driver/Src/stm32f3xx_hal_tim_ex.c ****   
1103:Drivers/STM32F3xx_HAL_Driver/Src/stm32f3xx_hal_tim_ex.c ****   /* Disable the complementary PWM output  */
1104:Drivers/STM32F3xx_HAL_Driver/Src/stm32f3xx_hal_tim_ex.c ****   TIM_CCxNChannelCmd(htim->Instance, Channel, TIM_CCxN_DISABLE);
 2064              		.loc 1 1104 0
 2065 009a 7B68     		ldr	r3, [r7, #4]
 2066 009c 1B68     		ldr	r3, [r3]
 2067 009e 1846     		mov	r0, r3
 2068 00a0 3968     		ldr	r1, [r7]
 2069 00a2 0022     		movs	r2, #0
 2070 00a4 FFF7FEFF 		bl	TIM_CCxNChannelCmd
ARM GAS  /tmp/ccRzvoJq.s 			page 56


1105:Drivers/STM32F3xx_HAL_Driver/Src/stm32f3xx_hal_tim_ex.c ****   
1106:Drivers/STM32F3xx_HAL_Driver/Src/stm32f3xx_hal_tim_ex.c ****   /* Disable the TIM Break interrupt (only if no more channel is active) */
1107:Drivers/STM32F3xx_HAL_Driver/Src/stm32f3xx_hal_tim_ex.c ****   tmpccer = htim->Instance->CCER;
 2071              		.loc 1 1107 0
 2072 00a8 7B68     		ldr	r3, [r7, #4]
 2073 00aa 1B68     		ldr	r3, [r3]
 2074 00ac 1B6A     		ldr	r3, [r3, #32]
 2075 00ae FB60     		str	r3, [r7, #12]
1108:Drivers/STM32F3xx_HAL_Driver/Src/stm32f3xx_hal_tim_ex.c ****   if ((tmpccer & (TIM_CCER_CC1NE | TIM_CCER_CC2NE | TIM_CCER_CC3NE)) == RESET)
 2076              		.loc 1 1108 0
 2077 00b0 FA68     		ldr	r2, [r7, #12]
 2078 00b2 40F24443 		movw	r3, #1092
 2079 00b6 1340     		ands	r3, r3, r2
 2080 00b8 002B     		cmp	r3, #0
 2081 00ba 07D1     		bne	.L111
1109:Drivers/STM32F3xx_HAL_Driver/Src/stm32f3xx_hal_tim_ex.c ****   {
1110:Drivers/STM32F3xx_HAL_Driver/Src/stm32f3xx_hal_tim_ex.c ****     __HAL_TIM_DISABLE_IT(htim, TIM_IT_BREAK);
 2082              		.loc 1 1110 0
 2083 00bc 7B68     		ldr	r3, [r7, #4]
 2084 00be 1B68     		ldr	r3, [r3]
 2085 00c0 7A68     		ldr	r2, [r7, #4]
 2086 00c2 1268     		ldr	r2, [r2]
 2087 00c4 D268     		ldr	r2, [r2, #12]
 2088 00c6 22F08002 		bic	r2, r2, #128
 2089 00ca DA60     		str	r2, [r3, #12]
 2090              	.L111:
1111:Drivers/STM32F3xx_HAL_Driver/Src/stm32f3xx_hal_tim_ex.c ****   }
1112:Drivers/STM32F3xx_HAL_Driver/Src/stm32f3xx_hal_tim_ex.c ****   
1113:Drivers/STM32F3xx_HAL_Driver/Src/stm32f3xx_hal_tim_ex.c ****   /* Disable the Main Ouput */
1114:Drivers/STM32F3xx_HAL_Driver/Src/stm32f3xx_hal_tim_ex.c ****   __HAL_TIM_MOE_DISABLE(htim);
 2091              		.loc 1 1114 0
 2092 00cc 7B68     		ldr	r3, [r7, #4]
 2093 00ce 1B68     		ldr	r3, [r3]
 2094 00d0 1A6A     		ldr	r2, [r3, #32]
 2095 00d2 41F21113 		movw	r3, #4369
 2096 00d6 1340     		ands	r3, r3, r2
 2097 00d8 002B     		cmp	r3, #0
 2098 00da 0FD1     		bne	.L112
 2099              		.loc 1 1114 0 is_stmt 0 discriminator 1
 2100 00dc 7B68     		ldr	r3, [r7, #4]
 2101 00de 1B68     		ldr	r3, [r3]
 2102 00e0 1A6A     		ldr	r2, [r3, #32]
 2103 00e2 40F24443 		movw	r3, #1092
 2104 00e6 1340     		ands	r3, r3, r2
 2105 00e8 002B     		cmp	r3, #0
 2106 00ea 07D1     		bne	.L112
 2107 00ec 7B68     		ldr	r3, [r7, #4]
 2108 00ee 1B68     		ldr	r3, [r3]
 2109 00f0 7A68     		ldr	r2, [r7, #4]
 2110 00f2 1268     		ldr	r2, [r2]
 2111 00f4 526C     		ldr	r2, [r2, #68]
 2112 00f6 22F40042 		bic	r2, r2, #32768
 2113 00fa 5A64     		str	r2, [r3, #68]
 2114              	.L112:
1115:Drivers/STM32F3xx_HAL_Driver/Src/stm32f3xx_hal_tim_ex.c ****   
1116:Drivers/STM32F3xx_HAL_Driver/Src/stm32f3xx_hal_tim_ex.c ****   /* Disable the Peripheral */
1117:Drivers/STM32F3xx_HAL_Driver/Src/stm32f3xx_hal_tim_ex.c ****   __HAL_TIM_DISABLE(htim);
ARM GAS  /tmp/ccRzvoJq.s 			page 57


 2115              		.loc 1 1117 0 is_stmt 1
 2116 00fc 7B68     		ldr	r3, [r7, #4]
 2117 00fe 1B68     		ldr	r3, [r3]
 2118 0100 1A6A     		ldr	r2, [r3, #32]
 2119 0102 41F21113 		movw	r3, #4369
 2120 0106 1340     		ands	r3, r3, r2
 2121 0108 002B     		cmp	r3, #0
 2122 010a 0FD1     		bne	.L113
 2123              		.loc 1 1117 0 is_stmt 0 discriminator 1
 2124 010c 7B68     		ldr	r3, [r7, #4]
 2125 010e 1B68     		ldr	r3, [r3]
 2126 0110 1A6A     		ldr	r2, [r3, #32]
 2127 0112 40F24443 		movw	r3, #1092
 2128 0116 1340     		ands	r3, r3, r2
 2129 0118 002B     		cmp	r3, #0
 2130 011a 07D1     		bne	.L113
 2131 011c 7B68     		ldr	r3, [r7, #4]
 2132 011e 1B68     		ldr	r3, [r3]
 2133 0120 7A68     		ldr	r2, [r7, #4]
 2134 0122 1268     		ldr	r2, [r2]
 2135 0124 1268     		ldr	r2, [r2]
 2136 0126 22F00102 		bic	r2, r2, #1
 2137 012a 1A60     		str	r2, [r3]
 2138              	.L113:
1118:Drivers/STM32F3xx_HAL_Driver/Src/stm32f3xx_hal_tim_ex.c ****   
1119:Drivers/STM32F3xx_HAL_Driver/Src/stm32f3xx_hal_tim_ex.c ****   /* Return function status */
1120:Drivers/STM32F3xx_HAL_Driver/Src/stm32f3xx_hal_tim_ex.c ****   return HAL_OK;
 2139              		.loc 1 1120 0 is_stmt 1
 2140 012c 0023     		movs	r3, #0
1121:Drivers/STM32F3xx_HAL_Driver/Src/stm32f3xx_hal_tim_ex.c **** } 
 2141              		.loc 1 1121 0
 2142 012e 1846     		mov	r0, r3
 2143 0130 1037     		adds	r7, r7, #16
 2144 0132 BD46     		mov	sp, r7
 2145              		@ sp needed
 2146 0134 80BD     		pop	{r7, pc}
 2147              		.cfi_endproc
 2148              	.LFE144:
 2150 0136 00BF     		.section	.text.HAL_TIMEx_PWMN_Start_DMA,"ax",%progbits
 2151              		.align	2
 2152              		.global	HAL_TIMEx_PWMN_Start_DMA
 2153              		.thumb
 2154              		.thumb_func
 2156              	HAL_TIMEx_PWMN_Start_DMA:
 2157              	.LFB145:
1122:Drivers/STM32F3xx_HAL_Driver/Src/stm32f3xx_hal_tim_ex.c **** 
1123:Drivers/STM32F3xx_HAL_Driver/Src/stm32f3xx_hal_tim_ex.c **** /**
1124:Drivers/STM32F3xx_HAL_Driver/Src/stm32f3xx_hal_tim_ex.c ****   * @brief  Starts the TIM PWM signal generation in DMA mode on the 
1125:Drivers/STM32F3xx_HAL_Driver/Src/stm32f3xx_hal_tim_ex.c ****   *         complementary output
1126:Drivers/STM32F3xx_HAL_Driver/Src/stm32f3xx_hal_tim_ex.c ****   * @param  htim: TIM handle
1127:Drivers/STM32F3xx_HAL_Driver/Src/stm32f3xx_hal_tim_ex.c ****   * @param  Channel: TIM Channel to be enabled
1128:Drivers/STM32F3xx_HAL_Driver/Src/stm32f3xx_hal_tim_ex.c ****   *          This parameter can be one of the following values:
1129:Drivers/STM32F3xx_HAL_Driver/Src/stm32f3xx_hal_tim_ex.c ****   *            @arg TIM_CHANNEL_1: TIM Channel 1 selected
1130:Drivers/STM32F3xx_HAL_Driver/Src/stm32f3xx_hal_tim_ex.c ****   *            @arg TIM_CHANNEL_2: TIM Channel 2 selected
1131:Drivers/STM32F3xx_HAL_Driver/Src/stm32f3xx_hal_tim_ex.c ****   *            @arg TIM_CHANNEL_3: TIM Channel 3 selected
1132:Drivers/STM32F3xx_HAL_Driver/Src/stm32f3xx_hal_tim_ex.c ****   *            @arg TIM_CHANNEL_4: TIM Channel 4 selected
1133:Drivers/STM32F3xx_HAL_Driver/Src/stm32f3xx_hal_tim_ex.c ****   * @param  pData: The source Buffer address.
ARM GAS  /tmp/ccRzvoJq.s 			page 58


1134:Drivers/STM32F3xx_HAL_Driver/Src/stm32f3xx_hal_tim_ex.c ****   * @param  Length: The length of data to be transferred from memory to TIM peripheral
1135:Drivers/STM32F3xx_HAL_Driver/Src/stm32f3xx_hal_tim_ex.c ****   * @retval HAL status
1136:Drivers/STM32F3xx_HAL_Driver/Src/stm32f3xx_hal_tim_ex.c ****   */
1137:Drivers/STM32F3xx_HAL_Driver/Src/stm32f3xx_hal_tim_ex.c **** HAL_StatusTypeDef HAL_TIMEx_PWMN_Start_DMA(TIM_HandleTypeDef *htim, uint32_t Channel, uint32_t *pDa
1138:Drivers/STM32F3xx_HAL_Driver/Src/stm32f3xx_hal_tim_ex.c **** {
 2158              		.loc 1 1138 0
 2159              		.cfi_startproc
 2160              		@ args = 0, pretend = 0, frame = 16
 2161              		@ frame_needed = 1, uses_anonymous_args = 0
 2162 0000 80B5     		push	{r7, lr}
 2163              	.LCFI60:
 2164              		.cfi_def_cfa_offset 8
 2165              		.cfi_offset 7, -8
 2166              		.cfi_offset 14, -4
 2167 0002 84B0     		sub	sp, sp, #16
 2168              	.LCFI61:
 2169              		.cfi_def_cfa_offset 24
 2170 0004 00AF     		add	r7, sp, #0
 2171              	.LCFI62:
 2172              		.cfi_def_cfa_register 7
 2173 0006 F860     		str	r0, [r7, #12]
 2174 0008 B960     		str	r1, [r7, #8]
 2175 000a 7A60     		str	r2, [r7, #4]
 2176 000c 7B80     		strh	r3, [r7, #2]	@ movhi
1139:Drivers/STM32F3xx_HAL_Driver/Src/stm32f3xx_hal_tim_ex.c ****   /* Check the parameters */
1140:Drivers/STM32F3xx_HAL_Driver/Src/stm32f3xx_hal_tim_ex.c ****   assert_param(IS_TIM_CCXN_INSTANCE(htim->Instance, Channel)); 
1141:Drivers/STM32F3xx_HAL_Driver/Src/stm32f3xx_hal_tim_ex.c ****   
1142:Drivers/STM32F3xx_HAL_Driver/Src/stm32f3xx_hal_tim_ex.c ****   if((htim->State == HAL_TIM_STATE_BUSY))
 2177              		.loc 1 1142 0
 2178 000e FB68     		ldr	r3, [r7, #12]
 2179 0010 93F83930 		ldrb	r3, [r3, #57]
 2180 0014 DBB2     		uxtb	r3, r3
 2181 0016 022B     		cmp	r3, #2
 2182 0018 01D1     		bne	.L117
1143:Drivers/STM32F3xx_HAL_Driver/Src/stm32f3xx_hal_tim_ex.c ****   {
1144:Drivers/STM32F3xx_HAL_Driver/Src/stm32f3xx_hal_tim_ex.c ****      return HAL_BUSY;
 2183              		.loc 1 1144 0
 2184 001a 0223     		movs	r3, #2
 2185 001c B7E0     		b	.L118
 2186              	.L117:
1145:Drivers/STM32F3xx_HAL_Driver/Src/stm32f3xx_hal_tim_ex.c ****   }
1146:Drivers/STM32F3xx_HAL_Driver/Src/stm32f3xx_hal_tim_ex.c ****   else if((htim->State == HAL_TIM_STATE_READY))
 2187              		.loc 1 1146 0
 2188 001e FB68     		ldr	r3, [r7, #12]
 2189 0020 93F83930 		ldrb	r3, [r3, #57]
 2190 0024 DBB2     		uxtb	r3, r3
 2191 0026 012B     		cmp	r3, #1
 2192 0028 0BD1     		bne	.L119
1147:Drivers/STM32F3xx_HAL_Driver/Src/stm32f3xx_hal_tim_ex.c ****   {
1148:Drivers/STM32F3xx_HAL_Driver/Src/stm32f3xx_hal_tim_ex.c ****     if(((uint32_t)pData == 0 ) && (Length > 0)) 
 2193              		.loc 1 1148 0
 2194 002a 7B68     		ldr	r3, [r7, #4]
 2195 002c 002B     		cmp	r3, #0
 2196 002e 04D1     		bne	.L120
 2197              		.loc 1 1148 0 is_stmt 0 discriminator 1
 2198 0030 7B88     		ldrh	r3, [r7, #2]
 2199 0032 002B     		cmp	r3, #0
ARM GAS  /tmp/ccRzvoJq.s 			page 59


 2200 0034 01D0     		beq	.L120
1149:Drivers/STM32F3xx_HAL_Driver/Src/stm32f3xx_hal_tim_ex.c ****     {
1150:Drivers/STM32F3xx_HAL_Driver/Src/stm32f3xx_hal_tim_ex.c ****       return HAL_ERROR;                                    
 2201              		.loc 1 1150 0 is_stmt 1
 2202 0036 0123     		movs	r3, #1
 2203 0038 A9E0     		b	.L118
 2204              	.L120:
1151:Drivers/STM32F3xx_HAL_Driver/Src/stm32f3xx_hal_tim_ex.c ****     }
1152:Drivers/STM32F3xx_HAL_Driver/Src/stm32f3xx_hal_tim_ex.c ****     else
1153:Drivers/STM32F3xx_HAL_Driver/Src/stm32f3xx_hal_tim_ex.c ****     {
1154:Drivers/STM32F3xx_HAL_Driver/Src/stm32f3xx_hal_tim_ex.c ****       htim->State = HAL_TIM_STATE_BUSY;
 2205              		.loc 1 1154 0
 2206 003a FB68     		ldr	r3, [r7, #12]
 2207 003c 0222     		movs	r2, #2
 2208 003e 83F83920 		strb	r2, [r3, #57]
 2209              	.L119:
1155:Drivers/STM32F3xx_HAL_Driver/Src/stm32f3xx_hal_tim_ex.c ****     }
1156:Drivers/STM32F3xx_HAL_Driver/Src/stm32f3xx_hal_tim_ex.c ****   }    
1157:Drivers/STM32F3xx_HAL_Driver/Src/stm32f3xx_hal_tim_ex.c ****   switch (Channel)
 2210              		.loc 1 1157 0
 2211 0042 BB68     		ldr	r3, [r7, #8]
 2212 0044 0C2B     		cmp	r3, #12
 2213 0046 00F28980 		bhi	.L128
 2214 004a 01A2     		adr	r2, .L123
 2215 004c 52F823F0 		ldr	pc, [r2, r3, lsl #2]
 2216              		.p2align 2
 2217              	.L123:
 2218 0050 85000000 		.word	.L122+1
 2219 0054 5D010000 		.word	.L128+1
 2220 0058 5D010000 		.word	.L128+1
 2221 005c 5D010000 		.word	.L128+1
 2222 0060 BB000000 		.word	.L124+1
 2223 0064 5D010000 		.word	.L128+1
 2224 0068 5D010000 		.word	.L128+1
 2225 006c 5D010000 		.word	.L128+1
 2226 0070 F1000000 		.word	.L125+1
 2227 0074 5D010000 		.word	.L128+1
 2228 0078 5D010000 		.word	.L128+1
 2229 007c 5D010000 		.word	.L128+1
 2230 0080 27010000 		.word	.L126+1
 2231              		.p2align 1
 2232              	.L122:
1158:Drivers/STM32F3xx_HAL_Driver/Src/stm32f3xx_hal_tim_ex.c ****   {
1159:Drivers/STM32F3xx_HAL_Driver/Src/stm32f3xx_hal_tim_ex.c ****     case TIM_CHANNEL_1:
1160:Drivers/STM32F3xx_HAL_Driver/Src/stm32f3xx_hal_tim_ex.c ****     {      
1161:Drivers/STM32F3xx_HAL_Driver/Src/stm32f3xx_hal_tim_ex.c ****       /* Set the DMA Period elapsed callback */
1162:Drivers/STM32F3xx_HAL_Driver/Src/stm32f3xx_hal_tim_ex.c ****       htim->hdma[TIM_DMA_ID_CC1]->XferCpltCallback = TIM_DMADelayPulseCplt;
 2233              		.loc 1 1162 0
 2234 0084 FB68     		ldr	r3, [r7, #12]
 2235 0086 1B6A     		ldr	r3, [r3, #32]
 2236 0088 434A     		ldr	r2, .L129
 2237 008a 9A62     		str	r2, [r3, #40]
1163:Drivers/STM32F3xx_HAL_Driver/Src/stm32f3xx_hal_tim_ex.c ****      
1164:Drivers/STM32F3xx_HAL_Driver/Src/stm32f3xx_hal_tim_ex.c ****       /* Set the DMA error callback */
1165:Drivers/STM32F3xx_HAL_Driver/Src/stm32f3xx_hal_tim_ex.c ****       htim->hdma[TIM_DMA_ID_CC1]->XferErrorCallback = TIM_DMAError ;
 2238              		.loc 1 1165 0
 2239 008c FB68     		ldr	r3, [r7, #12]
ARM GAS  /tmp/ccRzvoJq.s 			page 60


 2240 008e 1B6A     		ldr	r3, [r3, #32]
 2241 0090 424A     		ldr	r2, .L129+4
 2242 0092 1A63     		str	r2, [r3, #48]
1166:Drivers/STM32F3xx_HAL_Driver/Src/stm32f3xx_hal_tim_ex.c ****       
1167:Drivers/STM32F3xx_HAL_Driver/Src/stm32f3xx_hal_tim_ex.c ****       /* Enable the DMA channel */
1168:Drivers/STM32F3xx_HAL_Driver/Src/stm32f3xx_hal_tim_ex.c ****       HAL_DMA_Start_IT(htim->hdma[TIM_DMA_ID_CC1], (uint32_t)pData, (uint32_t)&htim->Instance->CCR1
 2243              		.loc 1 1168 0
 2244 0094 FB68     		ldr	r3, [r7, #12]
 2245 0096 186A     		ldr	r0, [r3, #32]
 2246 0098 7968     		ldr	r1, [r7, #4]
 2247 009a FB68     		ldr	r3, [r7, #12]
 2248 009c 1B68     		ldr	r3, [r3]
 2249 009e 3433     		adds	r3, r3, #52
 2250 00a0 1A46     		mov	r2, r3
 2251 00a2 7B88     		ldrh	r3, [r7, #2]
 2252 00a4 FFF7FEFF 		bl	HAL_DMA_Start_IT
1169:Drivers/STM32F3xx_HAL_Driver/Src/stm32f3xx_hal_tim_ex.c ****       
1170:Drivers/STM32F3xx_HAL_Driver/Src/stm32f3xx_hal_tim_ex.c ****       /* Enable the TIM Capture/Compare 1 DMA request */
1171:Drivers/STM32F3xx_HAL_Driver/Src/stm32f3xx_hal_tim_ex.c ****       __HAL_TIM_ENABLE_DMA(htim, TIM_DMA_CC1);
 2253              		.loc 1 1171 0
 2254 00a8 FB68     		ldr	r3, [r7, #12]
 2255 00aa 1B68     		ldr	r3, [r3]
 2256 00ac FA68     		ldr	r2, [r7, #12]
 2257 00ae 1268     		ldr	r2, [r2]
 2258 00b0 D268     		ldr	r2, [r2, #12]
 2259 00b2 42F40072 		orr	r2, r2, #512
 2260 00b6 DA60     		str	r2, [r3, #12]
1172:Drivers/STM32F3xx_HAL_Driver/Src/stm32f3xx_hal_tim_ex.c ****     }
1173:Drivers/STM32F3xx_HAL_Driver/Src/stm32f3xx_hal_tim_ex.c ****     break;
 2261              		.loc 1 1173 0
 2262 00b8 51E0     		b	.L127
 2263              	.L124:
1174:Drivers/STM32F3xx_HAL_Driver/Src/stm32f3xx_hal_tim_ex.c ****     
1175:Drivers/STM32F3xx_HAL_Driver/Src/stm32f3xx_hal_tim_ex.c ****     case TIM_CHANNEL_2:
1176:Drivers/STM32F3xx_HAL_Driver/Src/stm32f3xx_hal_tim_ex.c ****     {
1177:Drivers/STM32F3xx_HAL_Driver/Src/stm32f3xx_hal_tim_ex.c ****       /* Set the DMA Period elapsed callback */
1178:Drivers/STM32F3xx_HAL_Driver/Src/stm32f3xx_hal_tim_ex.c ****       htim->hdma[TIM_DMA_ID_CC2]->XferCpltCallback = TIM_DMADelayPulseCplt;
 2264              		.loc 1 1178 0
 2265 00ba FB68     		ldr	r3, [r7, #12]
 2266 00bc 5B6A     		ldr	r3, [r3, #36]
 2267 00be 364A     		ldr	r2, .L129
 2268 00c0 9A62     		str	r2, [r3, #40]
1179:Drivers/STM32F3xx_HAL_Driver/Src/stm32f3xx_hal_tim_ex.c ****      
1180:Drivers/STM32F3xx_HAL_Driver/Src/stm32f3xx_hal_tim_ex.c ****       /* Set the DMA error callback */
1181:Drivers/STM32F3xx_HAL_Driver/Src/stm32f3xx_hal_tim_ex.c ****       htim->hdma[TIM_DMA_ID_CC2]->XferErrorCallback = TIM_DMAError ;
 2269              		.loc 1 1181 0
 2270 00c2 FB68     		ldr	r3, [r7, #12]
 2271 00c4 5B6A     		ldr	r3, [r3, #36]
 2272 00c6 354A     		ldr	r2, .L129+4
 2273 00c8 1A63     		str	r2, [r3, #48]
1182:Drivers/STM32F3xx_HAL_Driver/Src/stm32f3xx_hal_tim_ex.c ****       
1183:Drivers/STM32F3xx_HAL_Driver/Src/stm32f3xx_hal_tim_ex.c ****       /* Enable the DMA channel */
1184:Drivers/STM32F3xx_HAL_Driver/Src/stm32f3xx_hal_tim_ex.c ****       HAL_DMA_Start_IT(htim->hdma[TIM_DMA_ID_CC2], (uint32_t)pData, (uint32_t)&htim->Instance->CCR2
 2274              		.loc 1 1184 0
 2275 00ca FB68     		ldr	r3, [r7, #12]
 2276 00cc 586A     		ldr	r0, [r3, #36]
 2277 00ce 7968     		ldr	r1, [r7, #4]
ARM GAS  /tmp/ccRzvoJq.s 			page 61


 2278 00d0 FB68     		ldr	r3, [r7, #12]
 2279 00d2 1B68     		ldr	r3, [r3]
 2280 00d4 3833     		adds	r3, r3, #56
 2281 00d6 1A46     		mov	r2, r3
 2282 00d8 7B88     		ldrh	r3, [r7, #2]
 2283 00da FFF7FEFF 		bl	HAL_DMA_Start_IT
1185:Drivers/STM32F3xx_HAL_Driver/Src/stm32f3xx_hal_tim_ex.c ****       
1186:Drivers/STM32F3xx_HAL_Driver/Src/stm32f3xx_hal_tim_ex.c ****       /* Enable the TIM Capture/Compare 2 DMA request */
1187:Drivers/STM32F3xx_HAL_Driver/Src/stm32f3xx_hal_tim_ex.c ****       __HAL_TIM_ENABLE_DMA(htim, TIM_DMA_CC2);
 2284              		.loc 1 1187 0
 2285 00de FB68     		ldr	r3, [r7, #12]
 2286 00e0 1B68     		ldr	r3, [r3]
 2287 00e2 FA68     		ldr	r2, [r7, #12]
 2288 00e4 1268     		ldr	r2, [r2]
 2289 00e6 D268     		ldr	r2, [r2, #12]
 2290 00e8 42F48062 		orr	r2, r2, #1024
 2291 00ec DA60     		str	r2, [r3, #12]
1188:Drivers/STM32F3xx_HAL_Driver/Src/stm32f3xx_hal_tim_ex.c ****     }
1189:Drivers/STM32F3xx_HAL_Driver/Src/stm32f3xx_hal_tim_ex.c ****     break;
 2292              		.loc 1 1189 0
 2293 00ee 36E0     		b	.L127
 2294              	.L125:
1190:Drivers/STM32F3xx_HAL_Driver/Src/stm32f3xx_hal_tim_ex.c ****     
1191:Drivers/STM32F3xx_HAL_Driver/Src/stm32f3xx_hal_tim_ex.c ****     case TIM_CHANNEL_3:
1192:Drivers/STM32F3xx_HAL_Driver/Src/stm32f3xx_hal_tim_ex.c ****     {
1193:Drivers/STM32F3xx_HAL_Driver/Src/stm32f3xx_hal_tim_ex.c ****       /* Set the DMA Period elapsed callback */
1194:Drivers/STM32F3xx_HAL_Driver/Src/stm32f3xx_hal_tim_ex.c ****       htim->hdma[TIM_DMA_ID_CC3]->XferCpltCallback = TIM_DMADelayPulseCplt;
 2295              		.loc 1 1194 0
 2296 00f0 FB68     		ldr	r3, [r7, #12]
 2297 00f2 9B6A     		ldr	r3, [r3, #40]
 2298 00f4 284A     		ldr	r2, .L129
 2299 00f6 9A62     		str	r2, [r3, #40]
1195:Drivers/STM32F3xx_HAL_Driver/Src/stm32f3xx_hal_tim_ex.c ****      
1196:Drivers/STM32F3xx_HAL_Driver/Src/stm32f3xx_hal_tim_ex.c ****       /* Set the DMA error callback */
1197:Drivers/STM32F3xx_HAL_Driver/Src/stm32f3xx_hal_tim_ex.c ****       htim->hdma[TIM_DMA_ID_CC3]->XferErrorCallback = TIM_DMAError ;
 2300              		.loc 1 1197 0
 2301 00f8 FB68     		ldr	r3, [r7, #12]
 2302 00fa 9B6A     		ldr	r3, [r3, #40]
 2303 00fc 274A     		ldr	r2, .L129+4
 2304 00fe 1A63     		str	r2, [r3, #48]
1198:Drivers/STM32F3xx_HAL_Driver/Src/stm32f3xx_hal_tim_ex.c ****       
1199:Drivers/STM32F3xx_HAL_Driver/Src/stm32f3xx_hal_tim_ex.c ****       /* Enable the DMA channel */
1200:Drivers/STM32F3xx_HAL_Driver/Src/stm32f3xx_hal_tim_ex.c ****       HAL_DMA_Start_IT(htim->hdma[TIM_DMA_ID_CC3], (uint32_t)pData, (uint32_t)&htim->Instance->CCR3
 2305              		.loc 1 1200 0
 2306 0100 FB68     		ldr	r3, [r7, #12]
 2307 0102 986A     		ldr	r0, [r3, #40]
 2308 0104 7968     		ldr	r1, [r7, #4]
 2309 0106 FB68     		ldr	r3, [r7, #12]
 2310 0108 1B68     		ldr	r3, [r3]
 2311 010a 3C33     		adds	r3, r3, #60
 2312 010c 1A46     		mov	r2, r3
 2313 010e 7B88     		ldrh	r3, [r7, #2]
 2314 0110 FFF7FEFF 		bl	HAL_DMA_Start_IT
1201:Drivers/STM32F3xx_HAL_Driver/Src/stm32f3xx_hal_tim_ex.c ****       
1202:Drivers/STM32F3xx_HAL_Driver/Src/stm32f3xx_hal_tim_ex.c ****       /* Enable the TIM Capture/Compare 3 DMA request */
1203:Drivers/STM32F3xx_HAL_Driver/Src/stm32f3xx_hal_tim_ex.c ****       __HAL_TIM_ENABLE_DMA(htim, TIM_DMA_CC3);
 2315              		.loc 1 1203 0
ARM GAS  /tmp/ccRzvoJq.s 			page 62


 2316 0114 FB68     		ldr	r3, [r7, #12]
 2317 0116 1B68     		ldr	r3, [r3]
 2318 0118 FA68     		ldr	r2, [r7, #12]
 2319 011a 1268     		ldr	r2, [r2]
 2320 011c D268     		ldr	r2, [r2, #12]
 2321 011e 42F40062 		orr	r2, r2, #2048
 2322 0122 DA60     		str	r2, [r3, #12]
1204:Drivers/STM32F3xx_HAL_Driver/Src/stm32f3xx_hal_tim_ex.c ****     }
1205:Drivers/STM32F3xx_HAL_Driver/Src/stm32f3xx_hal_tim_ex.c ****     break;
 2323              		.loc 1 1205 0
 2324 0124 1BE0     		b	.L127
 2325              	.L126:
1206:Drivers/STM32F3xx_HAL_Driver/Src/stm32f3xx_hal_tim_ex.c ****     
1207:Drivers/STM32F3xx_HAL_Driver/Src/stm32f3xx_hal_tim_ex.c ****     case TIM_CHANNEL_4:
1208:Drivers/STM32F3xx_HAL_Driver/Src/stm32f3xx_hal_tim_ex.c ****     {
1209:Drivers/STM32F3xx_HAL_Driver/Src/stm32f3xx_hal_tim_ex.c ****      /* Set the DMA Period elapsed callback */
1210:Drivers/STM32F3xx_HAL_Driver/Src/stm32f3xx_hal_tim_ex.c ****       htim->hdma[TIM_DMA_ID_CC4]->XferCpltCallback = TIM_DMADelayPulseCplt;
 2326              		.loc 1 1210 0
 2327 0126 FB68     		ldr	r3, [r7, #12]
 2328 0128 DB6A     		ldr	r3, [r3, #44]
 2329 012a 1B4A     		ldr	r2, .L129
 2330 012c 9A62     		str	r2, [r3, #40]
1211:Drivers/STM32F3xx_HAL_Driver/Src/stm32f3xx_hal_tim_ex.c ****      
1212:Drivers/STM32F3xx_HAL_Driver/Src/stm32f3xx_hal_tim_ex.c ****       /* Set the DMA error callback */
1213:Drivers/STM32F3xx_HAL_Driver/Src/stm32f3xx_hal_tim_ex.c ****       htim->hdma[TIM_DMA_ID_CC4]->XferErrorCallback = TIM_DMAError ;
 2331              		.loc 1 1213 0
 2332 012e FB68     		ldr	r3, [r7, #12]
 2333 0130 DB6A     		ldr	r3, [r3, #44]
 2334 0132 1A4A     		ldr	r2, .L129+4
 2335 0134 1A63     		str	r2, [r3, #48]
1214:Drivers/STM32F3xx_HAL_Driver/Src/stm32f3xx_hal_tim_ex.c ****       
1215:Drivers/STM32F3xx_HAL_Driver/Src/stm32f3xx_hal_tim_ex.c ****       /* Enable the DMA channel */
1216:Drivers/STM32F3xx_HAL_Driver/Src/stm32f3xx_hal_tim_ex.c ****       HAL_DMA_Start_IT(htim->hdma[TIM_DMA_ID_CC4], (uint32_t)pData, (uint32_t)&htim->Instance->CCR4
 2336              		.loc 1 1216 0
 2337 0136 FB68     		ldr	r3, [r7, #12]
 2338 0138 D86A     		ldr	r0, [r3, #44]
 2339 013a 7968     		ldr	r1, [r7, #4]
 2340 013c FB68     		ldr	r3, [r7, #12]
 2341 013e 1B68     		ldr	r3, [r3]
 2342 0140 4033     		adds	r3, r3, #64
 2343 0142 1A46     		mov	r2, r3
 2344 0144 7B88     		ldrh	r3, [r7, #2]
 2345 0146 FFF7FEFF 		bl	HAL_DMA_Start_IT
1217:Drivers/STM32F3xx_HAL_Driver/Src/stm32f3xx_hal_tim_ex.c ****       
1218:Drivers/STM32F3xx_HAL_Driver/Src/stm32f3xx_hal_tim_ex.c ****       /* Enable the TIM Capture/Compare 4 DMA request */
1219:Drivers/STM32F3xx_HAL_Driver/Src/stm32f3xx_hal_tim_ex.c ****       __HAL_TIM_ENABLE_DMA(htim, TIM_DMA_CC4);
 2346              		.loc 1 1219 0
 2347 014a FB68     		ldr	r3, [r7, #12]
 2348 014c 1B68     		ldr	r3, [r3]
 2349 014e FA68     		ldr	r2, [r7, #12]
 2350 0150 1268     		ldr	r2, [r2]
 2351 0152 D268     		ldr	r2, [r2, #12]
 2352 0154 42F48052 		orr	r2, r2, #4096
 2353 0158 DA60     		str	r2, [r3, #12]
1220:Drivers/STM32F3xx_HAL_Driver/Src/stm32f3xx_hal_tim_ex.c ****     }
1221:Drivers/STM32F3xx_HAL_Driver/Src/stm32f3xx_hal_tim_ex.c ****     break;
 2354              		.loc 1 1221 0
ARM GAS  /tmp/ccRzvoJq.s 			page 63


 2355 015a 00E0     		b	.L127
 2356              	.L128:
1222:Drivers/STM32F3xx_HAL_Driver/Src/stm32f3xx_hal_tim_ex.c ****     
1223:Drivers/STM32F3xx_HAL_Driver/Src/stm32f3xx_hal_tim_ex.c ****     default:
1224:Drivers/STM32F3xx_HAL_Driver/Src/stm32f3xx_hal_tim_ex.c ****     break;
 2357              		.loc 1 1224 0
 2358 015c 00BF     		nop
 2359              	.L127:
1225:Drivers/STM32F3xx_HAL_Driver/Src/stm32f3xx_hal_tim_ex.c ****   }
1226:Drivers/STM32F3xx_HAL_Driver/Src/stm32f3xx_hal_tim_ex.c **** 
1227:Drivers/STM32F3xx_HAL_Driver/Src/stm32f3xx_hal_tim_ex.c ****   /* Enable the complementary PWM output  */
1228:Drivers/STM32F3xx_HAL_Driver/Src/stm32f3xx_hal_tim_ex.c ****   TIM_CCxNChannelCmd(htim->Instance, Channel, TIM_CCxN_ENABLE);
 2360              		.loc 1 1228 0
 2361 015e FB68     		ldr	r3, [r7, #12]
 2362 0160 1B68     		ldr	r3, [r3]
 2363 0162 1846     		mov	r0, r3
 2364 0164 B968     		ldr	r1, [r7, #8]
 2365 0166 0422     		movs	r2, #4
 2366 0168 FFF7FEFF 		bl	TIM_CCxNChannelCmd
1229:Drivers/STM32F3xx_HAL_Driver/Src/stm32f3xx_hal_tim_ex.c ****     
1230:Drivers/STM32F3xx_HAL_Driver/Src/stm32f3xx_hal_tim_ex.c ****   /* Enable the Main Ouput */
1231:Drivers/STM32F3xx_HAL_Driver/Src/stm32f3xx_hal_tim_ex.c ****   __HAL_TIM_MOE_ENABLE(htim);
 2367              		.loc 1 1231 0
 2368 016c FB68     		ldr	r3, [r7, #12]
 2369 016e 1B68     		ldr	r3, [r3]
 2370 0170 FA68     		ldr	r2, [r7, #12]
 2371 0172 1268     		ldr	r2, [r2]
 2372 0174 526C     		ldr	r2, [r2, #68]
 2373 0176 42F40042 		orr	r2, r2, #32768
 2374 017a 5A64     		str	r2, [r3, #68]
1232:Drivers/STM32F3xx_HAL_Driver/Src/stm32f3xx_hal_tim_ex.c ****   
1233:Drivers/STM32F3xx_HAL_Driver/Src/stm32f3xx_hal_tim_ex.c ****   /* Enable the Peripheral */
1234:Drivers/STM32F3xx_HAL_Driver/Src/stm32f3xx_hal_tim_ex.c ****   __HAL_TIM_ENABLE(htim); 
 2375              		.loc 1 1234 0
 2376 017c FB68     		ldr	r3, [r7, #12]
 2377 017e 1B68     		ldr	r3, [r3]
 2378 0180 FA68     		ldr	r2, [r7, #12]
 2379 0182 1268     		ldr	r2, [r2]
 2380 0184 1268     		ldr	r2, [r2]
 2381 0186 42F00102 		orr	r2, r2, #1
 2382 018a 1A60     		str	r2, [r3]
1235:Drivers/STM32F3xx_HAL_Driver/Src/stm32f3xx_hal_tim_ex.c ****   
1236:Drivers/STM32F3xx_HAL_Driver/Src/stm32f3xx_hal_tim_ex.c ****   /* Return function status */
1237:Drivers/STM32F3xx_HAL_Driver/Src/stm32f3xx_hal_tim_ex.c ****   return HAL_OK;
 2383              		.loc 1 1237 0
 2384 018c 0023     		movs	r3, #0
 2385              	.L118:
1238:Drivers/STM32F3xx_HAL_Driver/Src/stm32f3xx_hal_tim_ex.c **** }
 2386              		.loc 1 1238 0
 2387 018e 1846     		mov	r0, r3
 2388 0190 1037     		adds	r7, r7, #16
 2389 0192 BD46     		mov	sp, r7
 2390              		@ sp needed
 2391 0194 80BD     		pop	{r7, pc}
 2392              	.L130:
 2393 0196 00BF     		.align	2
 2394              	.L129:
ARM GAS  /tmp/ccRzvoJq.s 			page 64


 2395 0198 00000000 		.word	TIM_DMADelayPulseCplt
 2396 019c 00000000 		.word	TIM_DMAError
 2397              		.cfi_endproc
 2398              	.LFE145:
 2400              		.section	.text.HAL_TIMEx_PWMN_Stop_DMA,"ax",%progbits
 2401              		.align	2
 2402              		.global	HAL_TIMEx_PWMN_Stop_DMA
 2403              		.thumb
 2404              		.thumb_func
 2406              	HAL_TIMEx_PWMN_Stop_DMA:
 2407              	.LFB146:
1239:Drivers/STM32F3xx_HAL_Driver/Src/stm32f3xx_hal_tim_ex.c **** 
1240:Drivers/STM32F3xx_HAL_Driver/Src/stm32f3xx_hal_tim_ex.c **** /**
1241:Drivers/STM32F3xx_HAL_Driver/Src/stm32f3xx_hal_tim_ex.c ****   * @brief  Stops the TIM PWM signal generation in DMA mode on the complementary
1242:Drivers/STM32F3xx_HAL_Driver/Src/stm32f3xx_hal_tim_ex.c ****   *         output
1243:Drivers/STM32F3xx_HAL_Driver/Src/stm32f3xx_hal_tim_ex.c ****   * @param  htim: TIM handle
1244:Drivers/STM32F3xx_HAL_Driver/Src/stm32f3xx_hal_tim_ex.c ****   * @param  Channel: TIM Channel to be disabled
1245:Drivers/STM32F3xx_HAL_Driver/Src/stm32f3xx_hal_tim_ex.c ****   *          This parameter can be one of the following values:
1246:Drivers/STM32F3xx_HAL_Driver/Src/stm32f3xx_hal_tim_ex.c ****   *            @arg TIM_CHANNEL_1: TIM Channel 1 selected
1247:Drivers/STM32F3xx_HAL_Driver/Src/stm32f3xx_hal_tim_ex.c ****   *            @arg TIM_CHANNEL_2: TIM Channel 2 selected
1248:Drivers/STM32F3xx_HAL_Driver/Src/stm32f3xx_hal_tim_ex.c ****   *            @arg TIM_CHANNEL_3: TIM Channel 3 selected
1249:Drivers/STM32F3xx_HAL_Driver/Src/stm32f3xx_hal_tim_ex.c ****   *            @arg TIM_CHANNEL_4: TIM Channel 4 selected
1250:Drivers/STM32F3xx_HAL_Driver/Src/stm32f3xx_hal_tim_ex.c ****   * @retval HAL status
1251:Drivers/STM32F3xx_HAL_Driver/Src/stm32f3xx_hal_tim_ex.c ****   */
1252:Drivers/STM32F3xx_HAL_Driver/Src/stm32f3xx_hal_tim_ex.c **** HAL_StatusTypeDef HAL_TIMEx_PWMN_Stop_DMA(TIM_HandleTypeDef *htim, uint32_t Channel)
1253:Drivers/STM32F3xx_HAL_Driver/Src/stm32f3xx_hal_tim_ex.c **** {
 2408              		.loc 1 1253 0
 2409              		.cfi_startproc
 2410              		@ args = 0, pretend = 0, frame = 8
 2411              		@ frame_needed = 1, uses_anonymous_args = 0
 2412 0000 80B5     		push	{r7, lr}
 2413              	.LCFI63:
 2414              		.cfi_def_cfa_offset 8
 2415              		.cfi_offset 7, -8
 2416              		.cfi_offset 14, -4
 2417 0002 82B0     		sub	sp, sp, #8
 2418              	.LCFI64:
 2419              		.cfi_def_cfa_offset 16
 2420 0004 00AF     		add	r7, sp, #0
 2421              	.LCFI65:
 2422              		.cfi_def_cfa_register 7
 2423 0006 7860     		str	r0, [r7, #4]
 2424 0008 3960     		str	r1, [r7]
1254:Drivers/STM32F3xx_HAL_Driver/Src/stm32f3xx_hal_tim_ex.c ****   /* Check the parameters */
1255:Drivers/STM32F3xx_HAL_Driver/Src/stm32f3xx_hal_tim_ex.c ****   assert_param(IS_TIM_CCXN_INSTANCE(htim->Instance, Channel)); 
1256:Drivers/STM32F3xx_HAL_Driver/Src/stm32f3xx_hal_tim_ex.c ****   
1257:Drivers/STM32F3xx_HAL_Driver/Src/stm32f3xx_hal_tim_ex.c ****   switch (Channel)
 2425              		.loc 1 1257 0
 2426 000a 3B68     		ldr	r3, [r7]
 2427 000c 0C2B     		cmp	r3, #12
 2428 000e 41D8     		bhi	.L142
 2429 0010 01A2     		adr	r2, .L134
 2430 0012 52F823F0 		ldr	pc, [r2, r3, lsl #2]
 2431 0016 00BF     		.p2align 2
 2432              	.L134:
 2433 0018 4D000000 		.word	.L133+1
 2434 001c 95000000 		.word	.L142+1
ARM GAS  /tmp/ccRzvoJq.s 			page 65


 2435 0020 95000000 		.word	.L142+1
 2436 0024 95000000 		.word	.L142+1
 2437 0028 5F000000 		.word	.L135+1
 2438 002c 95000000 		.word	.L142+1
 2439 0030 95000000 		.word	.L142+1
 2440 0034 95000000 		.word	.L142+1
 2441 0038 71000000 		.word	.L136+1
 2442 003c 95000000 		.word	.L142+1
 2443 0040 95000000 		.word	.L142+1
 2444 0044 95000000 		.word	.L142+1
 2445 0048 83000000 		.word	.L137+1
 2446              		.p2align 1
 2447              	.L133:
1258:Drivers/STM32F3xx_HAL_Driver/Src/stm32f3xx_hal_tim_ex.c ****   {
1259:Drivers/STM32F3xx_HAL_Driver/Src/stm32f3xx_hal_tim_ex.c ****     case TIM_CHANNEL_1:
1260:Drivers/STM32F3xx_HAL_Driver/Src/stm32f3xx_hal_tim_ex.c ****     {       
1261:Drivers/STM32F3xx_HAL_Driver/Src/stm32f3xx_hal_tim_ex.c ****       /* Disable the TIM Capture/Compare 1 DMA request */
1262:Drivers/STM32F3xx_HAL_Driver/Src/stm32f3xx_hal_tim_ex.c ****       __HAL_TIM_DISABLE_DMA(htim, TIM_DMA_CC1);
 2448              		.loc 1 1262 0
 2449 004c 7B68     		ldr	r3, [r7, #4]
 2450 004e 1B68     		ldr	r3, [r3]
 2451 0050 7A68     		ldr	r2, [r7, #4]
 2452 0052 1268     		ldr	r2, [r2]
 2453 0054 D268     		ldr	r2, [r2, #12]
 2454 0056 22F40072 		bic	r2, r2, #512
 2455 005a DA60     		str	r2, [r3, #12]
1263:Drivers/STM32F3xx_HAL_Driver/Src/stm32f3xx_hal_tim_ex.c ****     }
1264:Drivers/STM32F3xx_HAL_Driver/Src/stm32f3xx_hal_tim_ex.c ****     break;
 2456              		.loc 1 1264 0
 2457 005c 1BE0     		b	.L138
 2458              	.L135:
1265:Drivers/STM32F3xx_HAL_Driver/Src/stm32f3xx_hal_tim_ex.c ****     
1266:Drivers/STM32F3xx_HAL_Driver/Src/stm32f3xx_hal_tim_ex.c ****     case TIM_CHANNEL_2:
1267:Drivers/STM32F3xx_HAL_Driver/Src/stm32f3xx_hal_tim_ex.c ****     {
1268:Drivers/STM32F3xx_HAL_Driver/Src/stm32f3xx_hal_tim_ex.c ****       /* Disable the TIM Capture/Compare 2 DMA request */
1269:Drivers/STM32F3xx_HAL_Driver/Src/stm32f3xx_hal_tim_ex.c ****       __HAL_TIM_DISABLE_DMA(htim, TIM_DMA_CC2);
 2459              		.loc 1 1269 0
 2460 005e 7B68     		ldr	r3, [r7, #4]
 2461 0060 1B68     		ldr	r3, [r3]
 2462 0062 7A68     		ldr	r2, [r7, #4]
 2463 0064 1268     		ldr	r2, [r2]
 2464 0066 D268     		ldr	r2, [r2, #12]
 2465 0068 22F48062 		bic	r2, r2, #1024
 2466 006c DA60     		str	r2, [r3, #12]
1270:Drivers/STM32F3xx_HAL_Driver/Src/stm32f3xx_hal_tim_ex.c ****     }
1271:Drivers/STM32F3xx_HAL_Driver/Src/stm32f3xx_hal_tim_ex.c ****     break;
 2467              		.loc 1 1271 0
 2468 006e 12E0     		b	.L138
 2469              	.L136:
1272:Drivers/STM32F3xx_HAL_Driver/Src/stm32f3xx_hal_tim_ex.c ****     
1273:Drivers/STM32F3xx_HAL_Driver/Src/stm32f3xx_hal_tim_ex.c ****     case TIM_CHANNEL_3:
1274:Drivers/STM32F3xx_HAL_Driver/Src/stm32f3xx_hal_tim_ex.c ****     {
1275:Drivers/STM32F3xx_HAL_Driver/Src/stm32f3xx_hal_tim_ex.c ****       /* Disable the TIM Capture/Compare 3 DMA request */
1276:Drivers/STM32F3xx_HAL_Driver/Src/stm32f3xx_hal_tim_ex.c ****       __HAL_TIM_DISABLE_DMA(htim, TIM_DMA_CC3);
 2470              		.loc 1 1276 0
 2471 0070 7B68     		ldr	r3, [r7, #4]
 2472 0072 1B68     		ldr	r3, [r3]
ARM GAS  /tmp/ccRzvoJq.s 			page 66


 2473 0074 7A68     		ldr	r2, [r7, #4]
 2474 0076 1268     		ldr	r2, [r2]
 2475 0078 D268     		ldr	r2, [r2, #12]
 2476 007a 22F40062 		bic	r2, r2, #2048
 2477 007e DA60     		str	r2, [r3, #12]
1277:Drivers/STM32F3xx_HAL_Driver/Src/stm32f3xx_hal_tim_ex.c ****     }
1278:Drivers/STM32F3xx_HAL_Driver/Src/stm32f3xx_hal_tim_ex.c ****     break;
 2478              		.loc 1 1278 0
 2479 0080 09E0     		b	.L138
 2480              	.L137:
1279:Drivers/STM32F3xx_HAL_Driver/Src/stm32f3xx_hal_tim_ex.c ****     
1280:Drivers/STM32F3xx_HAL_Driver/Src/stm32f3xx_hal_tim_ex.c ****     case TIM_CHANNEL_4:
1281:Drivers/STM32F3xx_HAL_Driver/Src/stm32f3xx_hal_tim_ex.c ****     {
1282:Drivers/STM32F3xx_HAL_Driver/Src/stm32f3xx_hal_tim_ex.c ****       /* Disable the TIM Capture/Compare 4 DMA request */
1283:Drivers/STM32F3xx_HAL_Driver/Src/stm32f3xx_hal_tim_ex.c ****       __HAL_TIM_DISABLE_DMA(htim, TIM_DMA_CC4);
 2481              		.loc 1 1283 0
 2482 0082 7B68     		ldr	r3, [r7, #4]
 2483 0084 1B68     		ldr	r3, [r3]
 2484 0086 7A68     		ldr	r2, [r7, #4]
 2485 0088 1268     		ldr	r2, [r2]
 2486 008a D268     		ldr	r2, [r2, #12]
 2487 008c 22F48052 		bic	r2, r2, #4096
 2488 0090 DA60     		str	r2, [r3, #12]
1284:Drivers/STM32F3xx_HAL_Driver/Src/stm32f3xx_hal_tim_ex.c ****     }
1285:Drivers/STM32F3xx_HAL_Driver/Src/stm32f3xx_hal_tim_ex.c ****     break;
 2489              		.loc 1 1285 0
 2490 0092 00E0     		b	.L138
 2491              	.L142:
1286:Drivers/STM32F3xx_HAL_Driver/Src/stm32f3xx_hal_tim_ex.c ****     
1287:Drivers/STM32F3xx_HAL_Driver/Src/stm32f3xx_hal_tim_ex.c ****     default:
1288:Drivers/STM32F3xx_HAL_Driver/Src/stm32f3xx_hal_tim_ex.c ****     break;
 2492              		.loc 1 1288 0
 2493 0094 00BF     		nop
 2494              	.L138:
1289:Drivers/STM32F3xx_HAL_Driver/Src/stm32f3xx_hal_tim_ex.c ****   } 
1290:Drivers/STM32F3xx_HAL_Driver/Src/stm32f3xx_hal_tim_ex.c ****   
1291:Drivers/STM32F3xx_HAL_Driver/Src/stm32f3xx_hal_tim_ex.c ****   /* Disable the complementary PWM output */
1292:Drivers/STM32F3xx_HAL_Driver/Src/stm32f3xx_hal_tim_ex.c ****   TIM_CCxNChannelCmd(htim->Instance, Channel, TIM_CCxN_DISABLE);
 2495              		.loc 1 1292 0
 2496 0096 7B68     		ldr	r3, [r7, #4]
 2497 0098 1B68     		ldr	r3, [r3]
 2498 009a 1846     		mov	r0, r3
 2499 009c 3968     		ldr	r1, [r7]
 2500 009e 0022     		movs	r2, #0
 2501 00a0 FFF7FEFF 		bl	TIM_CCxNChannelCmd
1293:Drivers/STM32F3xx_HAL_Driver/Src/stm32f3xx_hal_tim_ex.c ****      
1294:Drivers/STM32F3xx_HAL_Driver/Src/stm32f3xx_hal_tim_ex.c ****   /* Disable the Main Ouput */
1295:Drivers/STM32F3xx_HAL_Driver/Src/stm32f3xx_hal_tim_ex.c ****   __HAL_TIM_MOE_DISABLE(htim);
 2502              		.loc 1 1295 0
 2503 00a4 7B68     		ldr	r3, [r7, #4]
 2504 00a6 1B68     		ldr	r3, [r3]
 2505 00a8 1A6A     		ldr	r2, [r3, #32]
 2506 00aa 41F21113 		movw	r3, #4369
 2507 00ae 1340     		ands	r3, r3, r2
 2508 00b0 002B     		cmp	r3, #0
 2509 00b2 0FD1     		bne	.L139
 2510              		.loc 1 1295 0 is_stmt 0 discriminator 1
ARM GAS  /tmp/ccRzvoJq.s 			page 67


 2511 00b4 7B68     		ldr	r3, [r7, #4]
 2512 00b6 1B68     		ldr	r3, [r3]
 2513 00b8 1A6A     		ldr	r2, [r3, #32]
 2514 00ba 40F24443 		movw	r3, #1092
 2515 00be 1340     		ands	r3, r3, r2
 2516 00c0 002B     		cmp	r3, #0
 2517 00c2 07D1     		bne	.L139
 2518 00c4 7B68     		ldr	r3, [r7, #4]
 2519 00c6 1B68     		ldr	r3, [r3]
 2520 00c8 7A68     		ldr	r2, [r7, #4]
 2521 00ca 1268     		ldr	r2, [r2]
 2522 00cc 526C     		ldr	r2, [r2, #68]
 2523 00ce 22F40042 		bic	r2, r2, #32768
 2524 00d2 5A64     		str	r2, [r3, #68]
 2525              	.L139:
1296:Drivers/STM32F3xx_HAL_Driver/Src/stm32f3xx_hal_tim_ex.c **** 
1297:Drivers/STM32F3xx_HAL_Driver/Src/stm32f3xx_hal_tim_ex.c ****   /* Disable the Peripheral */
1298:Drivers/STM32F3xx_HAL_Driver/Src/stm32f3xx_hal_tim_ex.c ****   __HAL_TIM_DISABLE(htim);
 2526              		.loc 1 1298 0 is_stmt 1
 2527 00d4 7B68     		ldr	r3, [r7, #4]
 2528 00d6 1B68     		ldr	r3, [r3]
 2529 00d8 1A6A     		ldr	r2, [r3, #32]
 2530 00da 41F21113 		movw	r3, #4369
 2531 00de 1340     		ands	r3, r3, r2
 2532 00e0 002B     		cmp	r3, #0
 2533 00e2 0FD1     		bne	.L140
 2534              		.loc 1 1298 0 is_stmt 0 discriminator 1
 2535 00e4 7B68     		ldr	r3, [r7, #4]
 2536 00e6 1B68     		ldr	r3, [r3]
 2537 00e8 1A6A     		ldr	r2, [r3, #32]
 2538 00ea 40F24443 		movw	r3, #1092
 2539 00ee 1340     		ands	r3, r3, r2
 2540 00f0 002B     		cmp	r3, #0
 2541 00f2 07D1     		bne	.L140
 2542 00f4 7B68     		ldr	r3, [r7, #4]
 2543 00f6 1B68     		ldr	r3, [r3]
 2544 00f8 7A68     		ldr	r2, [r7, #4]
 2545 00fa 1268     		ldr	r2, [r2]
 2546 00fc 1268     		ldr	r2, [r2]
 2547 00fe 22F00102 		bic	r2, r2, #1
 2548 0102 1A60     		str	r2, [r3]
 2549              	.L140:
1299:Drivers/STM32F3xx_HAL_Driver/Src/stm32f3xx_hal_tim_ex.c ****   
1300:Drivers/STM32F3xx_HAL_Driver/Src/stm32f3xx_hal_tim_ex.c ****   /* Change the htim state */
1301:Drivers/STM32F3xx_HAL_Driver/Src/stm32f3xx_hal_tim_ex.c ****   htim->State = HAL_TIM_STATE_READY;
 2550              		.loc 1 1301 0 is_stmt 1
 2551 0104 7B68     		ldr	r3, [r7, #4]
 2552 0106 0122     		movs	r2, #1
 2553 0108 83F83920 		strb	r2, [r3, #57]
1302:Drivers/STM32F3xx_HAL_Driver/Src/stm32f3xx_hal_tim_ex.c ****   
1303:Drivers/STM32F3xx_HAL_Driver/Src/stm32f3xx_hal_tim_ex.c ****   /* Return function status */
1304:Drivers/STM32F3xx_HAL_Driver/Src/stm32f3xx_hal_tim_ex.c ****   return HAL_OK;
 2554              		.loc 1 1304 0
 2555 010c 0023     		movs	r3, #0
1305:Drivers/STM32F3xx_HAL_Driver/Src/stm32f3xx_hal_tim_ex.c **** }
 2556              		.loc 1 1305 0
 2557 010e 1846     		mov	r0, r3
ARM GAS  /tmp/ccRzvoJq.s 			page 68


 2558 0110 0837     		adds	r7, r7, #8
 2559 0112 BD46     		mov	sp, r7
 2560              		@ sp needed
 2561 0114 80BD     		pop	{r7, pc}
 2562              		.cfi_endproc
 2563              	.LFE146:
 2565 0116 00BF     		.section	.text.HAL_TIMEx_OnePulseN_Start,"ax",%progbits
 2566              		.align	2
 2567              		.global	HAL_TIMEx_OnePulseN_Start
 2568              		.thumb
 2569              		.thumb_func
 2571              	HAL_TIMEx_OnePulseN_Start:
 2572              	.LFB147:
1306:Drivers/STM32F3xx_HAL_Driver/Src/stm32f3xx_hal_tim_ex.c **** 
1307:Drivers/STM32F3xx_HAL_Driver/Src/stm32f3xx_hal_tim_ex.c **** /**
1308:Drivers/STM32F3xx_HAL_Driver/Src/stm32f3xx_hal_tim_ex.c ****   * @}
1309:Drivers/STM32F3xx_HAL_Driver/Src/stm32f3xx_hal_tim_ex.c ****   */
1310:Drivers/STM32F3xx_HAL_Driver/Src/stm32f3xx_hal_tim_ex.c ****   
1311:Drivers/STM32F3xx_HAL_Driver/Src/stm32f3xx_hal_tim_ex.c **** /** @defgroup TIMEx_Exported_Functions_Group4 Timer Complementary One Pulse functions
1312:Drivers/STM32F3xx_HAL_Driver/Src/stm32f3xx_hal_tim_ex.c ****   * @brief    Timer Complementary One Pulse functions
1313:Drivers/STM32F3xx_HAL_Driver/Src/stm32f3xx_hal_tim_ex.c ****   *
1314:Drivers/STM32F3xx_HAL_Driver/Src/stm32f3xx_hal_tim_ex.c **** @verbatim   
1315:Drivers/STM32F3xx_HAL_Driver/Src/stm32f3xx_hal_tim_ex.c ****   ==============================================================================
1316:Drivers/STM32F3xx_HAL_Driver/Src/stm32f3xx_hal_tim_ex.c ****                 ##### Timer Complementary One Pulse functions #####
1317:Drivers/STM32F3xx_HAL_Driver/Src/stm32f3xx_hal_tim_ex.c ****   ==============================================================================  
1318:Drivers/STM32F3xx_HAL_Driver/Src/stm32f3xx_hal_tim_ex.c ****   [..]  
1319:Drivers/STM32F3xx_HAL_Driver/Src/stm32f3xx_hal_tim_ex.c ****     This section provides functions allowing to:
1320:Drivers/STM32F3xx_HAL_Driver/Src/stm32f3xx_hal_tim_ex.c ****     (+) Start the Complementary One Pulse generation.
1321:Drivers/STM32F3xx_HAL_Driver/Src/stm32f3xx_hal_tim_ex.c ****     (+) Stop the Complementary One Pulse.
1322:Drivers/STM32F3xx_HAL_Driver/Src/stm32f3xx_hal_tim_ex.c ****     (+) Start the Complementary One Pulse and enable interrupts.
1323:Drivers/STM32F3xx_HAL_Driver/Src/stm32f3xx_hal_tim_ex.c ****     (+) Stop the Complementary One Pulse and disable interrupts.
1324:Drivers/STM32F3xx_HAL_Driver/Src/stm32f3xx_hal_tim_ex.c ****                
1325:Drivers/STM32F3xx_HAL_Driver/Src/stm32f3xx_hal_tim_ex.c **** @endverbatim
1326:Drivers/STM32F3xx_HAL_Driver/Src/stm32f3xx_hal_tim_ex.c ****   * @{
1327:Drivers/STM32F3xx_HAL_Driver/Src/stm32f3xx_hal_tim_ex.c ****   */
1328:Drivers/STM32F3xx_HAL_Driver/Src/stm32f3xx_hal_tim_ex.c **** 
1329:Drivers/STM32F3xx_HAL_Driver/Src/stm32f3xx_hal_tim_ex.c **** /**
1330:Drivers/STM32F3xx_HAL_Driver/Src/stm32f3xx_hal_tim_ex.c ****   * @brief  Starts the TIM One Pulse signal generation on the complemetary 
1331:Drivers/STM32F3xx_HAL_Driver/Src/stm32f3xx_hal_tim_ex.c ****   *         output.
1332:Drivers/STM32F3xx_HAL_Driver/Src/stm32f3xx_hal_tim_ex.c ****   * @param  htim: TIM One Pulse handle
1333:Drivers/STM32F3xx_HAL_Driver/Src/stm32f3xx_hal_tim_ex.c ****   * @param  OutputChannel: TIM Channel to be enabled
1334:Drivers/STM32F3xx_HAL_Driver/Src/stm32f3xx_hal_tim_ex.c ****   *          This parameter can be one of the following values:
1335:Drivers/STM32F3xx_HAL_Driver/Src/stm32f3xx_hal_tim_ex.c ****   *            @arg TIM_CHANNEL_1: TIM Channel 1 selected
1336:Drivers/STM32F3xx_HAL_Driver/Src/stm32f3xx_hal_tim_ex.c ****   *            @arg TIM_CHANNEL_2: TIM Channel 2 selected
1337:Drivers/STM32F3xx_HAL_Driver/Src/stm32f3xx_hal_tim_ex.c ****   * @retval HAL status
1338:Drivers/STM32F3xx_HAL_Driver/Src/stm32f3xx_hal_tim_ex.c ****   */
1339:Drivers/STM32F3xx_HAL_Driver/Src/stm32f3xx_hal_tim_ex.c **** HAL_StatusTypeDef HAL_TIMEx_OnePulseN_Start(TIM_HandleTypeDef *htim, uint32_t OutputChannel)
1340:Drivers/STM32F3xx_HAL_Driver/Src/stm32f3xx_hal_tim_ex.c ****   {
 2573              		.loc 1 1340 0
 2574              		.cfi_startproc
 2575              		@ args = 0, pretend = 0, frame = 8
 2576              		@ frame_needed = 1, uses_anonymous_args = 0
 2577 0000 80B5     		push	{r7, lr}
 2578              	.LCFI66:
 2579              		.cfi_def_cfa_offset 8
 2580              		.cfi_offset 7, -8
 2581              		.cfi_offset 14, -4
ARM GAS  /tmp/ccRzvoJq.s 			page 69


 2582 0002 82B0     		sub	sp, sp, #8
 2583              	.LCFI67:
 2584              		.cfi_def_cfa_offset 16
 2585 0004 00AF     		add	r7, sp, #0
 2586              	.LCFI68:
 2587              		.cfi_def_cfa_register 7
 2588 0006 7860     		str	r0, [r7, #4]
 2589 0008 3960     		str	r1, [r7]
1341:Drivers/STM32F3xx_HAL_Driver/Src/stm32f3xx_hal_tim_ex.c ****   /* Check the parameters */
1342:Drivers/STM32F3xx_HAL_Driver/Src/stm32f3xx_hal_tim_ex.c ****   assert_param(IS_TIM_CCXN_INSTANCE(htim->Instance, OutputChannel)); 
1343:Drivers/STM32F3xx_HAL_Driver/Src/stm32f3xx_hal_tim_ex.c ****   
1344:Drivers/STM32F3xx_HAL_Driver/Src/stm32f3xx_hal_tim_ex.c ****   /* Enable the complementary One Pulse output */
1345:Drivers/STM32F3xx_HAL_Driver/Src/stm32f3xx_hal_tim_ex.c ****   TIM_CCxNChannelCmd(htim->Instance, OutputChannel, TIM_CCxN_ENABLE); 
 2590              		.loc 1 1345 0
 2591 000a 7B68     		ldr	r3, [r7, #4]
 2592 000c 1B68     		ldr	r3, [r3]
 2593 000e 1846     		mov	r0, r3
 2594 0010 3968     		ldr	r1, [r7]
 2595 0012 0422     		movs	r2, #4
 2596 0014 FFF7FEFF 		bl	TIM_CCxNChannelCmd
1346:Drivers/STM32F3xx_HAL_Driver/Src/stm32f3xx_hal_tim_ex.c ****   
1347:Drivers/STM32F3xx_HAL_Driver/Src/stm32f3xx_hal_tim_ex.c ****   /* Enable the Main Ouput */
1348:Drivers/STM32F3xx_HAL_Driver/Src/stm32f3xx_hal_tim_ex.c ****   __HAL_TIM_MOE_ENABLE(htim);
 2597              		.loc 1 1348 0
 2598 0018 7B68     		ldr	r3, [r7, #4]
 2599 001a 1B68     		ldr	r3, [r3]
 2600 001c 7A68     		ldr	r2, [r7, #4]
 2601 001e 1268     		ldr	r2, [r2]
 2602 0020 526C     		ldr	r2, [r2, #68]
 2603 0022 42F40042 		orr	r2, r2, #32768
 2604 0026 5A64     		str	r2, [r3, #68]
1349:Drivers/STM32F3xx_HAL_Driver/Src/stm32f3xx_hal_tim_ex.c ****   
1350:Drivers/STM32F3xx_HAL_Driver/Src/stm32f3xx_hal_tim_ex.c ****   /* Return function status */
1351:Drivers/STM32F3xx_HAL_Driver/Src/stm32f3xx_hal_tim_ex.c ****   return HAL_OK;
 2605              		.loc 1 1351 0
 2606 0028 0023     		movs	r3, #0
1352:Drivers/STM32F3xx_HAL_Driver/Src/stm32f3xx_hal_tim_ex.c **** }
 2607              		.loc 1 1352 0
 2608 002a 1846     		mov	r0, r3
 2609 002c 0837     		adds	r7, r7, #8
 2610 002e BD46     		mov	sp, r7
 2611              		@ sp needed
 2612 0030 80BD     		pop	{r7, pc}
 2613              		.cfi_endproc
 2614              	.LFE147:
 2616 0032 00BF     		.section	.text.HAL_TIMEx_OnePulseN_Stop,"ax",%progbits
 2617              		.align	2
 2618              		.global	HAL_TIMEx_OnePulseN_Stop
 2619              		.thumb
 2620              		.thumb_func
 2622              	HAL_TIMEx_OnePulseN_Stop:
 2623              	.LFB148:
1353:Drivers/STM32F3xx_HAL_Driver/Src/stm32f3xx_hal_tim_ex.c **** 
1354:Drivers/STM32F3xx_HAL_Driver/Src/stm32f3xx_hal_tim_ex.c **** /**
1355:Drivers/STM32F3xx_HAL_Driver/Src/stm32f3xx_hal_tim_ex.c ****   * @brief  Stops the TIM One Pulse signal generation on the complementary 
1356:Drivers/STM32F3xx_HAL_Driver/Src/stm32f3xx_hal_tim_ex.c ****   *         output.
1357:Drivers/STM32F3xx_HAL_Driver/Src/stm32f3xx_hal_tim_ex.c ****   * @param  htim: TIM One Pulse handle
ARM GAS  /tmp/ccRzvoJq.s 			page 70


1358:Drivers/STM32F3xx_HAL_Driver/Src/stm32f3xx_hal_tim_ex.c ****   * @param  OutputChannel: TIM Channel to be disabled
1359:Drivers/STM32F3xx_HAL_Driver/Src/stm32f3xx_hal_tim_ex.c ****   *          This parameter can be one of the following values:
1360:Drivers/STM32F3xx_HAL_Driver/Src/stm32f3xx_hal_tim_ex.c ****   *            @arg TIM_CHANNEL_1: TIM Channel 1 selected
1361:Drivers/STM32F3xx_HAL_Driver/Src/stm32f3xx_hal_tim_ex.c ****   *            @arg TIM_CHANNEL_2: TIM Channel 2 selected
1362:Drivers/STM32F3xx_HAL_Driver/Src/stm32f3xx_hal_tim_ex.c ****   * @retval HAL status
1363:Drivers/STM32F3xx_HAL_Driver/Src/stm32f3xx_hal_tim_ex.c ****   */
1364:Drivers/STM32F3xx_HAL_Driver/Src/stm32f3xx_hal_tim_ex.c **** HAL_StatusTypeDef HAL_TIMEx_OnePulseN_Stop(TIM_HandleTypeDef *htim, uint32_t OutputChannel)
1365:Drivers/STM32F3xx_HAL_Driver/Src/stm32f3xx_hal_tim_ex.c **** {
 2624              		.loc 1 1365 0
 2625              		.cfi_startproc
 2626              		@ args = 0, pretend = 0, frame = 8
 2627              		@ frame_needed = 1, uses_anonymous_args = 0
 2628 0000 80B5     		push	{r7, lr}
 2629              	.LCFI69:
 2630              		.cfi_def_cfa_offset 8
 2631              		.cfi_offset 7, -8
 2632              		.cfi_offset 14, -4
 2633 0002 82B0     		sub	sp, sp, #8
 2634              	.LCFI70:
 2635              		.cfi_def_cfa_offset 16
 2636 0004 00AF     		add	r7, sp, #0
 2637              	.LCFI71:
 2638              		.cfi_def_cfa_register 7
 2639 0006 7860     		str	r0, [r7, #4]
 2640 0008 3960     		str	r1, [r7]
1366:Drivers/STM32F3xx_HAL_Driver/Src/stm32f3xx_hal_tim_ex.c **** 
1367:Drivers/STM32F3xx_HAL_Driver/Src/stm32f3xx_hal_tim_ex.c ****   /* Check the parameters */
1368:Drivers/STM32F3xx_HAL_Driver/Src/stm32f3xx_hal_tim_ex.c ****   assert_param(IS_TIM_CCXN_INSTANCE(htim->Instance, OutputChannel)); 
1369:Drivers/STM32F3xx_HAL_Driver/Src/stm32f3xx_hal_tim_ex.c **** 
1370:Drivers/STM32F3xx_HAL_Driver/Src/stm32f3xx_hal_tim_ex.c ****   /* Disable the complementary One Pulse output */
1371:Drivers/STM32F3xx_HAL_Driver/Src/stm32f3xx_hal_tim_ex.c ****   TIM_CCxNChannelCmd(htim->Instance, OutputChannel, TIM_CCxN_DISABLE);
 2641              		.loc 1 1371 0
 2642 000a 7B68     		ldr	r3, [r7, #4]
 2643 000c 1B68     		ldr	r3, [r3]
 2644 000e 1846     		mov	r0, r3
 2645 0010 3968     		ldr	r1, [r7]
 2646 0012 0022     		movs	r2, #0
 2647 0014 FFF7FEFF 		bl	TIM_CCxNChannelCmd
1372:Drivers/STM32F3xx_HAL_Driver/Src/stm32f3xx_hal_tim_ex.c ****   
1373:Drivers/STM32F3xx_HAL_Driver/Src/stm32f3xx_hal_tim_ex.c ****   /* Disable the Main Ouput */
1374:Drivers/STM32F3xx_HAL_Driver/Src/stm32f3xx_hal_tim_ex.c ****   __HAL_TIM_MOE_DISABLE(htim);
 2648              		.loc 1 1374 0
 2649 0018 7B68     		ldr	r3, [r7, #4]
 2650 001a 1B68     		ldr	r3, [r3]
 2651 001c 1A6A     		ldr	r2, [r3, #32]
 2652 001e 41F21113 		movw	r3, #4369
 2653 0022 1340     		ands	r3, r3, r2
 2654 0024 002B     		cmp	r3, #0
 2655 0026 0FD1     		bne	.L146
 2656              		.loc 1 1374 0 is_stmt 0 discriminator 1
 2657 0028 7B68     		ldr	r3, [r7, #4]
 2658 002a 1B68     		ldr	r3, [r3]
 2659 002c 1A6A     		ldr	r2, [r3, #32]
 2660 002e 40F24443 		movw	r3, #1092
 2661 0032 1340     		ands	r3, r3, r2
 2662 0034 002B     		cmp	r3, #0
 2663 0036 07D1     		bne	.L146
ARM GAS  /tmp/ccRzvoJq.s 			page 71


 2664 0038 7B68     		ldr	r3, [r7, #4]
 2665 003a 1B68     		ldr	r3, [r3]
 2666 003c 7A68     		ldr	r2, [r7, #4]
 2667 003e 1268     		ldr	r2, [r2]
 2668 0040 526C     		ldr	r2, [r2, #68]
 2669 0042 22F40042 		bic	r2, r2, #32768
 2670 0046 5A64     		str	r2, [r3, #68]
 2671              	.L146:
1375:Drivers/STM32F3xx_HAL_Driver/Src/stm32f3xx_hal_tim_ex.c ****   
1376:Drivers/STM32F3xx_HAL_Driver/Src/stm32f3xx_hal_tim_ex.c ****   /* Disable the Peripheral */
1377:Drivers/STM32F3xx_HAL_Driver/Src/stm32f3xx_hal_tim_ex.c ****   __HAL_TIM_DISABLE(htim); 
 2672              		.loc 1 1377 0 is_stmt 1
 2673 0048 7B68     		ldr	r3, [r7, #4]
 2674 004a 1B68     		ldr	r3, [r3]
 2675 004c 1A6A     		ldr	r2, [r3, #32]
 2676 004e 41F21113 		movw	r3, #4369
 2677 0052 1340     		ands	r3, r3, r2
 2678 0054 002B     		cmp	r3, #0
 2679 0056 0FD1     		bne	.L147
 2680              		.loc 1 1377 0 is_stmt 0 discriminator 1
 2681 0058 7B68     		ldr	r3, [r7, #4]
 2682 005a 1B68     		ldr	r3, [r3]
 2683 005c 1A6A     		ldr	r2, [r3, #32]
 2684 005e 40F24443 		movw	r3, #1092
 2685 0062 1340     		ands	r3, r3, r2
 2686 0064 002B     		cmp	r3, #0
 2687 0066 07D1     		bne	.L147
 2688 0068 7B68     		ldr	r3, [r7, #4]
 2689 006a 1B68     		ldr	r3, [r3]
 2690 006c 7A68     		ldr	r2, [r7, #4]
 2691 006e 1268     		ldr	r2, [r2]
 2692 0070 1268     		ldr	r2, [r2]
 2693 0072 22F00102 		bic	r2, r2, #1
 2694 0076 1A60     		str	r2, [r3]
 2695              	.L147:
1378:Drivers/STM32F3xx_HAL_Driver/Src/stm32f3xx_hal_tim_ex.c ****    
1379:Drivers/STM32F3xx_HAL_Driver/Src/stm32f3xx_hal_tim_ex.c ****   /* Return function status */
1380:Drivers/STM32F3xx_HAL_Driver/Src/stm32f3xx_hal_tim_ex.c ****   return HAL_OK;
 2696              		.loc 1 1380 0 is_stmt 1
 2697 0078 0023     		movs	r3, #0
1381:Drivers/STM32F3xx_HAL_Driver/Src/stm32f3xx_hal_tim_ex.c **** }
 2698              		.loc 1 1381 0
 2699 007a 1846     		mov	r0, r3
 2700 007c 0837     		adds	r7, r7, #8
 2701 007e BD46     		mov	sp, r7
 2702              		@ sp needed
 2703 0080 80BD     		pop	{r7, pc}
 2704              		.cfi_endproc
 2705              	.LFE148:
 2707 0082 00BF     		.section	.text.HAL_TIMEx_OnePulseN_Start_IT,"ax",%progbits
 2708              		.align	2
 2709              		.global	HAL_TIMEx_OnePulseN_Start_IT
 2710              		.thumb
 2711              		.thumb_func
 2713              	HAL_TIMEx_OnePulseN_Start_IT:
 2714              	.LFB149:
1382:Drivers/STM32F3xx_HAL_Driver/Src/stm32f3xx_hal_tim_ex.c **** 
ARM GAS  /tmp/ccRzvoJq.s 			page 72


1383:Drivers/STM32F3xx_HAL_Driver/Src/stm32f3xx_hal_tim_ex.c **** /**
1384:Drivers/STM32F3xx_HAL_Driver/Src/stm32f3xx_hal_tim_ex.c ****   * @brief  Starts the TIM One Pulse signal generation in interrupt mode on the
1385:Drivers/STM32F3xx_HAL_Driver/Src/stm32f3xx_hal_tim_ex.c ****   *         complementary channel.
1386:Drivers/STM32F3xx_HAL_Driver/Src/stm32f3xx_hal_tim_ex.c ****   * @param  htim: TIM One Pulse handle
1387:Drivers/STM32F3xx_HAL_Driver/Src/stm32f3xx_hal_tim_ex.c ****   * @param  OutputChannel: TIM Channel to be enabled
1388:Drivers/STM32F3xx_HAL_Driver/Src/stm32f3xx_hal_tim_ex.c ****   *          This parameter can be one of the following values:
1389:Drivers/STM32F3xx_HAL_Driver/Src/stm32f3xx_hal_tim_ex.c ****   *            @arg TIM_CHANNEL_1: TIM Channel 1 selected
1390:Drivers/STM32F3xx_HAL_Driver/Src/stm32f3xx_hal_tim_ex.c ****   *            @arg TIM_CHANNEL_2: TIM Channel 2 selected
1391:Drivers/STM32F3xx_HAL_Driver/Src/stm32f3xx_hal_tim_ex.c ****   * @retval HAL status
1392:Drivers/STM32F3xx_HAL_Driver/Src/stm32f3xx_hal_tim_ex.c ****   */
1393:Drivers/STM32F3xx_HAL_Driver/Src/stm32f3xx_hal_tim_ex.c **** HAL_StatusTypeDef HAL_TIMEx_OnePulseN_Start_IT(TIM_HandleTypeDef *htim, uint32_t OutputChannel)
1394:Drivers/STM32F3xx_HAL_Driver/Src/stm32f3xx_hal_tim_ex.c **** {
 2715              		.loc 1 1394 0
 2716              		.cfi_startproc
 2717              		@ args = 0, pretend = 0, frame = 8
 2718              		@ frame_needed = 1, uses_anonymous_args = 0
 2719 0000 80B5     		push	{r7, lr}
 2720              	.LCFI72:
 2721              		.cfi_def_cfa_offset 8
 2722              		.cfi_offset 7, -8
 2723              		.cfi_offset 14, -4
 2724 0002 82B0     		sub	sp, sp, #8
 2725              	.LCFI73:
 2726              		.cfi_def_cfa_offset 16
 2727 0004 00AF     		add	r7, sp, #0
 2728              	.LCFI74:
 2729              		.cfi_def_cfa_register 7
 2730 0006 7860     		str	r0, [r7, #4]
 2731 0008 3960     		str	r1, [r7]
1395:Drivers/STM32F3xx_HAL_Driver/Src/stm32f3xx_hal_tim_ex.c ****   /* Check the parameters */
1396:Drivers/STM32F3xx_HAL_Driver/Src/stm32f3xx_hal_tim_ex.c ****   assert_param(IS_TIM_CCXN_INSTANCE(htim->Instance, OutputChannel)); 
1397:Drivers/STM32F3xx_HAL_Driver/Src/stm32f3xx_hal_tim_ex.c **** 
1398:Drivers/STM32F3xx_HAL_Driver/Src/stm32f3xx_hal_tim_ex.c ****   /* Enable the TIM Capture/Compare 1 interrupt */
1399:Drivers/STM32F3xx_HAL_Driver/Src/stm32f3xx_hal_tim_ex.c ****   __HAL_TIM_ENABLE_IT(htim, TIM_IT_CC1);
 2732              		.loc 1 1399 0
 2733 000a 7B68     		ldr	r3, [r7, #4]
 2734 000c 1B68     		ldr	r3, [r3]
 2735 000e 7A68     		ldr	r2, [r7, #4]
 2736 0010 1268     		ldr	r2, [r2]
 2737 0012 D268     		ldr	r2, [r2, #12]
 2738 0014 42F00202 		orr	r2, r2, #2
 2739 0018 DA60     		str	r2, [r3, #12]
1400:Drivers/STM32F3xx_HAL_Driver/Src/stm32f3xx_hal_tim_ex.c ****   
1401:Drivers/STM32F3xx_HAL_Driver/Src/stm32f3xx_hal_tim_ex.c ****   /* Enable the TIM Capture/Compare 2 interrupt */
1402:Drivers/STM32F3xx_HAL_Driver/Src/stm32f3xx_hal_tim_ex.c ****   __HAL_TIM_ENABLE_IT(htim, TIM_IT_CC2);
 2740              		.loc 1 1402 0
 2741 001a 7B68     		ldr	r3, [r7, #4]
 2742 001c 1B68     		ldr	r3, [r3]
 2743 001e 7A68     		ldr	r2, [r7, #4]
 2744 0020 1268     		ldr	r2, [r2]
 2745 0022 D268     		ldr	r2, [r2, #12]
 2746 0024 42F00402 		orr	r2, r2, #4
 2747 0028 DA60     		str	r2, [r3, #12]
1403:Drivers/STM32F3xx_HAL_Driver/Src/stm32f3xx_hal_tim_ex.c ****   
1404:Drivers/STM32F3xx_HAL_Driver/Src/stm32f3xx_hal_tim_ex.c ****   /* Enable the complementary One Pulse output */
1405:Drivers/STM32F3xx_HAL_Driver/Src/stm32f3xx_hal_tim_ex.c ****   TIM_CCxNChannelCmd(htim->Instance, OutputChannel, TIM_CCxN_ENABLE); 
 2748              		.loc 1 1405 0
ARM GAS  /tmp/ccRzvoJq.s 			page 73


 2749 002a 7B68     		ldr	r3, [r7, #4]
 2750 002c 1B68     		ldr	r3, [r3]
 2751 002e 1846     		mov	r0, r3
 2752 0030 3968     		ldr	r1, [r7]
 2753 0032 0422     		movs	r2, #4
 2754 0034 FFF7FEFF 		bl	TIM_CCxNChannelCmd
1406:Drivers/STM32F3xx_HAL_Driver/Src/stm32f3xx_hal_tim_ex.c ****   
1407:Drivers/STM32F3xx_HAL_Driver/Src/stm32f3xx_hal_tim_ex.c ****   /* Enable the Main Ouput */
1408:Drivers/STM32F3xx_HAL_Driver/Src/stm32f3xx_hal_tim_ex.c ****   __HAL_TIM_MOE_ENABLE(htim);
 2755              		.loc 1 1408 0
 2756 0038 7B68     		ldr	r3, [r7, #4]
 2757 003a 1B68     		ldr	r3, [r3]
 2758 003c 7A68     		ldr	r2, [r7, #4]
 2759 003e 1268     		ldr	r2, [r2]
 2760 0040 526C     		ldr	r2, [r2, #68]
 2761 0042 42F40042 		orr	r2, r2, #32768
 2762 0046 5A64     		str	r2, [r3, #68]
1409:Drivers/STM32F3xx_HAL_Driver/Src/stm32f3xx_hal_tim_ex.c ****   
1410:Drivers/STM32F3xx_HAL_Driver/Src/stm32f3xx_hal_tim_ex.c ****   /* Return function status */
1411:Drivers/STM32F3xx_HAL_Driver/Src/stm32f3xx_hal_tim_ex.c ****   return HAL_OK;
 2763              		.loc 1 1411 0
 2764 0048 0023     		movs	r3, #0
1412:Drivers/STM32F3xx_HAL_Driver/Src/stm32f3xx_hal_tim_ex.c ****   } 
 2765              		.loc 1 1412 0
 2766 004a 1846     		mov	r0, r3
 2767 004c 0837     		adds	r7, r7, #8
 2768 004e BD46     		mov	sp, r7
 2769              		@ sp needed
 2770 0050 80BD     		pop	{r7, pc}
 2771              		.cfi_endproc
 2772              	.LFE149:
 2774 0052 00BF     		.section	.text.HAL_TIMEx_OnePulseN_Stop_IT,"ax",%progbits
 2775              		.align	2
 2776              		.global	HAL_TIMEx_OnePulseN_Stop_IT
 2777              		.thumb
 2778              		.thumb_func
 2780              	HAL_TIMEx_OnePulseN_Stop_IT:
 2781              	.LFB150:
1413:Drivers/STM32F3xx_HAL_Driver/Src/stm32f3xx_hal_tim_ex.c ****   
1414:Drivers/STM32F3xx_HAL_Driver/Src/stm32f3xx_hal_tim_ex.c **** /**
1415:Drivers/STM32F3xx_HAL_Driver/Src/stm32f3xx_hal_tim_ex.c ****   * @brief  Stops the TIM One Pulse signal generation in interrupt mode on the
1416:Drivers/STM32F3xx_HAL_Driver/Src/stm32f3xx_hal_tim_ex.c ****   *         complementary channel.
1417:Drivers/STM32F3xx_HAL_Driver/Src/stm32f3xx_hal_tim_ex.c ****   * @param  htim: TIM One Pulse handle
1418:Drivers/STM32F3xx_HAL_Driver/Src/stm32f3xx_hal_tim_ex.c ****   * @param  OutputChannel: TIM Channel to be disabled
1419:Drivers/STM32F3xx_HAL_Driver/Src/stm32f3xx_hal_tim_ex.c ****   *          This parameter can be one of the following values:
1420:Drivers/STM32F3xx_HAL_Driver/Src/stm32f3xx_hal_tim_ex.c ****   *            @arg TIM_CHANNEL_1: TIM Channel 1 selected
1421:Drivers/STM32F3xx_HAL_Driver/Src/stm32f3xx_hal_tim_ex.c ****   *            @arg TIM_CHANNEL_2: TIM Channel 2 selected
1422:Drivers/STM32F3xx_HAL_Driver/Src/stm32f3xx_hal_tim_ex.c ****   * @retval HAL status
1423:Drivers/STM32F3xx_HAL_Driver/Src/stm32f3xx_hal_tim_ex.c ****   */
1424:Drivers/STM32F3xx_HAL_Driver/Src/stm32f3xx_hal_tim_ex.c **** HAL_StatusTypeDef HAL_TIMEx_OnePulseN_Stop_IT(TIM_HandleTypeDef *htim, uint32_t OutputChannel)
1425:Drivers/STM32F3xx_HAL_Driver/Src/stm32f3xx_hal_tim_ex.c **** {
 2782              		.loc 1 1425 0
 2783              		.cfi_startproc
 2784              		@ args = 0, pretend = 0, frame = 8
 2785              		@ frame_needed = 1, uses_anonymous_args = 0
 2786 0000 80B5     		push	{r7, lr}
 2787              	.LCFI75:
ARM GAS  /tmp/ccRzvoJq.s 			page 74


 2788              		.cfi_def_cfa_offset 8
 2789              		.cfi_offset 7, -8
 2790              		.cfi_offset 14, -4
 2791 0002 82B0     		sub	sp, sp, #8
 2792              	.LCFI76:
 2793              		.cfi_def_cfa_offset 16
 2794 0004 00AF     		add	r7, sp, #0
 2795              	.LCFI77:
 2796              		.cfi_def_cfa_register 7
 2797 0006 7860     		str	r0, [r7, #4]
 2798 0008 3960     		str	r1, [r7]
1426:Drivers/STM32F3xx_HAL_Driver/Src/stm32f3xx_hal_tim_ex.c ****   /* Check the parameters */
1427:Drivers/STM32F3xx_HAL_Driver/Src/stm32f3xx_hal_tim_ex.c ****   assert_param(IS_TIM_CCXN_INSTANCE(htim->Instance, OutputChannel)); 
1428:Drivers/STM32F3xx_HAL_Driver/Src/stm32f3xx_hal_tim_ex.c **** 
1429:Drivers/STM32F3xx_HAL_Driver/Src/stm32f3xx_hal_tim_ex.c ****   /* Disable the TIM Capture/Compare 1 interrupt */
1430:Drivers/STM32F3xx_HAL_Driver/Src/stm32f3xx_hal_tim_ex.c ****   __HAL_TIM_DISABLE_IT(htim, TIM_IT_CC1);
 2799              		.loc 1 1430 0
 2800 000a 7B68     		ldr	r3, [r7, #4]
 2801 000c 1B68     		ldr	r3, [r3]
 2802 000e 7A68     		ldr	r2, [r7, #4]
 2803 0010 1268     		ldr	r2, [r2]
 2804 0012 D268     		ldr	r2, [r2, #12]
 2805 0014 22F00202 		bic	r2, r2, #2
 2806 0018 DA60     		str	r2, [r3, #12]
1431:Drivers/STM32F3xx_HAL_Driver/Src/stm32f3xx_hal_tim_ex.c ****   
1432:Drivers/STM32F3xx_HAL_Driver/Src/stm32f3xx_hal_tim_ex.c ****   /* Disable the TIM Capture/Compare 2 interrupt */
1433:Drivers/STM32F3xx_HAL_Driver/Src/stm32f3xx_hal_tim_ex.c ****   __HAL_TIM_DISABLE_IT(htim, TIM_IT_CC2);
 2807              		.loc 1 1433 0
 2808 001a 7B68     		ldr	r3, [r7, #4]
 2809 001c 1B68     		ldr	r3, [r3]
 2810 001e 7A68     		ldr	r2, [r7, #4]
 2811 0020 1268     		ldr	r2, [r2]
 2812 0022 D268     		ldr	r2, [r2, #12]
 2813 0024 22F00402 		bic	r2, r2, #4
 2814 0028 DA60     		str	r2, [r3, #12]
1434:Drivers/STM32F3xx_HAL_Driver/Src/stm32f3xx_hal_tim_ex.c ****   
1435:Drivers/STM32F3xx_HAL_Driver/Src/stm32f3xx_hal_tim_ex.c ****   /* Disable the complementary One Pulse output */
1436:Drivers/STM32F3xx_HAL_Driver/Src/stm32f3xx_hal_tim_ex.c ****   TIM_CCxNChannelCmd(htim->Instance, OutputChannel, TIM_CCxN_DISABLE);
 2815              		.loc 1 1436 0
 2816 002a 7B68     		ldr	r3, [r7, #4]
 2817 002c 1B68     		ldr	r3, [r3]
 2818 002e 1846     		mov	r0, r3
 2819 0030 3968     		ldr	r1, [r7]
 2820 0032 0022     		movs	r2, #0
 2821 0034 FFF7FEFF 		bl	TIM_CCxNChannelCmd
1437:Drivers/STM32F3xx_HAL_Driver/Src/stm32f3xx_hal_tim_ex.c ****   
1438:Drivers/STM32F3xx_HAL_Driver/Src/stm32f3xx_hal_tim_ex.c ****   /* Disable the Main Ouput */
1439:Drivers/STM32F3xx_HAL_Driver/Src/stm32f3xx_hal_tim_ex.c ****   __HAL_TIM_MOE_DISABLE(htim);
 2822              		.loc 1 1439 0
 2823 0038 7B68     		ldr	r3, [r7, #4]
 2824 003a 1B68     		ldr	r3, [r3]
 2825 003c 1A6A     		ldr	r2, [r3, #32]
 2826 003e 41F21113 		movw	r3, #4369
 2827 0042 1340     		ands	r3, r3, r2
 2828 0044 002B     		cmp	r3, #0
 2829 0046 0FD1     		bne	.L152
 2830              		.loc 1 1439 0 is_stmt 0 discriminator 1
ARM GAS  /tmp/ccRzvoJq.s 			page 75


 2831 0048 7B68     		ldr	r3, [r7, #4]
 2832 004a 1B68     		ldr	r3, [r3]
 2833 004c 1A6A     		ldr	r2, [r3, #32]
 2834 004e 40F24443 		movw	r3, #1092
 2835 0052 1340     		ands	r3, r3, r2
 2836 0054 002B     		cmp	r3, #0
 2837 0056 07D1     		bne	.L152
 2838 0058 7B68     		ldr	r3, [r7, #4]
 2839 005a 1B68     		ldr	r3, [r3]
 2840 005c 7A68     		ldr	r2, [r7, #4]
 2841 005e 1268     		ldr	r2, [r2]
 2842 0060 526C     		ldr	r2, [r2, #68]
 2843 0062 22F40042 		bic	r2, r2, #32768
 2844 0066 5A64     		str	r2, [r3, #68]
 2845              	.L152:
1440:Drivers/STM32F3xx_HAL_Driver/Src/stm32f3xx_hal_tim_ex.c ****   
1441:Drivers/STM32F3xx_HAL_Driver/Src/stm32f3xx_hal_tim_ex.c ****   /* Disable the Peripheral */
1442:Drivers/STM32F3xx_HAL_Driver/Src/stm32f3xx_hal_tim_ex.c ****   __HAL_TIM_DISABLE(htim);  
 2846              		.loc 1 1442 0 is_stmt 1
 2847 0068 7B68     		ldr	r3, [r7, #4]
 2848 006a 1B68     		ldr	r3, [r3]
 2849 006c 1A6A     		ldr	r2, [r3, #32]
 2850 006e 41F21113 		movw	r3, #4369
 2851 0072 1340     		ands	r3, r3, r2
 2852 0074 002B     		cmp	r3, #0
 2853 0076 0FD1     		bne	.L153
 2854              		.loc 1 1442 0 is_stmt 0 discriminator 1
 2855 0078 7B68     		ldr	r3, [r7, #4]
 2856 007a 1B68     		ldr	r3, [r3]
 2857 007c 1A6A     		ldr	r2, [r3, #32]
 2858 007e 40F24443 		movw	r3, #1092
 2859 0082 1340     		ands	r3, r3, r2
 2860 0084 002B     		cmp	r3, #0
 2861 0086 07D1     		bne	.L153
 2862 0088 7B68     		ldr	r3, [r7, #4]
 2863 008a 1B68     		ldr	r3, [r3]
 2864 008c 7A68     		ldr	r2, [r7, #4]
 2865 008e 1268     		ldr	r2, [r2]
 2866 0090 1268     		ldr	r2, [r2]
 2867 0092 22F00102 		bic	r2, r2, #1
 2868 0096 1A60     		str	r2, [r3]
 2869              	.L153:
1443:Drivers/STM32F3xx_HAL_Driver/Src/stm32f3xx_hal_tim_ex.c ****   
1444:Drivers/STM32F3xx_HAL_Driver/Src/stm32f3xx_hal_tim_ex.c ****   /* Return function status */
1445:Drivers/STM32F3xx_HAL_Driver/Src/stm32f3xx_hal_tim_ex.c ****   return HAL_OK;
 2870              		.loc 1 1445 0 is_stmt 1
 2871 0098 0023     		movs	r3, #0
1446:Drivers/STM32F3xx_HAL_Driver/Src/stm32f3xx_hal_tim_ex.c **** }
 2872              		.loc 1 1446 0
 2873 009a 1846     		mov	r0, r3
 2874 009c 0837     		adds	r7, r7, #8
 2875 009e BD46     		mov	sp, r7
 2876              		@ sp needed
 2877 00a0 80BD     		pop	{r7, pc}
 2878              		.cfi_endproc
 2879              	.LFE150:
 2881 00a2 00BF     		.section	.text.HAL_TIMEx_ConfigCommutationEvent,"ax",%progbits
ARM GAS  /tmp/ccRzvoJq.s 			page 76


 2882              		.align	2
 2883              		.global	HAL_TIMEx_ConfigCommutationEvent
 2884              		.thumb
 2885              		.thumb_func
 2887              	HAL_TIMEx_ConfigCommutationEvent:
 2888              	.LFB151:
1447:Drivers/STM32F3xx_HAL_Driver/Src/stm32f3xx_hal_tim_ex.c **** 
1448:Drivers/STM32F3xx_HAL_Driver/Src/stm32f3xx_hal_tim_ex.c **** /**
1449:Drivers/STM32F3xx_HAL_Driver/Src/stm32f3xx_hal_tim_ex.c ****   * @}
1450:Drivers/STM32F3xx_HAL_Driver/Src/stm32f3xx_hal_tim_ex.c ****   */
1451:Drivers/STM32F3xx_HAL_Driver/Src/stm32f3xx_hal_tim_ex.c **** /** @defgroup TIMEx_Exported_Functions_Group5 Peripheral Control functions
1452:Drivers/STM32F3xx_HAL_Driver/Src/stm32f3xx_hal_tim_ex.c ****   * @brief    Peripheral Control functions
1453:Drivers/STM32F3xx_HAL_Driver/Src/stm32f3xx_hal_tim_ex.c ****   *
1454:Drivers/STM32F3xx_HAL_Driver/Src/stm32f3xx_hal_tim_ex.c **** @verbatim   
1455:Drivers/STM32F3xx_HAL_Driver/Src/stm32f3xx_hal_tim_ex.c ****   ==============================================================================
1456:Drivers/STM32F3xx_HAL_Driver/Src/stm32f3xx_hal_tim_ex.c ****                     ##### Peripheral Control functions #####
1457:Drivers/STM32F3xx_HAL_Driver/Src/stm32f3xx_hal_tim_ex.c ****   ==============================================================================  
1458:Drivers/STM32F3xx_HAL_Driver/Src/stm32f3xx_hal_tim_ex.c ****   [..]  
1459:Drivers/STM32F3xx_HAL_Driver/Src/stm32f3xx_hal_tim_ex.c ****     This section provides functions allowing to:
1460:Drivers/STM32F3xx_HAL_Driver/Src/stm32f3xx_hal_tim_ex.c ****     (+) Configure the commutation event in case of use of the Hall sensor interface.
1461:Drivers/STM32F3xx_HAL_Driver/Src/stm32f3xx_hal_tim_ex.c ****       (+) Configure Output channels for OC and PWM mode. 
1462:Drivers/STM32F3xx_HAL_Driver/Src/stm32f3xx_hal_tim_ex.c **** 
1463:Drivers/STM32F3xx_HAL_Driver/Src/stm32f3xx_hal_tim_ex.c ****       (+) Configure Complementary channels, break features and dead time.
1464:Drivers/STM32F3xx_HAL_Driver/Src/stm32f3xx_hal_tim_ex.c ****       (+) Configure Master synchronization.
1465:Drivers/STM32F3xx_HAL_Driver/Src/stm32f3xx_hal_tim_ex.c ****       (+) Configure timer remapping capabilities.
1466:Drivers/STM32F3xx_HAL_Driver/Src/stm32f3xx_hal_tim_ex.c ****       (+) Enable or disable channel grouping
1467:Drivers/STM32F3xx_HAL_Driver/Src/stm32f3xx_hal_tim_ex.c ****       
1468:Drivers/STM32F3xx_HAL_Driver/Src/stm32f3xx_hal_tim_ex.c **** @endverbatim
1469:Drivers/STM32F3xx_HAL_Driver/Src/stm32f3xx_hal_tim_ex.c ****   * @{
1470:Drivers/STM32F3xx_HAL_Driver/Src/stm32f3xx_hal_tim_ex.c ****   */
1471:Drivers/STM32F3xx_HAL_Driver/Src/stm32f3xx_hal_tim_ex.c **** #if defined(STM32F302xE) || defined(STM32F303xE) || defined(STM32F398xx) || \
1472:Drivers/STM32F3xx_HAL_Driver/Src/stm32f3xx_hal_tim_ex.c ****     defined(STM32F302xC) || defined(STM32F303xC) || defined(STM32F358xx) || \
1473:Drivers/STM32F3xx_HAL_Driver/Src/stm32f3xx_hal_tim_ex.c ****     defined(STM32F303x8) || defined(STM32F334x8) || defined(STM32F328xx) || \
1474:Drivers/STM32F3xx_HAL_Driver/Src/stm32f3xx_hal_tim_ex.c ****     defined(STM32F301x8) || defined(STM32F302x8) || defined(STM32F318xx)
1475:Drivers/STM32F3xx_HAL_Driver/Src/stm32f3xx_hal_tim_ex.c **** /**
1476:Drivers/STM32F3xx_HAL_Driver/Src/stm32f3xx_hal_tim_ex.c ****   * @brief  Configure the TIM commutation event sequence.
1477:Drivers/STM32F3xx_HAL_Driver/Src/stm32f3xx_hal_tim_ex.c ****   * @note this function is mandatory to use the commutation event in order to 
1478:Drivers/STM32F3xx_HAL_Driver/Src/stm32f3xx_hal_tim_ex.c ****   *        update the configuration at each commutation detection on the TRGI input of the Timer,
1479:Drivers/STM32F3xx_HAL_Driver/Src/stm32f3xx_hal_tim_ex.c ****   *        the typical use of this feature is with the use of another Timer(interface Timer) 
1480:Drivers/STM32F3xx_HAL_Driver/Src/stm32f3xx_hal_tim_ex.c ****   *        configured in Hall sensor interface, this interface Timer will generate the 
1481:Drivers/STM32F3xx_HAL_Driver/Src/stm32f3xx_hal_tim_ex.c ****   *        commutation at its TRGO output (connected to Timer used in this function) each time 
1482:Drivers/STM32F3xx_HAL_Driver/Src/stm32f3xx_hal_tim_ex.c ****   *        the TI1 of the Interface Timer detect a commutation at its input TI1.
1483:Drivers/STM32F3xx_HAL_Driver/Src/stm32f3xx_hal_tim_ex.c ****   * @param  htim: TIM handle
1484:Drivers/STM32F3xx_HAL_Driver/Src/stm32f3xx_hal_tim_ex.c ****   * @param  InputTrigger: the Internal trigger corresponding to the Timer Interfacing with the Hall
1485:Drivers/STM32F3xx_HAL_Driver/Src/stm32f3xx_hal_tim_ex.c ****   *          This parameter can be one of the following values:
1486:Drivers/STM32F3xx_HAL_Driver/Src/stm32f3xx_hal_tim_ex.c ****   *            @arg TIM_TS_ITR0: Internal trigger 0 selected
1487:Drivers/STM32F3xx_HAL_Driver/Src/stm32f3xx_hal_tim_ex.c ****   *            @arg TIM_TS_ITR1: Internal trigger 1 selected
1488:Drivers/STM32F3xx_HAL_Driver/Src/stm32f3xx_hal_tim_ex.c ****   *            @arg TIM_TS_ITR2: Internal trigger 2 selected
1489:Drivers/STM32F3xx_HAL_Driver/Src/stm32f3xx_hal_tim_ex.c ****   *            @arg TIM_TS_ITR3: Internal trigger 3 selected
1490:Drivers/STM32F3xx_HAL_Driver/Src/stm32f3xx_hal_tim_ex.c ****   *            @arg TIM_TS_NONE: No trigger is needed 
1491:Drivers/STM32F3xx_HAL_Driver/Src/stm32f3xx_hal_tim_ex.c ****   * @param  CommutationSource: the Commutation Event source
1492:Drivers/STM32F3xx_HAL_Driver/Src/stm32f3xx_hal_tim_ex.c ****   *          This parameter can be one of the following values:
1493:Drivers/STM32F3xx_HAL_Driver/Src/stm32f3xx_hal_tim_ex.c ****   *            @arg TIM_COMMUTATION_TRGI: Commutation source is the TRGI of the Interface Timer
1494:Drivers/STM32F3xx_HAL_Driver/Src/stm32f3xx_hal_tim_ex.c ****   *            @arg TIM_COMMUTATION_SOFTWARE:  Commutation source is set by software using the COMG
1495:Drivers/STM32F3xx_HAL_Driver/Src/stm32f3xx_hal_tim_ex.c ****   * @retval HAL status
1496:Drivers/STM32F3xx_HAL_Driver/Src/stm32f3xx_hal_tim_ex.c ****   */
1497:Drivers/STM32F3xx_HAL_Driver/Src/stm32f3xx_hal_tim_ex.c **** HAL_StatusTypeDef HAL_TIMEx_ConfigCommutationEvent(TIM_HandleTypeDef *htim, uint32_t  InputTrigger,
ARM GAS  /tmp/ccRzvoJq.s 			page 77


1498:Drivers/STM32F3xx_HAL_Driver/Src/stm32f3xx_hal_tim_ex.c **** {
 2889              		.loc 1 1498 0
 2890              		.cfi_startproc
 2891              		@ args = 0, pretend = 0, frame = 16
 2892              		@ frame_needed = 1, uses_anonymous_args = 0
 2893              		@ link register save eliminated.
 2894 0000 80B4     		push	{r7}
 2895              	.LCFI78:
 2896              		.cfi_def_cfa_offset 4
 2897              		.cfi_offset 7, -4
 2898 0002 85B0     		sub	sp, sp, #20
 2899              	.LCFI79:
 2900              		.cfi_def_cfa_offset 24
 2901 0004 00AF     		add	r7, sp, #0
 2902              	.LCFI80:
 2903              		.cfi_def_cfa_register 7
 2904 0006 F860     		str	r0, [r7, #12]
 2905 0008 B960     		str	r1, [r7, #8]
 2906 000a 7A60     		str	r2, [r7, #4]
1499:Drivers/STM32F3xx_HAL_Driver/Src/stm32f3xx_hal_tim_ex.c ****   /* Check the parameters */
1500:Drivers/STM32F3xx_HAL_Driver/Src/stm32f3xx_hal_tim_ex.c ****   assert_param(IS_TIM_COMMUTATION_EVENT_INSTANCE(htim->Instance));
1501:Drivers/STM32F3xx_HAL_Driver/Src/stm32f3xx_hal_tim_ex.c ****   assert_param(IS_TIM_INTERNAL_TRIGGEREVENT_SELECTION(InputTrigger));
1502:Drivers/STM32F3xx_HAL_Driver/Src/stm32f3xx_hal_tim_ex.c ****   
1503:Drivers/STM32F3xx_HAL_Driver/Src/stm32f3xx_hal_tim_ex.c ****   __HAL_LOCK(htim);
 2907              		.loc 1 1503 0
 2908 000c FB68     		ldr	r3, [r7, #12]
 2909 000e 93F83830 		ldrb	r3, [r3, #56]	@ zero_extendqisi2
 2910 0012 012B     		cmp	r3, #1
 2911 0014 01D1     		bne	.L156
 2912              		.loc 1 1503 0 is_stmt 0 discriminator 1
 2913 0016 0223     		movs	r3, #2
 2914 0018 3CE0     		b	.L157
 2915              	.L156:
 2916              		.loc 1 1503 0 discriminator 2
 2917 001a FB68     		ldr	r3, [r7, #12]
 2918 001c 0122     		movs	r2, #1
 2919 001e 83F83820 		strb	r2, [r3, #56]
1504:Drivers/STM32F3xx_HAL_Driver/Src/stm32f3xx_hal_tim_ex.c ****   
1505:Drivers/STM32F3xx_HAL_Driver/Src/stm32f3xx_hal_tim_ex.c ****   if ((InputTrigger == TIM_TS_ITR0) || (InputTrigger == TIM_TS_ITR1) ||
 2920              		.loc 1 1505 0 is_stmt 1 discriminator 2
 2921 0022 BB68     		ldr	r3, [r7, #8]
 2922 0024 002B     		cmp	r3, #0
 2923 0026 08D0     		beq	.L158
 2924              		.loc 1 1505 0 is_stmt 0 discriminator 1
 2925 0028 BB68     		ldr	r3, [r7, #8]
 2926 002a 102B     		cmp	r3, #16
 2927 002c 05D0     		beq	.L158
 2928 002e BB68     		ldr	r3, [r7, #8]
 2929 0030 202B     		cmp	r3, #32
 2930 0032 02D0     		beq	.L158
1506:Drivers/STM32F3xx_HAL_Driver/Src/stm32f3xx_hal_tim_ex.c ****       (InputTrigger == TIM_TS_ITR2) || (InputTrigger == TIM_TS_ITR3))
 2931              		.loc 1 1506 0 is_stmt 1
 2932 0034 BB68     		ldr	r3, [r7, #8]
 2933 0036 302B     		cmp	r3, #48
 2934 0038 0FD1     		bne	.L159
 2935              	.L158:
1507:Drivers/STM32F3xx_HAL_Driver/Src/stm32f3xx_hal_tim_ex.c ****   {    
ARM GAS  /tmp/ccRzvoJq.s 			page 78


1508:Drivers/STM32F3xx_HAL_Driver/Src/stm32f3xx_hal_tim_ex.c ****     /* Select the Input trigger */
1509:Drivers/STM32F3xx_HAL_Driver/Src/stm32f3xx_hal_tim_ex.c ****     htim->Instance->SMCR &= ~TIM_SMCR_TS;
 2936              		.loc 1 1509 0
 2937 003a FB68     		ldr	r3, [r7, #12]
 2938 003c 1B68     		ldr	r3, [r3]
 2939 003e FA68     		ldr	r2, [r7, #12]
 2940 0040 1268     		ldr	r2, [r2]
 2941 0042 9268     		ldr	r2, [r2, #8]
 2942 0044 22F07002 		bic	r2, r2, #112
 2943 0048 9A60     		str	r2, [r3, #8]
1510:Drivers/STM32F3xx_HAL_Driver/Src/stm32f3xx_hal_tim_ex.c ****     htim->Instance->SMCR |= InputTrigger;
 2944              		.loc 1 1510 0
 2945 004a FB68     		ldr	r3, [r7, #12]
 2946 004c 1B68     		ldr	r3, [r3]
 2947 004e FA68     		ldr	r2, [r7, #12]
 2948 0050 1268     		ldr	r2, [r2]
 2949 0052 9168     		ldr	r1, [r2, #8]
 2950 0054 BA68     		ldr	r2, [r7, #8]
 2951 0056 0A43     		orrs	r2, r2, r1
 2952 0058 9A60     		str	r2, [r3, #8]
 2953              	.L159:
1511:Drivers/STM32F3xx_HAL_Driver/Src/stm32f3xx_hal_tim_ex.c ****   }
1512:Drivers/STM32F3xx_HAL_Driver/Src/stm32f3xx_hal_tim_ex.c ****     
1513:Drivers/STM32F3xx_HAL_Driver/Src/stm32f3xx_hal_tim_ex.c ****   /* Select the Capture Compare preload feature */
1514:Drivers/STM32F3xx_HAL_Driver/Src/stm32f3xx_hal_tim_ex.c ****   htim->Instance->CR2 |= TIM_CR2_CCPC;
 2954              		.loc 1 1514 0
 2955 005a FB68     		ldr	r3, [r7, #12]
 2956 005c 1B68     		ldr	r3, [r3]
 2957 005e FA68     		ldr	r2, [r7, #12]
 2958 0060 1268     		ldr	r2, [r2]
 2959 0062 5268     		ldr	r2, [r2, #4]
 2960 0064 42F00102 		orr	r2, r2, #1
 2961 0068 5A60     		str	r2, [r3, #4]
1515:Drivers/STM32F3xx_HAL_Driver/Src/stm32f3xx_hal_tim_ex.c ****   /* Select the Commutation event source */
1516:Drivers/STM32F3xx_HAL_Driver/Src/stm32f3xx_hal_tim_ex.c ****   htim->Instance->CR2 &= ~TIM_CR2_CCUS;
 2962              		.loc 1 1516 0
 2963 006a FB68     		ldr	r3, [r7, #12]
 2964 006c 1B68     		ldr	r3, [r3]
 2965 006e FA68     		ldr	r2, [r7, #12]
 2966 0070 1268     		ldr	r2, [r2]
 2967 0072 5268     		ldr	r2, [r2, #4]
 2968 0074 22F00402 		bic	r2, r2, #4
 2969 0078 5A60     		str	r2, [r3, #4]
1517:Drivers/STM32F3xx_HAL_Driver/Src/stm32f3xx_hal_tim_ex.c ****   htim->Instance->CR2 |= CommutationSource;
 2970              		.loc 1 1517 0
 2971 007a FB68     		ldr	r3, [r7, #12]
 2972 007c 1B68     		ldr	r3, [r3]
 2973 007e FA68     		ldr	r2, [r7, #12]
 2974 0080 1268     		ldr	r2, [r2]
 2975 0082 5168     		ldr	r1, [r2, #4]
 2976 0084 7A68     		ldr	r2, [r7, #4]
 2977 0086 0A43     		orrs	r2, r2, r1
 2978 0088 5A60     		str	r2, [r3, #4]
1518:Drivers/STM32F3xx_HAL_Driver/Src/stm32f3xx_hal_tim_ex.c ****     
1519:Drivers/STM32F3xx_HAL_Driver/Src/stm32f3xx_hal_tim_ex.c ****   __HAL_UNLOCK(htim);
 2979              		.loc 1 1519 0
 2980 008a FB68     		ldr	r3, [r7, #12]
ARM GAS  /tmp/ccRzvoJq.s 			page 79


 2981 008c 0022     		movs	r2, #0
 2982 008e 83F83820 		strb	r2, [r3, #56]
1520:Drivers/STM32F3xx_HAL_Driver/Src/stm32f3xx_hal_tim_ex.c ****   
1521:Drivers/STM32F3xx_HAL_Driver/Src/stm32f3xx_hal_tim_ex.c ****   return HAL_OK;
 2983              		.loc 1 1521 0
 2984 0092 0023     		movs	r3, #0
 2985              	.L157:
1522:Drivers/STM32F3xx_HAL_Driver/Src/stm32f3xx_hal_tim_ex.c **** }
 2986              		.loc 1 1522 0
 2987 0094 1846     		mov	r0, r3
 2988 0096 1437     		adds	r7, r7, #20
 2989 0098 BD46     		mov	sp, r7
 2990              		@ sp needed
 2991 009a 5DF8047B 		ldr	r7, [sp], #4
 2992 009e 7047     		bx	lr
 2993              		.cfi_endproc
 2994              	.LFE151:
 2996              		.section	.text.HAL_TIMEx_ConfigCommutationEvent_IT,"ax",%progbits
 2997              		.align	2
 2998              		.global	HAL_TIMEx_ConfigCommutationEvent_IT
 2999              		.thumb
 3000              		.thumb_func
 3002              	HAL_TIMEx_ConfigCommutationEvent_IT:
 3003              	.LFB152:
1523:Drivers/STM32F3xx_HAL_Driver/Src/stm32f3xx_hal_tim_ex.c **** 
1524:Drivers/STM32F3xx_HAL_Driver/Src/stm32f3xx_hal_tim_ex.c **** /**
1525:Drivers/STM32F3xx_HAL_Driver/Src/stm32f3xx_hal_tim_ex.c ****   * @brief  Configure the TIM commutation event sequence with interrupt.
1526:Drivers/STM32F3xx_HAL_Driver/Src/stm32f3xx_hal_tim_ex.c ****   * @note this function is mandatory to use the commutation event in order to 
1527:Drivers/STM32F3xx_HAL_Driver/Src/stm32f3xx_hal_tim_ex.c ****   *        update the configuration at each commutation detection on the TRGI input of the Timer,
1528:Drivers/STM32F3xx_HAL_Driver/Src/stm32f3xx_hal_tim_ex.c ****   *        the typical use of this feature is with the use of another Timer(interface Timer) 
1529:Drivers/STM32F3xx_HAL_Driver/Src/stm32f3xx_hal_tim_ex.c ****   *        configured in Hall sensor interface, this interface Timer will generate the 
1530:Drivers/STM32F3xx_HAL_Driver/Src/stm32f3xx_hal_tim_ex.c ****   *        commutation at its TRGO output (connected to Timer used in this function) each time 
1531:Drivers/STM32F3xx_HAL_Driver/Src/stm32f3xx_hal_tim_ex.c ****   *        the TI1 of the Interface Timer detect a commutation at its input TI1.
1532:Drivers/STM32F3xx_HAL_Driver/Src/stm32f3xx_hal_tim_ex.c ****   * @param  htim: TIM handle
1533:Drivers/STM32F3xx_HAL_Driver/Src/stm32f3xx_hal_tim_ex.c ****   * @param  InputTrigger: the Internal trigger corresponding to the Timer Interfacing with the Hall
1534:Drivers/STM32F3xx_HAL_Driver/Src/stm32f3xx_hal_tim_ex.c ****   *          This parameter can be one of the following values:
1535:Drivers/STM32F3xx_HAL_Driver/Src/stm32f3xx_hal_tim_ex.c ****   *            @arg TIM_TS_ITR0: Internal trigger 0 selected
1536:Drivers/STM32F3xx_HAL_Driver/Src/stm32f3xx_hal_tim_ex.c ****   *            @arg TIM_TS_ITR1: Internal trigger 1 selected
1537:Drivers/STM32F3xx_HAL_Driver/Src/stm32f3xx_hal_tim_ex.c ****   *            @arg TIM_TS_ITR2: Internal trigger 2 selected
1538:Drivers/STM32F3xx_HAL_Driver/Src/stm32f3xx_hal_tim_ex.c ****   *            @arg TIM_TS_ITR3: Internal trigger 3 selected
1539:Drivers/STM32F3xx_HAL_Driver/Src/stm32f3xx_hal_tim_ex.c ****   *            @arg TIM_TS_NONE: No trigger is needed 
1540:Drivers/STM32F3xx_HAL_Driver/Src/stm32f3xx_hal_tim_ex.c ****   * @param  CommutationSource: the Commutation Event source
1541:Drivers/STM32F3xx_HAL_Driver/Src/stm32f3xx_hal_tim_ex.c ****   *          This parameter can be one of the following values:
1542:Drivers/STM32F3xx_HAL_Driver/Src/stm32f3xx_hal_tim_ex.c ****   *            @arg TIM_COMMUTATION_TRGI: Commutation source is the TRGI of the Interface Timer
1543:Drivers/STM32F3xx_HAL_Driver/Src/stm32f3xx_hal_tim_ex.c ****   *            @arg TIM_COMMUTATION_SOFTWARE:  Commutation source is set by software using the COMG
1544:Drivers/STM32F3xx_HAL_Driver/Src/stm32f3xx_hal_tim_ex.c ****   * @retval HAL status
1545:Drivers/STM32F3xx_HAL_Driver/Src/stm32f3xx_hal_tim_ex.c ****   */
1546:Drivers/STM32F3xx_HAL_Driver/Src/stm32f3xx_hal_tim_ex.c **** HAL_StatusTypeDef HAL_TIMEx_ConfigCommutationEvent_IT(TIM_HandleTypeDef *htim, uint32_t  InputTrigg
1547:Drivers/STM32F3xx_HAL_Driver/Src/stm32f3xx_hal_tim_ex.c **** {
 3004              		.loc 1 1547 0
 3005              		.cfi_startproc
 3006              		@ args = 0, pretend = 0, frame = 16
 3007              		@ frame_needed = 1, uses_anonymous_args = 0
 3008              		@ link register save eliminated.
 3009 0000 80B4     		push	{r7}
 3010              	.LCFI81:
 3011              		.cfi_def_cfa_offset 4
ARM GAS  /tmp/ccRzvoJq.s 			page 80


 3012              		.cfi_offset 7, -4
 3013 0002 85B0     		sub	sp, sp, #20
 3014              	.LCFI82:
 3015              		.cfi_def_cfa_offset 24
 3016 0004 00AF     		add	r7, sp, #0
 3017              	.LCFI83:
 3018              		.cfi_def_cfa_register 7
 3019 0006 F860     		str	r0, [r7, #12]
 3020 0008 B960     		str	r1, [r7, #8]
 3021 000a 7A60     		str	r2, [r7, #4]
1548:Drivers/STM32F3xx_HAL_Driver/Src/stm32f3xx_hal_tim_ex.c ****   /* Check the parameters */
1549:Drivers/STM32F3xx_HAL_Driver/Src/stm32f3xx_hal_tim_ex.c ****   assert_param(IS_TIM_COMMUTATION_EVENT_INSTANCE(htim->Instance));
1550:Drivers/STM32F3xx_HAL_Driver/Src/stm32f3xx_hal_tim_ex.c ****   assert_param(IS_TIM_INTERNAL_TRIGGEREVENT_SELECTION(InputTrigger));
1551:Drivers/STM32F3xx_HAL_Driver/Src/stm32f3xx_hal_tim_ex.c ****   
1552:Drivers/STM32F3xx_HAL_Driver/Src/stm32f3xx_hal_tim_ex.c ****   __HAL_LOCK(htim);
 3022              		.loc 1 1552 0
 3023 000c FB68     		ldr	r3, [r7, #12]
 3024 000e 93F83830 		ldrb	r3, [r3, #56]	@ zero_extendqisi2
 3025 0012 012B     		cmp	r3, #1
 3026 0014 01D1     		bne	.L161
 3027              		.loc 1 1552 0 is_stmt 0 discriminator 1
 3028 0016 0223     		movs	r3, #2
 3029 0018 44E0     		b	.L162
 3030              	.L161:
 3031              		.loc 1 1552 0 discriminator 2
 3032 001a FB68     		ldr	r3, [r7, #12]
 3033 001c 0122     		movs	r2, #1
 3034 001e 83F83820 		strb	r2, [r3, #56]
1553:Drivers/STM32F3xx_HAL_Driver/Src/stm32f3xx_hal_tim_ex.c ****   
1554:Drivers/STM32F3xx_HAL_Driver/Src/stm32f3xx_hal_tim_ex.c ****   if ((InputTrigger == TIM_TS_ITR0) || (InputTrigger == TIM_TS_ITR1) ||
 3035              		.loc 1 1554 0 is_stmt 1 discriminator 2
 3036 0022 BB68     		ldr	r3, [r7, #8]
 3037 0024 002B     		cmp	r3, #0
 3038 0026 08D0     		beq	.L163
 3039              		.loc 1 1554 0 is_stmt 0 discriminator 1
 3040 0028 BB68     		ldr	r3, [r7, #8]
 3041 002a 102B     		cmp	r3, #16
 3042 002c 05D0     		beq	.L163
 3043 002e BB68     		ldr	r3, [r7, #8]
 3044 0030 202B     		cmp	r3, #32
 3045 0032 02D0     		beq	.L163
1555:Drivers/STM32F3xx_HAL_Driver/Src/stm32f3xx_hal_tim_ex.c ****       (InputTrigger == TIM_TS_ITR2) || (InputTrigger == TIM_TS_ITR3))
 3046              		.loc 1 1555 0 is_stmt 1
 3047 0034 BB68     		ldr	r3, [r7, #8]
 3048 0036 302B     		cmp	r3, #48
 3049 0038 0FD1     		bne	.L164
 3050              	.L163:
1556:Drivers/STM32F3xx_HAL_Driver/Src/stm32f3xx_hal_tim_ex.c ****   {    
1557:Drivers/STM32F3xx_HAL_Driver/Src/stm32f3xx_hal_tim_ex.c ****     /* Select the Input trigger */
1558:Drivers/STM32F3xx_HAL_Driver/Src/stm32f3xx_hal_tim_ex.c ****     htim->Instance->SMCR &= ~TIM_SMCR_TS;
 3051              		.loc 1 1558 0
 3052 003a FB68     		ldr	r3, [r7, #12]
 3053 003c 1B68     		ldr	r3, [r3]
 3054 003e FA68     		ldr	r2, [r7, #12]
 3055 0040 1268     		ldr	r2, [r2]
 3056 0042 9268     		ldr	r2, [r2, #8]
 3057 0044 22F07002 		bic	r2, r2, #112
ARM GAS  /tmp/ccRzvoJq.s 			page 81


 3058 0048 9A60     		str	r2, [r3, #8]
1559:Drivers/STM32F3xx_HAL_Driver/Src/stm32f3xx_hal_tim_ex.c ****     htim->Instance->SMCR |= InputTrigger;
 3059              		.loc 1 1559 0
 3060 004a FB68     		ldr	r3, [r7, #12]
 3061 004c 1B68     		ldr	r3, [r3]
 3062 004e FA68     		ldr	r2, [r7, #12]
 3063 0050 1268     		ldr	r2, [r2]
 3064 0052 9168     		ldr	r1, [r2, #8]
 3065 0054 BA68     		ldr	r2, [r7, #8]
 3066 0056 0A43     		orrs	r2, r2, r1
 3067 0058 9A60     		str	r2, [r3, #8]
 3068              	.L164:
1560:Drivers/STM32F3xx_HAL_Driver/Src/stm32f3xx_hal_tim_ex.c ****   }
1561:Drivers/STM32F3xx_HAL_Driver/Src/stm32f3xx_hal_tim_ex.c ****   
1562:Drivers/STM32F3xx_HAL_Driver/Src/stm32f3xx_hal_tim_ex.c ****   /* Select the Capture Compare preload feature */
1563:Drivers/STM32F3xx_HAL_Driver/Src/stm32f3xx_hal_tim_ex.c ****   htim->Instance->CR2 |= TIM_CR2_CCPC;
 3069              		.loc 1 1563 0
 3070 005a FB68     		ldr	r3, [r7, #12]
 3071 005c 1B68     		ldr	r3, [r3]
 3072 005e FA68     		ldr	r2, [r7, #12]
 3073 0060 1268     		ldr	r2, [r2]
 3074 0062 5268     		ldr	r2, [r2, #4]
 3075 0064 42F00102 		orr	r2, r2, #1
 3076 0068 5A60     		str	r2, [r3, #4]
1564:Drivers/STM32F3xx_HAL_Driver/Src/stm32f3xx_hal_tim_ex.c ****   /* Select the Commutation event source */
1565:Drivers/STM32F3xx_HAL_Driver/Src/stm32f3xx_hal_tim_ex.c ****   htim->Instance->CR2 &= ~TIM_CR2_CCUS;
 3077              		.loc 1 1565 0
 3078 006a FB68     		ldr	r3, [r7, #12]
 3079 006c 1B68     		ldr	r3, [r3]
 3080 006e FA68     		ldr	r2, [r7, #12]
 3081 0070 1268     		ldr	r2, [r2]
 3082 0072 5268     		ldr	r2, [r2, #4]
 3083 0074 22F00402 		bic	r2, r2, #4
 3084 0078 5A60     		str	r2, [r3, #4]
1566:Drivers/STM32F3xx_HAL_Driver/Src/stm32f3xx_hal_tim_ex.c ****   htim->Instance->CR2 |= CommutationSource;
 3085              		.loc 1 1566 0
 3086 007a FB68     		ldr	r3, [r7, #12]
 3087 007c 1B68     		ldr	r3, [r3]
 3088 007e FA68     		ldr	r2, [r7, #12]
 3089 0080 1268     		ldr	r2, [r2]
 3090 0082 5168     		ldr	r1, [r2, #4]
 3091 0084 7A68     		ldr	r2, [r7, #4]
 3092 0086 0A43     		orrs	r2, r2, r1
 3093 0088 5A60     		str	r2, [r3, #4]
1567:Drivers/STM32F3xx_HAL_Driver/Src/stm32f3xx_hal_tim_ex.c ****     
1568:Drivers/STM32F3xx_HAL_Driver/Src/stm32f3xx_hal_tim_ex.c ****   /* Enable the Commutation Interrupt Request */
1569:Drivers/STM32F3xx_HAL_Driver/Src/stm32f3xx_hal_tim_ex.c ****   __HAL_TIM_ENABLE_IT(htim, TIM_IT_COM);
 3094              		.loc 1 1569 0
 3095 008a FB68     		ldr	r3, [r7, #12]
 3096 008c 1B68     		ldr	r3, [r3]
 3097 008e FA68     		ldr	r2, [r7, #12]
 3098 0090 1268     		ldr	r2, [r2]
 3099 0092 D268     		ldr	r2, [r2, #12]
 3100 0094 42F02002 		orr	r2, r2, #32
 3101 0098 DA60     		str	r2, [r3, #12]
1570:Drivers/STM32F3xx_HAL_Driver/Src/stm32f3xx_hal_tim_ex.c **** 
1571:Drivers/STM32F3xx_HAL_Driver/Src/stm32f3xx_hal_tim_ex.c ****   __HAL_UNLOCK(htim);
ARM GAS  /tmp/ccRzvoJq.s 			page 82


 3102              		.loc 1 1571 0
 3103 009a FB68     		ldr	r3, [r7, #12]
 3104 009c 0022     		movs	r2, #0
 3105 009e 83F83820 		strb	r2, [r3, #56]
1572:Drivers/STM32F3xx_HAL_Driver/Src/stm32f3xx_hal_tim_ex.c ****   
1573:Drivers/STM32F3xx_HAL_Driver/Src/stm32f3xx_hal_tim_ex.c ****   return HAL_OK;
 3106              		.loc 1 1573 0
 3107 00a2 0023     		movs	r3, #0
 3108              	.L162:
1574:Drivers/STM32F3xx_HAL_Driver/Src/stm32f3xx_hal_tim_ex.c **** }
 3109              		.loc 1 1574 0
 3110 00a4 1846     		mov	r0, r3
 3111 00a6 1437     		adds	r7, r7, #20
 3112 00a8 BD46     		mov	sp, r7
 3113              		@ sp needed
 3114 00aa 5DF8047B 		ldr	r7, [sp], #4
 3115 00ae 7047     		bx	lr
 3116              		.cfi_endproc
 3117              	.LFE152:
 3119              		.section	.text.HAL_TIMEx_ConfigCommutationEvent_DMA,"ax",%progbits
 3120              		.align	2
 3121              		.global	HAL_TIMEx_ConfigCommutationEvent_DMA
 3122              		.thumb
 3123              		.thumb_func
 3125              	HAL_TIMEx_ConfigCommutationEvent_DMA:
 3126              	.LFB153:
1575:Drivers/STM32F3xx_HAL_Driver/Src/stm32f3xx_hal_tim_ex.c **** 
1576:Drivers/STM32F3xx_HAL_Driver/Src/stm32f3xx_hal_tim_ex.c **** /**
1577:Drivers/STM32F3xx_HAL_Driver/Src/stm32f3xx_hal_tim_ex.c ****   * @brief  Configure the TIM commutation event sequence with DMA.
1578:Drivers/STM32F3xx_HAL_Driver/Src/stm32f3xx_hal_tim_ex.c ****   * @note this function is mandatory to use the commutation event in order to 
1579:Drivers/STM32F3xx_HAL_Driver/Src/stm32f3xx_hal_tim_ex.c ****   *        update the configuration at each commutation detection on the TRGI input of the Timer,
1580:Drivers/STM32F3xx_HAL_Driver/Src/stm32f3xx_hal_tim_ex.c ****   *        the typical use of this feature is with the use of another Timer(interface Timer) 
1581:Drivers/STM32F3xx_HAL_Driver/Src/stm32f3xx_hal_tim_ex.c ****   *        configured in Hall sensor interface, this interface Timer will generate the 
1582:Drivers/STM32F3xx_HAL_Driver/Src/stm32f3xx_hal_tim_ex.c ****   *        commutation at its TRGO output (connected to Timer used in this function) each time 
1583:Drivers/STM32F3xx_HAL_Driver/Src/stm32f3xx_hal_tim_ex.c ****   *        the TI1 of the Interface Timer detect a commutation at its input TI1.
1584:Drivers/STM32F3xx_HAL_Driver/Src/stm32f3xx_hal_tim_ex.c ****   * @note The user should configure the DMA in his own software, in This function only the COMDE bi
1585:Drivers/STM32F3xx_HAL_Driver/Src/stm32f3xx_hal_tim_ex.c ****   * @param  htim: TIM handle
1586:Drivers/STM32F3xx_HAL_Driver/Src/stm32f3xx_hal_tim_ex.c ****   * @param  InputTrigger: the Internal trigger corresponding to the Timer Interfacing with the Hall
1587:Drivers/STM32F3xx_HAL_Driver/Src/stm32f3xx_hal_tim_ex.c ****   *          This parameter can be one of the following values:
1588:Drivers/STM32F3xx_HAL_Driver/Src/stm32f3xx_hal_tim_ex.c ****   *            @arg TIM_TS_ITR0: Internal trigger 0 selected
1589:Drivers/STM32F3xx_HAL_Driver/Src/stm32f3xx_hal_tim_ex.c ****   *            @arg TIM_TS_ITR1: Internal trigger 1 selected
1590:Drivers/STM32F3xx_HAL_Driver/Src/stm32f3xx_hal_tim_ex.c ****   *            @arg TIM_TS_ITR2: Internal trigger 2 selected
1591:Drivers/STM32F3xx_HAL_Driver/Src/stm32f3xx_hal_tim_ex.c ****   *            @arg TIM_TS_ITR3: Internal trigger 3 selected
1592:Drivers/STM32F3xx_HAL_Driver/Src/stm32f3xx_hal_tim_ex.c ****   *            @arg TIM_TS_NONE: No trigger is needed 
1593:Drivers/STM32F3xx_HAL_Driver/Src/stm32f3xx_hal_tim_ex.c ****   * @param  CommutationSource: the Commutation Event source
1594:Drivers/STM32F3xx_HAL_Driver/Src/stm32f3xx_hal_tim_ex.c ****   *          This parameter can be one of the following values:
1595:Drivers/STM32F3xx_HAL_Driver/Src/stm32f3xx_hal_tim_ex.c ****   *            @arg TIM_COMMUTATION_TRGI: Commutation source is the TRGI of the Interface Timer
1596:Drivers/STM32F3xx_HAL_Driver/Src/stm32f3xx_hal_tim_ex.c ****   *            @arg TIM_COMMUTATION_SOFTWARE:  Commutation source is set by software using the COMG
1597:Drivers/STM32F3xx_HAL_Driver/Src/stm32f3xx_hal_tim_ex.c ****   * @retval HAL status
1598:Drivers/STM32F3xx_HAL_Driver/Src/stm32f3xx_hal_tim_ex.c ****   */
1599:Drivers/STM32F3xx_HAL_Driver/Src/stm32f3xx_hal_tim_ex.c **** HAL_StatusTypeDef HAL_TIMEx_ConfigCommutationEvent_DMA(TIM_HandleTypeDef *htim, uint32_t  InputTrig
1600:Drivers/STM32F3xx_HAL_Driver/Src/stm32f3xx_hal_tim_ex.c **** {
 3127              		.loc 1 1600 0
 3128              		.cfi_startproc
 3129              		@ args = 0, pretend = 0, frame = 16
 3130              		@ frame_needed = 1, uses_anonymous_args = 0
 3131              		@ link register save eliminated.
ARM GAS  /tmp/ccRzvoJq.s 			page 83


 3132 0000 80B4     		push	{r7}
 3133              	.LCFI84:
 3134              		.cfi_def_cfa_offset 4
 3135              		.cfi_offset 7, -4
 3136 0002 85B0     		sub	sp, sp, #20
 3137              	.LCFI85:
 3138              		.cfi_def_cfa_offset 24
 3139 0004 00AF     		add	r7, sp, #0
 3140              	.LCFI86:
 3141              		.cfi_def_cfa_register 7
 3142 0006 F860     		str	r0, [r7, #12]
 3143 0008 B960     		str	r1, [r7, #8]
 3144 000a 7A60     		str	r2, [r7, #4]
1601:Drivers/STM32F3xx_HAL_Driver/Src/stm32f3xx_hal_tim_ex.c ****   /* Check the parameters */
1602:Drivers/STM32F3xx_HAL_Driver/Src/stm32f3xx_hal_tim_ex.c ****   assert_param(IS_TIM_COMMUTATION_EVENT_INSTANCE(htim->Instance));
1603:Drivers/STM32F3xx_HAL_Driver/Src/stm32f3xx_hal_tim_ex.c ****   assert_param(IS_TIM_INTERNAL_TRIGGEREVENT_SELECTION(InputTrigger));
1604:Drivers/STM32F3xx_HAL_Driver/Src/stm32f3xx_hal_tim_ex.c ****   
1605:Drivers/STM32F3xx_HAL_Driver/Src/stm32f3xx_hal_tim_ex.c ****   __HAL_LOCK(htim);
 3145              		.loc 1 1605 0
 3146 000c FB68     		ldr	r3, [r7, #12]
 3147 000e 93F83830 		ldrb	r3, [r3, #56]	@ zero_extendqisi2
 3148 0012 012B     		cmp	r3, #1
 3149 0014 01D1     		bne	.L166
 3150              		.loc 1 1605 0 is_stmt 0 discriminator 1
 3151 0016 0223     		movs	r3, #2
 3152 0018 4CE0     		b	.L167
 3153              	.L166:
 3154              		.loc 1 1605 0 discriminator 2
 3155 001a FB68     		ldr	r3, [r7, #12]
 3156 001c 0122     		movs	r2, #1
 3157 001e 83F83820 		strb	r2, [r3, #56]
1606:Drivers/STM32F3xx_HAL_Driver/Src/stm32f3xx_hal_tim_ex.c ****   
1607:Drivers/STM32F3xx_HAL_Driver/Src/stm32f3xx_hal_tim_ex.c ****   if ((InputTrigger == TIM_TS_ITR0) || (InputTrigger == TIM_TS_ITR1) ||
 3158              		.loc 1 1607 0 is_stmt 1 discriminator 2
 3159 0022 BB68     		ldr	r3, [r7, #8]
 3160 0024 002B     		cmp	r3, #0
 3161 0026 08D0     		beq	.L168
 3162              		.loc 1 1607 0 is_stmt 0 discriminator 1
 3163 0028 BB68     		ldr	r3, [r7, #8]
 3164 002a 102B     		cmp	r3, #16
 3165 002c 05D0     		beq	.L168
 3166 002e BB68     		ldr	r3, [r7, #8]
 3167 0030 202B     		cmp	r3, #32
 3168 0032 02D0     		beq	.L168
1608:Drivers/STM32F3xx_HAL_Driver/Src/stm32f3xx_hal_tim_ex.c ****       (InputTrigger == TIM_TS_ITR2) || (InputTrigger == TIM_TS_ITR3))
 3169              		.loc 1 1608 0 is_stmt 1
 3170 0034 BB68     		ldr	r3, [r7, #8]
 3171 0036 302B     		cmp	r3, #48
 3172 0038 0FD1     		bne	.L169
 3173              	.L168:
1609:Drivers/STM32F3xx_HAL_Driver/Src/stm32f3xx_hal_tim_ex.c ****   {    
1610:Drivers/STM32F3xx_HAL_Driver/Src/stm32f3xx_hal_tim_ex.c ****     /* Select the Input trigger */
1611:Drivers/STM32F3xx_HAL_Driver/Src/stm32f3xx_hal_tim_ex.c ****     htim->Instance->SMCR &= ~TIM_SMCR_TS;
 3174              		.loc 1 1611 0
 3175 003a FB68     		ldr	r3, [r7, #12]
 3176 003c 1B68     		ldr	r3, [r3]
 3177 003e FA68     		ldr	r2, [r7, #12]
ARM GAS  /tmp/ccRzvoJq.s 			page 84


 3178 0040 1268     		ldr	r2, [r2]
 3179 0042 9268     		ldr	r2, [r2, #8]
 3180 0044 22F07002 		bic	r2, r2, #112
 3181 0048 9A60     		str	r2, [r3, #8]
1612:Drivers/STM32F3xx_HAL_Driver/Src/stm32f3xx_hal_tim_ex.c ****     htim->Instance->SMCR |= InputTrigger;
 3182              		.loc 1 1612 0
 3183 004a FB68     		ldr	r3, [r7, #12]
 3184 004c 1B68     		ldr	r3, [r3]
 3185 004e FA68     		ldr	r2, [r7, #12]
 3186 0050 1268     		ldr	r2, [r2]
 3187 0052 9168     		ldr	r1, [r2, #8]
 3188 0054 BA68     		ldr	r2, [r7, #8]
 3189 0056 0A43     		orrs	r2, r2, r1
 3190 0058 9A60     		str	r2, [r3, #8]
 3191              	.L169:
1613:Drivers/STM32F3xx_HAL_Driver/Src/stm32f3xx_hal_tim_ex.c ****   }
1614:Drivers/STM32F3xx_HAL_Driver/Src/stm32f3xx_hal_tim_ex.c ****   
1615:Drivers/STM32F3xx_HAL_Driver/Src/stm32f3xx_hal_tim_ex.c ****   /* Select the Capture Compare preload feature */
1616:Drivers/STM32F3xx_HAL_Driver/Src/stm32f3xx_hal_tim_ex.c ****   htim->Instance->CR2 |= TIM_CR2_CCPC;
 3192              		.loc 1 1616 0
 3193 005a FB68     		ldr	r3, [r7, #12]
 3194 005c 1B68     		ldr	r3, [r3]
 3195 005e FA68     		ldr	r2, [r7, #12]
 3196 0060 1268     		ldr	r2, [r2]
 3197 0062 5268     		ldr	r2, [r2, #4]
 3198 0064 42F00102 		orr	r2, r2, #1
 3199 0068 5A60     		str	r2, [r3, #4]
1617:Drivers/STM32F3xx_HAL_Driver/Src/stm32f3xx_hal_tim_ex.c ****   /* Select the Commutation event source */
1618:Drivers/STM32F3xx_HAL_Driver/Src/stm32f3xx_hal_tim_ex.c ****   htim->Instance->CR2 &= ~TIM_CR2_CCUS;
 3200              		.loc 1 1618 0
 3201 006a FB68     		ldr	r3, [r7, #12]
 3202 006c 1B68     		ldr	r3, [r3]
 3203 006e FA68     		ldr	r2, [r7, #12]
 3204 0070 1268     		ldr	r2, [r2]
 3205 0072 5268     		ldr	r2, [r2, #4]
 3206 0074 22F00402 		bic	r2, r2, #4
 3207 0078 5A60     		str	r2, [r3, #4]
1619:Drivers/STM32F3xx_HAL_Driver/Src/stm32f3xx_hal_tim_ex.c ****   htim->Instance->CR2 |= CommutationSource;
 3208              		.loc 1 1619 0
 3209 007a FB68     		ldr	r3, [r7, #12]
 3210 007c 1B68     		ldr	r3, [r3]
 3211 007e FA68     		ldr	r2, [r7, #12]
 3212 0080 1268     		ldr	r2, [r2]
 3213 0082 5168     		ldr	r1, [r2, #4]
 3214 0084 7A68     		ldr	r2, [r7, #4]
 3215 0086 0A43     		orrs	r2, r2, r1
 3216 0088 5A60     		str	r2, [r3, #4]
1620:Drivers/STM32F3xx_HAL_Driver/Src/stm32f3xx_hal_tim_ex.c ****   
1621:Drivers/STM32F3xx_HAL_Driver/Src/stm32f3xx_hal_tim_ex.c ****   /* Enable the Commutation DMA Request */
1622:Drivers/STM32F3xx_HAL_Driver/Src/stm32f3xx_hal_tim_ex.c ****   /* Set the DMA Commutation Callback */
1623:Drivers/STM32F3xx_HAL_Driver/Src/stm32f3xx_hal_tim_ex.c ****   htim->hdma[TIM_DMA_ID_COMMUTATION]->XferCpltCallback = TIMEx_DMACommutationCplt;     
 3217              		.loc 1 1623 0
 3218 008a FB68     		ldr	r3, [r7, #12]
 3219 008c 1B6B     		ldr	r3, [r3, #48]
 3220 008e 0C4A     		ldr	r2, .L170
 3221 0090 9A62     		str	r2, [r3, #40]
1624:Drivers/STM32F3xx_HAL_Driver/Src/stm32f3xx_hal_tim_ex.c ****   /* Set the DMA error callback */
ARM GAS  /tmp/ccRzvoJq.s 			page 85


1625:Drivers/STM32F3xx_HAL_Driver/Src/stm32f3xx_hal_tim_ex.c ****   htim->hdma[TIM_DMA_ID_COMMUTATION]->XferErrorCallback = TIM_DMAError;
 3222              		.loc 1 1625 0
 3223 0092 FB68     		ldr	r3, [r7, #12]
 3224 0094 1B6B     		ldr	r3, [r3, #48]
 3225 0096 0B4A     		ldr	r2, .L170+4
 3226 0098 1A63     		str	r2, [r3, #48]
1626:Drivers/STM32F3xx_HAL_Driver/Src/stm32f3xx_hal_tim_ex.c ****   
1627:Drivers/STM32F3xx_HAL_Driver/Src/stm32f3xx_hal_tim_ex.c ****   /* Enable the Commutation DMA Request */
1628:Drivers/STM32F3xx_HAL_Driver/Src/stm32f3xx_hal_tim_ex.c ****   __HAL_TIM_ENABLE_DMA(htim, TIM_DMA_COM);
 3227              		.loc 1 1628 0
 3228 009a FB68     		ldr	r3, [r7, #12]
 3229 009c 1B68     		ldr	r3, [r3]
 3230 009e FA68     		ldr	r2, [r7, #12]
 3231 00a0 1268     		ldr	r2, [r2]
 3232 00a2 D268     		ldr	r2, [r2, #12]
 3233 00a4 42F40052 		orr	r2, r2, #8192
 3234 00a8 DA60     		str	r2, [r3, #12]
1629:Drivers/STM32F3xx_HAL_Driver/Src/stm32f3xx_hal_tim_ex.c **** 
1630:Drivers/STM32F3xx_HAL_Driver/Src/stm32f3xx_hal_tim_ex.c ****   __HAL_UNLOCK(htim);
 3235              		.loc 1 1630 0
 3236 00aa FB68     		ldr	r3, [r7, #12]
 3237 00ac 0022     		movs	r2, #0
 3238 00ae 83F83820 		strb	r2, [r3, #56]
1631:Drivers/STM32F3xx_HAL_Driver/Src/stm32f3xx_hal_tim_ex.c ****   
1632:Drivers/STM32F3xx_HAL_Driver/Src/stm32f3xx_hal_tim_ex.c ****   return HAL_OK;
 3239              		.loc 1 1632 0
 3240 00b2 0023     		movs	r3, #0
 3241              	.L167:
1633:Drivers/STM32F3xx_HAL_Driver/Src/stm32f3xx_hal_tim_ex.c **** }
 3242              		.loc 1 1633 0
 3243 00b4 1846     		mov	r0, r3
 3244 00b6 1437     		adds	r7, r7, #20
 3245 00b8 BD46     		mov	sp, r7
 3246              		@ sp needed
 3247 00ba 5DF8047B 		ldr	r7, [sp], #4
 3248 00be 7047     		bx	lr
 3249              	.L171:
 3250              		.align	2
 3251              	.L170:
 3252 00c0 00000000 		.word	TIMEx_DMACommutationCplt
 3253 00c4 00000000 		.word	TIM_DMAError
 3254              		.cfi_endproc
 3255              	.LFE153:
 3257              		.section	.text.HAL_TIM_OC_ConfigChannel,"ax",%progbits
 3258              		.align	2
 3259              		.global	HAL_TIM_OC_ConfigChannel
 3260              		.thumb
 3261              		.thumb_func
 3263              	HAL_TIM_OC_ConfigChannel:
 3264              	.LFB154:
1634:Drivers/STM32F3xx_HAL_Driver/Src/stm32f3xx_hal_tim_ex.c **** 
1635:Drivers/STM32F3xx_HAL_Driver/Src/stm32f3xx_hal_tim_ex.c **** /**
1636:Drivers/STM32F3xx_HAL_Driver/Src/stm32f3xx_hal_tim_ex.c ****   * @brief  Initializes the TIM Output Compare Channels according to the specified
1637:Drivers/STM32F3xx_HAL_Driver/Src/stm32f3xx_hal_tim_ex.c ****   *         parameters in the TIM_OC_InitTypeDef.
1638:Drivers/STM32F3xx_HAL_Driver/Src/stm32f3xx_hal_tim_ex.c ****   * @param  htim: TIM Output Compare handle
1639:Drivers/STM32F3xx_HAL_Driver/Src/stm32f3xx_hal_tim_ex.c ****   * @param  sConfig: TIM Output Compare configuration structure
1640:Drivers/STM32F3xx_HAL_Driver/Src/stm32f3xx_hal_tim_ex.c ****   * @param  Channel: TIM Channels to configure
ARM GAS  /tmp/ccRzvoJq.s 			page 86


1641:Drivers/STM32F3xx_HAL_Driver/Src/stm32f3xx_hal_tim_ex.c ****   *          This parameter can be one of the following values:
1642:Drivers/STM32F3xx_HAL_Driver/Src/stm32f3xx_hal_tim_ex.c ****   *            @arg TIM_CHANNEL_1: TIM Channel 1 selected
1643:Drivers/STM32F3xx_HAL_Driver/Src/stm32f3xx_hal_tim_ex.c ****   *            @arg TIM_CHANNEL_2: TIM Channel 2 selected
1644:Drivers/STM32F3xx_HAL_Driver/Src/stm32f3xx_hal_tim_ex.c ****   *            @arg TIM_CHANNEL_3: TIM Channel 3 selected
1645:Drivers/STM32F3xx_HAL_Driver/Src/stm32f3xx_hal_tim_ex.c ****   *            @arg TIM_CHANNEL_4: TIM Channel 4 selected 
1646:Drivers/STM32F3xx_HAL_Driver/Src/stm32f3xx_hal_tim_ex.c ****   *            @arg TIM_CHANNEL_5: TIM Channel 5 selected 
1647:Drivers/STM32F3xx_HAL_Driver/Src/stm32f3xx_hal_tim_ex.c ****   *            @arg TIM_CHANNEL_6: TIM Channel 6 selected
1648:Drivers/STM32F3xx_HAL_Driver/Src/stm32f3xx_hal_tim_ex.c ****   * @note For STM32F302xC, STM32F302xE, STM32F303xC, STM32F303xE, STM32F358xx,
1649:Drivers/STM32F3xx_HAL_Driver/Src/stm32f3xx_hal_tim_ex.c ****   *       STM32F398xx and STM32F303x8 up to 6 OC channels can be configured
1650:Drivers/STM32F3xx_HAL_Driver/Src/stm32f3xx_hal_tim_ex.c ****   * @retval HAL status
1651:Drivers/STM32F3xx_HAL_Driver/Src/stm32f3xx_hal_tim_ex.c ****   */
1652:Drivers/STM32F3xx_HAL_Driver/Src/stm32f3xx_hal_tim_ex.c **** HAL_StatusTypeDef HAL_TIM_OC_ConfigChannel(TIM_HandleTypeDef *htim,
1653:Drivers/STM32F3xx_HAL_Driver/Src/stm32f3xx_hal_tim_ex.c ****                                            TIM_OC_InitTypeDef* sConfig,
1654:Drivers/STM32F3xx_HAL_Driver/Src/stm32f3xx_hal_tim_ex.c ****                                            uint32_t Channel)
1655:Drivers/STM32F3xx_HAL_Driver/Src/stm32f3xx_hal_tim_ex.c **** {  
 3265              		.loc 1 1655 0
 3266              		.cfi_startproc
 3267              		@ args = 0, pretend = 0, frame = 16
 3268              		@ frame_needed = 1, uses_anonymous_args = 0
 3269 0000 80B5     		push	{r7, lr}
 3270              	.LCFI87:
 3271              		.cfi_def_cfa_offset 8
 3272              		.cfi_offset 7, -8
 3273              		.cfi_offset 14, -4
 3274 0002 84B0     		sub	sp, sp, #16
 3275              	.LCFI88:
 3276              		.cfi_def_cfa_offset 24
 3277 0004 00AF     		add	r7, sp, #0
 3278              	.LCFI89:
 3279              		.cfi_def_cfa_register 7
 3280 0006 F860     		str	r0, [r7, #12]
 3281 0008 B960     		str	r1, [r7, #8]
 3282 000a 7A60     		str	r2, [r7, #4]
1656:Drivers/STM32F3xx_HAL_Driver/Src/stm32f3xx_hal_tim_ex.c ****   /* Check the parameters */
1657:Drivers/STM32F3xx_HAL_Driver/Src/stm32f3xx_hal_tim_ex.c ****   assert_param(IS_TIM_CHANNELS(Channel)); 
1658:Drivers/STM32F3xx_HAL_Driver/Src/stm32f3xx_hal_tim_ex.c ****   assert_param(IS_TIM_OC_MODE(sConfig->OCMode));
1659:Drivers/STM32F3xx_HAL_Driver/Src/stm32f3xx_hal_tim_ex.c ****   assert_param(IS_TIM_OC_POLARITY(sConfig->OCPolarity));
1660:Drivers/STM32F3xx_HAL_Driver/Src/stm32f3xx_hal_tim_ex.c ****   
1661:Drivers/STM32F3xx_HAL_Driver/Src/stm32f3xx_hal_tim_ex.c ****   /* Check input state */
1662:Drivers/STM32F3xx_HAL_Driver/Src/stm32f3xx_hal_tim_ex.c ****   __HAL_LOCK(htim); 
 3283              		.loc 1 1662 0
 3284 000c FB68     		ldr	r3, [r7, #12]
 3285 000e 93F83830 		ldrb	r3, [r3, #56]	@ zero_extendqisi2
 3286 0012 012B     		cmp	r3, #1
 3287 0014 01D1     		bne	.L173
 3288              		.loc 1 1662 0 is_stmt 0 discriminator 1
 3289 0016 0223     		movs	r3, #2
 3290 0018 6CE0     		b	.L174
 3291              	.L173:
 3292              		.loc 1 1662 0 discriminator 2
 3293 001a FB68     		ldr	r3, [r7, #12]
 3294 001c 0122     		movs	r2, #1
 3295 001e 83F83820 		strb	r2, [r3, #56]
1663:Drivers/STM32F3xx_HAL_Driver/Src/stm32f3xx_hal_tim_ex.c ****   
1664:Drivers/STM32F3xx_HAL_Driver/Src/stm32f3xx_hal_tim_ex.c ****   htim->State = HAL_TIM_STATE_BUSY;
 3296              		.loc 1 1664 0 is_stmt 1 discriminator 2
 3297 0022 FB68     		ldr	r3, [r7, #12]
ARM GAS  /tmp/ccRzvoJq.s 			page 87


 3298 0024 0222     		movs	r2, #2
 3299 0026 83F83920 		strb	r2, [r3, #57]
1665:Drivers/STM32F3xx_HAL_Driver/Src/stm32f3xx_hal_tim_ex.c ****   
1666:Drivers/STM32F3xx_HAL_Driver/Src/stm32f3xx_hal_tim_ex.c ****   switch (Channel)
 3300              		.loc 1 1666 0 discriminator 2
 3301 002a 7B68     		ldr	r3, [r7, #4]
 3302 002c 142B     		cmp	r3, #20
 3303 002e 57D8     		bhi	.L184
 3304 0030 01A2     		adr	r2, .L177
 3305 0032 52F823F0 		ldr	pc, [r2, r3, lsl #2]
 3306 0036 00BF     		.p2align 2
 3307              	.L177:
 3308 0038 8D000000 		.word	.L176+1
 3309 003c E1000000 		.word	.L184+1
 3310 0040 E1000000 		.word	.L184+1
 3311 0044 E1000000 		.word	.L184+1
 3312 0048 9B000000 		.word	.L178+1
 3313 004c E1000000 		.word	.L184+1
 3314 0050 E1000000 		.word	.L184+1
 3315 0054 E1000000 		.word	.L184+1
 3316 0058 A9000000 		.word	.L179+1
 3317 005c E1000000 		.word	.L184+1
 3318 0060 E1000000 		.word	.L184+1
 3319 0064 E1000000 		.word	.L184+1
 3320 0068 B7000000 		.word	.L180+1
 3321 006c E1000000 		.word	.L184+1
 3322 0070 E1000000 		.word	.L184+1
 3323 0074 E1000000 		.word	.L184+1
 3324 0078 C5000000 		.word	.L181+1
 3325 007c E1000000 		.word	.L184+1
 3326 0080 E1000000 		.word	.L184+1
 3327 0084 E1000000 		.word	.L184+1
 3328 0088 D3000000 		.word	.L182+1
 3329              		.p2align 1
 3330              	.L176:
1667:Drivers/STM32F3xx_HAL_Driver/Src/stm32f3xx_hal_tim_ex.c ****   {
1668:Drivers/STM32F3xx_HAL_Driver/Src/stm32f3xx_hal_tim_ex.c ****     case TIM_CHANNEL_1:
1669:Drivers/STM32F3xx_HAL_Driver/Src/stm32f3xx_hal_tim_ex.c ****     {
1670:Drivers/STM32F3xx_HAL_Driver/Src/stm32f3xx_hal_tim_ex.c ****       /* Check the parameters */
1671:Drivers/STM32F3xx_HAL_Driver/Src/stm32f3xx_hal_tim_ex.c ****       assert_param(IS_TIM_CC1_INSTANCE(htim->Instance)); 
1672:Drivers/STM32F3xx_HAL_Driver/Src/stm32f3xx_hal_tim_ex.c ****       
1673:Drivers/STM32F3xx_HAL_Driver/Src/stm32f3xx_hal_tim_ex.c ****      /* Configure the TIM Channel 1 in Output Compare */
1674:Drivers/STM32F3xx_HAL_Driver/Src/stm32f3xx_hal_tim_ex.c ****       TIM_OC1_SetConfig(htim->Instance, sConfig);
 3331              		.loc 1 1674 0
 3332 008c FB68     		ldr	r3, [r7, #12]
 3333 008e 1B68     		ldr	r3, [r3]
 3334 0090 1846     		mov	r0, r3
 3335 0092 B968     		ldr	r1, [r7, #8]
 3336 0094 FFF7FEFF 		bl	TIM_OC1_SetConfig
1675:Drivers/STM32F3xx_HAL_Driver/Src/stm32f3xx_hal_tim_ex.c ****     }
1676:Drivers/STM32F3xx_HAL_Driver/Src/stm32f3xx_hal_tim_ex.c ****     break;
 3337              		.loc 1 1676 0
 3338 0098 23E0     		b	.L183
 3339              	.L178:
1677:Drivers/STM32F3xx_HAL_Driver/Src/stm32f3xx_hal_tim_ex.c ****     
1678:Drivers/STM32F3xx_HAL_Driver/Src/stm32f3xx_hal_tim_ex.c ****     case TIM_CHANNEL_2:
1679:Drivers/STM32F3xx_HAL_Driver/Src/stm32f3xx_hal_tim_ex.c ****     {
ARM GAS  /tmp/ccRzvoJq.s 			page 88


1680:Drivers/STM32F3xx_HAL_Driver/Src/stm32f3xx_hal_tim_ex.c ****       /* Check the parameters */
1681:Drivers/STM32F3xx_HAL_Driver/Src/stm32f3xx_hal_tim_ex.c ****       assert_param(IS_TIM_CC2_INSTANCE(htim->Instance)); 
1682:Drivers/STM32F3xx_HAL_Driver/Src/stm32f3xx_hal_tim_ex.c ****       
1683:Drivers/STM32F3xx_HAL_Driver/Src/stm32f3xx_hal_tim_ex.c ****       /* Configure the TIM Channel 2 in Output Compare */
1684:Drivers/STM32F3xx_HAL_Driver/Src/stm32f3xx_hal_tim_ex.c ****       TIM_OC2_SetConfig(htim->Instance, sConfig);
 3340              		.loc 1 1684 0
 3341 009a FB68     		ldr	r3, [r7, #12]
 3342 009c 1B68     		ldr	r3, [r3]
 3343 009e 1846     		mov	r0, r3
 3344 00a0 B968     		ldr	r1, [r7, #8]
 3345 00a2 FFF7FEFF 		bl	TIM_OC2_SetConfig
1685:Drivers/STM32F3xx_HAL_Driver/Src/stm32f3xx_hal_tim_ex.c ****     }
1686:Drivers/STM32F3xx_HAL_Driver/Src/stm32f3xx_hal_tim_ex.c ****     break;
 3346              		.loc 1 1686 0
 3347 00a6 1CE0     		b	.L183
 3348              	.L179:
1687:Drivers/STM32F3xx_HAL_Driver/Src/stm32f3xx_hal_tim_ex.c ****     
1688:Drivers/STM32F3xx_HAL_Driver/Src/stm32f3xx_hal_tim_ex.c ****     case TIM_CHANNEL_3:
1689:Drivers/STM32F3xx_HAL_Driver/Src/stm32f3xx_hal_tim_ex.c ****     {
1690:Drivers/STM32F3xx_HAL_Driver/Src/stm32f3xx_hal_tim_ex.c ****       /* Check the parameters */
1691:Drivers/STM32F3xx_HAL_Driver/Src/stm32f3xx_hal_tim_ex.c ****       assert_param(IS_TIM_CC3_INSTANCE(htim->Instance)); 
1692:Drivers/STM32F3xx_HAL_Driver/Src/stm32f3xx_hal_tim_ex.c ****       
1693:Drivers/STM32F3xx_HAL_Driver/Src/stm32f3xx_hal_tim_ex.c ****       /* Configure the TIM Channel 3 in Output Compare */
1694:Drivers/STM32F3xx_HAL_Driver/Src/stm32f3xx_hal_tim_ex.c ****       TIM_OC3_SetConfig(htim->Instance, sConfig);
 3349              		.loc 1 1694 0
 3350 00a8 FB68     		ldr	r3, [r7, #12]
 3351 00aa 1B68     		ldr	r3, [r3]
 3352 00ac 1846     		mov	r0, r3
 3353 00ae B968     		ldr	r1, [r7, #8]
 3354 00b0 FFF7FEFF 		bl	TIM_OC3_SetConfig
1695:Drivers/STM32F3xx_HAL_Driver/Src/stm32f3xx_hal_tim_ex.c ****     }
1696:Drivers/STM32F3xx_HAL_Driver/Src/stm32f3xx_hal_tim_ex.c ****     break;
 3355              		.loc 1 1696 0
 3356 00b4 15E0     		b	.L183
 3357              	.L180:
1697:Drivers/STM32F3xx_HAL_Driver/Src/stm32f3xx_hal_tim_ex.c ****     
1698:Drivers/STM32F3xx_HAL_Driver/Src/stm32f3xx_hal_tim_ex.c ****     case TIM_CHANNEL_4:
1699:Drivers/STM32F3xx_HAL_Driver/Src/stm32f3xx_hal_tim_ex.c ****     {
1700:Drivers/STM32F3xx_HAL_Driver/Src/stm32f3xx_hal_tim_ex.c ****       /* Check the parameters */
1701:Drivers/STM32F3xx_HAL_Driver/Src/stm32f3xx_hal_tim_ex.c ****       assert_param(IS_TIM_CC4_INSTANCE(htim->Instance)); 
1702:Drivers/STM32F3xx_HAL_Driver/Src/stm32f3xx_hal_tim_ex.c ****       
1703:Drivers/STM32F3xx_HAL_Driver/Src/stm32f3xx_hal_tim_ex.c ****        /* Configure the TIM Channel 4 in Output Compare */
1704:Drivers/STM32F3xx_HAL_Driver/Src/stm32f3xx_hal_tim_ex.c ****        TIM_OC4_SetConfig(htim->Instance, sConfig);
 3358              		.loc 1 1704 0
 3359 00b6 FB68     		ldr	r3, [r7, #12]
 3360 00b8 1B68     		ldr	r3, [r3]
 3361 00ba 1846     		mov	r0, r3
 3362 00bc B968     		ldr	r1, [r7, #8]
 3363 00be FFF7FEFF 		bl	TIM_OC4_SetConfig
1705:Drivers/STM32F3xx_HAL_Driver/Src/stm32f3xx_hal_tim_ex.c ****     }
1706:Drivers/STM32F3xx_HAL_Driver/Src/stm32f3xx_hal_tim_ex.c ****     break;
 3364              		.loc 1 1706 0
 3365 00c2 0EE0     		b	.L183
 3366              	.L181:
1707:Drivers/STM32F3xx_HAL_Driver/Src/stm32f3xx_hal_tim_ex.c ****     
1708:Drivers/STM32F3xx_HAL_Driver/Src/stm32f3xx_hal_tim_ex.c ****     case TIM_CHANNEL_5:
1709:Drivers/STM32F3xx_HAL_Driver/Src/stm32f3xx_hal_tim_ex.c ****     {
ARM GAS  /tmp/ccRzvoJq.s 			page 89


1710:Drivers/STM32F3xx_HAL_Driver/Src/stm32f3xx_hal_tim_ex.c ****       /* Check the parameters */
1711:Drivers/STM32F3xx_HAL_Driver/Src/stm32f3xx_hal_tim_ex.c ****       assert_param(IS_TIM_CC5_INSTANCE(htim->Instance)); 
1712:Drivers/STM32F3xx_HAL_Driver/Src/stm32f3xx_hal_tim_ex.c ****       
1713:Drivers/STM32F3xx_HAL_Driver/Src/stm32f3xx_hal_tim_ex.c ****        /* Configure the TIM Channel 5 in Output Compare */
1714:Drivers/STM32F3xx_HAL_Driver/Src/stm32f3xx_hal_tim_ex.c ****        TIM_OC5_SetConfig(htim->Instance, sConfig);
 3367              		.loc 1 1714 0
 3368 00c4 FB68     		ldr	r3, [r7, #12]
 3369 00c6 1B68     		ldr	r3, [r3]
 3370 00c8 1846     		mov	r0, r3
 3371 00ca B968     		ldr	r1, [r7, #8]
 3372 00cc FFF7FEFF 		bl	TIM_OC5_SetConfig
1715:Drivers/STM32F3xx_HAL_Driver/Src/stm32f3xx_hal_tim_ex.c ****     }
1716:Drivers/STM32F3xx_HAL_Driver/Src/stm32f3xx_hal_tim_ex.c ****     break;
 3373              		.loc 1 1716 0
 3374 00d0 07E0     		b	.L183
 3375              	.L182:
1717:Drivers/STM32F3xx_HAL_Driver/Src/stm32f3xx_hal_tim_ex.c ****     
1718:Drivers/STM32F3xx_HAL_Driver/Src/stm32f3xx_hal_tim_ex.c ****     case TIM_CHANNEL_6:
1719:Drivers/STM32F3xx_HAL_Driver/Src/stm32f3xx_hal_tim_ex.c ****     {
1720:Drivers/STM32F3xx_HAL_Driver/Src/stm32f3xx_hal_tim_ex.c ****       /* Check the parameters */
1721:Drivers/STM32F3xx_HAL_Driver/Src/stm32f3xx_hal_tim_ex.c ****       assert_param(IS_TIM_CC6_INSTANCE(htim->Instance)); 
1722:Drivers/STM32F3xx_HAL_Driver/Src/stm32f3xx_hal_tim_ex.c ****       
1723:Drivers/STM32F3xx_HAL_Driver/Src/stm32f3xx_hal_tim_ex.c ****        /* Configure the TIM Channel 6 in Output Compare */
1724:Drivers/STM32F3xx_HAL_Driver/Src/stm32f3xx_hal_tim_ex.c ****        TIM_OC6_SetConfig(htim->Instance, sConfig);
 3376              		.loc 1 1724 0
 3377 00d2 FB68     		ldr	r3, [r7, #12]
 3378 00d4 1B68     		ldr	r3, [r3]
 3379 00d6 1846     		mov	r0, r3
 3380 00d8 B968     		ldr	r1, [r7, #8]
 3381 00da FFF7FEFF 		bl	TIM_OC6_SetConfig
1725:Drivers/STM32F3xx_HAL_Driver/Src/stm32f3xx_hal_tim_ex.c ****     }
1726:Drivers/STM32F3xx_HAL_Driver/Src/stm32f3xx_hal_tim_ex.c ****     break;
 3382              		.loc 1 1726 0
 3383 00de 00E0     		b	.L183
 3384              	.L184:
1727:Drivers/STM32F3xx_HAL_Driver/Src/stm32f3xx_hal_tim_ex.c ****         
1728:Drivers/STM32F3xx_HAL_Driver/Src/stm32f3xx_hal_tim_ex.c ****     default:
1729:Drivers/STM32F3xx_HAL_Driver/Src/stm32f3xx_hal_tim_ex.c ****     break;    
 3385              		.loc 1 1729 0
 3386 00e0 00BF     		nop
 3387              	.L183:
1730:Drivers/STM32F3xx_HAL_Driver/Src/stm32f3xx_hal_tim_ex.c ****   }
1731:Drivers/STM32F3xx_HAL_Driver/Src/stm32f3xx_hal_tim_ex.c ****   
1732:Drivers/STM32F3xx_HAL_Driver/Src/stm32f3xx_hal_tim_ex.c ****   htim->State = HAL_TIM_STATE_READY;
 3388              		.loc 1 1732 0
 3389 00e2 FB68     		ldr	r3, [r7, #12]
 3390 00e4 0122     		movs	r2, #1
 3391 00e6 83F83920 		strb	r2, [r3, #57]
1733:Drivers/STM32F3xx_HAL_Driver/Src/stm32f3xx_hal_tim_ex.c ****   
1734:Drivers/STM32F3xx_HAL_Driver/Src/stm32f3xx_hal_tim_ex.c ****   __HAL_UNLOCK(htim); 
 3392              		.loc 1 1734 0
 3393 00ea FB68     		ldr	r3, [r7, #12]
 3394 00ec 0022     		movs	r2, #0
 3395 00ee 83F83820 		strb	r2, [r3, #56]
1735:Drivers/STM32F3xx_HAL_Driver/Src/stm32f3xx_hal_tim_ex.c ****   
1736:Drivers/STM32F3xx_HAL_Driver/Src/stm32f3xx_hal_tim_ex.c ****   return HAL_OK;
 3396              		.loc 1 1736 0
ARM GAS  /tmp/ccRzvoJq.s 			page 90


 3397 00f2 0023     		movs	r3, #0
 3398              	.L174:
1737:Drivers/STM32F3xx_HAL_Driver/Src/stm32f3xx_hal_tim_ex.c **** }
 3399              		.loc 1 1737 0
 3400 00f4 1846     		mov	r0, r3
 3401 00f6 1037     		adds	r7, r7, #16
 3402 00f8 BD46     		mov	sp, r7
 3403              		@ sp needed
 3404 00fa 80BD     		pop	{r7, pc}
 3405              		.cfi_endproc
 3406              	.LFE154:
 3408              		.section	.text.HAL_TIM_PWM_ConfigChannel,"ax",%progbits
 3409              		.align	2
 3410              		.global	HAL_TIM_PWM_ConfigChannel
 3411              		.thumb
 3412              		.thumb_func
 3414              	HAL_TIM_PWM_ConfigChannel:
 3415              	.LFB155:
1738:Drivers/STM32F3xx_HAL_Driver/Src/stm32f3xx_hal_tim_ex.c **** 
1739:Drivers/STM32F3xx_HAL_Driver/Src/stm32f3xx_hal_tim_ex.c **** /**
1740:Drivers/STM32F3xx_HAL_Driver/Src/stm32f3xx_hal_tim_ex.c ****   * @brief  Initializes the TIM PWM  channels according to the specified
1741:Drivers/STM32F3xx_HAL_Driver/Src/stm32f3xx_hal_tim_ex.c ****   *         parameters in the TIM_OC_InitTypeDef.
1742:Drivers/STM32F3xx_HAL_Driver/Src/stm32f3xx_hal_tim_ex.c ****   * @param  htim: TIM PWM handle
1743:Drivers/STM32F3xx_HAL_Driver/Src/stm32f3xx_hal_tim_ex.c ****   * @param  sConfig: TIM PWM configuration structure
1744:Drivers/STM32F3xx_HAL_Driver/Src/stm32f3xx_hal_tim_ex.c ****   * @param  Channel: TIM Channels to be configured
1745:Drivers/STM32F3xx_HAL_Driver/Src/stm32f3xx_hal_tim_ex.c ****   *          This parameter can be one of the following values:
1746:Drivers/STM32F3xx_HAL_Driver/Src/stm32f3xx_hal_tim_ex.c ****   *            @arg TIM_CHANNEL_1: TIM Channel 1 selected
1747:Drivers/STM32F3xx_HAL_Driver/Src/stm32f3xx_hal_tim_ex.c ****   *            @arg TIM_CHANNEL_2: TIM Channel 2 selected
1748:Drivers/STM32F3xx_HAL_Driver/Src/stm32f3xx_hal_tim_ex.c ****   *            @arg TIM_CHANNEL_3: TIM Channel 3 selected
1749:Drivers/STM32F3xx_HAL_Driver/Src/stm32f3xx_hal_tim_ex.c ****   *            @arg TIM_CHANNEL_4: TIM Channel 4 selected
1750:Drivers/STM32F3xx_HAL_Driver/Src/stm32f3xx_hal_tim_ex.c ****   *            @arg TIM_CHANNEL_5: TIM Channel 5 selected 
1751:Drivers/STM32F3xx_HAL_Driver/Src/stm32f3xx_hal_tim_ex.c ****   *            @arg TIM_CHANNEL_6: TIM Channel 6 selected 
1752:Drivers/STM32F3xx_HAL_Driver/Src/stm32f3xx_hal_tim_ex.c ****   * @note For STM32F302xC, STM32F302xE, STM32F303xC, STM32F303xE, STM32F358xx,
1753:Drivers/STM32F3xx_HAL_Driver/Src/stm32f3xx_hal_tim_ex.c ****   *       STM32F398xx and STM32F303x8 up to 6 PWM channels can be configured
1754:Drivers/STM32F3xx_HAL_Driver/Src/stm32f3xx_hal_tim_ex.c ****   * @retval HAL status
1755:Drivers/STM32F3xx_HAL_Driver/Src/stm32f3xx_hal_tim_ex.c ****   */
1756:Drivers/STM32F3xx_HAL_Driver/Src/stm32f3xx_hal_tim_ex.c **** HAL_StatusTypeDef HAL_TIM_PWM_ConfigChannel(TIM_HandleTypeDef *htim, 
1757:Drivers/STM32F3xx_HAL_Driver/Src/stm32f3xx_hal_tim_ex.c ****                                             TIM_OC_InitTypeDef* sConfig, 
1758:Drivers/STM32F3xx_HAL_Driver/Src/stm32f3xx_hal_tim_ex.c ****                                             uint32_t Channel)
1759:Drivers/STM32F3xx_HAL_Driver/Src/stm32f3xx_hal_tim_ex.c **** {
 3416              		.loc 1 1759 0
 3417              		.cfi_startproc
 3418              		@ args = 0, pretend = 0, frame = 16
 3419              		@ frame_needed = 1, uses_anonymous_args = 0
 3420 0000 80B5     		push	{r7, lr}
 3421              	.LCFI90:
 3422              		.cfi_def_cfa_offset 8
 3423              		.cfi_offset 7, -8
 3424              		.cfi_offset 14, -4
 3425 0002 84B0     		sub	sp, sp, #16
 3426              	.LCFI91:
 3427              		.cfi_def_cfa_offset 24
 3428 0004 00AF     		add	r7, sp, #0
 3429              	.LCFI92:
 3430              		.cfi_def_cfa_register 7
 3431 0006 F860     		str	r0, [r7, #12]
 3432 0008 B960     		str	r1, [r7, #8]
ARM GAS  /tmp/ccRzvoJq.s 			page 91


 3433 000a 7A60     		str	r2, [r7, #4]
1760:Drivers/STM32F3xx_HAL_Driver/Src/stm32f3xx_hal_tim_ex.c ****   /* Check the parameters */
1761:Drivers/STM32F3xx_HAL_Driver/Src/stm32f3xx_hal_tim_ex.c ****   assert_param(IS_TIM_CHANNELS(Channel)); 
1762:Drivers/STM32F3xx_HAL_Driver/Src/stm32f3xx_hal_tim_ex.c ****   assert_param(IS_TIM_PWM_MODE(sConfig->OCMode));
1763:Drivers/STM32F3xx_HAL_Driver/Src/stm32f3xx_hal_tim_ex.c ****   assert_param(IS_TIM_OC_POLARITY(sConfig->OCPolarity));
1764:Drivers/STM32F3xx_HAL_Driver/Src/stm32f3xx_hal_tim_ex.c ****   assert_param(IS_TIM_FAST_STATE(sConfig->OCFastMode));
1765:Drivers/STM32F3xx_HAL_Driver/Src/stm32f3xx_hal_tim_ex.c ****   
1766:Drivers/STM32F3xx_HAL_Driver/Src/stm32f3xx_hal_tim_ex.c ****   /* Check input state */
1767:Drivers/STM32F3xx_HAL_Driver/Src/stm32f3xx_hal_tim_ex.c ****   __HAL_LOCK(htim);
 3434              		.loc 1 1767 0
 3435 000c FB68     		ldr	r3, [r7, #12]
 3436 000e 93F83830 		ldrb	r3, [r3, #56]	@ zero_extendqisi2
 3437 0012 012B     		cmp	r3, #1
 3438 0014 01D1     		bne	.L186
 3439              		.loc 1 1767 0 is_stmt 0 discriminator 1
 3440 0016 0223     		movs	r3, #2
 3441 0018 05E1     		b	.L187
 3442              	.L186:
 3443              		.loc 1 1767 0 discriminator 2
 3444 001a FB68     		ldr	r3, [r7, #12]
 3445 001c 0122     		movs	r2, #1
 3446 001e 83F83820 		strb	r2, [r3, #56]
1768:Drivers/STM32F3xx_HAL_Driver/Src/stm32f3xx_hal_tim_ex.c ****   
1769:Drivers/STM32F3xx_HAL_Driver/Src/stm32f3xx_hal_tim_ex.c ****   htim->State = HAL_TIM_STATE_BUSY;
 3447              		.loc 1 1769 0 is_stmt 1 discriminator 2
 3448 0022 FB68     		ldr	r3, [r7, #12]
 3449 0024 0222     		movs	r2, #2
 3450 0026 83F83920 		strb	r2, [r3, #57]
1770:Drivers/STM32F3xx_HAL_Driver/Src/stm32f3xx_hal_tim_ex.c ****     
1771:Drivers/STM32F3xx_HAL_Driver/Src/stm32f3xx_hal_tim_ex.c ****   switch (Channel)
 3451              		.loc 1 1771 0 discriminator 2
 3452 002a 7B68     		ldr	r3, [r7, #4]
 3453 002c 142B     		cmp	r3, #20
 3454 002e 00F2F080 		bhi	.L197
 3455 0032 01A2     		adr	r2, .L190
 3456 0034 52F823F0 		ldr	pc, [r2, r3, lsl #2]
 3457              		.p2align 2
 3458              	.L190:
 3459 0038 8D000000 		.word	.L189+1
 3460 003c 13020000 		.word	.L197+1
 3461 0040 13020000 		.word	.L197+1
 3462 0044 13020000 		.word	.L197+1
 3463 0048 CD000000 		.word	.L191+1
 3464 004c 13020000 		.word	.L197+1
 3465 0050 13020000 		.word	.L197+1
 3466 0054 13020000 		.word	.L197+1
 3467 0058 0F010000 		.word	.L192+1
 3468 005c 13020000 		.word	.L197+1
 3469 0060 13020000 		.word	.L197+1
 3470 0064 13020000 		.word	.L197+1
 3471 0068 4F010000 		.word	.L193+1
 3472 006c 13020000 		.word	.L197+1
 3473 0070 13020000 		.word	.L197+1
 3474 0074 13020000 		.word	.L197+1
 3475 0078 91010000 		.word	.L194+1
 3476 007c 13020000 		.word	.L197+1
 3477 0080 13020000 		.word	.L197+1
ARM GAS  /tmp/ccRzvoJq.s 			page 92


 3478 0084 13020000 		.word	.L197+1
 3479 0088 D1010000 		.word	.L195+1
 3480              		.p2align 1
 3481              	.L189:
1772:Drivers/STM32F3xx_HAL_Driver/Src/stm32f3xx_hal_tim_ex.c ****   {
1773:Drivers/STM32F3xx_HAL_Driver/Src/stm32f3xx_hal_tim_ex.c ****     case TIM_CHANNEL_1:
1774:Drivers/STM32F3xx_HAL_Driver/Src/stm32f3xx_hal_tim_ex.c ****     {
1775:Drivers/STM32F3xx_HAL_Driver/Src/stm32f3xx_hal_tim_ex.c ****       /* Check the parameters */
1776:Drivers/STM32F3xx_HAL_Driver/Src/stm32f3xx_hal_tim_ex.c ****       assert_param(IS_TIM_CC1_INSTANCE(htim->Instance)); 
1777:Drivers/STM32F3xx_HAL_Driver/Src/stm32f3xx_hal_tim_ex.c ****       
1778:Drivers/STM32F3xx_HAL_Driver/Src/stm32f3xx_hal_tim_ex.c ****       /* Configure the Channel 1 in PWM mode */
1779:Drivers/STM32F3xx_HAL_Driver/Src/stm32f3xx_hal_tim_ex.c ****       TIM_OC1_SetConfig(htim->Instance, sConfig);
 3482              		.loc 1 1779 0
 3483 008c FB68     		ldr	r3, [r7, #12]
 3484 008e 1B68     		ldr	r3, [r3]
 3485 0090 1846     		mov	r0, r3
 3486 0092 B968     		ldr	r1, [r7, #8]
 3487 0094 FFF7FEFF 		bl	TIM_OC1_SetConfig
1780:Drivers/STM32F3xx_HAL_Driver/Src/stm32f3xx_hal_tim_ex.c ****       
1781:Drivers/STM32F3xx_HAL_Driver/Src/stm32f3xx_hal_tim_ex.c ****       /* Set the Preload enable bit for channel1 */
1782:Drivers/STM32F3xx_HAL_Driver/Src/stm32f3xx_hal_tim_ex.c ****       htim->Instance->CCMR1 |= TIM_CCMR1_OC1PE;
 3488              		.loc 1 1782 0
 3489 0098 FB68     		ldr	r3, [r7, #12]
 3490 009a 1B68     		ldr	r3, [r3]
 3491 009c FA68     		ldr	r2, [r7, #12]
 3492 009e 1268     		ldr	r2, [r2]
 3493 00a0 9269     		ldr	r2, [r2, #24]
 3494 00a2 42F00802 		orr	r2, r2, #8
 3495 00a6 9A61     		str	r2, [r3, #24]
1783:Drivers/STM32F3xx_HAL_Driver/Src/stm32f3xx_hal_tim_ex.c ****       
1784:Drivers/STM32F3xx_HAL_Driver/Src/stm32f3xx_hal_tim_ex.c ****       /* Configure the Output Fast mode */
1785:Drivers/STM32F3xx_HAL_Driver/Src/stm32f3xx_hal_tim_ex.c ****       htim->Instance->CCMR1 &= ~TIM_CCMR1_OC1FE;
 3496              		.loc 1 1785 0
 3497 00a8 FB68     		ldr	r3, [r7, #12]
 3498 00aa 1B68     		ldr	r3, [r3]
 3499 00ac FA68     		ldr	r2, [r7, #12]
 3500 00ae 1268     		ldr	r2, [r2]
 3501 00b0 9269     		ldr	r2, [r2, #24]
 3502 00b2 22F00402 		bic	r2, r2, #4
 3503 00b6 9A61     		str	r2, [r3, #24]
1786:Drivers/STM32F3xx_HAL_Driver/Src/stm32f3xx_hal_tim_ex.c ****       htim->Instance->CCMR1 |= sConfig->OCFastMode;
 3504              		.loc 1 1786 0
 3505 00b8 FB68     		ldr	r3, [r7, #12]
 3506 00ba 1B68     		ldr	r3, [r3]
 3507 00bc FA68     		ldr	r2, [r7, #12]
 3508 00be 1268     		ldr	r2, [r2]
 3509 00c0 9169     		ldr	r1, [r2, #24]
 3510 00c2 BA68     		ldr	r2, [r7, #8]
 3511 00c4 1269     		ldr	r2, [r2, #16]
 3512 00c6 0A43     		orrs	r2, r2, r1
 3513 00c8 9A61     		str	r2, [r3, #24]
1787:Drivers/STM32F3xx_HAL_Driver/Src/stm32f3xx_hal_tim_ex.c ****     }
1788:Drivers/STM32F3xx_HAL_Driver/Src/stm32f3xx_hal_tim_ex.c ****     break;
 3514              		.loc 1 1788 0
 3515 00ca A3E0     		b	.L196
 3516              	.L191:
1789:Drivers/STM32F3xx_HAL_Driver/Src/stm32f3xx_hal_tim_ex.c ****     
ARM GAS  /tmp/ccRzvoJq.s 			page 93


1790:Drivers/STM32F3xx_HAL_Driver/Src/stm32f3xx_hal_tim_ex.c ****     case TIM_CHANNEL_2:
1791:Drivers/STM32F3xx_HAL_Driver/Src/stm32f3xx_hal_tim_ex.c ****     {
1792:Drivers/STM32F3xx_HAL_Driver/Src/stm32f3xx_hal_tim_ex.c ****       /* Check the parameters */
1793:Drivers/STM32F3xx_HAL_Driver/Src/stm32f3xx_hal_tim_ex.c ****       assert_param(IS_TIM_CC2_INSTANCE(htim->Instance)); 
1794:Drivers/STM32F3xx_HAL_Driver/Src/stm32f3xx_hal_tim_ex.c ****       
1795:Drivers/STM32F3xx_HAL_Driver/Src/stm32f3xx_hal_tim_ex.c ****       /* Configure the Channel 2 in PWM mode */
1796:Drivers/STM32F3xx_HAL_Driver/Src/stm32f3xx_hal_tim_ex.c ****       TIM_OC2_SetConfig(htim->Instance, sConfig);
 3517              		.loc 1 1796 0
 3518 00cc FB68     		ldr	r3, [r7, #12]
 3519 00ce 1B68     		ldr	r3, [r3]
 3520 00d0 1846     		mov	r0, r3
 3521 00d2 B968     		ldr	r1, [r7, #8]
 3522 00d4 FFF7FEFF 		bl	TIM_OC2_SetConfig
1797:Drivers/STM32F3xx_HAL_Driver/Src/stm32f3xx_hal_tim_ex.c ****       
1798:Drivers/STM32F3xx_HAL_Driver/Src/stm32f3xx_hal_tim_ex.c ****       /* Set the Preload enable bit for channel2 */
1799:Drivers/STM32F3xx_HAL_Driver/Src/stm32f3xx_hal_tim_ex.c ****       htim->Instance->CCMR1 |= TIM_CCMR1_OC2PE;
 3523              		.loc 1 1799 0
 3524 00d8 FB68     		ldr	r3, [r7, #12]
 3525 00da 1B68     		ldr	r3, [r3]
 3526 00dc FA68     		ldr	r2, [r7, #12]
 3527 00de 1268     		ldr	r2, [r2]
 3528 00e0 9269     		ldr	r2, [r2, #24]
 3529 00e2 42F40062 		orr	r2, r2, #2048
 3530 00e6 9A61     		str	r2, [r3, #24]
1800:Drivers/STM32F3xx_HAL_Driver/Src/stm32f3xx_hal_tim_ex.c ****       
1801:Drivers/STM32F3xx_HAL_Driver/Src/stm32f3xx_hal_tim_ex.c ****       /* Configure the Output Fast mode */
1802:Drivers/STM32F3xx_HAL_Driver/Src/stm32f3xx_hal_tim_ex.c ****       htim->Instance->CCMR1 &= ~TIM_CCMR1_OC2FE;
 3531              		.loc 1 1802 0
 3532 00e8 FB68     		ldr	r3, [r7, #12]
 3533 00ea 1B68     		ldr	r3, [r3]
 3534 00ec FA68     		ldr	r2, [r7, #12]
 3535 00ee 1268     		ldr	r2, [r2]
 3536 00f0 9269     		ldr	r2, [r2, #24]
 3537 00f2 22F48062 		bic	r2, r2, #1024
 3538 00f6 9A61     		str	r2, [r3, #24]
1803:Drivers/STM32F3xx_HAL_Driver/Src/stm32f3xx_hal_tim_ex.c ****       htim->Instance->CCMR1 |= sConfig->OCFastMode << 8;
 3539              		.loc 1 1803 0
 3540 00f8 FB68     		ldr	r3, [r7, #12]
 3541 00fa 1B68     		ldr	r3, [r3]
 3542 00fc FA68     		ldr	r2, [r7, #12]
 3543 00fe 1268     		ldr	r2, [r2]
 3544 0100 9169     		ldr	r1, [r2, #24]
 3545 0102 BA68     		ldr	r2, [r7, #8]
 3546 0104 1269     		ldr	r2, [r2, #16]
 3547 0106 1202     		lsls	r2, r2, #8
 3548 0108 0A43     		orrs	r2, r2, r1
 3549 010a 9A61     		str	r2, [r3, #24]
1804:Drivers/STM32F3xx_HAL_Driver/Src/stm32f3xx_hal_tim_ex.c ****     }
1805:Drivers/STM32F3xx_HAL_Driver/Src/stm32f3xx_hal_tim_ex.c ****     break;
 3550              		.loc 1 1805 0
 3551 010c 82E0     		b	.L196
 3552              	.L192:
1806:Drivers/STM32F3xx_HAL_Driver/Src/stm32f3xx_hal_tim_ex.c ****     
1807:Drivers/STM32F3xx_HAL_Driver/Src/stm32f3xx_hal_tim_ex.c ****     case TIM_CHANNEL_3:
1808:Drivers/STM32F3xx_HAL_Driver/Src/stm32f3xx_hal_tim_ex.c ****     {
1809:Drivers/STM32F3xx_HAL_Driver/Src/stm32f3xx_hal_tim_ex.c ****       /* Check the parameters */
1810:Drivers/STM32F3xx_HAL_Driver/Src/stm32f3xx_hal_tim_ex.c ****       assert_param(IS_TIM_CC3_INSTANCE(htim->Instance)); 
ARM GAS  /tmp/ccRzvoJq.s 			page 94


1811:Drivers/STM32F3xx_HAL_Driver/Src/stm32f3xx_hal_tim_ex.c ****       
1812:Drivers/STM32F3xx_HAL_Driver/Src/stm32f3xx_hal_tim_ex.c ****       /* Configure the Channel 3 in PWM mode */
1813:Drivers/STM32F3xx_HAL_Driver/Src/stm32f3xx_hal_tim_ex.c ****       TIM_OC3_SetConfig(htim->Instance, sConfig);
 3553              		.loc 1 1813 0
 3554 010e FB68     		ldr	r3, [r7, #12]
 3555 0110 1B68     		ldr	r3, [r3]
 3556 0112 1846     		mov	r0, r3
 3557 0114 B968     		ldr	r1, [r7, #8]
 3558 0116 FFF7FEFF 		bl	TIM_OC3_SetConfig
1814:Drivers/STM32F3xx_HAL_Driver/Src/stm32f3xx_hal_tim_ex.c ****       
1815:Drivers/STM32F3xx_HAL_Driver/Src/stm32f3xx_hal_tim_ex.c ****       /* Set the Preload enable bit for channel3 */
1816:Drivers/STM32F3xx_HAL_Driver/Src/stm32f3xx_hal_tim_ex.c ****       htim->Instance->CCMR2 |= TIM_CCMR2_OC3PE;
 3559              		.loc 1 1816 0
 3560 011a FB68     		ldr	r3, [r7, #12]
 3561 011c 1B68     		ldr	r3, [r3]
 3562 011e FA68     		ldr	r2, [r7, #12]
 3563 0120 1268     		ldr	r2, [r2]
 3564 0122 D269     		ldr	r2, [r2, #28]
 3565 0124 42F00802 		orr	r2, r2, #8
 3566 0128 DA61     		str	r2, [r3, #28]
1817:Drivers/STM32F3xx_HAL_Driver/Src/stm32f3xx_hal_tim_ex.c ****       
1818:Drivers/STM32F3xx_HAL_Driver/Src/stm32f3xx_hal_tim_ex.c ****      /* Configure the Output Fast mode */
1819:Drivers/STM32F3xx_HAL_Driver/Src/stm32f3xx_hal_tim_ex.c ****       htim->Instance->CCMR2 &= ~TIM_CCMR2_OC3FE;
 3567              		.loc 1 1819 0
 3568 012a FB68     		ldr	r3, [r7, #12]
 3569 012c 1B68     		ldr	r3, [r3]
 3570 012e FA68     		ldr	r2, [r7, #12]
 3571 0130 1268     		ldr	r2, [r2]
 3572 0132 D269     		ldr	r2, [r2, #28]
 3573 0134 22F00402 		bic	r2, r2, #4
 3574 0138 DA61     		str	r2, [r3, #28]
1820:Drivers/STM32F3xx_HAL_Driver/Src/stm32f3xx_hal_tim_ex.c ****       htim->Instance->CCMR2 |= sConfig->OCFastMode;  
 3575              		.loc 1 1820 0
 3576 013a FB68     		ldr	r3, [r7, #12]
 3577 013c 1B68     		ldr	r3, [r3]
 3578 013e FA68     		ldr	r2, [r7, #12]
 3579 0140 1268     		ldr	r2, [r2]
 3580 0142 D169     		ldr	r1, [r2, #28]
 3581 0144 BA68     		ldr	r2, [r7, #8]
 3582 0146 1269     		ldr	r2, [r2, #16]
 3583 0148 0A43     		orrs	r2, r2, r1
 3584 014a DA61     		str	r2, [r3, #28]
1821:Drivers/STM32F3xx_HAL_Driver/Src/stm32f3xx_hal_tim_ex.c ****     }
1822:Drivers/STM32F3xx_HAL_Driver/Src/stm32f3xx_hal_tim_ex.c ****     break;
 3585              		.loc 1 1822 0
 3586 014c 62E0     		b	.L196
 3587              	.L193:
1823:Drivers/STM32F3xx_HAL_Driver/Src/stm32f3xx_hal_tim_ex.c ****     
1824:Drivers/STM32F3xx_HAL_Driver/Src/stm32f3xx_hal_tim_ex.c ****     case TIM_CHANNEL_4:
1825:Drivers/STM32F3xx_HAL_Driver/Src/stm32f3xx_hal_tim_ex.c ****     {
1826:Drivers/STM32F3xx_HAL_Driver/Src/stm32f3xx_hal_tim_ex.c ****       /* Check the parameters */
1827:Drivers/STM32F3xx_HAL_Driver/Src/stm32f3xx_hal_tim_ex.c ****       assert_param(IS_TIM_CC4_INSTANCE(htim->Instance)); 
1828:Drivers/STM32F3xx_HAL_Driver/Src/stm32f3xx_hal_tim_ex.c ****       
1829:Drivers/STM32F3xx_HAL_Driver/Src/stm32f3xx_hal_tim_ex.c ****       /* Configure the Channel 4 in PWM mode */
1830:Drivers/STM32F3xx_HAL_Driver/Src/stm32f3xx_hal_tim_ex.c ****       TIM_OC4_SetConfig(htim->Instance, sConfig);
 3588              		.loc 1 1830 0
 3589 014e FB68     		ldr	r3, [r7, #12]
ARM GAS  /tmp/ccRzvoJq.s 			page 95


 3590 0150 1B68     		ldr	r3, [r3]
 3591 0152 1846     		mov	r0, r3
 3592 0154 B968     		ldr	r1, [r7, #8]
 3593 0156 FFF7FEFF 		bl	TIM_OC4_SetConfig
1831:Drivers/STM32F3xx_HAL_Driver/Src/stm32f3xx_hal_tim_ex.c ****       
1832:Drivers/STM32F3xx_HAL_Driver/Src/stm32f3xx_hal_tim_ex.c ****       /* Set the Preload enable bit for channel4 */
1833:Drivers/STM32F3xx_HAL_Driver/Src/stm32f3xx_hal_tim_ex.c ****       htim->Instance->CCMR2 |= TIM_CCMR2_OC4PE;
 3594              		.loc 1 1833 0
 3595 015a FB68     		ldr	r3, [r7, #12]
 3596 015c 1B68     		ldr	r3, [r3]
 3597 015e FA68     		ldr	r2, [r7, #12]
 3598 0160 1268     		ldr	r2, [r2]
 3599 0162 D269     		ldr	r2, [r2, #28]
 3600 0164 42F40062 		orr	r2, r2, #2048
 3601 0168 DA61     		str	r2, [r3, #28]
1834:Drivers/STM32F3xx_HAL_Driver/Src/stm32f3xx_hal_tim_ex.c ****       
1835:Drivers/STM32F3xx_HAL_Driver/Src/stm32f3xx_hal_tim_ex.c ****      /* Configure the Output Fast mode */
1836:Drivers/STM32F3xx_HAL_Driver/Src/stm32f3xx_hal_tim_ex.c ****       htim->Instance->CCMR2 &= ~TIM_CCMR2_OC4FE;
 3602              		.loc 1 1836 0
 3603 016a FB68     		ldr	r3, [r7, #12]
 3604 016c 1B68     		ldr	r3, [r3]
 3605 016e FA68     		ldr	r2, [r7, #12]
 3606 0170 1268     		ldr	r2, [r2]
 3607 0172 D269     		ldr	r2, [r2, #28]
 3608 0174 22F48062 		bic	r2, r2, #1024
 3609 0178 DA61     		str	r2, [r3, #28]
1837:Drivers/STM32F3xx_HAL_Driver/Src/stm32f3xx_hal_tim_ex.c ****       htim->Instance->CCMR2 |= sConfig->OCFastMode << 8;  
 3610              		.loc 1 1837 0
 3611 017a FB68     		ldr	r3, [r7, #12]
 3612 017c 1B68     		ldr	r3, [r3]
 3613 017e FA68     		ldr	r2, [r7, #12]
 3614 0180 1268     		ldr	r2, [r2]
 3615 0182 D169     		ldr	r1, [r2, #28]
 3616 0184 BA68     		ldr	r2, [r7, #8]
 3617 0186 1269     		ldr	r2, [r2, #16]
 3618 0188 1202     		lsls	r2, r2, #8
 3619 018a 0A43     		orrs	r2, r2, r1
 3620 018c DA61     		str	r2, [r3, #28]
1838:Drivers/STM32F3xx_HAL_Driver/Src/stm32f3xx_hal_tim_ex.c ****     }
1839:Drivers/STM32F3xx_HAL_Driver/Src/stm32f3xx_hal_tim_ex.c ****     break;
 3621              		.loc 1 1839 0
 3622 018e 41E0     		b	.L196
 3623              	.L194:
1840:Drivers/STM32F3xx_HAL_Driver/Src/stm32f3xx_hal_tim_ex.c ****     
1841:Drivers/STM32F3xx_HAL_Driver/Src/stm32f3xx_hal_tim_ex.c ****     case TIM_CHANNEL_5:
1842:Drivers/STM32F3xx_HAL_Driver/Src/stm32f3xx_hal_tim_ex.c ****     {
1843:Drivers/STM32F3xx_HAL_Driver/Src/stm32f3xx_hal_tim_ex.c ****        /* Check the parameters */
1844:Drivers/STM32F3xx_HAL_Driver/Src/stm32f3xx_hal_tim_ex.c ****       assert_param(IS_TIM_CC5_INSTANCE(htim->Instance)); 
1845:Drivers/STM32F3xx_HAL_Driver/Src/stm32f3xx_hal_tim_ex.c ****       
1846:Drivers/STM32F3xx_HAL_Driver/Src/stm32f3xx_hal_tim_ex.c ****      /* Configure the Channel 5 in PWM mode */
1847:Drivers/STM32F3xx_HAL_Driver/Src/stm32f3xx_hal_tim_ex.c ****       TIM_OC5_SetConfig(htim->Instance, sConfig);
 3624              		.loc 1 1847 0
 3625 0190 FB68     		ldr	r3, [r7, #12]
 3626 0192 1B68     		ldr	r3, [r3]
 3627 0194 1846     		mov	r0, r3
 3628 0196 B968     		ldr	r1, [r7, #8]
 3629 0198 FFF7FEFF 		bl	TIM_OC5_SetConfig
ARM GAS  /tmp/ccRzvoJq.s 			page 96


1848:Drivers/STM32F3xx_HAL_Driver/Src/stm32f3xx_hal_tim_ex.c ****       
1849:Drivers/STM32F3xx_HAL_Driver/Src/stm32f3xx_hal_tim_ex.c ****       /* Set the Preload enable bit for channel5*/
1850:Drivers/STM32F3xx_HAL_Driver/Src/stm32f3xx_hal_tim_ex.c ****       htim->Instance->CCMR3 |= TIM_CCMR3_OC5PE;
 3630              		.loc 1 1850 0
 3631 019c FB68     		ldr	r3, [r7, #12]
 3632 019e 1B68     		ldr	r3, [r3]
 3633 01a0 FA68     		ldr	r2, [r7, #12]
 3634 01a2 1268     		ldr	r2, [r2]
 3635 01a4 526D     		ldr	r2, [r2, #84]
 3636 01a6 42F00802 		orr	r2, r2, #8
 3637 01aa 5A65     		str	r2, [r3, #84]
1851:Drivers/STM32F3xx_HAL_Driver/Src/stm32f3xx_hal_tim_ex.c ****       
1852:Drivers/STM32F3xx_HAL_Driver/Src/stm32f3xx_hal_tim_ex.c ****      /* Configure the Output Fast mode */
1853:Drivers/STM32F3xx_HAL_Driver/Src/stm32f3xx_hal_tim_ex.c ****       htim->Instance->CCMR3 &= ~TIM_CCMR3_OC5FE;
 3638              		.loc 1 1853 0
 3639 01ac FB68     		ldr	r3, [r7, #12]
 3640 01ae 1B68     		ldr	r3, [r3]
 3641 01b0 FA68     		ldr	r2, [r7, #12]
 3642 01b2 1268     		ldr	r2, [r2]
 3643 01b4 526D     		ldr	r2, [r2, #84]
 3644 01b6 22F00402 		bic	r2, r2, #4
 3645 01ba 5A65     		str	r2, [r3, #84]
1854:Drivers/STM32F3xx_HAL_Driver/Src/stm32f3xx_hal_tim_ex.c ****       htim->Instance->CCMR3 |= sConfig->OCFastMode;  
 3646              		.loc 1 1854 0
 3647 01bc FB68     		ldr	r3, [r7, #12]
 3648 01be 1B68     		ldr	r3, [r3]
 3649 01c0 FA68     		ldr	r2, [r7, #12]
 3650 01c2 1268     		ldr	r2, [r2]
 3651 01c4 516D     		ldr	r1, [r2, #84]
 3652 01c6 BA68     		ldr	r2, [r7, #8]
 3653 01c8 1269     		ldr	r2, [r2, #16]
 3654 01ca 0A43     		orrs	r2, r2, r1
 3655 01cc 5A65     		str	r2, [r3, #84]
1855:Drivers/STM32F3xx_HAL_Driver/Src/stm32f3xx_hal_tim_ex.c ****     }
1856:Drivers/STM32F3xx_HAL_Driver/Src/stm32f3xx_hal_tim_ex.c ****     break;
 3656              		.loc 1 1856 0
 3657 01ce 21E0     		b	.L196
 3658              	.L195:
1857:Drivers/STM32F3xx_HAL_Driver/Src/stm32f3xx_hal_tim_ex.c ****     
1858:Drivers/STM32F3xx_HAL_Driver/Src/stm32f3xx_hal_tim_ex.c ****     case TIM_CHANNEL_6:
1859:Drivers/STM32F3xx_HAL_Driver/Src/stm32f3xx_hal_tim_ex.c ****     {
1860:Drivers/STM32F3xx_HAL_Driver/Src/stm32f3xx_hal_tim_ex.c ****        /* Check the parameters */
1861:Drivers/STM32F3xx_HAL_Driver/Src/stm32f3xx_hal_tim_ex.c ****       assert_param(IS_TIM_CC6_INSTANCE(htim->Instance)); 
1862:Drivers/STM32F3xx_HAL_Driver/Src/stm32f3xx_hal_tim_ex.c ****       
1863:Drivers/STM32F3xx_HAL_Driver/Src/stm32f3xx_hal_tim_ex.c ****      /* Configure the Channel 5 in PWM mode */
1864:Drivers/STM32F3xx_HAL_Driver/Src/stm32f3xx_hal_tim_ex.c ****       TIM_OC6_SetConfig(htim->Instance, sConfig);
 3659              		.loc 1 1864 0
 3660 01d0 FB68     		ldr	r3, [r7, #12]
 3661 01d2 1B68     		ldr	r3, [r3]
 3662 01d4 1846     		mov	r0, r3
 3663 01d6 B968     		ldr	r1, [r7, #8]
 3664 01d8 FFF7FEFF 		bl	TIM_OC6_SetConfig
1865:Drivers/STM32F3xx_HAL_Driver/Src/stm32f3xx_hal_tim_ex.c ****       
1866:Drivers/STM32F3xx_HAL_Driver/Src/stm32f3xx_hal_tim_ex.c ****       /* Set the Preload enable bit for channel6 */
1867:Drivers/STM32F3xx_HAL_Driver/Src/stm32f3xx_hal_tim_ex.c ****       htim->Instance->CCMR3 |= TIM_CCMR3_OC6PE;
 3665              		.loc 1 1867 0
 3666 01dc FB68     		ldr	r3, [r7, #12]
ARM GAS  /tmp/ccRzvoJq.s 			page 97


 3667 01de 1B68     		ldr	r3, [r3]
 3668 01e0 FA68     		ldr	r2, [r7, #12]
 3669 01e2 1268     		ldr	r2, [r2]
 3670 01e4 526D     		ldr	r2, [r2, #84]
 3671 01e6 42F40062 		orr	r2, r2, #2048
 3672 01ea 5A65     		str	r2, [r3, #84]
1868:Drivers/STM32F3xx_HAL_Driver/Src/stm32f3xx_hal_tim_ex.c ****       
1869:Drivers/STM32F3xx_HAL_Driver/Src/stm32f3xx_hal_tim_ex.c ****      /* Configure the Output Fast mode */
1870:Drivers/STM32F3xx_HAL_Driver/Src/stm32f3xx_hal_tim_ex.c ****       htim->Instance->CCMR3 &= ~TIM_CCMR3_OC6FE;
 3673              		.loc 1 1870 0
 3674 01ec FB68     		ldr	r3, [r7, #12]
 3675 01ee 1B68     		ldr	r3, [r3]
 3676 01f0 FA68     		ldr	r2, [r7, #12]
 3677 01f2 1268     		ldr	r2, [r2]
 3678 01f4 526D     		ldr	r2, [r2, #84]
 3679 01f6 22F48062 		bic	r2, r2, #1024
 3680 01fa 5A65     		str	r2, [r3, #84]
1871:Drivers/STM32F3xx_HAL_Driver/Src/stm32f3xx_hal_tim_ex.c ****       htim->Instance->CCMR3 |= sConfig->OCFastMode << 8;  
 3681              		.loc 1 1871 0
 3682 01fc FB68     		ldr	r3, [r7, #12]
 3683 01fe 1B68     		ldr	r3, [r3]
 3684 0200 FA68     		ldr	r2, [r7, #12]
 3685 0202 1268     		ldr	r2, [r2]
 3686 0204 516D     		ldr	r1, [r2, #84]
 3687 0206 BA68     		ldr	r2, [r7, #8]
 3688 0208 1269     		ldr	r2, [r2, #16]
 3689 020a 1202     		lsls	r2, r2, #8
 3690 020c 0A43     		orrs	r2, r2, r1
 3691 020e 5A65     		str	r2, [r3, #84]
1872:Drivers/STM32F3xx_HAL_Driver/Src/stm32f3xx_hal_tim_ex.c ****     }
1873:Drivers/STM32F3xx_HAL_Driver/Src/stm32f3xx_hal_tim_ex.c ****     break;
 3692              		.loc 1 1873 0
 3693 0210 00E0     		b	.L196
 3694              	.L197:
1874:Drivers/STM32F3xx_HAL_Driver/Src/stm32f3xx_hal_tim_ex.c ****     
1875:Drivers/STM32F3xx_HAL_Driver/Src/stm32f3xx_hal_tim_ex.c ****     default:
1876:Drivers/STM32F3xx_HAL_Driver/Src/stm32f3xx_hal_tim_ex.c ****     break;    
 3695              		.loc 1 1876 0
 3696 0212 00BF     		nop
 3697              	.L196:
1877:Drivers/STM32F3xx_HAL_Driver/Src/stm32f3xx_hal_tim_ex.c ****   }
1878:Drivers/STM32F3xx_HAL_Driver/Src/stm32f3xx_hal_tim_ex.c ****   
1879:Drivers/STM32F3xx_HAL_Driver/Src/stm32f3xx_hal_tim_ex.c ****   htim->State = HAL_TIM_STATE_READY;
 3698              		.loc 1 1879 0
 3699 0214 FB68     		ldr	r3, [r7, #12]
 3700 0216 0122     		movs	r2, #1
 3701 0218 83F83920 		strb	r2, [r3, #57]
1880:Drivers/STM32F3xx_HAL_Driver/Src/stm32f3xx_hal_tim_ex.c ****     
1881:Drivers/STM32F3xx_HAL_Driver/Src/stm32f3xx_hal_tim_ex.c ****   __HAL_UNLOCK(htim);
 3702              		.loc 1 1881 0
 3703 021c FB68     		ldr	r3, [r7, #12]
 3704 021e 0022     		movs	r2, #0
 3705 0220 83F83820 		strb	r2, [r3, #56]
1882:Drivers/STM32F3xx_HAL_Driver/Src/stm32f3xx_hal_tim_ex.c ****   
1883:Drivers/STM32F3xx_HAL_Driver/Src/stm32f3xx_hal_tim_ex.c ****   return HAL_OK;
 3706              		.loc 1 1883 0
 3707 0224 0023     		movs	r3, #0
ARM GAS  /tmp/ccRzvoJq.s 			page 98


 3708              	.L187:
1884:Drivers/STM32F3xx_HAL_Driver/Src/stm32f3xx_hal_tim_ex.c **** }
 3709              		.loc 1 1884 0
 3710 0226 1846     		mov	r0, r3
 3711 0228 1037     		adds	r7, r7, #16
 3712 022a BD46     		mov	sp, r7
 3713              		@ sp needed
 3714 022c 80BD     		pop	{r7, pc}
 3715              		.cfi_endproc
 3716              	.LFE155:
 3718 022e 00BF     		.section	.text.HAL_TIM_ConfigOCrefClear,"ax",%progbits
 3719              		.align	2
 3720              		.global	HAL_TIM_ConfigOCrefClear
 3721              		.thumb
 3722              		.thumb_func
 3724              	HAL_TIM_ConfigOCrefClear:
 3725              	.LFB156:
1885:Drivers/STM32F3xx_HAL_Driver/Src/stm32f3xx_hal_tim_ex.c **** 
1886:Drivers/STM32F3xx_HAL_Driver/Src/stm32f3xx_hal_tim_ex.c **** /**
1887:Drivers/STM32F3xx_HAL_Driver/Src/stm32f3xx_hal_tim_ex.c ****   * @brief  Configures the OCRef clear feature
1888:Drivers/STM32F3xx_HAL_Driver/Src/stm32f3xx_hal_tim_ex.c ****   * @param  htim: TIM handle
1889:Drivers/STM32F3xx_HAL_Driver/Src/stm32f3xx_hal_tim_ex.c ****   * @param  sClearInputConfig: pointer to a TIM_ClearInputConfigTypeDef structure that
1890:Drivers/STM32F3xx_HAL_Driver/Src/stm32f3xx_hal_tim_ex.c ****   *         contains the OCREF clear feature and parameters for the TIM peripheral. 
1891:Drivers/STM32F3xx_HAL_Driver/Src/stm32f3xx_hal_tim_ex.c ****   * @param  Channel: specifies the TIM Channel
1892:Drivers/STM32F3xx_HAL_Driver/Src/stm32f3xx_hal_tim_ex.c ****   *          This parameter can be one of the following values:
1893:Drivers/STM32F3xx_HAL_Driver/Src/stm32f3xx_hal_tim_ex.c ****   *            @arg TIM_CHANNEL_1: TIM Channel 1
1894:Drivers/STM32F3xx_HAL_Driver/Src/stm32f3xx_hal_tim_ex.c ****   *            @arg TIM_CHANNEL_2: TIM Channel 2
1895:Drivers/STM32F3xx_HAL_Driver/Src/stm32f3xx_hal_tim_ex.c ****   *            @arg TIM_CHANNEL_3: TIM Channel 3
1896:Drivers/STM32F3xx_HAL_Driver/Src/stm32f3xx_hal_tim_ex.c ****   *            @arg TIM_CHANNEL_4: TIM Channel 4
1897:Drivers/STM32F3xx_HAL_Driver/Src/stm32f3xx_hal_tim_ex.c ****   *            @arg TIM_Channel_5: TIM Channel 5
1898:Drivers/STM32F3xx_HAL_Driver/Src/stm32f3xx_hal_tim_ex.c ****   *            @arg TIM_Channel_6: TIM Channel 6
1899:Drivers/STM32F3xx_HAL_Driver/Src/stm32f3xx_hal_tim_ex.c ****   * @note For STM32F302xC, STM32F302xE, STM32F303xC, STM32F303xE, STM32F358xx,
1900:Drivers/STM32F3xx_HAL_Driver/Src/stm32f3xx_hal_tim_ex.c ****   *       STM32F398xx and STM32F303x8 up to 6 OC channels can be configured
1901:Drivers/STM32F3xx_HAL_Driver/Src/stm32f3xx_hal_tim_ex.c ****   * @retval None
1902:Drivers/STM32F3xx_HAL_Driver/Src/stm32f3xx_hal_tim_ex.c ****   */ 
1903:Drivers/STM32F3xx_HAL_Driver/Src/stm32f3xx_hal_tim_ex.c **** HAL_StatusTypeDef HAL_TIM_ConfigOCrefClear(TIM_HandleTypeDef *htim,
1904:Drivers/STM32F3xx_HAL_Driver/Src/stm32f3xx_hal_tim_ex.c ****                                            TIM_ClearInputConfigTypeDef *sClearInputConfig,
1905:Drivers/STM32F3xx_HAL_Driver/Src/stm32f3xx_hal_tim_ex.c ****                                            uint32_t Channel)
1906:Drivers/STM32F3xx_HAL_Driver/Src/stm32f3xx_hal_tim_ex.c **** { 
 3726              		.loc 1 1906 0
 3727              		.cfi_startproc
 3728              		@ args = 0, pretend = 0, frame = 24
 3729              		@ frame_needed = 1, uses_anonymous_args = 0
 3730 0000 80B5     		push	{r7, lr}
 3731              	.LCFI93:
 3732              		.cfi_def_cfa_offset 8
 3733              		.cfi_offset 7, -8
 3734              		.cfi_offset 14, -4
 3735 0002 86B0     		sub	sp, sp, #24
 3736              	.LCFI94:
 3737              		.cfi_def_cfa_offset 32
 3738 0004 00AF     		add	r7, sp, #0
 3739              	.LCFI95:
 3740              		.cfi_def_cfa_register 7
 3741 0006 F860     		str	r0, [r7, #12]
 3742 0008 B960     		str	r1, [r7, #8]
 3743 000a 7A60     		str	r2, [r7, #4]
ARM GAS  /tmp/ccRzvoJq.s 			page 99


1907:Drivers/STM32F3xx_HAL_Driver/Src/stm32f3xx_hal_tim_ex.c ****   uint32_t tmpsmcr = 0;
 3744              		.loc 1 1907 0
 3745 000c 0023     		movs	r3, #0
 3746 000e 7B61     		str	r3, [r7, #20]
1908:Drivers/STM32F3xx_HAL_Driver/Src/stm32f3xx_hal_tim_ex.c **** 
1909:Drivers/STM32F3xx_HAL_Driver/Src/stm32f3xx_hal_tim_ex.c ****   /* Check the parameters */ 
1910:Drivers/STM32F3xx_HAL_Driver/Src/stm32f3xx_hal_tim_ex.c ****   assert_param(IS_TIM_OCXREF_CLEAR_INSTANCE(htim->Instance));
1911:Drivers/STM32F3xx_HAL_Driver/Src/stm32f3xx_hal_tim_ex.c ****   assert_param(IS_TIM_CLEARINPUT_SOURCE(sClearInputConfig->ClearInputSource));
1912:Drivers/STM32F3xx_HAL_Driver/Src/stm32f3xx_hal_tim_ex.c ****                                         
1913:Drivers/STM32F3xx_HAL_Driver/Src/stm32f3xx_hal_tim_ex.c ****   /* Check input state */
1914:Drivers/STM32F3xx_HAL_Driver/Src/stm32f3xx_hal_tim_ex.c ****   __HAL_LOCK(htim);
 3747              		.loc 1 1914 0
 3748 0010 FB68     		ldr	r3, [r7, #12]
 3749 0012 93F83830 		ldrb	r3, [r3, #56]	@ zero_extendqisi2
 3750 0016 012B     		cmp	r3, #1
 3751 0018 01D1     		bne	.L199
 3752              		.loc 1 1914 0 is_stmt 0 discriminator 1
 3753 001a 0223     		movs	r3, #2
 3754 001c FCE0     		b	.L200
 3755              	.L199:
 3756              		.loc 1 1914 0 discriminator 2
 3757 001e FB68     		ldr	r3, [r7, #12]
 3758 0020 0122     		movs	r2, #1
 3759 0022 83F83820 		strb	r2, [r3, #56]
1915:Drivers/STM32F3xx_HAL_Driver/Src/stm32f3xx_hal_tim_ex.c **** 
1916:Drivers/STM32F3xx_HAL_Driver/Src/stm32f3xx_hal_tim_ex.c ****   htim->State = HAL_TIM_STATE_BUSY;
 3760              		.loc 1 1916 0 is_stmt 1 discriminator 2
 3761 0026 FB68     		ldr	r3, [r7, #12]
 3762 0028 0222     		movs	r2, #2
 3763 002a 83F83920 		strb	r2, [r3, #57]
1917:Drivers/STM32F3xx_HAL_Driver/Src/stm32f3xx_hal_tim_ex.c ****   
1918:Drivers/STM32F3xx_HAL_Driver/Src/stm32f3xx_hal_tim_ex.c ****   switch (sClearInputConfig->ClearInputSource)
 3764              		.loc 1 1918 0 discriminator 2
 3765 002e BB68     		ldr	r3, [r7, #8]
 3766 0030 5B68     		ldr	r3, [r3, #4]
 3767 0032 012B     		cmp	r3, #1
 3768 0034 1ED0     		beq	.L202
 3769 0036 012B     		cmp	r3, #1
 3770 0038 02D3     		bcc	.L203
 3771 003a 022B     		cmp	r3, #2
 3772 003c 11D0     		beq	.L204
1919:Drivers/STM32F3xx_HAL_Driver/Src/stm32f3xx_hal_tim_ex.c ****   {
1920:Drivers/STM32F3xx_HAL_Driver/Src/stm32f3xx_hal_tim_ex.c ****     case TIM_CLEARINPUTSOURCE_NONE:
1921:Drivers/STM32F3xx_HAL_Driver/Src/stm32f3xx_hal_tim_ex.c ****     {
1922:Drivers/STM32F3xx_HAL_Driver/Src/stm32f3xx_hal_tim_ex.c ****       /* Get the TIMx SMCR register value */
1923:Drivers/STM32F3xx_HAL_Driver/Src/stm32f3xx_hal_tim_ex.c ****       tmpsmcr = htim->Instance->SMCR;
1924:Drivers/STM32F3xx_HAL_Driver/Src/stm32f3xx_hal_tim_ex.c ****       
1925:Drivers/STM32F3xx_HAL_Driver/Src/stm32f3xx_hal_tim_ex.c ****       /* Clear the OCREF clear selection bit */
1926:Drivers/STM32F3xx_HAL_Driver/Src/stm32f3xx_hal_tim_ex.c ****       tmpsmcr &= ~TIM_SMCR_OCCS;
1927:Drivers/STM32F3xx_HAL_Driver/Src/stm32f3xx_hal_tim_ex.c ****       
1928:Drivers/STM32F3xx_HAL_Driver/Src/stm32f3xx_hal_tim_ex.c ****       /* Clear the ETR Bits */
1929:Drivers/STM32F3xx_HAL_Driver/Src/stm32f3xx_hal_tim_ex.c ****       tmpsmcr &= ~(TIM_SMCR_ETF | TIM_SMCR_ETPS | TIM_SMCR_ECE | TIM_SMCR_ETP);
1930:Drivers/STM32F3xx_HAL_Driver/Src/stm32f3xx_hal_tim_ex.c ****       
1931:Drivers/STM32F3xx_HAL_Driver/Src/stm32f3xx_hal_tim_ex.c ****       /* Set TIMx_SMCR */
1932:Drivers/STM32F3xx_HAL_Driver/Src/stm32f3xx_hal_tim_ex.c ****       htim->Instance->SMCR = tmpsmcr;
1933:Drivers/STM32F3xx_HAL_Driver/Src/stm32f3xx_hal_tim_ex.c ****    }
1934:Drivers/STM32F3xx_HAL_Driver/Src/stm32f3xx_hal_tim_ex.c ****     break;
ARM GAS  /tmp/ccRzvoJq.s 			page 100


1935:Drivers/STM32F3xx_HAL_Driver/Src/stm32f3xx_hal_tim_ex.c ****     
1936:Drivers/STM32F3xx_HAL_Driver/Src/stm32f3xx_hal_tim_ex.c ****     case TIM_CLEARINPUTSOURCE_OCREFCLR:
1937:Drivers/STM32F3xx_HAL_Driver/Src/stm32f3xx_hal_tim_ex.c ****     {
1938:Drivers/STM32F3xx_HAL_Driver/Src/stm32f3xx_hal_tim_ex.c ****       /* Clear the OCREF clear selection bit */
1939:Drivers/STM32F3xx_HAL_Driver/Src/stm32f3xx_hal_tim_ex.c ****       htim->Instance->SMCR &= ~TIM_SMCR_OCCS;
1940:Drivers/STM32F3xx_HAL_Driver/Src/stm32f3xx_hal_tim_ex.c ****     }
1941:Drivers/STM32F3xx_HAL_Driver/Src/stm32f3xx_hal_tim_ex.c ****     break;
1942:Drivers/STM32F3xx_HAL_Driver/Src/stm32f3xx_hal_tim_ex.c ****     
1943:Drivers/STM32F3xx_HAL_Driver/Src/stm32f3xx_hal_tim_ex.c ****     case TIM_CLEARINPUTSOURCE_ETR:
1944:Drivers/STM32F3xx_HAL_Driver/Src/stm32f3xx_hal_tim_ex.c ****     {
1945:Drivers/STM32F3xx_HAL_Driver/Src/stm32f3xx_hal_tim_ex.c ****       /* Check the parameters */ 
1946:Drivers/STM32F3xx_HAL_Driver/Src/stm32f3xx_hal_tim_ex.c ****       assert_param(IS_TIM_CLEARINPUT_POLARITY(sClearInputConfig->ClearInputPolarity));
1947:Drivers/STM32F3xx_HAL_Driver/Src/stm32f3xx_hal_tim_ex.c ****       assert_param(IS_TIM_CLEARINPUT_PRESCALER(sClearInputConfig->ClearInputPrescaler));
1948:Drivers/STM32F3xx_HAL_Driver/Src/stm32f3xx_hal_tim_ex.c ****       assert_param(IS_TIM_CLEARINPUT_FILTER(sClearInputConfig->ClearInputFilter));
1949:Drivers/STM32F3xx_HAL_Driver/Src/stm32f3xx_hal_tim_ex.c ****       
1950:Drivers/STM32F3xx_HAL_Driver/Src/stm32f3xx_hal_tim_ex.c ****       TIM_ETR_SetConfig(htim->Instance,
1951:Drivers/STM32F3xx_HAL_Driver/Src/stm32f3xx_hal_tim_ex.c ****                         sClearInputConfig->ClearInputPrescaler,
1952:Drivers/STM32F3xx_HAL_Driver/Src/stm32f3xx_hal_tim_ex.c ****                         sClearInputConfig->ClearInputPolarity,
1953:Drivers/STM32F3xx_HAL_Driver/Src/stm32f3xx_hal_tim_ex.c ****                         sClearInputConfig->ClearInputFilter);
1954:Drivers/STM32F3xx_HAL_Driver/Src/stm32f3xx_hal_tim_ex.c ****       
1955:Drivers/STM32F3xx_HAL_Driver/Src/stm32f3xx_hal_tim_ex.c ****       /* Set the OCREF clear selection bit */
1956:Drivers/STM32F3xx_HAL_Driver/Src/stm32f3xx_hal_tim_ex.c ****       htim->Instance->SMCR |= TIM_SMCR_OCCS;
1957:Drivers/STM32F3xx_HAL_Driver/Src/stm32f3xx_hal_tim_ex.c ****     }
1958:Drivers/STM32F3xx_HAL_Driver/Src/stm32f3xx_hal_tim_ex.c ****     break;
1959:Drivers/STM32F3xx_HAL_Driver/Src/stm32f3xx_hal_tim_ex.c ****     default:
1960:Drivers/STM32F3xx_HAL_Driver/Src/stm32f3xx_hal_tim_ex.c ****     break;
 3773              		.loc 1 1960 0 discriminator 2
 3774 003e 2CE0     		b	.L205
 3775              	.L203:
1923:Drivers/STM32F3xx_HAL_Driver/Src/stm32f3xx_hal_tim_ex.c ****       
 3776              		.loc 1 1923 0
 3777 0040 FB68     		ldr	r3, [r7, #12]
 3778 0042 1B68     		ldr	r3, [r3]
 3779 0044 9B68     		ldr	r3, [r3, #8]
 3780 0046 7B61     		str	r3, [r7, #20]
1926:Drivers/STM32F3xx_HAL_Driver/Src/stm32f3xx_hal_tim_ex.c ****       
 3781              		.loc 1 1926 0
 3782 0048 7B69     		ldr	r3, [r7, #20]
 3783 004a 23F00803 		bic	r3, r3, #8
 3784 004e 7B61     		str	r3, [r7, #20]
1929:Drivers/STM32F3xx_HAL_Driver/Src/stm32f3xx_hal_tim_ex.c ****       
 3785              		.loc 1 1929 0
 3786 0050 7B69     		ldr	r3, [r7, #20]
 3787 0052 23F47F43 		bic	r3, r3, #65280
 3788 0056 7B61     		str	r3, [r7, #20]
1932:Drivers/STM32F3xx_HAL_Driver/Src/stm32f3xx_hal_tim_ex.c ****    }
 3789              		.loc 1 1932 0
 3790 0058 FB68     		ldr	r3, [r7, #12]
 3791 005a 1B68     		ldr	r3, [r3]
 3792 005c 7A69     		ldr	r2, [r7, #20]
 3793 005e 9A60     		str	r2, [r3, #8]
1934:Drivers/STM32F3xx_HAL_Driver/Src/stm32f3xx_hal_tim_ex.c ****     
 3794              		.loc 1 1934 0
 3795 0060 1BE0     		b	.L205
 3796              	.L204:
1939:Drivers/STM32F3xx_HAL_Driver/Src/stm32f3xx_hal_tim_ex.c ****     }
 3797              		.loc 1 1939 0
ARM GAS  /tmp/ccRzvoJq.s 			page 101


 3798 0062 FB68     		ldr	r3, [r7, #12]
 3799 0064 1B68     		ldr	r3, [r3]
 3800 0066 FA68     		ldr	r2, [r7, #12]
 3801 0068 1268     		ldr	r2, [r2]
 3802 006a 9268     		ldr	r2, [r2, #8]
 3803 006c 22F00802 		bic	r2, r2, #8
 3804 0070 9A60     		str	r2, [r3, #8]
1941:Drivers/STM32F3xx_HAL_Driver/Src/stm32f3xx_hal_tim_ex.c ****     
 3805              		.loc 1 1941 0
 3806 0072 12E0     		b	.L205
 3807              	.L202:
1950:Drivers/STM32F3xx_HAL_Driver/Src/stm32f3xx_hal_tim_ex.c ****                         sClearInputConfig->ClearInputPrescaler,
 3808              		.loc 1 1950 0
 3809 0074 FB68     		ldr	r3, [r7, #12]
 3810 0076 1868     		ldr	r0, [r3]
 3811 0078 BB68     		ldr	r3, [r7, #8]
 3812 007a D968     		ldr	r1, [r3, #12]
 3813 007c BB68     		ldr	r3, [r7, #8]
 3814 007e 9A68     		ldr	r2, [r3, #8]
 3815 0080 BB68     		ldr	r3, [r7, #8]
 3816 0082 1B69     		ldr	r3, [r3, #16]
 3817 0084 FFF7FEFF 		bl	TIM_ETR_SetConfig
1956:Drivers/STM32F3xx_HAL_Driver/Src/stm32f3xx_hal_tim_ex.c ****     }
 3818              		.loc 1 1956 0
 3819 0088 FB68     		ldr	r3, [r7, #12]
 3820 008a 1B68     		ldr	r3, [r3]
 3821 008c FA68     		ldr	r2, [r7, #12]
 3822 008e 1268     		ldr	r2, [r2]
 3823 0090 9268     		ldr	r2, [r2, #8]
 3824 0092 42F00802 		orr	r2, r2, #8
 3825 0096 9A60     		str	r2, [r3, #8]
1958:Drivers/STM32F3xx_HAL_Driver/Src/stm32f3xx_hal_tim_ex.c ****     default:
 3826              		.loc 1 1958 0
 3827 0098 00BF     		nop
 3828              	.L205:
1961:Drivers/STM32F3xx_HAL_Driver/Src/stm32f3xx_hal_tim_ex.c ****   }
1962:Drivers/STM32F3xx_HAL_Driver/Src/stm32f3xx_hal_tim_ex.c ****   
1963:Drivers/STM32F3xx_HAL_Driver/Src/stm32f3xx_hal_tim_ex.c ****   switch (Channel)
 3829              		.loc 1 1963 0
 3830 009a 7B68     		ldr	r3, [r7, #4]
 3831 009c 142B     		cmp	r3, #20
 3832 009e 00F2B180 		bhi	.L227
 3833 00a2 01A2     		adr	r2, .L208
 3834 00a4 52F823F0 		ldr	pc, [r2, r3, lsl #2]
 3835              		.p2align 2
 3836              	.L208:
 3837 00a8 FD000000 		.word	.L207+1
 3838 00ac 05020000 		.word	.L227+1
 3839 00b0 05020000 		.word	.L227+1
 3840 00b4 05020000 		.word	.L227+1
 3841 00b8 29010000 		.word	.L209+1
 3842 00bc 05020000 		.word	.L227+1
 3843 00c0 05020000 		.word	.L227+1
 3844 00c4 05020000 		.word	.L227+1
 3845 00c8 55010000 		.word	.L210+1
 3846 00cc 05020000 		.word	.L227+1
 3847 00d0 05020000 		.word	.L227+1
ARM GAS  /tmp/ccRzvoJq.s 			page 102


 3848 00d4 05020000 		.word	.L227+1
 3849 00d8 81010000 		.word	.L211+1
 3850 00dc 05020000 		.word	.L227+1
 3851 00e0 05020000 		.word	.L227+1
 3852 00e4 05020000 		.word	.L227+1
 3853 00e8 AD010000 		.word	.L212+1
 3854 00ec 05020000 		.word	.L227+1
 3855 00f0 05020000 		.word	.L227+1
 3856 00f4 05020000 		.word	.L227+1
 3857 00f8 D9010000 		.word	.L213+1
 3858              		.p2align 1
 3859              	.L207:
1964:Drivers/STM32F3xx_HAL_Driver/Src/stm32f3xx_hal_tim_ex.c ****   { 
1965:Drivers/STM32F3xx_HAL_Driver/Src/stm32f3xx_hal_tim_ex.c ****     case TIM_CHANNEL_1:
1966:Drivers/STM32F3xx_HAL_Driver/Src/stm32f3xx_hal_tim_ex.c ****       {
1967:Drivers/STM32F3xx_HAL_Driver/Src/stm32f3xx_hal_tim_ex.c ****         if(sClearInputConfig->ClearInputState != RESET)
 3860              		.loc 1 1967 0
 3861 00fc BB68     		ldr	r3, [r7, #8]
 3862 00fe 1B68     		ldr	r3, [r3]
 3863 0100 002B     		cmp	r3, #0
 3864 0102 08D0     		beq	.L214
1968:Drivers/STM32F3xx_HAL_Driver/Src/stm32f3xx_hal_tim_ex.c ****         {
1969:Drivers/STM32F3xx_HAL_Driver/Src/stm32f3xx_hal_tim_ex.c ****           /* Enable the Ocref clear feature for Channel 1 */
1970:Drivers/STM32F3xx_HAL_Driver/Src/stm32f3xx_hal_tim_ex.c ****           htim->Instance->CCMR1 |= TIM_CCMR1_OC1CE;
 3865              		.loc 1 1970 0
 3866 0104 FB68     		ldr	r3, [r7, #12]
 3867 0106 1B68     		ldr	r3, [r3]
 3868 0108 FA68     		ldr	r2, [r7, #12]
 3869 010a 1268     		ldr	r2, [r2]
 3870 010c 9269     		ldr	r2, [r2, #24]
 3871 010e 42F08002 		orr	r2, r2, #128
 3872 0112 9A61     		str	r2, [r3, #24]
1971:Drivers/STM32F3xx_HAL_Driver/Src/stm32f3xx_hal_tim_ex.c ****         }
1972:Drivers/STM32F3xx_HAL_Driver/Src/stm32f3xx_hal_tim_ex.c ****         else
1973:Drivers/STM32F3xx_HAL_Driver/Src/stm32f3xx_hal_tim_ex.c ****         {
1974:Drivers/STM32F3xx_HAL_Driver/Src/stm32f3xx_hal_tim_ex.c ****           /* Disable the Ocref clear feature for Channel 1 */
1975:Drivers/STM32F3xx_HAL_Driver/Src/stm32f3xx_hal_tim_ex.c ****           htim->Instance->CCMR1 &= ~TIM_CCMR1_OC1CE;      
1976:Drivers/STM32F3xx_HAL_Driver/Src/stm32f3xx_hal_tim_ex.c ****         }
1977:Drivers/STM32F3xx_HAL_Driver/Src/stm32f3xx_hal_tim_ex.c ****       }    
1978:Drivers/STM32F3xx_HAL_Driver/Src/stm32f3xx_hal_tim_ex.c ****       break;
 3873              		.loc 1 1978 0
 3874 0114 77E0     		b	.L216
 3875              	.L214:
1975:Drivers/STM32F3xx_HAL_Driver/Src/stm32f3xx_hal_tim_ex.c ****         }
 3876              		.loc 1 1975 0
 3877 0116 FB68     		ldr	r3, [r7, #12]
 3878 0118 1B68     		ldr	r3, [r3]
 3879 011a FA68     		ldr	r2, [r7, #12]
 3880 011c 1268     		ldr	r2, [r2]
 3881 011e 9269     		ldr	r2, [r2, #24]
 3882 0120 22F08002 		bic	r2, r2, #128
 3883 0124 9A61     		str	r2, [r3, #24]
 3884              		.loc 1 1978 0
 3885 0126 6EE0     		b	.L216
 3886              	.L209:
1979:Drivers/STM32F3xx_HAL_Driver/Src/stm32f3xx_hal_tim_ex.c ****     case TIM_CHANNEL_2:    
1980:Drivers/STM32F3xx_HAL_Driver/Src/stm32f3xx_hal_tim_ex.c ****       {
ARM GAS  /tmp/ccRzvoJq.s 			page 103


1981:Drivers/STM32F3xx_HAL_Driver/Src/stm32f3xx_hal_tim_ex.c ****         if(sClearInputConfig->ClearInputState != RESET)
 3887              		.loc 1 1981 0
 3888 0128 BB68     		ldr	r3, [r7, #8]
 3889 012a 1B68     		ldr	r3, [r3]
 3890 012c 002B     		cmp	r3, #0
 3891 012e 08D0     		beq	.L217
1982:Drivers/STM32F3xx_HAL_Driver/Src/stm32f3xx_hal_tim_ex.c ****         {
1983:Drivers/STM32F3xx_HAL_Driver/Src/stm32f3xx_hal_tim_ex.c ****           /* Enable the Ocref clear feature for Channel 2 */
1984:Drivers/STM32F3xx_HAL_Driver/Src/stm32f3xx_hal_tim_ex.c ****           htim->Instance->CCMR1 |= TIM_CCMR1_OC2CE;
 3892              		.loc 1 1984 0
 3893 0130 FB68     		ldr	r3, [r7, #12]
 3894 0132 1B68     		ldr	r3, [r3]
 3895 0134 FA68     		ldr	r2, [r7, #12]
 3896 0136 1268     		ldr	r2, [r2]
 3897 0138 9269     		ldr	r2, [r2, #24]
 3898 013a 42F40042 		orr	r2, r2, #32768
 3899 013e 9A61     		str	r2, [r3, #24]
1985:Drivers/STM32F3xx_HAL_Driver/Src/stm32f3xx_hal_tim_ex.c ****         }
1986:Drivers/STM32F3xx_HAL_Driver/Src/stm32f3xx_hal_tim_ex.c ****         else
1987:Drivers/STM32F3xx_HAL_Driver/Src/stm32f3xx_hal_tim_ex.c ****         {
1988:Drivers/STM32F3xx_HAL_Driver/Src/stm32f3xx_hal_tim_ex.c ****           /* Disable the Ocref clear feature for Channel 2 */
1989:Drivers/STM32F3xx_HAL_Driver/Src/stm32f3xx_hal_tim_ex.c ****           htim->Instance->CCMR1 &= ~TIM_CCMR1_OC2CE;      
1990:Drivers/STM32F3xx_HAL_Driver/Src/stm32f3xx_hal_tim_ex.c ****         }
1991:Drivers/STM32F3xx_HAL_Driver/Src/stm32f3xx_hal_tim_ex.c ****       }    
1992:Drivers/STM32F3xx_HAL_Driver/Src/stm32f3xx_hal_tim_ex.c ****     break;
 3900              		.loc 1 1992 0
 3901 0140 61E0     		b	.L216
 3902              	.L217:
1989:Drivers/STM32F3xx_HAL_Driver/Src/stm32f3xx_hal_tim_ex.c ****         }
 3903              		.loc 1 1989 0
 3904 0142 FB68     		ldr	r3, [r7, #12]
 3905 0144 1B68     		ldr	r3, [r3]
 3906 0146 FA68     		ldr	r2, [r7, #12]
 3907 0148 1268     		ldr	r2, [r2]
 3908 014a 9269     		ldr	r2, [r2, #24]
 3909 014c 22F40042 		bic	r2, r2, #32768
 3910 0150 9A61     		str	r2, [r3, #24]
 3911              		.loc 1 1992 0
 3912 0152 58E0     		b	.L216
 3913              	.L210:
1993:Drivers/STM32F3xx_HAL_Driver/Src/stm32f3xx_hal_tim_ex.c ****     case TIM_CHANNEL_3:    
1994:Drivers/STM32F3xx_HAL_Driver/Src/stm32f3xx_hal_tim_ex.c ****       {
1995:Drivers/STM32F3xx_HAL_Driver/Src/stm32f3xx_hal_tim_ex.c ****         if(sClearInputConfig->ClearInputState != RESET)
 3914              		.loc 1 1995 0
 3915 0154 BB68     		ldr	r3, [r7, #8]
 3916 0156 1B68     		ldr	r3, [r3]
 3917 0158 002B     		cmp	r3, #0
 3918 015a 08D0     		beq	.L219
1996:Drivers/STM32F3xx_HAL_Driver/Src/stm32f3xx_hal_tim_ex.c ****         {
1997:Drivers/STM32F3xx_HAL_Driver/Src/stm32f3xx_hal_tim_ex.c ****           /* Enable the Ocref clear feature for Channel 3 */
1998:Drivers/STM32F3xx_HAL_Driver/Src/stm32f3xx_hal_tim_ex.c ****           htim->Instance->CCMR2 |= TIM_CCMR2_OC3CE;
 3919              		.loc 1 1998 0
 3920 015c FB68     		ldr	r3, [r7, #12]
 3921 015e 1B68     		ldr	r3, [r3]
 3922 0160 FA68     		ldr	r2, [r7, #12]
 3923 0162 1268     		ldr	r2, [r2]
 3924 0164 D269     		ldr	r2, [r2, #28]
ARM GAS  /tmp/ccRzvoJq.s 			page 104


 3925 0166 42F08002 		orr	r2, r2, #128
 3926 016a DA61     		str	r2, [r3, #28]
1999:Drivers/STM32F3xx_HAL_Driver/Src/stm32f3xx_hal_tim_ex.c ****         }
2000:Drivers/STM32F3xx_HAL_Driver/Src/stm32f3xx_hal_tim_ex.c ****         else
2001:Drivers/STM32F3xx_HAL_Driver/Src/stm32f3xx_hal_tim_ex.c ****         {
2002:Drivers/STM32F3xx_HAL_Driver/Src/stm32f3xx_hal_tim_ex.c ****           /* Disable the Ocref clear feature for Channel 3 */
2003:Drivers/STM32F3xx_HAL_Driver/Src/stm32f3xx_hal_tim_ex.c ****           htim->Instance->CCMR2 &= ~TIM_CCMR2_OC3CE;      
2004:Drivers/STM32F3xx_HAL_Driver/Src/stm32f3xx_hal_tim_ex.c ****         }
2005:Drivers/STM32F3xx_HAL_Driver/Src/stm32f3xx_hal_tim_ex.c ****       }    
2006:Drivers/STM32F3xx_HAL_Driver/Src/stm32f3xx_hal_tim_ex.c ****     break;
 3927              		.loc 1 2006 0
 3928 016c 4BE0     		b	.L216
 3929              	.L219:
2003:Drivers/STM32F3xx_HAL_Driver/Src/stm32f3xx_hal_tim_ex.c ****         }
 3930              		.loc 1 2003 0
 3931 016e FB68     		ldr	r3, [r7, #12]
 3932 0170 1B68     		ldr	r3, [r3]
 3933 0172 FA68     		ldr	r2, [r7, #12]
 3934 0174 1268     		ldr	r2, [r2]
 3935 0176 D269     		ldr	r2, [r2, #28]
 3936 0178 22F08002 		bic	r2, r2, #128
 3937 017c DA61     		str	r2, [r3, #28]
 3938              		.loc 1 2006 0
 3939 017e 42E0     		b	.L216
 3940              	.L211:
2007:Drivers/STM32F3xx_HAL_Driver/Src/stm32f3xx_hal_tim_ex.c ****     case TIM_CHANNEL_4:    
2008:Drivers/STM32F3xx_HAL_Driver/Src/stm32f3xx_hal_tim_ex.c ****       {
2009:Drivers/STM32F3xx_HAL_Driver/Src/stm32f3xx_hal_tim_ex.c ****         if(sClearInputConfig->ClearInputState != RESET)
 3941              		.loc 1 2009 0
 3942 0180 BB68     		ldr	r3, [r7, #8]
 3943 0182 1B68     		ldr	r3, [r3]
 3944 0184 002B     		cmp	r3, #0
 3945 0186 08D0     		beq	.L221
2010:Drivers/STM32F3xx_HAL_Driver/Src/stm32f3xx_hal_tim_ex.c ****         {
2011:Drivers/STM32F3xx_HAL_Driver/Src/stm32f3xx_hal_tim_ex.c ****           /* Enable the Ocref clear feature for Channel 4 */
2012:Drivers/STM32F3xx_HAL_Driver/Src/stm32f3xx_hal_tim_ex.c ****           htim->Instance->CCMR2 |= TIM_CCMR2_OC4CE;
 3946              		.loc 1 2012 0
 3947 0188 FB68     		ldr	r3, [r7, #12]
 3948 018a 1B68     		ldr	r3, [r3]
 3949 018c FA68     		ldr	r2, [r7, #12]
 3950 018e 1268     		ldr	r2, [r2]
 3951 0190 D269     		ldr	r2, [r2, #28]
 3952 0192 42F40042 		orr	r2, r2, #32768
 3953 0196 DA61     		str	r2, [r3, #28]
2013:Drivers/STM32F3xx_HAL_Driver/Src/stm32f3xx_hal_tim_ex.c ****         }
2014:Drivers/STM32F3xx_HAL_Driver/Src/stm32f3xx_hal_tim_ex.c ****         else
2015:Drivers/STM32F3xx_HAL_Driver/Src/stm32f3xx_hal_tim_ex.c ****         {
2016:Drivers/STM32F3xx_HAL_Driver/Src/stm32f3xx_hal_tim_ex.c ****           /* Disable the Ocref clear feature for Channel 4 */
2017:Drivers/STM32F3xx_HAL_Driver/Src/stm32f3xx_hal_tim_ex.c ****           htim->Instance->CCMR2 &= ~TIM_CCMR2_OC4CE;      
2018:Drivers/STM32F3xx_HAL_Driver/Src/stm32f3xx_hal_tim_ex.c ****         }
2019:Drivers/STM32F3xx_HAL_Driver/Src/stm32f3xx_hal_tim_ex.c ****       }    
2020:Drivers/STM32F3xx_HAL_Driver/Src/stm32f3xx_hal_tim_ex.c ****     break;
 3954              		.loc 1 2020 0
 3955 0198 35E0     		b	.L216
 3956              	.L221:
2017:Drivers/STM32F3xx_HAL_Driver/Src/stm32f3xx_hal_tim_ex.c ****         }
 3957              		.loc 1 2017 0
ARM GAS  /tmp/ccRzvoJq.s 			page 105


 3958 019a FB68     		ldr	r3, [r7, #12]
 3959 019c 1B68     		ldr	r3, [r3]
 3960 019e FA68     		ldr	r2, [r7, #12]
 3961 01a0 1268     		ldr	r2, [r2]
 3962 01a2 D269     		ldr	r2, [r2, #28]
 3963 01a4 22F40042 		bic	r2, r2, #32768
 3964 01a8 DA61     		str	r2, [r3, #28]
 3965              		.loc 1 2020 0
 3966 01aa 2CE0     		b	.L216
 3967              	.L212:
2021:Drivers/STM32F3xx_HAL_Driver/Src/stm32f3xx_hal_tim_ex.c ****     case TIM_CHANNEL_5:    
2022:Drivers/STM32F3xx_HAL_Driver/Src/stm32f3xx_hal_tim_ex.c ****       {
2023:Drivers/STM32F3xx_HAL_Driver/Src/stm32f3xx_hal_tim_ex.c ****         if(sClearInputConfig->ClearInputState != RESET)
 3968              		.loc 1 2023 0
 3969 01ac BB68     		ldr	r3, [r7, #8]
 3970 01ae 1B68     		ldr	r3, [r3]
 3971 01b0 002B     		cmp	r3, #0
 3972 01b2 08D0     		beq	.L223
2024:Drivers/STM32F3xx_HAL_Driver/Src/stm32f3xx_hal_tim_ex.c ****         {
2025:Drivers/STM32F3xx_HAL_Driver/Src/stm32f3xx_hal_tim_ex.c ****           /* Enable the Ocref clear feature for Channel 1 */
2026:Drivers/STM32F3xx_HAL_Driver/Src/stm32f3xx_hal_tim_ex.c ****           htim->Instance->CCMR3 |= TIM_CCMR3_OC5CE;
 3973              		.loc 1 2026 0
 3974 01b4 FB68     		ldr	r3, [r7, #12]
 3975 01b6 1B68     		ldr	r3, [r3]
 3976 01b8 FA68     		ldr	r2, [r7, #12]
 3977 01ba 1268     		ldr	r2, [r2]
 3978 01bc 526D     		ldr	r2, [r2, #84]
 3979 01be 42F08002 		orr	r2, r2, #128
 3980 01c2 5A65     		str	r2, [r3, #84]
2027:Drivers/STM32F3xx_HAL_Driver/Src/stm32f3xx_hal_tim_ex.c ****         }
2028:Drivers/STM32F3xx_HAL_Driver/Src/stm32f3xx_hal_tim_ex.c ****         else
2029:Drivers/STM32F3xx_HAL_Driver/Src/stm32f3xx_hal_tim_ex.c ****         {
2030:Drivers/STM32F3xx_HAL_Driver/Src/stm32f3xx_hal_tim_ex.c ****           /* Disable the Ocref clear feature for Channel 1 */
2031:Drivers/STM32F3xx_HAL_Driver/Src/stm32f3xx_hal_tim_ex.c ****           htim->Instance->CCMR3 &= ~TIM_CCMR3_OC5CE;      
2032:Drivers/STM32F3xx_HAL_Driver/Src/stm32f3xx_hal_tim_ex.c ****         }
2033:Drivers/STM32F3xx_HAL_Driver/Src/stm32f3xx_hal_tim_ex.c ****       }    
2034:Drivers/STM32F3xx_HAL_Driver/Src/stm32f3xx_hal_tim_ex.c ****     break;
 3981              		.loc 1 2034 0
 3982 01c4 1FE0     		b	.L216
 3983              	.L223:
2031:Drivers/STM32F3xx_HAL_Driver/Src/stm32f3xx_hal_tim_ex.c ****         }
 3984              		.loc 1 2031 0
 3985 01c6 FB68     		ldr	r3, [r7, #12]
 3986 01c8 1B68     		ldr	r3, [r3]
 3987 01ca FA68     		ldr	r2, [r7, #12]
 3988 01cc 1268     		ldr	r2, [r2]
 3989 01ce 526D     		ldr	r2, [r2, #84]
 3990 01d0 22F08002 		bic	r2, r2, #128
 3991 01d4 5A65     		str	r2, [r3, #84]
 3992              		.loc 1 2034 0
 3993 01d6 16E0     		b	.L216
 3994              	.L213:
2035:Drivers/STM32F3xx_HAL_Driver/Src/stm32f3xx_hal_tim_ex.c ****     case TIM_CHANNEL_6:    
2036:Drivers/STM32F3xx_HAL_Driver/Src/stm32f3xx_hal_tim_ex.c ****       {
2037:Drivers/STM32F3xx_HAL_Driver/Src/stm32f3xx_hal_tim_ex.c ****         if(sClearInputConfig->ClearInputState != RESET)
 3995              		.loc 1 2037 0
 3996 01d8 BB68     		ldr	r3, [r7, #8]
ARM GAS  /tmp/ccRzvoJq.s 			page 106


 3997 01da 1B68     		ldr	r3, [r3]
 3998 01dc 002B     		cmp	r3, #0
 3999 01de 08D0     		beq	.L225
2038:Drivers/STM32F3xx_HAL_Driver/Src/stm32f3xx_hal_tim_ex.c ****         {
2039:Drivers/STM32F3xx_HAL_Driver/Src/stm32f3xx_hal_tim_ex.c ****           /* Enable the Ocref clear feature for Channel 1 */
2040:Drivers/STM32F3xx_HAL_Driver/Src/stm32f3xx_hal_tim_ex.c ****           htim->Instance->CCMR3 |= TIM_CCMR3_OC6CE;
 4000              		.loc 1 2040 0
 4001 01e0 FB68     		ldr	r3, [r7, #12]
 4002 01e2 1B68     		ldr	r3, [r3]
 4003 01e4 FA68     		ldr	r2, [r7, #12]
 4004 01e6 1268     		ldr	r2, [r2]
 4005 01e8 526D     		ldr	r2, [r2, #84]
 4006 01ea 42F40042 		orr	r2, r2, #32768
 4007 01ee 5A65     		str	r2, [r3, #84]
2041:Drivers/STM32F3xx_HAL_Driver/Src/stm32f3xx_hal_tim_ex.c ****         }
2042:Drivers/STM32F3xx_HAL_Driver/Src/stm32f3xx_hal_tim_ex.c ****         else
2043:Drivers/STM32F3xx_HAL_Driver/Src/stm32f3xx_hal_tim_ex.c ****         {
2044:Drivers/STM32F3xx_HAL_Driver/Src/stm32f3xx_hal_tim_ex.c ****           /* Disable the Ocref clear feature for Channel 1 */
2045:Drivers/STM32F3xx_HAL_Driver/Src/stm32f3xx_hal_tim_ex.c ****           htim->Instance->CCMR3 &= ~TIM_CCMR3_OC6CE;      
2046:Drivers/STM32F3xx_HAL_Driver/Src/stm32f3xx_hal_tim_ex.c ****         }
2047:Drivers/STM32F3xx_HAL_Driver/Src/stm32f3xx_hal_tim_ex.c ****       }    
2048:Drivers/STM32F3xx_HAL_Driver/Src/stm32f3xx_hal_tim_ex.c ****     break;
 4008              		.loc 1 2048 0
 4009 01f0 09E0     		b	.L216
 4010              	.L225:
2045:Drivers/STM32F3xx_HAL_Driver/Src/stm32f3xx_hal_tim_ex.c ****         }
 4011              		.loc 1 2045 0
 4012 01f2 FB68     		ldr	r3, [r7, #12]
 4013 01f4 1B68     		ldr	r3, [r3]
 4014 01f6 FA68     		ldr	r2, [r7, #12]
 4015 01f8 1268     		ldr	r2, [r2]
 4016 01fa 526D     		ldr	r2, [r2, #84]
 4017 01fc 22F40042 		bic	r2, r2, #32768
 4018 0200 5A65     		str	r2, [r3, #84]
 4019              		.loc 1 2048 0
 4020 0202 00E0     		b	.L216
 4021              	.L227:
2049:Drivers/STM32F3xx_HAL_Driver/Src/stm32f3xx_hal_tim_ex.c ****     default:  
2050:Drivers/STM32F3xx_HAL_Driver/Src/stm32f3xx_hal_tim_ex.c ****     break;
 4022              		.loc 1 2050 0
 4023 0204 00BF     		nop
 4024              	.L216:
2051:Drivers/STM32F3xx_HAL_Driver/Src/stm32f3xx_hal_tim_ex.c ****   } 
2052:Drivers/STM32F3xx_HAL_Driver/Src/stm32f3xx_hal_tim_ex.c **** 
2053:Drivers/STM32F3xx_HAL_Driver/Src/stm32f3xx_hal_tim_ex.c ****   htim->State = HAL_TIM_STATE_READY;
 4025              		.loc 1 2053 0
 4026 0206 FB68     		ldr	r3, [r7, #12]
 4027 0208 0122     		movs	r2, #1
 4028 020a 83F83920 		strb	r2, [r3, #57]
2054:Drivers/STM32F3xx_HAL_Driver/Src/stm32f3xx_hal_tim_ex.c ****   
2055:Drivers/STM32F3xx_HAL_Driver/Src/stm32f3xx_hal_tim_ex.c ****   __HAL_UNLOCK(htim);
 4029              		.loc 1 2055 0
 4030 020e FB68     		ldr	r3, [r7, #12]
 4031 0210 0022     		movs	r2, #0
 4032 0212 83F83820 		strb	r2, [r3, #56]
2056:Drivers/STM32F3xx_HAL_Driver/Src/stm32f3xx_hal_tim_ex.c **** 
2057:Drivers/STM32F3xx_HAL_Driver/Src/stm32f3xx_hal_tim_ex.c ****   return HAL_OK;  
ARM GAS  /tmp/ccRzvoJq.s 			page 107


 4033              		.loc 1 2057 0
 4034 0216 0023     		movs	r3, #0
 4035              	.L200:
2058:Drivers/STM32F3xx_HAL_Driver/Src/stm32f3xx_hal_tim_ex.c **** }  
 4036              		.loc 1 2058 0
 4037 0218 1846     		mov	r0, r3
 4038 021a 1837     		adds	r7, r7, #24
 4039 021c BD46     		mov	sp, r7
 4040              		@ sp needed
 4041 021e 80BD     		pop	{r7, pc}
 4042              		.cfi_endproc
 4043              	.LFE156:
 4045              		.section	.text.HAL_TIMEx_MasterConfigSynchronization,"ax",%progbits
 4046              		.align	2
 4047              		.global	HAL_TIMEx_MasterConfigSynchronization
 4048              		.thumb
 4049              		.thumb_func
 4051              	HAL_TIMEx_MasterConfigSynchronization:
 4052              	.LFB157:
2059:Drivers/STM32F3xx_HAL_Driver/Src/stm32f3xx_hal_tim_ex.c **** 
2060:Drivers/STM32F3xx_HAL_Driver/Src/stm32f3xx_hal_tim_ex.c **** /**
2061:Drivers/STM32F3xx_HAL_Driver/Src/stm32f3xx_hal_tim_ex.c ****   * @brief  Configures the TIM in master mode.
2062:Drivers/STM32F3xx_HAL_Driver/Src/stm32f3xx_hal_tim_ex.c ****   * @param  htim: TIM handle.   
2063:Drivers/STM32F3xx_HAL_Driver/Src/stm32f3xx_hal_tim_ex.c ****   * @param  sMasterConfig: pointer to a TIM_MasterConfigTypeDef structure that
2064:Drivers/STM32F3xx_HAL_Driver/Src/stm32f3xx_hal_tim_ex.c ****   *         contains the selected trigger output (TRGO) and the Master/Slave 
2065:Drivers/STM32F3xx_HAL_Driver/Src/stm32f3xx_hal_tim_ex.c ****   *         mode. 
2066:Drivers/STM32F3xx_HAL_Driver/Src/stm32f3xx_hal_tim_ex.c ****   * @retval HAL status
2067:Drivers/STM32F3xx_HAL_Driver/Src/stm32f3xx_hal_tim_ex.c ****   */
2068:Drivers/STM32F3xx_HAL_Driver/Src/stm32f3xx_hal_tim_ex.c **** HAL_StatusTypeDef HAL_TIMEx_MasterConfigSynchronization(TIM_HandleTypeDef *htim, 
2069:Drivers/STM32F3xx_HAL_Driver/Src/stm32f3xx_hal_tim_ex.c ****                                                       TIM_MasterConfigTypeDef * sMasterConfig)
2070:Drivers/STM32F3xx_HAL_Driver/Src/stm32f3xx_hal_tim_ex.c **** {
 4053              		.loc 1 2070 0
 4054              		.cfi_startproc
 4055              		@ args = 0, pretend = 0, frame = 16
 4056              		@ frame_needed = 1, uses_anonymous_args = 0
 4057              		@ link register save eliminated.
 4058 0000 80B4     		push	{r7}
 4059              	.LCFI96:
 4060              		.cfi_def_cfa_offset 4
 4061              		.cfi_offset 7, -4
 4062 0002 85B0     		sub	sp, sp, #20
 4063              	.LCFI97:
 4064              		.cfi_def_cfa_offset 24
 4065 0004 00AF     		add	r7, sp, #0
 4066              	.LCFI98:
 4067              		.cfi_def_cfa_register 7
 4068 0006 7860     		str	r0, [r7, #4]
 4069 0008 3960     		str	r1, [r7]
2071:Drivers/STM32F3xx_HAL_Driver/Src/stm32f3xx_hal_tim_ex.c ****   uint32_t tmpcr2;  
2072:Drivers/STM32F3xx_HAL_Driver/Src/stm32f3xx_hal_tim_ex.c ****   uint32_t tmpsmcr;  
2073:Drivers/STM32F3xx_HAL_Driver/Src/stm32f3xx_hal_tim_ex.c **** 
2074:Drivers/STM32F3xx_HAL_Driver/Src/stm32f3xx_hal_tim_ex.c ****   /* Check the parameters */
2075:Drivers/STM32F3xx_HAL_Driver/Src/stm32f3xx_hal_tim_ex.c ****   assert_param(IS_TIM_SYNCHRO_INSTANCE(htim->Instance));
2076:Drivers/STM32F3xx_HAL_Driver/Src/stm32f3xx_hal_tim_ex.c ****   assert_param(IS_TIM_TRGO_SOURCE(sMasterConfig->MasterOutputTrigger));
2077:Drivers/STM32F3xx_HAL_Driver/Src/stm32f3xx_hal_tim_ex.c ****   assert_param(IS_TIM_MSM_STATE(sMasterConfig->MasterSlaveMode));
2078:Drivers/STM32F3xx_HAL_Driver/Src/stm32f3xx_hal_tim_ex.c ****   
2079:Drivers/STM32F3xx_HAL_Driver/Src/stm32f3xx_hal_tim_ex.c ****   /* Check input state */
ARM GAS  /tmp/ccRzvoJq.s 			page 108


2080:Drivers/STM32F3xx_HAL_Driver/Src/stm32f3xx_hal_tim_ex.c ****   __HAL_LOCK(htim);
 4070              		.loc 1 2080 0
 4071 000a 7B68     		ldr	r3, [r7, #4]
 4072 000c 93F83830 		ldrb	r3, [r3, #56]	@ zero_extendqisi2
 4073 0010 012B     		cmp	r3, #1
 4074 0012 01D1     		bne	.L229
 4075              		.loc 1 2080 0 is_stmt 0 discriminator 1
 4076 0014 0223     		movs	r3, #2
 4077 0016 3DE0     		b	.L230
 4078              	.L229:
 4079              		.loc 1 2080 0 discriminator 2
 4080 0018 7B68     		ldr	r3, [r7, #4]
 4081 001a 0122     		movs	r2, #1
 4082 001c 83F83820 		strb	r2, [r3, #56]
2081:Drivers/STM32F3xx_HAL_Driver/Src/stm32f3xx_hal_tim_ex.c **** 
2082:Drivers/STM32F3xx_HAL_Driver/Src/stm32f3xx_hal_tim_ex.c ****  /* Get the TIMx CR2 register value */
2083:Drivers/STM32F3xx_HAL_Driver/Src/stm32f3xx_hal_tim_ex.c ****   tmpcr2 = htim->Instance->CR2;
 4083              		.loc 1 2083 0 is_stmt 1 discriminator 2
 4084 0020 7B68     		ldr	r3, [r7, #4]
 4085 0022 1B68     		ldr	r3, [r3]
 4086 0024 5B68     		ldr	r3, [r3, #4]
 4087 0026 FB60     		str	r3, [r7, #12]
2084:Drivers/STM32F3xx_HAL_Driver/Src/stm32f3xx_hal_tim_ex.c **** 
2085:Drivers/STM32F3xx_HAL_Driver/Src/stm32f3xx_hal_tim_ex.c ****   /* Get the TIMx SMCR register value */
2086:Drivers/STM32F3xx_HAL_Driver/Src/stm32f3xx_hal_tim_ex.c ****   tmpsmcr = htim->Instance->SMCR;
 4088              		.loc 1 2086 0 discriminator 2
 4089 0028 7B68     		ldr	r3, [r7, #4]
 4090 002a 1B68     		ldr	r3, [r3]
 4091 002c 9B68     		ldr	r3, [r3, #8]
 4092 002e BB60     		str	r3, [r7, #8]
2087:Drivers/STM32F3xx_HAL_Driver/Src/stm32f3xx_hal_tim_ex.c **** 
2088:Drivers/STM32F3xx_HAL_Driver/Src/stm32f3xx_hal_tim_ex.c ****   /* If the timer supports ADC synchronization through TRGO2, set the master mode selection 2 */
2089:Drivers/STM32F3xx_HAL_Driver/Src/stm32f3xx_hal_tim_ex.c ****   if (IS_TIM_TRGO2_INSTANCE(htim->Instance))
 4093              		.loc 1 2089 0 discriminator 2
 4094 0030 7B68     		ldr	r3, [r7, #4]
 4095 0032 1A68     		ldr	r2, [r3]
 4096 0034 1A4B     		ldr	r3, .L233
 4097 0036 9A42     		cmp	r2, r3
 4098 0038 04D0     		beq	.L231
 4099              		.loc 1 2089 0 is_stmt 0 discriminator 1
 4100 003a 7B68     		ldr	r3, [r7, #4]
 4101 003c 1A68     		ldr	r2, [r3]
 4102 003e 194B     		ldr	r3, .L233+4
 4103 0040 9A42     		cmp	r2, r3
 4104 0042 08D1     		bne	.L232
 4105              	.L231:
2090:Drivers/STM32F3xx_HAL_Driver/Src/stm32f3xx_hal_tim_ex.c ****   {
2091:Drivers/STM32F3xx_HAL_Driver/Src/stm32f3xx_hal_tim_ex.c ****     /* Check the parameters */
2092:Drivers/STM32F3xx_HAL_Driver/Src/stm32f3xx_hal_tim_ex.c ****     assert_param(IS_TIM_TRGO2_SOURCE(sMasterConfig->MasterOutputTrigger2));
2093:Drivers/STM32F3xx_HAL_Driver/Src/stm32f3xx_hal_tim_ex.c ****     
2094:Drivers/STM32F3xx_HAL_Driver/Src/stm32f3xx_hal_tim_ex.c ****     /* Clear the MMS2 bits */
2095:Drivers/STM32F3xx_HAL_Driver/Src/stm32f3xx_hal_tim_ex.c ****     tmpcr2 &= ~TIM_CR2_MMS2;
 4106              		.loc 1 2095 0 is_stmt 1
 4107 0044 FB68     		ldr	r3, [r7, #12]
 4108 0046 23F47003 		bic	r3, r3, #15728640
 4109 004a FB60     		str	r3, [r7, #12]
2096:Drivers/STM32F3xx_HAL_Driver/Src/stm32f3xx_hal_tim_ex.c ****     /* Select the TRGO2 source*/
ARM GAS  /tmp/ccRzvoJq.s 			page 109


2097:Drivers/STM32F3xx_HAL_Driver/Src/stm32f3xx_hal_tim_ex.c ****     tmpcr2 |= sMasterConfig->MasterOutputTrigger2;
 4110              		.loc 1 2097 0
 4111 004c 3B68     		ldr	r3, [r7]
 4112 004e 5B68     		ldr	r3, [r3, #4]
 4113 0050 FA68     		ldr	r2, [r7, #12]
 4114 0052 1343     		orrs	r3, r3, r2
 4115 0054 FB60     		str	r3, [r7, #12]
 4116              	.L232:
2098:Drivers/STM32F3xx_HAL_Driver/Src/stm32f3xx_hal_tim_ex.c ****   }
2099:Drivers/STM32F3xx_HAL_Driver/Src/stm32f3xx_hal_tim_ex.c ****   
2100:Drivers/STM32F3xx_HAL_Driver/Src/stm32f3xx_hal_tim_ex.c ****   /* Reset the MMS Bits */
2101:Drivers/STM32F3xx_HAL_Driver/Src/stm32f3xx_hal_tim_ex.c ****   tmpcr2 &= ~TIM_CR2_MMS;
 4117              		.loc 1 2101 0
 4118 0056 FB68     		ldr	r3, [r7, #12]
 4119 0058 23F07003 		bic	r3, r3, #112
 4120 005c FB60     		str	r3, [r7, #12]
2102:Drivers/STM32F3xx_HAL_Driver/Src/stm32f3xx_hal_tim_ex.c ****   /* Select the TRGO source */
2103:Drivers/STM32F3xx_HAL_Driver/Src/stm32f3xx_hal_tim_ex.c ****   tmpcr2 |=  sMasterConfig->MasterOutputTrigger;
 4121              		.loc 1 2103 0
 4122 005e 3B68     		ldr	r3, [r7]
 4123 0060 1B68     		ldr	r3, [r3]
 4124 0062 FA68     		ldr	r2, [r7, #12]
 4125 0064 1343     		orrs	r3, r3, r2
 4126 0066 FB60     		str	r3, [r7, #12]
2104:Drivers/STM32F3xx_HAL_Driver/Src/stm32f3xx_hal_tim_ex.c **** 
2105:Drivers/STM32F3xx_HAL_Driver/Src/stm32f3xx_hal_tim_ex.c ****   /* Reset the MSM Bit */
2106:Drivers/STM32F3xx_HAL_Driver/Src/stm32f3xx_hal_tim_ex.c ****   tmpsmcr &= ~TIM_SMCR_MSM;
 4127              		.loc 1 2106 0
 4128 0068 BB68     		ldr	r3, [r7, #8]
 4129 006a 23F08003 		bic	r3, r3, #128
 4130 006e BB60     		str	r3, [r7, #8]
2107:Drivers/STM32F3xx_HAL_Driver/Src/stm32f3xx_hal_tim_ex.c ****   /* Set master mode */
2108:Drivers/STM32F3xx_HAL_Driver/Src/stm32f3xx_hal_tim_ex.c ****   tmpsmcr |= sMasterConfig->MasterSlaveMode;
 4131              		.loc 1 2108 0
 4132 0070 3B68     		ldr	r3, [r7]
 4133 0072 9B68     		ldr	r3, [r3, #8]
 4134 0074 BA68     		ldr	r2, [r7, #8]
 4135 0076 1343     		orrs	r3, r3, r2
 4136 0078 BB60     		str	r3, [r7, #8]
2109:Drivers/STM32F3xx_HAL_Driver/Src/stm32f3xx_hal_tim_ex.c ****   
2110:Drivers/STM32F3xx_HAL_Driver/Src/stm32f3xx_hal_tim_ex.c ****   /* Update TIMx CR2 */
2111:Drivers/STM32F3xx_HAL_Driver/Src/stm32f3xx_hal_tim_ex.c ****   htim->Instance->CR2 = tmpcr2;
 4137              		.loc 1 2111 0
 4138 007a 7B68     		ldr	r3, [r7, #4]
 4139 007c 1B68     		ldr	r3, [r3]
 4140 007e FA68     		ldr	r2, [r7, #12]
 4141 0080 5A60     		str	r2, [r3, #4]
2112:Drivers/STM32F3xx_HAL_Driver/Src/stm32f3xx_hal_tim_ex.c ****   
2113:Drivers/STM32F3xx_HAL_Driver/Src/stm32f3xx_hal_tim_ex.c ****   /* Update TIMx SMCR */
2114:Drivers/STM32F3xx_HAL_Driver/Src/stm32f3xx_hal_tim_ex.c ****   htim->Instance->SMCR = tmpsmcr;
 4142              		.loc 1 2114 0
 4143 0082 7B68     		ldr	r3, [r7, #4]
 4144 0084 1B68     		ldr	r3, [r3]
 4145 0086 BA68     		ldr	r2, [r7, #8]
 4146 0088 9A60     		str	r2, [r3, #8]
2115:Drivers/STM32F3xx_HAL_Driver/Src/stm32f3xx_hal_tim_ex.c **** 
2116:Drivers/STM32F3xx_HAL_Driver/Src/stm32f3xx_hal_tim_ex.c ****   __HAL_UNLOCK(htim);
ARM GAS  /tmp/ccRzvoJq.s 			page 110


 4147              		.loc 1 2116 0
 4148 008a 7B68     		ldr	r3, [r7, #4]
 4149 008c 0022     		movs	r2, #0
 4150 008e 83F83820 		strb	r2, [r3, #56]
2117:Drivers/STM32F3xx_HAL_Driver/Src/stm32f3xx_hal_tim_ex.c ****   
2118:Drivers/STM32F3xx_HAL_Driver/Src/stm32f3xx_hal_tim_ex.c ****   return HAL_OK;
 4151              		.loc 1 2118 0
 4152 0092 0023     		movs	r3, #0
 4153              	.L230:
2119:Drivers/STM32F3xx_HAL_Driver/Src/stm32f3xx_hal_tim_ex.c **** } 
 4154              		.loc 1 2119 0
 4155 0094 1846     		mov	r0, r3
 4156 0096 1437     		adds	r7, r7, #20
 4157 0098 BD46     		mov	sp, r7
 4158              		@ sp needed
 4159 009a 5DF8047B 		ldr	r7, [sp], #4
 4160 009e 7047     		bx	lr
 4161              	.L234:
 4162              		.align	2
 4163              	.L233:
 4164 00a0 002C0140 		.word	1073818624
 4165 00a4 00340140 		.word	1073820672
 4166              		.cfi_endproc
 4167              	.LFE157:
 4169              		.section	.text.HAL_TIMEx_ConfigBreakDeadTime,"ax",%progbits
 4170              		.align	2
 4171              		.global	HAL_TIMEx_ConfigBreakDeadTime
 4172              		.thumb
 4173              		.thumb_func
 4175              	HAL_TIMEx_ConfigBreakDeadTime:
 4176              	.LFB158:
2120:Drivers/STM32F3xx_HAL_Driver/Src/stm32f3xx_hal_tim_ex.c **** #endif /* STM32F302xE || STM32F303xE || STM32F398xx || */
2121:Drivers/STM32F3xx_HAL_Driver/Src/stm32f3xx_hal_tim_ex.c ****        /* STM32F302xC || STM32F303xC || STM32F358xx || */
2122:Drivers/STM32F3xx_HAL_Driver/Src/stm32f3xx_hal_tim_ex.c ****        /* STM32F303x8 || STM32F334x8 || STM32F328xx || */
2123:Drivers/STM32F3xx_HAL_Driver/Src/stm32f3xx_hal_tim_ex.c ****        /* STM32F301x8 || STM32F302x8 || STM32F318xx    */
2124:Drivers/STM32F3xx_HAL_Driver/Src/stm32f3xx_hal_tim_ex.c **** 
2125:Drivers/STM32F3xx_HAL_Driver/Src/stm32f3xx_hal_tim_ex.c **** #if defined(STM32F373xC) || defined(STM32F378xx)
2126:Drivers/STM32F3xx_HAL_Driver/Src/stm32f3xx_hal_tim_ex.c **** /**
2127:Drivers/STM32F3xx_HAL_Driver/Src/stm32f3xx_hal_tim_ex.c ****   * @brief  Configures the TIM in master mode.
2128:Drivers/STM32F3xx_HAL_Driver/Src/stm32f3xx_hal_tim_ex.c ****   * @param  htim: TIM handle.   
2129:Drivers/STM32F3xx_HAL_Driver/Src/stm32f3xx_hal_tim_ex.c ****   * @param  sMasterConfig: pointer to a TIM_MasterConfigTypeDef structure that
2130:Drivers/STM32F3xx_HAL_Driver/Src/stm32f3xx_hal_tim_ex.c ****   *         contains the selected trigger output (TRGO) and the Master/Slave 
2131:Drivers/STM32F3xx_HAL_Driver/Src/stm32f3xx_hal_tim_ex.c ****   *         mode. 
2132:Drivers/STM32F3xx_HAL_Driver/Src/stm32f3xx_hal_tim_ex.c ****   * @retval HAL status
2133:Drivers/STM32F3xx_HAL_Driver/Src/stm32f3xx_hal_tim_ex.c ****   */
2134:Drivers/STM32F3xx_HAL_Driver/Src/stm32f3xx_hal_tim_ex.c **** HAL_StatusTypeDef HAL_TIMEx_MasterConfigSynchronization(TIM_HandleTypeDef *htim, TIM_MasterConfigTy
2135:Drivers/STM32F3xx_HAL_Driver/Src/stm32f3xx_hal_tim_ex.c **** {
2136:Drivers/STM32F3xx_HAL_Driver/Src/stm32f3xx_hal_tim_ex.c ****   /* Check the parameters */
2137:Drivers/STM32F3xx_HAL_Driver/Src/stm32f3xx_hal_tim_ex.c ****   assert_param(IS_TIM_MASTER_INSTANCE(htim->Instance));
2138:Drivers/STM32F3xx_HAL_Driver/Src/stm32f3xx_hal_tim_ex.c ****   assert_param(IS_TIM_TRGO_SOURCE(sMasterConfig->MasterOutputTrigger));
2139:Drivers/STM32F3xx_HAL_Driver/Src/stm32f3xx_hal_tim_ex.c ****   assert_param(IS_TIM_MSM_STATE(sMasterConfig->MasterSlaveMode));
2140:Drivers/STM32F3xx_HAL_Driver/Src/stm32f3xx_hal_tim_ex.c ****   
2141:Drivers/STM32F3xx_HAL_Driver/Src/stm32f3xx_hal_tim_ex.c ****   __HAL_LOCK(htim);
2142:Drivers/STM32F3xx_HAL_Driver/Src/stm32f3xx_hal_tim_ex.c **** 
2143:Drivers/STM32F3xx_HAL_Driver/Src/stm32f3xx_hal_tim_ex.c ****   htim->State = HAL_TIM_STATE_BUSY;
2144:Drivers/STM32F3xx_HAL_Driver/Src/stm32f3xx_hal_tim_ex.c **** 
2145:Drivers/STM32F3xx_HAL_Driver/Src/stm32f3xx_hal_tim_ex.c ****   /* Reset the MMS Bits */
ARM GAS  /tmp/ccRzvoJq.s 			page 111


2146:Drivers/STM32F3xx_HAL_Driver/Src/stm32f3xx_hal_tim_ex.c ****   htim->Instance->CR2 &= ~TIM_CR2_MMS;
2147:Drivers/STM32F3xx_HAL_Driver/Src/stm32f3xx_hal_tim_ex.c ****   /* Select the TRGO source */
2148:Drivers/STM32F3xx_HAL_Driver/Src/stm32f3xx_hal_tim_ex.c ****   htim->Instance->CR2 |=  sMasterConfig->MasterOutputTrigger;
2149:Drivers/STM32F3xx_HAL_Driver/Src/stm32f3xx_hal_tim_ex.c **** 
2150:Drivers/STM32F3xx_HAL_Driver/Src/stm32f3xx_hal_tim_ex.c ****   /* Reset the MSM Bit */
2151:Drivers/STM32F3xx_HAL_Driver/Src/stm32f3xx_hal_tim_ex.c ****   htim->Instance->SMCR &= ~TIM_SMCR_MSM;
2152:Drivers/STM32F3xx_HAL_Driver/Src/stm32f3xx_hal_tim_ex.c ****   /* Set or Reset the MSM Bit */
2153:Drivers/STM32F3xx_HAL_Driver/Src/stm32f3xx_hal_tim_ex.c ****   htim->Instance->SMCR |= sMasterConfig->MasterSlaveMode;
2154:Drivers/STM32F3xx_HAL_Driver/Src/stm32f3xx_hal_tim_ex.c ****   
2155:Drivers/STM32F3xx_HAL_Driver/Src/stm32f3xx_hal_tim_ex.c ****   htim->State = HAL_TIM_STATE_READY;
2156:Drivers/STM32F3xx_HAL_Driver/Src/stm32f3xx_hal_tim_ex.c ****   
2157:Drivers/STM32F3xx_HAL_Driver/Src/stm32f3xx_hal_tim_ex.c ****   __HAL_UNLOCK(htim);
2158:Drivers/STM32F3xx_HAL_Driver/Src/stm32f3xx_hal_tim_ex.c ****   
2159:Drivers/STM32F3xx_HAL_Driver/Src/stm32f3xx_hal_tim_ex.c ****   return HAL_OK;
2160:Drivers/STM32F3xx_HAL_Driver/Src/stm32f3xx_hal_tim_ex.c **** }
2161:Drivers/STM32F3xx_HAL_Driver/Src/stm32f3xx_hal_tim_ex.c **** #endif /* STM32F373xC || STM32F378xx */
2162:Drivers/STM32F3xx_HAL_Driver/Src/stm32f3xx_hal_tim_ex.c **** 
2163:Drivers/STM32F3xx_HAL_Driver/Src/stm32f3xx_hal_tim_ex.c **** #if defined(STM32F302xE) || defined(STM32F303xE) || defined(STM32F398xx) || \
2164:Drivers/STM32F3xx_HAL_Driver/Src/stm32f3xx_hal_tim_ex.c ****     defined(STM32F302xC) || defined(STM32F303xC) || defined(STM32F358xx) || \
2165:Drivers/STM32F3xx_HAL_Driver/Src/stm32f3xx_hal_tim_ex.c ****     defined(STM32F303x8) || defined(STM32F334x8) || defined(STM32F328xx) || \
2166:Drivers/STM32F3xx_HAL_Driver/Src/stm32f3xx_hal_tim_ex.c ****     defined(STM32F301x8) || defined(STM32F302x8) || defined(STM32F318xx)
2167:Drivers/STM32F3xx_HAL_Driver/Src/stm32f3xx_hal_tim_ex.c **** /**
2168:Drivers/STM32F3xx_HAL_Driver/Src/stm32f3xx_hal_tim_ex.c ****   * @brief   Configures the Break feature, dead time, Lock level, OSSI/OSSR State
2169:Drivers/STM32F3xx_HAL_Driver/Src/stm32f3xx_hal_tim_ex.c ****   *         and the AOE(automatic output enable).
2170:Drivers/STM32F3xx_HAL_Driver/Src/stm32f3xx_hal_tim_ex.c ****   * @param  htim: TIM handle
2171:Drivers/STM32F3xx_HAL_Driver/Src/stm32f3xx_hal_tim_ex.c ****   * @param  sBreakDeadTimeConfig: pointer to a TIM_ConfigBreakDeadConfigTypeDef 
2172:Drivers/STM32F3xx_HAL_Driver/Src/stm32f3xx_hal_tim_ex.c ****             structure that contains the BDTR Register configuration information
2173:Drivers/STM32F3xx_HAL_Driver/Src/stm32f3xx_hal_tim_ex.c ****             for the TIM peripheral. 
2174:Drivers/STM32F3xx_HAL_Driver/Src/stm32f3xx_hal_tim_ex.c ****   * @note   For STM32F302xC, STM32F302xE, STM32F303xC, STM32F358xx, STM32F303xE,
2175:Drivers/STM32F3xx_HAL_Driver/Src/stm32f3xx_hal_tim_ex.c ****             STM32F398xx and STM32F303x8 two break inputs can be configured.
2176:Drivers/STM32F3xx_HAL_Driver/Src/stm32f3xx_hal_tim_ex.c ****   * @retval HAL status
2177:Drivers/STM32F3xx_HAL_Driver/Src/stm32f3xx_hal_tim_ex.c ****   */
2178:Drivers/STM32F3xx_HAL_Driver/Src/stm32f3xx_hal_tim_ex.c **** HAL_StatusTypeDef HAL_TIMEx_ConfigBreakDeadTime(TIM_HandleTypeDef *htim, 
2179:Drivers/STM32F3xx_HAL_Driver/Src/stm32f3xx_hal_tim_ex.c ****                                                 TIM_BreakDeadTimeConfigTypeDef * sBreakDeadTimeConf
2180:Drivers/STM32F3xx_HAL_Driver/Src/stm32f3xx_hal_tim_ex.c **** {
 4177              		.loc 1 2180 0
 4178              		.cfi_startproc
 4179              		@ args = 0, pretend = 0, frame = 16
 4180              		@ frame_needed = 1, uses_anonymous_args = 0
 4181              		@ link register save eliminated.
 4182 0000 80B4     		push	{r7}
 4183              	.LCFI99:
 4184              		.cfi_def_cfa_offset 4
 4185              		.cfi_offset 7, -4
 4186 0002 85B0     		sub	sp, sp, #20
 4187              	.LCFI100:
 4188              		.cfi_def_cfa_offset 24
 4189 0004 00AF     		add	r7, sp, #0
 4190              	.LCFI101:
 4191              		.cfi_def_cfa_register 7
 4192 0006 7860     		str	r0, [r7, #4]
 4193 0008 3960     		str	r1, [r7]
2181:Drivers/STM32F3xx_HAL_Driver/Src/stm32f3xx_hal_tim_ex.c ****   uint32_t tmpbdtr = 0;
 4194              		.loc 1 2181 0
 4195 000a 0023     		movs	r3, #0
 4196 000c FB60     		str	r3, [r7, #12]
2182:Drivers/STM32F3xx_HAL_Driver/Src/stm32f3xx_hal_tim_ex.c ****   
ARM GAS  /tmp/ccRzvoJq.s 			page 112


2183:Drivers/STM32F3xx_HAL_Driver/Src/stm32f3xx_hal_tim_ex.c ****   /* Check the parameters */
2184:Drivers/STM32F3xx_HAL_Driver/Src/stm32f3xx_hal_tim_ex.c ****   assert_param(IS_TIM_BREAK_INSTANCE(htim->Instance));
2185:Drivers/STM32F3xx_HAL_Driver/Src/stm32f3xx_hal_tim_ex.c ****   assert_param(IS_TIM_OSSR_STATE(sBreakDeadTimeConfig->OffStateRunMode));
2186:Drivers/STM32F3xx_HAL_Driver/Src/stm32f3xx_hal_tim_ex.c ****   assert_param(IS_TIM_OSSI_STATE(sBreakDeadTimeConfig->OffStateIDLEMode));
2187:Drivers/STM32F3xx_HAL_Driver/Src/stm32f3xx_hal_tim_ex.c ****   assert_param(IS_TIM_LOCK_LEVEL(sBreakDeadTimeConfig->LockLevel));
2188:Drivers/STM32F3xx_HAL_Driver/Src/stm32f3xx_hal_tim_ex.c ****   assert_param(IS_TIM_DEADTIME(sBreakDeadTimeConfig->DeadTime));
2189:Drivers/STM32F3xx_HAL_Driver/Src/stm32f3xx_hal_tim_ex.c ****   assert_param(IS_TIM_BREAK_STATE(sBreakDeadTimeConfig->BreakState));
2190:Drivers/STM32F3xx_HAL_Driver/Src/stm32f3xx_hal_tim_ex.c ****   assert_param(IS_TIM_BREAK_POLARITY(sBreakDeadTimeConfig->BreakPolarity));
2191:Drivers/STM32F3xx_HAL_Driver/Src/stm32f3xx_hal_tim_ex.c ****   assert_param(IS_TIM_BREAK_FILTER(sBreakDeadTimeConfig->BreakFilter));
2192:Drivers/STM32F3xx_HAL_Driver/Src/stm32f3xx_hal_tim_ex.c ****   assert_param(IS_TIM_AUTOMATIC_OUTPUT_STATE(sBreakDeadTimeConfig->AutomaticOutput));
2193:Drivers/STM32F3xx_HAL_Driver/Src/stm32f3xx_hal_tim_ex.c ****   
2194:Drivers/STM32F3xx_HAL_Driver/Src/stm32f3xx_hal_tim_ex.c ****   /* Check input state */
2195:Drivers/STM32F3xx_HAL_Driver/Src/stm32f3xx_hal_tim_ex.c ****   __HAL_LOCK(htim);
 4197              		.loc 1 2195 0
 4198 000e 7B68     		ldr	r3, [r7, #4]
 4199 0010 93F83830 		ldrb	r3, [r3, #56]	@ zero_extendqisi2
 4200 0014 012B     		cmp	r3, #1
 4201 0016 01D1     		bne	.L236
 4202              		.loc 1 2195 0 is_stmt 0 discriminator 1
 4203 0018 0223     		movs	r3, #2
 4204 001a 81E0     		b	.L237
 4205              	.L236:
 4206              		.loc 1 2195 0 discriminator 2
 4207 001c 7B68     		ldr	r3, [r7, #4]
 4208 001e 0122     		movs	r2, #1
 4209 0020 83F83820 		strb	r2, [r3, #56]
2196:Drivers/STM32F3xx_HAL_Driver/Src/stm32f3xx_hal_tim_ex.c **** 
2197:Drivers/STM32F3xx_HAL_Driver/Src/stm32f3xx_hal_tim_ex.c ****   /* Set the Lock level, the Break enable Bit and the Polarity, the OSSR State,
2198:Drivers/STM32F3xx_HAL_Driver/Src/stm32f3xx_hal_tim_ex.c ****      the OSSI State, the dead time value and the Automatic Output Enable Bit */
2199:Drivers/STM32F3xx_HAL_Driver/Src/stm32f3xx_hal_tim_ex.c ****   if (IS_TIM_BKIN2_INSTANCE(htim->Instance))
 4210              		.loc 1 2199 0 is_stmt 1 discriminator 2
 4211 0024 7B68     		ldr	r3, [r7, #4]
 4212 0026 1A68     		ldr	r2, [r3]
 4213 0028 404B     		ldr	r3, .L241
 4214 002a 9A42     		cmp	r2, r3
 4215 002c 04D0     		beq	.L238
 4216              		.loc 1 2199 0 is_stmt 0 discriminator 1
 4217 002e 7B68     		ldr	r3, [r7, #4]
 4218 0030 1A68     		ldr	r2, [r3]
 4219 0032 3F4B     		ldr	r3, .L241+4
 4220 0034 9A42     		cmp	r2, r3
 4221 0036 3DD1     		bne	.L239
 4222              	.L238:
2200:Drivers/STM32F3xx_HAL_Driver/Src/stm32f3xx_hal_tim_ex.c ****   {
2201:Drivers/STM32F3xx_HAL_Driver/Src/stm32f3xx_hal_tim_ex.c ****     assert_param(IS_TIM_BREAK2_STATE(sBreakDeadTimeConfig->Break2State));
2202:Drivers/STM32F3xx_HAL_Driver/Src/stm32f3xx_hal_tim_ex.c ****     assert_param(IS_TIM_BREAK2_POLARITY(sBreakDeadTimeConfig->Break2Polarity));
2203:Drivers/STM32F3xx_HAL_Driver/Src/stm32f3xx_hal_tim_ex.c ****     assert_param(IS_TIM_BREAK_FILTER(sBreakDeadTimeConfig->Break2Filter));
2204:Drivers/STM32F3xx_HAL_Driver/Src/stm32f3xx_hal_tim_ex.c ****     
2205:Drivers/STM32F3xx_HAL_Driver/Src/stm32f3xx_hal_tim_ex.c ****     /* Clear the BDTR bits */
2206:Drivers/STM32F3xx_HAL_Driver/Src/stm32f3xx_hal_tim_ex.c ****     tmpbdtr &= ~(TIM_BDTR_DTG | TIM_BDTR_LOCK |  TIM_BDTR_OSSI | 
 4223              		.loc 1 2206 0 is_stmt 1
 4224 0038 FB68     		ldr	r3, [r7, #12]
 4225 003a 03F07C43 		and	r3, r3, #-67108864
 4226 003e FB60     		str	r3, [r7, #12]
2207:Drivers/STM32F3xx_HAL_Driver/Src/stm32f3xx_hal_tim_ex.c ****                  TIM_BDTR_OSSR | TIM_BDTR_BKE | TIM_BDTR_BKP | 
2208:Drivers/STM32F3xx_HAL_Driver/Src/stm32f3xx_hal_tim_ex.c ****                  TIM_BDTR_AOE | TIM_BDTR_MOE | TIM_BDTR_BKF |
2209:Drivers/STM32F3xx_HAL_Driver/Src/stm32f3xx_hal_tim_ex.c ****                  TIM_BDTR_BK2F | TIM_BDTR_BK2E | TIM_BDTR_BK2P);
ARM GAS  /tmp/ccRzvoJq.s 			page 113


2210:Drivers/STM32F3xx_HAL_Driver/Src/stm32f3xx_hal_tim_ex.c **** 
2211:Drivers/STM32F3xx_HAL_Driver/Src/stm32f3xx_hal_tim_ex.c ****     /* Set the BDTR bits */
2212:Drivers/STM32F3xx_HAL_Driver/Src/stm32f3xx_hal_tim_ex.c ****     tmpbdtr |= sBreakDeadTimeConfig->DeadTime;
 4227              		.loc 1 2212 0
 4228 0040 3B68     		ldr	r3, [r7]
 4229 0042 DB68     		ldr	r3, [r3, #12]
 4230 0044 FA68     		ldr	r2, [r7, #12]
 4231 0046 1343     		orrs	r3, r3, r2
 4232 0048 FB60     		str	r3, [r7, #12]
2213:Drivers/STM32F3xx_HAL_Driver/Src/stm32f3xx_hal_tim_ex.c ****     tmpbdtr |= sBreakDeadTimeConfig->LockLevel;
 4233              		.loc 1 2213 0
 4234 004a 3B68     		ldr	r3, [r7]
 4235 004c 9B68     		ldr	r3, [r3, #8]
 4236 004e FA68     		ldr	r2, [r7, #12]
 4237 0050 1343     		orrs	r3, r3, r2
 4238 0052 FB60     		str	r3, [r7, #12]
2214:Drivers/STM32F3xx_HAL_Driver/Src/stm32f3xx_hal_tim_ex.c ****     tmpbdtr |= sBreakDeadTimeConfig->OffStateIDLEMode;
 4239              		.loc 1 2214 0
 4240 0054 3B68     		ldr	r3, [r7]
 4241 0056 5B68     		ldr	r3, [r3, #4]
 4242 0058 FA68     		ldr	r2, [r7, #12]
 4243 005a 1343     		orrs	r3, r3, r2
 4244 005c FB60     		str	r3, [r7, #12]
2215:Drivers/STM32F3xx_HAL_Driver/Src/stm32f3xx_hal_tim_ex.c ****     tmpbdtr |= sBreakDeadTimeConfig->OffStateRunMode;
 4245              		.loc 1 2215 0
 4246 005e 3B68     		ldr	r3, [r7]
 4247 0060 1B68     		ldr	r3, [r3]
 4248 0062 FA68     		ldr	r2, [r7, #12]
 4249 0064 1343     		orrs	r3, r3, r2
 4250 0066 FB60     		str	r3, [r7, #12]
2216:Drivers/STM32F3xx_HAL_Driver/Src/stm32f3xx_hal_tim_ex.c ****     tmpbdtr |= sBreakDeadTimeConfig->BreakState;
 4251              		.loc 1 2216 0
 4252 0068 3B68     		ldr	r3, [r7]
 4253 006a 1B69     		ldr	r3, [r3, #16]
 4254 006c FA68     		ldr	r2, [r7, #12]
 4255 006e 1343     		orrs	r3, r3, r2
 4256 0070 FB60     		str	r3, [r7, #12]
2217:Drivers/STM32F3xx_HAL_Driver/Src/stm32f3xx_hal_tim_ex.c ****     tmpbdtr |= sBreakDeadTimeConfig->BreakPolarity;
 4257              		.loc 1 2217 0
 4258 0072 3B68     		ldr	r3, [r7]
 4259 0074 5B69     		ldr	r3, [r3, #20]
 4260 0076 FA68     		ldr	r2, [r7, #12]
 4261 0078 1343     		orrs	r3, r3, r2
 4262 007a FB60     		str	r3, [r7, #12]
2218:Drivers/STM32F3xx_HAL_Driver/Src/stm32f3xx_hal_tim_ex.c ****     tmpbdtr |= sBreakDeadTimeConfig->AutomaticOutput;
 4263              		.loc 1 2218 0
 4264 007c 3B68     		ldr	r3, [r7]
 4265 007e 9B6A     		ldr	r3, [r3, #40]
 4266 0080 FA68     		ldr	r2, [r7, #12]
 4267 0082 1343     		orrs	r3, r3, r2
 4268 0084 FB60     		str	r3, [r7, #12]
2219:Drivers/STM32F3xx_HAL_Driver/Src/stm32f3xx_hal_tim_ex.c ****     tmpbdtr |= (sBreakDeadTimeConfig->BreakFilter << BDTR_BKF_SHIFT);
 4269              		.loc 1 2219 0
 4270 0086 3B68     		ldr	r3, [r7]
 4271 0088 9B69     		ldr	r3, [r3, #24]
 4272 008a 1B04     		lsls	r3, r3, #16
 4273 008c FA68     		ldr	r2, [r7, #12]
ARM GAS  /tmp/ccRzvoJq.s 			page 114


 4274 008e 1343     		orrs	r3, r3, r2
 4275 0090 FB60     		str	r3, [r7, #12]
2220:Drivers/STM32F3xx_HAL_Driver/Src/stm32f3xx_hal_tim_ex.c ****     tmpbdtr |= (sBreakDeadTimeConfig->Break2Filter << BDTR_BK2F_SHIFT);
 4276              		.loc 1 2220 0
 4277 0092 3B68     		ldr	r3, [r7]
 4278 0094 5B6A     		ldr	r3, [r3, #36]
 4279 0096 1B05     		lsls	r3, r3, #20
 4280 0098 FA68     		ldr	r2, [r7, #12]
 4281 009a 1343     		orrs	r3, r3, r2
 4282 009c FB60     		str	r3, [r7, #12]
2221:Drivers/STM32F3xx_HAL_Driver/Src/stm32f3xx_hal_tim_ex.c ****     tmpbdtr |= sBreakDeadTimeConfig->Break2State;
 4283              		.loc 1 2221 0
 4284 009e 3B68     		ldr	r3, [r7]
 4285 00a0 DB69     		ldr	r3, [r3, #28]
 4286 00a2 FA68     		ldr	r2, [r7, #12]
 4287 00a4 1343     		orrs	r3, r3, r2
 4288 00a6 FB60     		str	r3, [r7, #12]
2222:Drivers/STM32F3xx_HAL_Driver/Src/stm32f3xx_hal_tim_ex.c ****     tmpbdtr |= sBreakDeadTimeConfig->Break2Polarity;
 4289              		.loc 1 2222 0
 4290 00a8 3B68     		ldr	r3, [r7]
 4291 00aa 1B6A     		ldr	r3, [r3, #32]
 4292 00ac FA68     		ldr	r2, [r7, #12]
 4293 00ae 1343     		orrs	r3, r3, r2
 4294 00b0 FB60     		str	r3, [r7, #12]
 4295 00b2 2CE0     		b	.L240
 4296              	.L239:
2223:Drivers/STM32F3xx_HAL_Driver/Src/stm32f3xx_hal_tim_ex.c ****   }
2224:Drivers/STM32F3xx_HAL_Driver/Src/stm32f3xx_hal_tim_ex.c ****   else
2225:Drivers/STM32F3xx_HAL_Driver/Src/stm32f3xx_hal_tim_ex.c ****   {
2226:Drivers/STM32F3xx_HAL_Driver/Src/stm32f3xx_hal_tim_ex.c ****     /* Clear the BDTR bits */
2227:Drivers/STM32F3xx_HAL_Driver/Src/stm32f3xx_hal_tim_ex.c ****     tmpbdtr &= ~(TIM_BDTR_DTG | TIM_BDTR_LOCK |  TIM_BDTR_OSSI | 
 4297              		.loc 1 2227 0
 4298 00b4 FB68     		ldr	r3, [r7, #12]
 4299 00b6 1B0D     		lsrs	r3, r3, #20
 4300 00b8 1B05     		lsls	r3, r3, #20
 4301 00ba FB60     		str	r3, [r7, #12]
2228:Drivers/STM32F3xx_HAL_Driver/Src/stm32f3xx_hal_tim_ex.c ****                  TIM_BDTR_OSSR | TIM_BDTR_BKE | TIM_BDTR_BKP | 
2229:Drivers/STM32F3xx_HAL_Driver/Src/stm32f3xx_hal_tim_ex.c ****                  TIM_BDTR_AOE | TIM_BDTR_MOE | TIM_BDTR_BKF);
2230:Drivers/STM32F3xx_HAL_Driver/Src/stm32f3xx_hal_tim_ex.c ****     
2231:Drivers/STM32F3xx_HAL_Driver/Src/stm32f3xx_hal_tim_ex.c ****     /* Set the BDTR bits */
2232:Drivers/STM32F3xx_HAL_Driver/Src/stm32f3xx_hal_tim_ex.c ****     tmpbdtr |= sBreakDeadTimeConfig->DeadTime;
 4302              		.loc 1 2232 0
 4303 00bc 3B68     		ldr	r3, [r7]
 4304 00be DB68     		ldr	r3, [r3, #12]
 4305 00c0 FA68     		ldr	r2, [r7, #12]
 4306 00c2 1343     		orrs	r3, r3, r2
 4307 00c4 FB60     		str	r3, [r7, #12]
2233:Drivers/STM32F3xx_HAL_Driver/Src/stm32f3xx_hal_tim_ex.c ****     tmpbdtr |= sBreakDeadTimeConfig->LockLevel;
 4308              		.loc 1 2233 0
 4309 00c6 3B68     		ldr	r3, [r7]
 4310 00c8 9B68     		ldr	r3, [r3, #8]
 4311 00ca FA68     		ldr	r2, [r7, #12]
 4312 00cc 1343     		orrs	r3, r3, r2
 4313 00ce FB60     		str	r3, [r7, #12]
2234:Drivers/STM32F3xx_HAL_Driver/Src/stm32f3xx_hal_tim_ex.c ****     tmpbdtr |= sBreakDeadTimeConfig->OffStateIDLEMode;
 4314              		.loc 1 2234 0
 4315 00d0 3B68     		ldr	r3, [r7]
ARM GAS  /tmp/ccRzvoJq.s 			page 115


 4316 00d2 5B68     		ldr	r3, [r3, #4]
 4317 00d4 FA68     		ldr	r2, [r7, #12]
 4318 00d6 1343     		orrs	r3, r3, r2
 4319 00d8 FB60     		str	r3, [r7, #12]
2235:Drivers/STM32F3xx_HAL_Driver/Src/stm32f3xx_hal_tim_ex.c ****     tmpbdtr |= sBreakDeadTimeConfig->OffStateRunMode;
 4320              		.loc 1 2235 0
 4321 00da 3B68     		ldr	r3, [r7]
 4322 00dc 1B68     		ldr	r3, [r3]
 4323 00de FA68     		ldr	r2, [r7, #12]
 4324 00e0 1343     		orrs	r3, r3, r2
 4325 00e2 FB60     		str	r3, [r7, #12]
2236:Drivers/STM32F3xx_HAL_Driver/Src/stm32f3xx_hal_tim_ex.c ****     tmpbdtr |= sBreakDeadTimeConfig->BreakState;
 4326              		.loc 1 2236 0
 4327 00e4 3B68     		ldr	r3, [r7]
 4328 00e6 1B69     		ldr	r3, [r3, #16]
 4329 00e8 FA68     		ldr	r2, [r7, #12]
 4330 00ea 1343     		orrs	r3, r3, r2
 4331 00ec FB60     		str	r3, [r7, #12]
2237:Drivers/STM32F3xx_HAL_Driver/Src/stm32f3xx_hal_tim_ex.c ****     tmpbdtr |= sBreakDeadTimeConfig->BreakPolarity;
 4332              		.loc 1 2237 0
 4333 00ee 3B68     		ldr	r3, [r7]
 4334 00f0 5B69     		ldr	r3, [r3, #20]
 4335 00f2 FA68     		ldr	r2, [r7, #12]
 4336 00f4 1343     		orrs	r3, r3, r2
 4337 00f6 FB60     		str	r3, [r7, #12]
2238:Drivers/STM32F3xx_HAL_Driver/Src/stm32f3xx_hal_tim_ex.c ****     tmpbdtr |= sBreakDeadTimeConfig->AutomaticOutput;
 4338              		.loc 1 2238 0
 4339 00f8 3B68     		ldr	r3, [r7]
 4340 00fa 9B6A     		ldr	r3, [r3, #40]
 4341 00fc FA68     		ldr	r2, [r7, #12]
 4342 00fe 1343     		orrs	r3, r3, r2
 4343 0100 FB60     		str	r3, [r7, #12]
2239:Drivers/STM32F3xx_HAL_Driver/Src/stm32f3xx_hal_tim_ex.c ****     tmpbdtr |= (sBreakDeadTimeConfig->BreakFilter << BDTR_BKF_SHIFT);
 4344              		.loc 1 2239 0
 4345 0102 3B68     		ldr	r3, [r7]
 4346 0104 9B69     		ldr	r3, [r3, #24]
 4347 0106 1B04     		lsls	r3, r3, #16
 4348 0108 FA68     		ldr	r2, [r7, #12]
 4349 010a 1343     		orrs	r3, r3, r2
 4350 010c FB60     		str	r3, [r7, #12]
 4351              	.L240:
2240:Drivers/STM32F3xx_HAL_Driver/Src/stm32f3xx_hal_tim_ex.c ****   }
2241:Drivers/STM32F3xx_HAL_Driver/Src/stm32f3xx_hal_tim_ex.c ****   
2242:Drivers/STM32F3xx_HAL_Driver/Src/stm32f3xx_hal_tim_ex.c ****   /* Set TIMx_BDTR */
2243:Drivers/STM32F3xx_HAL_Driver/Src/stm32f3xx_hal_tim_ex.c ****   htim->Instance->BDTR = tmpbdtr;
 4352              		.loc 1 2243 0
 4353 010e 7B68     		ldr	r3, [r7, #4]
 4354 0110 1B68     		ldr	r3, [r3]
 4355 0112 FA68     		ldr	r2, [r7, #12]
 4356 0114 5A64     		str	r2, [r3, #68]
2244:Drivers/STM32F3xx_HAL_Driver/Src/stm32f3xx_hal_tim_ex.c ****   
2245:Drivers/STM32F3xx_HAL_Driver/Src/stm32f3xx_hal_tim_ex.c ****   __HAL_UNLOCK(htim);
 4357              		.loc 1 2245 0
 4358 0116 7B68     		ldr	r3, [r7, #4]
 4359 0118 0022     		movs	r2, #0
 4360 011a 83F83820 		strb	r2, [r3, #56]
2246:Drivers/STM32F3xx_HAL_Driver/Src/stm32f3xx_hal_tim_ex.c ****   
ARM GAS  /tmp/ccRzvoJq.s 			page 116


2247:Drivers/STM32F3xx_HAL_Driver/Src/stm32f3xx_hal_tim_ex.c ****   return HAL_OK;
 4361              		.loc 1 2247 0
 4362 011e 0023     		movs	r3, #0
 4363              	.L237:
2248:Drivers/STM32F3xx_HAL_Driver/Src/stm32f3xx_hal_tim_ex.c **** }
 4364              		.loc 1 2248 0
 4365 0120 1846     		mov	r0, r3
 4366 0122 1437     		adds	r7, r7, #20
 4367 0124 BD46     		mov	sp, r7
 4368              		@ sp needed
 4369 0126 5DF8047B 		ldr	r7, [sp], #4
 4370 012a 7047     		bx	lr
 4371              	.L242:
 4372              		.align	2
 4373              	.L241:
 4374 012c 002C0140 		.word	1073818624
 4375 0130 00340140 		.word	1073820672
 4376              		.cfi_endproc
 4377              	.LFE158:
 4379              		.section	.text.HAL_TIMEx_RemapConfig,"ax",%progbits
 4380              		.align	2
 4381              		.global	HAL_TIMEx_RemapConfig
 4382              		.thumb
 4383              		.thumb_func
 4385              	HAL_TIMEx_RemapConfig:
 4386              	.LFB159:
2249:Drivers/STM32F3xx_HAL_Driver/Src/stm32f3xx_hal_tim_ex.c **** #endif /* STM32F302xE || STM32F303xE || STM32F398xx || */
2250:Drivers/STM32F3xx_HAL_Driver/Src/stm32f3xx_hal_tim_ex.c ****        /* STM32F302xC || STM32F303xC || STM32F358xx || */
2251:Drivers/STM32F3xx_HAL_Driver/Src/stm32f3xx_hal_tim_ex.c ****        /* STM32F303x8 || STM32F334x8 || STM32F328xx || */
2252:Drivers/STM32F3xx_HAL_Driver/Src/stm32f3xx_hal_tim_ex.c ****        /* STM32F301x8 || STM32F302x8 || STM32F318xx    */
2253:Drivers/STM32F3xx_HAL_Driver/Src/stm32f3xx_hal_tim_ex.c **** 
2254:Drivers/STM32F3xx_HAL_Driver/Src/stm32f3xx_hal_tim_ex.c **** #if defined(STM32F373xC) || defined(STM32F378xx)
2255:Drivers/STM32F3xx_HAL_Driver/Src/stm32f3xx_hal_tim_ex.c **** /**
2256:Drivers/STM32F3xx_HAL_Driver/Src/stm32f3xx_hal_tim_ex.c ****   * @brief   Configures the Break feature, dead time, Lock level, OSSI/OSSR State
2257:Drivers/STM32F3xx_HAL_Driver/Src/stm32f3xx_hal_tim_ex.c ****   *          and the AOE(automatic output enable).
2258:Drivers/STM32F3xx_HAL_Driver/Src/stm32f3xx_hal_tim_ex.c ****   * @param  htim: TIM handle
2259:Drivers/STM32F3xx_HAL_Driver/Src/stm32f3xx_hal_tim_ex.c ****   * @param  sBreakDeadTimeConfig: pointer to a TIM_ConfigBreakDeadConfigTypeDef structure that
2260:Drivers/STM32F3xx_HAL_Driver/Src/stm32f3xx_hal_tim_ex.c ****   *         contains the BDTR Register configuration  information for the TIM peripheral. 
2261:Drivers/STM32F3xx_HAL_Driver/Src/stm32f3xx_hal_tim_ex.c ****   * @retval HAL status
2262:Drivers/STM32F3xx_HAL_Driver/Src/stm32f3xx_hal_tim_ex.c ****   */    
2263:Drivers/STM32F3xx_HAL_Driver/Src/stm32f3xx_hal_tim_ex.c **** HAL_StatusTypeDef HAL_TIMEx_ConfigBreakDeadTime(TIM_HandleTypeDef *htim, 
2264:Drivers/STM32F3xx_HAL_Driver/Src/stm32f3xx_hal_tim_ex.c ****                                                 TIM_BreakDeadTimeConfigTypeDef *sBreakDeadTimeConfi
2265:Drivers/STM32F3xx_HAL_Driver/Src/stm32f3xx_hal_tim_ex.c **** {
2266:Drivers/STM32F3xx_HAL_Driver/Src/stm32f3xx_hal_tim_ex.c ****   /* Check the parameters */
2267:Drivers/STM32F3xx_HAL_Driver/Src/stm32f3xx_hal_tim_ex.c ****   assert_param(IS_TIM_BREAK_INSTANCE(htim->Instance));
2268:Drivers/STM32F3xx_HAL_Driver/Src/stm32f3xx_hal_tim_ex.c ****   assert_param(IS_TIM_OSSR_STATE(sBreakDeadTimeConfig->OffStateRunMode));
2269:Drivers/STM32F3xx_HAL_Driver/Src/stm32f3xx_hal_tim_ex.c ****   assert_param(IS_TIM_OSSI_STATE(sBreakDeadTimeConfig->OffStateIDLEMode));
2270:Drivers/STM32F3xx_HAL_Driver/Src/stm32f3xx_hal_tim_ex.c ****   assert_param(IS_TIM_LOCK_LEVEL(sBreakDeadTimeConfig->LockLevel));
2271:Drivers/STM32F3xx_HAL_Driver/Src/stm32f3xx_hal_tim_ex.c ****   assert_param(IS_TIM_DEADTIME(sBreakDeadTimeConfig->DeadTime));
2272:Drivers/STM32F3xx_HAL_Driver/Src/stm32f3xx_hal_tim_ex.c ****   assert_param(IS_TIM_BREAK_STATE(sBreakDeadTimeConfig->BreakState));
2273:Drivers/STM32F3xx_HAL_Driver/Src/stm32f3xx_hal_tim_ex.c ****   assert_param(IS_TIM_BREAK_POLARITY(sBreakDeadTimeConfig->BreakPolarity));
2274:Drivers/STM32F3xx_HAL_Driver/Src/stm32f3xx_hal_tim_ex.c ****   assert_param(IS_TIM_AUTOMATIC_OUTPUT_STATE(sBreakDeadTimeConfig->AutomaticOutput));
2275:Drivers/STM32F3xx_HAL_Driver/Src/stm32f3xx_hal_tim_ex.c ****   
2276:Drivers/STM32F3xx_HAL_Driver/Src/stm32f3xx_hal_tim_ex.c ****   /* Process Locked */
2277:Drivers/STM32F3xx_HAL_Driver/Src/stm32f3xx_hal_tim_ex.c ****   __HAL_LOCK(htim);
2278:Drivers/STM32F3xx_HAL_Driver/Src/stm32f3xx_hal_tim_ex.c ****   
2279:Drivers/STM32F3xx_HAL_Driver/Src/stm32f3xx_hal_tim_ex.c ****   htim->State = HAL_TIM_STATE_BUSY;
ARM GAS  /tmp/ccRzvoJq.s 			page 117


2280:Drivers/STM32F3xx_HAL_Driver/Src/stm32f3xx_hal_tim_ex.c **** 
2281:Drivers/STM32F3xx_HAL_Driver/Src/stm32f3xx_hal_tim_ex.c ****   /* Set the Lock level, the Break enable Bit and the Polarity, the OSSR State,
2282:Drivers/STM32F3xx_HAL_Driver/Src/stm32f3xx_hal_tim_ex.c ****      the OSSI State, the dead time value and the Automatic Output Enable Bit */
2283:Drivers/STM32F3xx_HAL_Driver/Src/stm32f3xx_hal_tim_ex.c ****   htim->Instance->BDTR = (uint32_t)sBreakDeadTimeConfig->OffStateRunMode  | 
2284:Drivers/STM32F3xx_HAL_Driver/Src/stm32f3xx_hal_tim_ex.c ****                                    sBreakDeadTimeConfig->OffStateIDLEMode |
2285:Drivers/STM32F3xx_HAL_Driver/Src/stm32f3xx_hal_tim_ex.c ****                                    sBreakDeadTimeConfig->LockLevel        |
2286:Drivers/STM32F3xx_HAL_Driver/Src/stm32f3xx_hal_tim_ex.c ****                                    sBreakDeadTimeConfig->DeadTime         |
2287:Drivers/STM32F3xx_HAL_Driver/Src/stm32f3xx_hal_tim_ex.c ****                                    sBreakDeadTimeConfig->BreakState       |
2288:Drivers/STM32F3xx_HAL_Driver/Src/stm32f3xx_hal_tim_ex.c ****                                    sBreakDeadTimeConfig->BreakPolarity    |
2289:Drivers/STM32F3xx_HAL_Driver/Src/stm32f3xx_hal_tim_ex.c ****                                    sBreakDeadTimeConfig->AutomaticOutput;
2290:Drivers/STM32F3xx_HAL_Driver/Src/stm32f3xx_hal_tim_ex.c ****   
2291:Drivers/STM32F3xx_HAL_Driver/Src/stm32f3xx_hal_tim_ex.c ****                                    
2292:Drivers/STM32F3xx_HAL_Driver/Src/stm32f3xx_hal_tim_ex.c ****   htim->State = HAL_TIM_STATE_READY;                                 
2293:Drivers/STM32F3xx_HAL_Driver/Src/stm32f3xx_hal_tim_ex.c ****   
2294:Drivers/STM32F3xx_HAL_Driver/Src/stm32f3xx_hal_tim_ex.c ****   __HAL_UNLOCK(htim);
2295:Drivers/STM32F3xx_HAL_Driver/Src/stm32f3xx_hal_tim_ex.c ****   
2296:Drivers/STM32F3xx_HAL_Driver/Src/stm32f3xx_hal_tim_ex.c ****   return HAL_OK;
2297:Drivers/STM32F3xx_HAL_Driver/Src/stm32f3xx_hal_tim_ex.c **** }
2298:Drivers/STM32F3xx_HAL_Driver/Src/stm32f3xx_hal_tim_ex.c **** #endif /* STM32F373xC || STM32F378xx */
2299:Drivers/STM32F3xx_HAL_Driver/Src/stm32f3xx_hal_tim_ex.c **** 
2300:Drivers/STM32F3xx_HAL_Driver/Src/stm32f3xx_hal_tim_ex.c **** #if defined(STM32F303xE) || defined(STM32F398xx) || \
2301:Drivers/STM32F3xx_HAL_Driver/Src/stm32f3xx_hal_tim_ex.c ****     defined(STM32F303xC) || defined(STM32F358xx)
2302:Drivers/STM32F3xx_HAL_Driver/Src/stm32f3xx_hal_tim_ex.c **** #if defined(STM32F303xE) || defined(STM32F398xx)
2303:Drivers/STM32F3xx_HAL_Driver/Src/stm32f3xx_hal_tim_ex.c **** /**
2304:Drivers/STM32F3xx_HAL_Driver/Src/stm32f3xx_hal_tim_ex.c ****   * @brief  Configures the TIM1, TIM8, TIM16 and TIM20 Remapping input capabilities.
2305:Drivers/STM32F3xx_HAL_Driver/Src/stm32f3xx_hal_tim_ex.c ****   * @param  htim: TIM handle.
2306:Drivers/STM32F3xx_HAL_Driver/Src/stm32f3xx_hal_tim_ex.c ****   * @param  Remap1: specifies the first TIM remapping source.
2307:Drivers/STM32F3xx_HAL_Driver/Src/stm32f3xx_hal_tim_ex.c ****   *          This parameter can be one of the following values:
2308:Drivers/STM32F3xx_HAL_Driver/Src/stm32f3xx_hal_tim_ex.c ****   *            @arg TIM_TIM1_ADC1_NONE: TIM1_ETR is not connected to any ADC1 AWD (analog watchdog)
2309:Drivers/STM32F3xx_HAL_Driver/Src/stm32f3xx_hal_tim_ex.c ****   *            @arg TIM_TIM1_ADC1_AWD1: TIM1_ETR is connected to ADC1 AWD1
2310:Drivers/STM32F3xx_HAL_Driver/Src/stm32f3xx_hal_tim_ex.c ****   *            @arg TIM_TIM1_ADC1_AWD2: TIM1_ETR is connected to ADC1 AWD2 
2311:Drivers/STM32F3xx_HAL_Driver/Src/stm32f3xx_hal_tim_ex.c ****   *            @arg TIM_TIM1_ADC1_AWD3: TIM1_ETR is connected to ADC1 AWD3 
2312:Drivers/STM32F3xx_HAL_Driver/Src/stm32f3xx_hal_tim_ex.c ****   *            @arg TIM_TIM8_ADC2_NONE: TIM8_ETR is not connected to any ADC2 AWD
2313:Drivers/STM32F3xx_HAL_Driver/Src/stm32f3xx_hal_tim_ex.c ****   *            @arg TIM_TIM8_ADC2_AWD1: TIM8_ETR is connected to ADC2 AWD1
2314:Drivers/STM32F3xx_HAL_Driver/Src/stm32f3xx_hal_tim_ex.c ****   *            @arg TIM_TIM8_ADC2_AWD2: TIM8_ETR is connected to ADC2 AWD2
2315:Drivers/STM32F3xx_HAL_Driver/Src/stm32f3xx_hal_tim_ex.c ****   *            @arg TIM_TIM8_ADC2_AWD3: TIM8_ETR is connected to ADC2 AWD3
2316:Drivers/STM32F3xx_HAL_Driver/Src/stm32f3xx_hal_tim_ex.c ****   *            @arg TIM_TIM16_GPIO: TIM16 TI1 is connected to GPIO
2317:Drivers/STM32F3xx_HAL_Driver/Src/stm32f3xx_hal_tim_ex.c ****   *            @arg TIM_TIM16_RTC: TIM16 TI1 is connected to RTC clock
2318:Drivers/STM32F3xx_HAL_Driver/Src/stm32f3xx_hal_tim_ex.c ****   *            @arg TIM_TIM16_HSE: TIM16 TI1 is connected to HSE/32
2319:Drivers/STM32F3xx_HAL_Driver/Src/stm32f3xx_hal_tim_ex.c ****   *            @arg TIM_TIM16_MCO: TIM16 TI1 is connected to MCO
2320:Drivers/STM32F3xx_HAL_Driver/Src/stm32f3xx_hal_tim_ex.c ****   *            @arg TIM_TIM20_ADC3_NONE: TIM20_ETR is not connected to any AWD (analog watchdog)
2321:Drivers/STM32F3xx_HAL_Driver/Src/stm32f3xx_hal_tim_ex.c ****   *            @arg TIM_TIM20_ADC3_AWD1: TIM20_ETR is connected to ADC3 AWD1
2322:Drivers/STM32F3xx_HAL_Driver/Src/stm32f3xx_hal_tim_ex.c ****   *            @arg TIM_TIM20_ADC3_AWD2: TIM20_ETR is connected to ADC3 AWD2
2323:Drivers/STM32F3xx_HAL_Driver/Src/stm32f3xx_hal_tim_ex.c ****   *            @arg TIM_TIM20_ADC3_AWD3: TIM20_ETR is connected to ADC3 AWD3
2324:Drivers/STM32F3xx_HAL_Driver/Src/stm32f3xx_hal_tim_ex.c ****   * @param  Remap2: specifies the  second TIMremapping source (if any).
2325:Drivers/STM32F3xx_HAL_Driver/Src/stm32f3xx_hal_tim_ex.c ****   *          This parameter can be one of the following values:
2326:Drivers/STM32F3xx_HAL_Driver/Src/stm32f3xx_hal_tim_ex.c ****   *            @arg TIM_TIM1_ADC4_NONE: TIM1_ETR is not connected to any ADC4 AWD (analog watchdog)
2327:Drivers/STM32F3xx_HAL_Driver/Src/stm32f3xx_hal_tim_ex.c ****   *            @arg TIM_TIM1_ADC4_AWD1: TIM1_ETR is connected to ADC4 AWD1
2328:Drivers/STM32F3xx_HAL_Driver/Src/stm32f3xx_hal_tim_ex.c ****   *            @arg TIM_TIM1_ADC4_AWD2: TIM1_ETR is connected to ADC4 AWD2 
2329:Drivers/STM32F3xx_HAL_Driver/Src/stm32f3xx_hal_tim_ex.c ****   *            @arg TIM_TIM1_ADC4_AWD3: TIM1_ETR is connected to ADC4 AWD3 
2330:Drivers/STM32F3xx_HAL_Driver/Src/stm32f3xx_hal_tim_ex.c ****   *            @arg TIM_TIM8_ADC3_NONE: TIM8_ETR is not connected to any ADC3 AWD
2331:Drivers/STM32F3xx_HAL_Driver/Src/stm32f3xx_hal_tim_ex.c ****   *            @arg TIM_TIM8_ADC3_AWD1: TIM8_ETR is connected to ADC3 AWD1
2332:Drivers/STM32F3xx_HAL_Driver/Src/stm32f3xx_hal_tim_ex.c ****   *            @arg TIM_TIM8_ADC3_AWD2: TIM8_ETR is connected to ADC3 AWD2
2333:Drivers/STM32F3xx_HAL_Driver/Src/stm32f3xx_hal_tim_ex.c ****   *            @arg TIM_TIM8_ADC3_AWD3: TIM8_ETR is connected to ADC3 AWD3
2334:Drivers/STM32F3xx_HAL_Driver/Src/stm32f3xx_hal_tim_ex.c ****   *            @arg TIM_TIM16_NONE: Non significant value for TIM16
2335:Drivers/STM32F3xx_HAL_Driver/Src/stm32f3xx_hal_tim_ex.c ****   *            @arg TIM_TIM20_ADC4_NONE: TIM20_ETR is not connected to any ADC4 AWD
2336:Drivers/STM32F3xx_HAL_Driver/Src/stm32f3xx_hal_tim_ex.c ****   *            @arg TIM_TIM20_ADC4_AWD1: TIM20_ETR is connected to ADC4 AWD1
ARM GAS  /tmp/ccRzvoJq.s 			page 118


2337:Drivers/STM32F3xx_HAL_Driver/Src/stm32f3xx_hal_tim_ex.c ****   *            @arg TIM_TIM20_ADC4_AWD2: TIM20_ETR is connected to ADC4 AWD2
2338:Drivers/STM32F3xx_HAL_Driver/Src/stm32f3xx_hal_tim_ex.c ****   *            @arg TIM_TIM20_ADC4_AWD3: TIM20_ETR is connected to ADC4 AWD3
2339:Drivers/STM32F3xx_HAL_Driver/Src/stm32f3xx_hal_tim_ex.c ****   * @retval HAL status
2340:Drivers/STM32F3xx_HAL_Driver/Src/stm32f3xx_hal_tim_ex.c ****   */
2341:Drivers/STM32F3xx_HAL_Driver/Src/stm32f3xx_hal_tim_ex.c **** #else  /* STM32F303xC || STM32F358xx */  
2342:Drivers/STM32F3xx_HAL_Driver/Src/stm32f3xx_hal_tim_ex.c **** /**
2343:Drivers/STM32F3xx_HAL_Driver/Src/stm32f3xx_hal_tim_ex.c ****   * @brief  Configures the TIM1, TIM8 and TIM16 Remapping input capabilities.
2344:Drivers/STM32F3xx_HAL_Driver/Src/stm32f3xx_hal_tim_ex.c ****   * @param  htim: TIM handle.
2345:Drivers/STM32F3xx_HAL_Driver/Src/stm32f3xx_hal_tim_ex.c ****   * @param  Remap1: specifies the first TIM remapping source.
2346:Drivers/STM32F3xx_HAL_Driver/Src/stm32f3xx_hal_tim_ex.c ****   *          This parameter can be one of the following values:
2347:Drivers/STM32F3xx_HAL_Driver/Src/stm32f3xx_hal_tim_ex.c ****   *            @arg TIM_TIM1_ADC1_NONE: TIM1_ETR is not connected to any AWD (analog watchdog)
2348:Drivers/STM32F3xx_HAL_Driver/Src/stm32f3xx_hal_tim_ex.c ****   *            @arg TIM_TIM1_ADC1_AWD1: TIM1_ETR is connected to ADC1 AWD1
2349:Drivers/STM32F3xx_HAL_Driver/Src/stm32f3xx_hal_tim_ex.c ****   *            @arg TIM_TIM1_ADC1_AWD2: TIM1_ETR is connected to ADC1 AWD2 
2350:Drivers/STM32F3xx_HAL_Driver/Src/stm32f3xx_hal_tim_ex.c ****   *            @arg TIM_TIM1_ADC1_AWD3: TIM1_ETR is connected to ADC1 AWD3 
2351:Drivers/STM32F3xx_HAL_Driver/Src/stm32f3xx_hal_tim_ex.c ****   *            @arg TIM_TIM8_ADC2_NONE: TIM8_ETR is not connected to any AWD
2352:Drivers/STM32F3xx_HAL_Driver/Src/stm32f3xx_hal_tim_ex.c ****   *            @arg TIM_TIM8_ADC2_AWD1: TIM8_ETR is connected to ADC2 AWD1
2353:Drivers/STM32F3xx_HAL_Driver/Src/stm32f3xx_hal_tim_ex.c ****   *            @arg TIM_TIM8_ADC2_AWD2: TIM8_ETR is connected to ADC2 AWD2
2354:Drivers/STM32F3xx_HAL_Driver/Src/stm32f3xx_hal_tim_ex.c ****   *            @arg TIM_TIM8_ADC2_AWD3: TIM8_ETR is connected to ADC2 AWD3
2355:Drivers/STM32F3xx_HAL_Driver/Src/stm32f3xx_hal_tim_ex.c ****   *            @arg TIM_TIM16_GPIO: TIM16 TI1 is connected to GPIO
2356:Drivers/STM32F3xx_HAL_Driver/Src/stm32f3xx_hal_tim_ex.c ****   *            @arg TIM_TIM16_RTC: TIM16 TI1 is connected to RTC clock
2357:Drivers/STM32F3xx_HAL_Driver/Src/stm32f3xx_hal_tim_ex.c ****   *            @arg TIM_TIM16_HSE: TIM16 TI1 is connected to HSE/32
2358:Drivers/STM32F3xx_HAL_Driver/Src/stm32f3xx_hal_tim_ex.c ****   *            @arg TIM_TIM16_MCO: TIM16 TI1 is connected to MCO
2359:Drivers/STM32F3xx_HAL_Driver/Src/stm32f3xx_hal_tim_ex.c ****   * @param  Remap2: specifies the  second TIMremapping source (if any).
2360:Drivers/STM32F3xx_HAL_Driver/Src/stm32f3xx_hal_tim_ex.c ****   *          This parameter can be one of the following values:
2361:Drivers/STM32F3xx_HAL_Driver/Src/stm32f3xx_hal_tim_ex.c ****   *            @arg TIM_TIM1_ADC4_NONE: TIM1_ETR is not connected to any AWD (analog watchdog)
2362:Drivers/STM32F3xx_HAL_Driver/Src/stm32f3xx_hal_tim_ex.c ****   *            @arg TIM_TIM1_ADC4_AWD1: TIM1_ETR is connected to ADC4 AWD1
2363:Drivers/STM32F3xx_HAL_Driver/Src/stm32f3xx_hal_tim_ex.c ****   *            @arg TIM_TIM1_ADC4_AWD2: TIM1_ETR is connected to ADC4 AWD2 
2364:Drivers/STM32F3xx_HAL_Driver/Src/stm32f3xx_hal_tim_ex.c ****   *            @arg TIM_TIM1_ADC4_AWD3: TIM1_ETR is connected to ADC4 AWD3 
2365:Drivers/STM32F3xx_HAL_Driver/Src/stm32f3xx_hal_tim_ex.c ****   *            @arg TIM_TIM8_ADC3_NONE: TIM8_ETR is not connected to any AWD
2366:Drivers/STM32F3xx_HAL_Driver/Src/stm32f3xx_hal_tim_ex.c ****   *            @arg TIM_TIM8_ADC3_AWD1: TIM8_ETR is connected to ADC3 AWD1
2367:Drivers/STM32F3xx_HAL_Driver/Src/stm32f3xx_hal_tim_ex.c ****   *            @arg TIM_TIM8_ADC3_AWD2: TIM8_ETR is connected to ADC3 AWD2
2368:Drivers/STM32F3xx_HAL_Driver/Src/stm32f3xx_hal_tim_ex.c ****   *            @arg TIM_TIM8_ADC3_AWD3: TIM8_ETR is connected to ADC3 AWD3
2369:Drivers/STM32F3xx_HAL_Driver/Src/stm32f3xx_hal_tim_ex.c ****   * @retval HAL status
2370:Drivers/STM32F3xx_HAL_Driver/Src/stm32f3xx_hal_tim_ex.c ****   */
2371:Drivers/STM32F3xx_HAL_Driver/Src/stm32f3xx_hal_tim_ex.c **** #endif /* STM32F303xE || STM32F398xx || */
2372:Drivers/STM32F3xx_HAL_Driver/Src/stm32f3xx_hal_tim_ex.c **** HAL_StatusTypeDef HAL_TIMEx_RemapConfig(TIM_HandleTypeDef *htim, uint32_t Remap1, uint32_t Remap2)
2373:Drivers/STM32F3xx_HAL_Driver/Src/stm32f3xx_hal_tim_ex.c **** {
 4387              		.loc 1 2373 0
 4388              		.cfi_startproc
 4389              		@ args = 0, pretend = 0, frame = 16
 4390              		@ frame_needed = 1, uses_anonymous_args = 0
 4391              		@ link register save eliminated.
 4392 0000 80B4     		push	{r7}
 4393              	.LCFI102:
 4394              		.cfi_def_cfa_offset 4
 4395              		.cfi_offset 7, -4
 4396 0002 85B0     		sub	sp, sp, #20
 4397              	.LCFI103:
 4398              		.cfi_def_cfa_offset 24
 4399 0004 00AF     		add	r7, sp, #0
 4400              	.LCFI104:
 4401              		.cfi_def_cfa_register 7
 4402 0006 F860     		str	r0, [r7, #12]
 4403 0008 B960     		str	r1, [r7, #8]
 4404 000a 7A60     		str	r2, [r7, #4]
2374:Drivers/STM32F3xx_HAL_Driver/Src/stm32f3xx_hal_tim_ex.c ****   __HAL_LOCK(htim);
 4405              		.loc 1 2374 0
ARM GAS  /tmp/ccRzvoJq.s 			page 119


 4406 000c FB68     		ldr	r3, [r7, #12]
 4407 000e 93F83830 		ldrb	r3, [r3, #56]	@ zero_extendqisi2
 4408 0012 012B     		cmp	r3, #1
 4409 0014 01D1     		bne	.L244
 4410              		.loc 1 2374 0 is_stmt 0 discriminator 1
 4411 0016 0223     		movs	r3, #2
 4412 0018 12E0     		b	.L245
 4413              	.L244:
 4414              		.loc 1 2374 0 discriminator 2
 4415 001a FB68     		ldr	r3, [r7, #12]
 4416 001c 0122     		movs	r2, #1
 4417 001e 83F83820 		strb	r2, [r3, #56]
2375:Drivers/STM32F3xx_HAL_Driver/Src/stm32f3xx_hal_tim_ex.c ****     
2376:Drivers/STM32F3xx_HAL_Driver/Src/stm32f3xx_hal_tim_ex.c ****   /* Check parameters */
2377:Drivers/STM32F3xx_HAL_Driver/Src/stm32f3xx_hal_tim_ex.c ****   assert_param(IS_TIM_REMAP_INSTANCE(htim->Instance));
2378:Drivers/STM32F3xx_HAL_Driver/Src/stm32f3xx_hal_tim_ex.c ****   assert_param(IS_TIM_REMAP(Remap1));
2379:Drivers/STM32F3xx_HAL_Driver/Src/stm32f3xx_hal_tim_ex.c ****   assert_param(IS_TIM_REMAP2(Remap2));
2380:Drivers/STM32F3xx_HAL_Driver/Src/stm32f3xx_hal_tim_ex.c ****   
2381:Drivers/STM32F3xx_HAL_Driver/Src/stm32f3xx_hal_tim_ex.c ****   /* Set the Timer remapping configuration */
2382:Drivers/STM32F3xx_HAL_Driver/Src/stm32f3xx_hal_tim_ex.c ****   htim->Instance->OR = Remap1 | Remap2;
 4418              		.loc 1 2382 0 is_stmt 1 discriminator 2
 4419 0022 FB68     		ldr	r3, [r7, #12]
 4420 0024 1B68     		ldr	r3, [r3]
 4421 0026 B968     		ldr	r1, [r7, #8]
 4422 0028 7A68     		ldr	r2, [r7, #4]
 4423 002a 0A43     		orrs	r2, r2, r1
 4424 002c 1A65     		str	r2, [r3, #80]
2383:Drivers/STM32F3xx_HAL_Driver/Src/stm32f3xx_hal_tim_ex.c ****   
2384:Drivers/STM32F3xx_HAL_Driver/Src/stm32f3xx_hal_tim_ex.c ****   htim->State = HAL_TIM_STATE_READY;
 4425              		.loc 1 2384 0 discriminator 2
 4426 002e FB68     		ldr	r3, [r7, #12]
 4427 0030 0122     		movs	r2, #1
 4428 0032 83F83920 		strb	r2, [r3, #57]
2385:Drivers/STM32F3xx_HAL_Driver/Src/stm32f3xx_hal_tim_ex.c ****   
2386:Drivers/STM32F3xx_HAL_Driver/Src/stm32f3xx_hal_tim_ex.c ****   __HAL_UNLOCK(htim);  
 4429              		.loc 1 2386 0 discriminator 2
 4430 0036 FB68     		ldr	r3, [r7, #12]
 4431 0038 0022     		movs	r2, #0
 4432 003a 83F83820 		strb	r2, [r3, #56]
2387:Drivers/STM32F3xx_HAL_Driver/Src/stm32f3xx_hal_tim_ex.c ****   
2388:Drivers/STM32F3xx_HAL_Driver/Src/stm32f3xx_hal_tim_ex.c ****   return HAL_OK;
 4433              		.loc 1 2388 0 discriminator 2
 4434 003e 0023     		movs	r3, #0
 4435              	.L245:
2389:Drivers/STM32F3xx_HAL_Driver/Src/stm32f3xx_hal_tim_ex.c **** }
 4436              		.loc 1 2389 0
 4437 0040 1846     		mov	r0, r3
 4438 0042 1437     		adds	r7, r7, #20
 4439 0044 BD46     		mov	sp, r7
 4440              		@ sp needed
 4441 0046 5DF8047B 		ldr	r7, [sp], #4
 4442 004a 7047     		bx	lr
 4443              		.cfi_endproc
 4444              	.LFE159:
 4446              		.section	.text.HAL_TIMEx_GroupChannel5,"ax",%progbits
 4447              		.align	2
 4448              		.global	HAL_TIMEx_GroupChannel5
ARM GAS  /tmp/ccRzvoJq.s 			page 120


 4449              		.thumb
 4450              		.thumb_func
 4452              	HAL_TIMEx_GroupChannel5:
 4453              	.LFB160:
2390:Drivers/STM32F3xx_HAL_Driver/Src/stm32f3xx_hal_tim_ex.c **** #endif /* STM32F303xE || STM32F398xx || */
2391:Drivers/STM32F3xx_HAL_Driver/Src/stm32f3xx_hal_tim_ex.c ****        /* STM32F303xC || STM32F358xx || */
2392:Drivers/STM32F3xx_HAL_Driver/Src/stm32f3xx_hal_tim_ex.c **** 
2393:Drivers/STM32F3xx_HAL_Driver/Src/stm32f3xx_hal_tim_ex.c **** 
2394:Drivers/STM32F3xx_HAL_Driver/Src/stm32f3xx_hal_tim_ex.c **** #if defined(STM32F302xE)                                                 || \
2395:Drivers/STM32F3xx_HAL_Driver/Src/stm32f3xx_hal_tim_ex.c ****     defined(STM32F302xC)                                                 || \
2396:Drivers/STM32F3xx_HAL_Driver/Src/stm32f3xx_hal_tim_ex.c ****     defined(STM32F303x8) || defined(STM32F334x8) || defined(STM32F328xx) || \
2397:Drivers/STM32F3xx_HAL_Driver/Src/stm32f3xx_hal_tim_ex.c ****     defined(STM32F301x8) || defined(STM32F302x8) || defined(STM32F318xx) || \
2398:Drivers/STM32F3xx_HAL_Driver/Src/stm32f3xx_hal_tim_ex.c ****     defined(STM32F373xC) || defined(STM32F378xx)
2399:Drivers/STM32F3xx_HAL_Driver/Src/stm32f3xx_hal_tim_ex.c **** #if defined(STM32F302xE)                                                 || \
2400:Drivers/STM32F3xx_HAL_Driver/Src/stm32f3xx_hal_tim_ex.c ****     defined(STM32F302xC)                                                 || \
2401:Drivers/STM32F3xx_HAL_Driver/Src/stm32f3xx_hal_tim_ex.c ****     defined(STM32F303x8) || defined(STM32F334x8) || defined(STM32F328xx) || \
2402:Drivers/STM32F3xx_HAL_Driver/Src/stm32f3xx_hal_tim_ex.c ****     defined(STM32F301x8) || defined(STM32F302x8) || defined(STM32F318xx)
2403:Drivers/STM32F3xx_HAL_Driver/Src/stm32f3xx_hal_tim_ex.c **** /**
2404:Drivers/STM32F3xx_HAL_Driver/Src/stm32f3xx_hal_tim_ex.c ****   * @brief  Configures the TIM1 and TIM16 Remapping input capabilities.
2405:Drivers/STM32F3xx_HAL_Driver/Src/stm32f3xx_hal_tim_ex.c ****   * @param  htim: TIM handle.
2406:Drivers/STM32F3xx_HAL_Driver/Src/stm32f3xx_hal_tim_ex.c ****   * @param  Remap: specifies the TIM remapping source.
2407:Drivers/STM32F3xx_HAL_Driver/Src/stm32f3xx_hal_tim_ex.c ****   *          This parameter can be one of the following values:
2408:Drivers/STM32F3xx_HAL_Driver/Src/stm32f3xx_hal_tim_ex.c ****   *            @arg TIM_TIM1_ADC1_NONE: TIM1_ETR is not connected to any AWD (analog watchdog)
2409:Drivers/STM32F3xx_HAL_Driver/Src/stm32f3xx_hal_tim_ex.c ****   *            @arg TIM_TIM1_ADC1_AWD1: TIM1_ETR is connected to ADC1 AWD1
2410:Drivers/STM32F3xx_HAL_Driver/Src/stm32f3xx_hal_tim_ex.c ****   *            @arg TIM_TIM1_ADC1_AWD2: TIM1_ETR is connected to ADC1 AWD2
2411:Drivers/STM32F3xx_HAL_Driver/Src/stm32f3xx_hal_tim_ex.c ****   *            @arg TIM_TIM1_ADC1_AWD3: TIM1_ETR is connected to ADC1 AWD3
2412:Drivers/STM32F3xx_HAL_Driver/Src/stm32f3xx_hal_tim_ex.c ****   *            @arg TIM_TIM16_GPIO: TIM16 TI1 is connected to GPIO
2413:Drivers/STM32F3xx_HAL_Driver/Src/stm32f3xx_hal_tim_ex.c ****   *            @arg TIM_TIM16_RTC: TIM16 TI1 is connected to RTC_clock
2414:Drivers/STM32F3xx_HAL_Driver/Src/stm32f3xx_hal_tim_ex.c ****   *            @arg TIM_TIM16_HSE: TIM16 TI1 is connected to HSE/32
2415:Drivers/STM32F3xx_HAL_Driver/Src/stm32f3xx_hal_tim_ex.c ****   *            @arg TIM_TIM16_MCO: TIM16 TI1 is connected to MCO
2416:Drivers/STM32F3xx_HAL_Driver/Src/stm32f3xx_hal_tim_ex.c ****   * @retval HAL status
2417:Drivers/STM32F3xx_HAL_Driver/Src/stm32f3xx_hal_tim_ex.c ****   */
2418:Drivers/STM32F3xx_HAL_Driver/Src/stm32f3xx_hal_tim_ex.c **** #else /* STM32F373xC || STM32F378xx */       
2419:Drivers/STM32F3xx_HAL_Driver/Src/stm32f3xx_hal_tim_ex.c **** /**
2420:Drivers/STM32F3xx_HAL_Driver/Src/stm32f3xx_hal_tim_ex.c ****   * @brief  Configures the TIM2 and TIM14 Remapping input capabilities.
2421:Drivers/STM32F3xx_HAL_Driver/Src/stm32f3xx_hal_tim_ex.c ****   * @param  htim: TIM handle.
2422:Drivers/STM32F3xx_HAL_Driver/Src/stm32f3xx_hal_tim_ex.c ****   * @param  Remap: specifies the TIM remapping source.
2423:Drivers/STM32F3xx_HAL_Driver/Src/stm32f3xx_hal_tim_ex.c ****   *          This parameter can be one of the following values:
2424:Drivers/STM32F3xx_HAL_Driver/Src/stm32f3xx_hal_tim_ex.c ****   *          STM32F373xC, STM32F378xx:
2425:Drivers/STM32F3xx_HAL_Driver/Src/stm32f3xx_hal_tim_ex.c ****   *            @arg TIM_TIM2_TIM8_TRGO: TIM8 TRGOUT is connected to TIM2_ITR1
2426:Drivers/STM32F3xx_HAL_Driver/Src/stm32f3xx_hal_tim_ex.c ****   *            @arg TIM_TIM2_ETH_PTP: PTP trigger output is connected to TIM2_ITR1
2427:Drivers/STM32F3xx_HAL_Driver/Src/stm32f3xx_hal_tim_ex.c ****   *            @arg TIM_TIM2_USBFS_SOF: OTG FS SOF is connected to the TIM2_ITR1 input
2428:Drivers/STM32F3xx_HAL_Driver/Src/stm32f3xx_hal_tim_ex.c ****   *            @arg TIM_TIM2_USBHS_SOF: OTG HS SOF is connected to the TIM2_ITR1 input
2429:Drivers/STM32F3xx_HAL_Driver/Src/stm32f3xx_hal_tim_ex.c ****   *            @arg TIM_TIM14_GPIO: TIM14 TI1 is connected to GPIO
2430:Drivers/STM32F3xx_HAL_Driver/Src/stm32f3xx_hal_tim_ex.c ****   *            @arg TIM_TIM14_RTC: TIM14 TI1 is connected to RTC_clock
2431:Drivers/STM32F3xx_HAL_Driver/Src/stm32f3xx_hal_tim_ex.c ****   *            @arg TIM_TIM14_HSE: TIM14 TI1 is connected to HSE/32
2432:Drivers/STM32F3xx_HAL_Driver/Src/stm32f3xx_hal_tim_ex.c ****   *            @arg TIM_TIM14_MCO: TIM14 TI1 is connected to MCO                              
2433:Drivers/STM32F3xx_HAL_Driver/Src/stm32f3xx_hal_tim_ex.c ****   * @retval HAL status
2434:Drivers/STM32F3xx_HAL_Driver/Src/stm32f3xx_hal_tim_ex.c ****   */
2435:Drivers/STM32F3xx_HAL_Driver/Src/stm32f3xx_hal_tim_ex.c **** #endif /* STM32F302xE                               || */
2436:Drivers/STM32F3xx_HAL_Driver/Src/stm32f3xx_hal_tim_ex.c ****        /* STM32F302xC                               || */
2437:Drivers/STM32F3xx_HAL_Driver/Src/stm32f3xx_hal_tim_ex.c ****        /* STM32F303x8 || STM32F334x8 || STM32F328xx || */
2438:Drivers/STM32F3xx_HAL_Driver/Src/stm32f3xx_hal_tim_ex.c ****        /* STM32F301x8 || STM32F302x8 || STM32F318xx || */
2439:Drivers/STM32F3xx_HAL_Driver/Src/stm32f3xx_hal_tim_ex.c **** HAL_StatusTypeDef HAL_TIMEx_RemapConfig(TIM_HandleTypeDef *htim, uint32_t Remap)
2440:Drivers/STM32F3xx_HAL_Driver/Src/stm32f3xx_hal_tim_ex.c **** {
2441:Drivers/STM32F3xx_HAL_Driver/Src/stm32f3xx_hal_tim_ex.c ****   __HAL_LOCK(htim);
2442:Drivers/STM32F3xx_HAL_Driver/Src/stm32f3xx_hal_tim_ex.c ****     
ARM GAS  /tmp/ccRzvoJq.s 			page 121


2443:Drivers/STM32F3xx_HAL_Driver/Src/stm32f3xx_hal_tim_ex.c ****   /* Check parameters */
2444:Drivers/STM32F3xx_HAL_Driver/Src/stm32f3xx_hal_tim_ex.c ****   assert_param(IS_TIM_REMAP_INSTANCE(htim->Instance));
2445:Drivers/STM32F3xx_HAL_Driver/Src/stm32f3xx_hal_tim_ex.c ****   assert_param(IS_TIM_REMAP(Remap));
2446:Drivers/STM32F3xx_HAL_Driver/Src/stm32f3xx_hal_tim_ex.c ****   
2447:Drivers/STM32F3xx_HAL_Driver/Src/stm32f3xx_hal_tim_ex.c ****   /* Set the Timer remapping configuration */
2448:Drivers/STM32F3xx_HAL_Driver/Src/stm32f3xx_hal_tim_ex.c ****   htim->Instance->OR = Remap;
2449:Drivers/STM32F3xx_HAL_Driver/Src/stm32f3xx_hal_tim_ex.c ****   
2450:Drivers/STM32F3xx_HAL_Driver/Src/stm32f3xx_hal_tim_ex.c ****   htim->State = HAL_TIM_STATE_READY;
2451:Drivers/STM32F3xx_HAL_Driver/Src/stm32f3xx_hal_tim_ex.c ****   
2452:Drivers/STM32F3xx_HAL_Driver/Src/stm32f3xx_hal_tim_ex.c ****   __HAL_UNLOCK(htim);  
2453:Drivers/STM32F3xx_HAL_Driver/Src/stm32f3xx_hal_tim_ex.c ****   
2454:Drivers/STM32F3xx_HAL_Driver/Src/stm32f3xx_hal_tim_ex.c ****   return HAL_OK;
2455:Drivers/STM32F3xx_HAL_Driver/Src/stm32f3xx_hal_tim_ex.c **** }
2456:Drivers/STM32F3xx_HAL_Driver/Src/stm32f3xx_hal_tim_ex.c **** #endif /* STM32F302xE                               || */
2457:Drivers/STM32F3xx_HAL_Driver/Src/stm32f3xx_hal_tim_ex.c ****        /* STM32F302xC                               || */
2458:Drivers/STM32F3xx_HAL_Driver/Src/stm32f3xx_hal_tim_ex.c ****        /* STM32F303x8 || STM32F334x8 || STM32F328xx || */
2459:Drivers/STM32F3xx_HAL_Driver/Src/stm32f3xx_hal_tim_ex.c ****        /* STM32F301x8 || STM32F302x8 || STM32F318xx || */
2460:Drivers/STM32F3xx_HAL_Driver/Src/stm32f3xx_hal_tim_ex.c ****        /* STM32F373xC || STM32F378xx                   */
2461:Drivers/STM32F3xx_HAL_Driver/Src/stm32f3xx_hal_tim_ex.c **** 
2462:Drivers/STM32F3xx_HAL_Driver/Src/stm32f3xx_hal_tim_ex.c **** 
2463:Drivers/STM32F3xx_HAL_Driver/Src/stm32f3xx_hal_tim_ex.c **** #if defined(STM32F302xE) || defined(STM32F303xE) || defined(STM32F398xx) || \
2464:Drivers/STM32F3xx_HAL_Driver/Src/stm32f3xx_hal_tim_ex.c ****     defined(STM32F302xC) || defined(STM32F303xC) || defined(STM32F358xx) || \
2465:Drivers/STM32F3xx_HAL_Driver/Src/stm32f3xx_hal_tim_ex.c ****     defined(STM32F303x8) || defined(STM32F334x8) || defined(STM32F328xx) || \
2466:Drivers/STM32F3xx_HAL_Driver/Src/stm32f3xx_hal_tim_ex.c ****     defined(STM32F301x8) || defined(STM32F302x8) || defined(STM32F318xx)
2467:Drivers/STM32F3xx_HAL_Driver/Src/stm32f3xx_hal_tim_ex.c **** /**
2468:Drivers/STM32F3xx_HAL_Driver/Src/stm32f3xx_hal_tim_ex.c ****   * @brief  Group channel 5 and channel 1, 2 or 3
2469:Drivers/STM32F3xx_HAL_Driver/Src/stm32f3xx_hal_tim_ex.c ****   * @param  htim: TIM handle.
2470:Drivers/STM32F3xx_HAL_Driver/Src/stm32f3xx_hal_tim_ex.c ****   * @param  Channels: specifies the reference signal(s) the OC5REF is combined with.
2471:Drivers/STM32F3xx_HAL_Driver/Src/stm32f3xx_hal_tim_ex.c ****   *         This parameter can be any combination of the following values:
2472:Drivers/STM32F3xx_HAL_Driver/Src/stm32f3xx_hal_tim_ex.c ****   *         TIM_GROUPCH5_NONE: No effect of OC5REF on OC1REFC, OC2REFC and OC3REFC
2473:Drivers/STM32F3xx_HAL_Driver/Src/stm32f3xx_hal_tim_ex.c ****   *         TIM_GROUPCH5_OC1REFC: OC1REFC is the logical AND of OC1REFC and OC5REF
2474:Drivers/STM32F3xx_HAL_Driver/Src/stm32f3xx_hal_tim_ex.c ****   *         TIM_GROUPCH5_OC2REFC: OC2REFC is the logical AND of OC2REFC and OC5REF
2475:Drivers/STM32F3xx_HAL_Driver/Src/stm32f3xx_hal_tim_ex.c ****   *         TIM_GROUPCH5_OC3REFC: OC3REFC is the logical AND of OC3REFC and OC5REF
2476:Drivers/STM32F3xx_HAL_Driver/Src/stm32f3xx_hal_tim_ex.c ****   * @retval HAL status
2477:Drivers/STM32F3xx_HAL_Driver/Src/stm32f3xx_hal_tim_ex.c ****   */
2478:Drivers/STM32F3xx_HAL_Driver/Src/stm32f3xx_hal_tim_ex.c **** HAL_StatusTypeDef HAL_TIMEx_GroupChannel5(TIM_HandleTypeDef *htim, uint32_t Channels)
2479:Drivers/STM32F3xx_HAL_Driver/Src/stm32f3xx_hal_tim_ex.c **** {
 4454              		.loc 1 2479 0
 4455              		.cfi_startproc
 4456              		@ args = 0, pretend = 0, frame = 8
 4457              		@ frame_needed = 1, uses_anonymous_args = 0
 4458              		@ link register save eliminated.
 4459 0000 80B4     		push	{r7}
 4460              	.LCFI105:
 4461              		.cfi_def_cfa_offset 4
 4462              		.cfi_offset 7, -4
 4463 0002 83B0     		sub	sp, sp, #12
 4464              	.LCFI106:
 4465              		.cfi_def_cfa_offset 16
 4466 0004 00AF     		add	r7, sp, #0
 4467              	.LCFI107:
 4468              		.cfi_def_cfa_register 7
 4469 0006 7860     		str	r0, [r7, #4]
 4470 0008 3960     		str	r1, [r7]
2480:Drivers/STM32F3xx_HAL_Driver/Src/stm32f3xx_hal_tim_ex.c ****   /* Check parameters */
2481:Drivers/STM32F3xx_HAL_Driver/Src/stm32f3xx_hal_tim_ex.c ****   assert_param(IS_TIM_COMBINED3PHASEPWM_INSTANCE(htim->Instance));
2482:Drivers/STM32F3xx_HAL_Driver/Src/stm32f3xx_hal_tim_ex.c ****   assert_param(IS_TIM_GROUPCH5(Channels));
ARM GAS  /tmp/ccRzvoJq.s 			page 122


2483:Drivers/STM32F3xx_HAL_Driver/Src/stm32f3xx_hal_tim_ex.c **** 
2484:Drivers/STM32F3xx_HAL_Driver/Src/stm32f3xx_hal_tim_ex.c ****   /* Process Locked */
2485:Drivers/STM32F3xx_HAL_Driver/Src/stm32f3xx_hal_tim_ex.c ****   __HAL_LOCK(htim);
 4471              		.loc 1 2485 0
 4472 000a 7B68     		ldr	r3, [r7, #4]
 4473 000c 93F83830 		ldrb	r3, [r3, #56]	@ zero_extendqisi2
 4474 0010 012B     		cmp	r3, #1
 4475 0012 01D1     		bne	.L247
 4476              		.loc 1 2485 0 is_stmt 0 discriminator 1
 4477 0014 0223     		movs	r3, #2
 4478 0016 20E0     		b	.L248
 4479              	.L247:
 4480              		.loc 1 2485 0 discriminator 2
 4481 0018 7B68     		ldr	r3, [r7, #4]
 4482 001a 0122     		movs	r2, #1
 4483 001c 83F83820 		strb	r2, [r3, #56]
2486:Drivers/STM32F3xx_HAL_Driver/Src/stm32f3xx_hal_tim_ex.c ****   
2487:Drivers/STM32F3xx_HAL_Driver/Src/stm32f3xx_hal_tim_ex.c ****   htim->State = HAL_TIM_STATE_BUSY;
 4484              		.loc 1 2487 0 is_stmt 1 discriminator 2
 4485 0020 7B68     		ldr	r3, [r7, #4]
 4486 0022 0222     		movs	r2, #2
 4487 0024 83F83920 		strb	r2, [r3, #57]
2488:Drivers/STM32F3xx_HAL_Driver/Src/stm32f3xx_hal_tim_ex.c ****   
2489:Drivers/STM32F3xx_HAL_Driver/Src/stm32f3xx_hal_tim_ex.c ****   /* Clear GC5Cx bit fields */
2490:Drivers/STM32F3xx_HAL_Driver/Src/stm32f3xx_hal_tim_ex.c ****   htim->Instance->CCR5 &= ~(TIM_CCR5_GC5C3|TIM_CCR5_GC5C2|TIM_CCR5_GC5C1);
 4488              		.loc 1 2490 0 discriminator 2
 4489 0028 7B68     		ldr	r3, [r7, #4]
 4490 002a 1B68     		ldr	r3, [r3]
 4491 002c 7A68     		ldr	r2, [r7, #4]
 4492 002e 1268     		ldr	r2, [r2]
 4493 0030 926D     		ldr	r2, [r2, #88]
 4494 0032 22F06042 		bic	r2, r2, #-536870912
 4495 0036 9A65     		str	r2, [r3, #88]
2491:Drivers/STM32F3xx_HAL_Driver/Src/stm32f3xx_hal_tim_ex.c ****   
2492:Drivers/STM32F3xx_HAL_Driver/Src/stm32f3xx_hal_tim_ex.c ****   /* Set GC5Cx bit fields */
2493:Drivers/STM32F3xx_HAL_Driver/Src/stm32f3xx_hal_tim_ex.c ****   htim->Instance->CCR5 |= Channels;
 4496              		.loc 1 2493 0 discriminator 2
 4497 0038 7B68     		ldr	r3, [r7, #4]
 4498 003a 1B68     		ldr	r3, [r3]
 4499 003c 7A68     		ldr	r2, [r7, #4]
 4500 003e 1268     		ldr	r2, [r2]
 4501 0040 916D     		ldr	r1, [r2, #88]
 4502 0042 3A68     		ldr	r2, [r7]
 4503 0044 0A43     		orrs	r2, r2, r1
 4504 0046 9A65     		str	r2, [r3, #88]
2494:Drivers/STM32F3xx_HAL_Driver/Src/stm32f3xx_hal_tim_ex.c ****                                    
2495:Drivers/STM32F3xx_HAL_Driver/Src/stm32f3xx_hal_tim_ex.c ****   htim->State = HAL_TIM_STATE_READY;                                 
 4505              		.loc 1 2495 0 discriminator 2
 4506 0048 7B68     		ldr	r3, [r7, #4]
 4507 004a 0122     		movs	r2, #1
 4508 004c 83F83920 		strb	r2, [r3, #57]
2496:Drivers/STM32F3xx_HAL_Driver/Src/stm32f3xx_hal_tim_ex.c ****   
2497:Drivers/STM32F3xx_HAL_Driver/Src/stm32f3xx_hal_tim_ex.c ****   __HAL_UNLOCK(htim);
 4509              		.loc 1 2497 0 discriminator 2
 4510 0050 7B68     		ldr	r3, [r7, #4]
 4511 0052 0022     		movs	r2, #0
 4512 0054 83F83820 		strb	r2, [r3, #56]
ARM GAS  /tmp/ccRzvoJq.s 			page 123


2498:Drivers/STM32F3xx_HAL_Driver/Src/stm32f3xx_hal_tim_ex.c ****   
2499:Drivers/STM32F3xx_HAL_Driver/Src/stm32f3xx_hal_tim_ex.c ****   return HAL_OK;
 4513              		.loc 1 2499 0 discriminator 2
 4514 0058 0023     		movs	r3, #0
 4515              	.L248:
2500:Drivers/STM32F3xx_HAL_Driver/Src/stm32f3xx_hal_tim_ex.c **** }
 4516              		.loc 1 2500 0
 4517 005a 1846     		mov	r0, r3
 4518 005c 0C37     		adds	r7, r7, #12
 4519 005e BD46     		mov	sp, r7
 4520              		@ sp needed
 4521 0060 5DF8047B 		ldr	r7, [sp], #4
 4522 0064 7047     		bx	lr
 4523              		.cfi_endproc
 4524              	.LFE160:
 4526 0066 00BF     		.section	.text.HAL_TIMEx_CommutationCallback,"ax",%progbits
 4527              		.align	2
 4528              		.weak	HAL_TIMEx_CommutationCallback
 4529              		.thumb
 4530              		.thumb_func
 4532              	HAL_TIMEx_CommutationCallback:
 4533              	.LFB161:
2501:Drivers/STM32F3xx_HAL_Driver/Src/stm32f3xx_hal_tim_ex.c **** #endif /* STM32F302xE || STM32F303xE || STM32F398xx || */
2502:Drivers/STM32F3xx_HAL_Driver/Src/stm32f3xx_hal_tim_ex.c ****        /* STM32F302xC || STM32F303xC || STM32F358xx || */
2503:Drivers/STM32F3xx_HAL_Driver/Src/stm32f3xx_hal_tim_ex.c ****        /* STM32F303x8 || STM32F334x8 || STM32F328xx || */
2504:Drivers/STM32F3xx_HAL_Driver/Src/stm32f3xx_hal_tim_ex.c ****        /* STM32F301x8 || STM32F302x8 || STM32F318xx    */
2505:Drivers/STM32F3xx_HAL_Driver/Src/stm32f3xx_hal_tim_ex.c **** 
2506:Drivers/STM32F3xx_HAL_Driver/Src/stm32f3xx_hal_tim_ex.c **** /**
2507:Drivers/STM32F3xx_HAL_Driver/Src/stm32f3xx_hal_tim_ex.c ****   * @}
2508:Drivers/STM32F3xx_HAL_Driver/Src/stm32f3xx_hal_tim_ex.c ****   */
2509:Drivers/STM32F3xx_HAL_Driver/Src/stm32f3xx_hal_tim_ex.c **** 
2510:Drivers/STM32F3xx_HAL_Driver/Src/stm32f3xx_hal_tim_ex.c **** /** @defgroup TIMEx_Exported_Functions_Group6 Extension Callbacks functions 
2511:Drivers/STM32F3xx_HAL_Driver/Src/stm32f3xx_hal_tim_ex.c ****  *  @brief   Extension Callbacks functions 
2512:Drivers/STM32F3xx_HAL_Driver/Src/stm32f3xx_hal_tim_ex.c ****   *
2513:Drivers/STM32F3xx_HAL_Driver/Src/stm32f3xx_hal_tim_ex.c **** @verbatim   
2514:Drivers/STM32F3xx_HAL_Driver/Src/stm32f3xx_hal_tim_ex.c ****   ==============================================================================
2515:Drivers/STM32F3xx_HAL_Driver/Src/stm32f3xx_hal_tim_ex.c ****                     ##### Extended Callbacks functions #####
2516:Drivers/STM32F3xx_HAL_Driver/Src/stm32f3xx_hal_tim_ex.c ****   ==============================================================================  
2517:Drivers/STM32F3xx_HAL_Driver/Src/stm32f3xx_hal_tim_ex.c ****   [..]  
2518:Drivers/STM32F3xx_HAL_Driver/Src/stm32f3xx_hal_tim_ex.c ****     This section provides Extended TIM callback functions:
2519:Drivers/STM32F3xx_HAL_Driver/Src/stm32f3xx_hal_tim_ex.c ****     (+) Timer Commutation callback
2520:Drivers/STM32F3xx_HAL_Driver/Src/stm32f3xx_hal_tim_ex.c ****     (+) Timer Break callback
2521:Drivers/STM32F3xx_HAL_Driver/Src/stm32f3xx_hal_tim_ex.c **** 
2522:Drivers/STM32F3xx_HAL_Driver/Src/stm32f3xx_hal_tim_ex.c **** @endverbatim
2523:Drivers/STM32F3xx_HAL_Driver/Src/stm32f3xx_hal_tim_ex.c ****   * @{
2524:Drivers/STM32F3xx_HAL_Driver/Src/stm32f3xx_hal_tim_ex.c ****   */
2525:Drivers/STM32F3xx_HAL_Driver/Src/stm32f3xx_hal_tim_ex.c **** 
2526:Drivers/STM32F3xx_HAL_Driver/Src/stm32f3xx_hal_tim_ex.c **** /**
2527:Drivers/STM32F3xx_HAL_Driver/Src/stm32f3xx_hal_tim_ex.c ****   * @brief  Hall commutation changed callback in non blocking mode 
2528:Drivers/STM32F3xx_HAL_Driver/Src/stm32f3xx_hal_tim_ex.c ****   * @param  htim: TIM handle
2529:Drivers/STM32F3xx_HAL_Driver/Src/stm32f3xx_hal_tim_ex.c ****   * @retval None
2530:Drivers/STM32F3xx_HAL_Driver/Src/stm32f3xx_hal_tim_ex.c ****   */
2531:Drivers/STM32F3xx_HAL_Driver/Src/stm32f3xx_hal_tim_ex.c **** __weak void HAL_TIMEx_CommutationCallback(TIM_HandleTypeDef *htim)
2532:Drivers/STM32F3xx_HAL_Driver/Src/stm32f3xx_hal_tim_ex.c **** {
 4534              		.loc 1 2532 0
 4535              		.cfi_startproc
 4536              		@ args = 0, pretend = 0, frame = 8
ARM GAS  /tmp/ccRzvoJq.s 			page 124


 4537              		@ frame_needed = 1, uses_anonymous_args = 0
 4538              		@ link register save eliminated.
 4539 0000 80B4     		push	{r7}
 4540              	.LCFI108:
 4541              		.cfi_def_cfa_offset 4
 4542              		.cfi_offset 7, -4
 4543 0002 83B0     		sub	sp, sp, #12
 4544              	.LCFI109:
 4545              		.cfi_def_cfa_offset 16
 4546 0004 00AF     		add	r7, sp, #0
 4547              	.LCFI110:
 4548              		.cfi_def_cfa_register 7
 4549 0006 7860     		str	r0, [r7, #4]
2533:Drivers/STM32F3xx_HAL_Driver/Src/stm32f3xx_hal_tim_ex.c ****   /* Prevent unused argument(s) compilation warning */
2534:Drivers/STM32F3xx_HAL_Driver/Src/stm32f3xx_hal_tim_ex.c ****   UNUSED(htim);
2535:Drivers/STM32F3xx_HAL_Driver/Src/stm32f3xx_hal_tim_ex.c **** 
2536:Drivers/STM32F3xx_HAL_Driver/Src/stm32f3xx_hal_tim_ex.c ****   /* NOTE : This function Should not be modified, when the callback is needed,
2537:Drivers/STM32F3xx_HAL_Driver/Src/stm32f3xx_hal_tim_ex.c ****             the HAL_TIMEx_CommutationCallback could be implemented in the user file
2538:Drivers/STM32F3xx_HAL_Driver/Src/stm32f3xx_hal_tim_ex.c ****    */
2539:Drivers/STM32F3xx_HAL_Driver/Src/stm32f3xx_hal_tim_ex.c **** }
 4550              		.loc 1 2539 0
 4551 0008 0C37     		adds	r7, r7, #12
 4552 000a BD46     		mov	sp, r7
 4553              		@ sp needed
 4554 000c 5DF8047B 		ldr	r7, [sp], #4
 4555 0010 7047     		bx	lr
 4556              		.cfi_endproc
 4557              	.LFE161:
 4559 0012 00BF     		.section	.text.HAL_TIMEx_BreakCallback,"ax",%progbits
 4560              		.align	2
 4561              		.weak	HAL_TIMEx_BreakCallback
 4562              		.thumb
 4563              		.thumb_func
 4565              	HAL_TIMEx_BreakCallback:
 4566              	.LFB162:
2540:Drivers/STM32F3xx_HAL_Driver/Src/stm32f3xx_hal_tim_ex.c **** 
2541:Drivers/STM32F3xx_HAL_Driver/Src/stm32f3xx_hal_tim_ex.c **** /**
2542:Drivers/STM32F3xx_HAL_Driver/Src/stm32f3xx_hal_tim_ex.c ****   * @brief  Hall Break detection callback in non blocking mode 
2543:Drivers/STM32F3xx_HAL_Driver/Src/stm32f3xx_hal_tim_ex.c ****   * @param  htim: TIM handle
2544:Drivers/STM32F3xx_HAL_Driver/Src/stm32f3xx_hal_tim_ex.c ****   * @retval None
2545:Drivers/STM32F3xx_HAL_Driver/Src/stm32f3xx_hal_tim_ex.c ****   */
2546:Drivers/STM32F3xx_HAL_Driver/Src/stm32f3xx_hal_tim_ex.c **** __weak void HAL_TIMEx_BreakCallback(TIM_HandleTypeDef *htim)
2547:Drivers/STM32F3xx_HAL_Driver/Src/stm32f3xx_hal_tim_ex.c **** {
 4567              		.loc 1 2547 0
 4568              		.cfi_startproc
 4569              		@ args = 0, pretend = 0, frame = 8
 4570              		@ frame_needed = 1, uses_anonymous_args = 0
 4571              		@ link register save eliminated.
 4572 0000 80B4     		push	{r7}
 4573              	.LCFI111:
 4574              		.cfi_def_cfa_offset 4
 4575              		.cfi_offset 7, -4
 4576 0002 83B0     		sub	sp, sp, #12
 4577              	.LCFI112:
 4578              		.cfi_def_cfa_offset 16
 4579 0004 00AF     		add	r7, sp, #0
 4580              	.LCFI113:
ARM GAS  /tmp/ccRzvoJq.s 			page 125


 4581              		.cfi_def_cfa_register 7
 4582 0006 7860     		str	r0, [r7, #4]
2548:Drivers/STM32F3xx_HAL_Driver/Src/stm32f3xx_hal_tim_ex.c ****   /* Prevent unused argument(s) compilation warning */
2549:Drivers/STM32F3xx_HAL_Driver/Src/stm32f3xx_hal_tim_ex.c ****   UNUSED(htim);
2550:Drivers/STM32F3xx_HAL_Driver/Src/stm32f3xx_hal_tim_ex.c **** 
2551:Drivers/STM32F3xx_HAL_Driver/Src/stm32f3xx_hal_tim_ex.c ****   /* NOTE : This function Should not be modified, when the callback is needed,
2552:Drivers/STM32F3xx_HAL_Driver/Src/stm32f3xx_hal_tim_ex.c ****             the HAL_TIMEx_BreakCallback could be implemented in the user file
2553:Drivers/STM32F3xx_HAL_Driver/Src/stm32f3xx_hal_tim_ex.c ****    */
2554:Drivers/STM32F3xx_HAL_Driver/Src/stm32f3xx_hal_tim_ex.c **** }
 4583              		.loc 1 2554 0
 4584 0008 0C37     		adds	r7, r7, #12
 4585 000a BD46     		mov	sp, r7
 4586              		@ sp needed
 4587 000c 5DF8047B 		ldr	r7, [sp], #4
 4588 0010 7047     		bx	lr
 4589              		.cfi_endproc
 4590              	.LFE162:
 4592 0012 00BF     		.section	.text.HAL_TIMEx_HallSensor_GetState,"ax",%progbits
 4593              		.align	2
 4594              		.global	HAL_TIMEx_HallSensor_GetState
 4595              		.thumb
 4596              		.thumb_func
 4598              	HAL_TIMEx_HallSensor_GetState:
 4599              	.LFB163:
2555:Drivers/STM32F3xx_HAL_Driver/Src/stm32f3xx_hal_tim_ex.c **** 
2556:Drivers/STM32F3xx_HAL_Driver/Src/stm32f3xx_hal_tim_ex.c **** /**
2557:Drivers/STM32F3xx_HAL_Driver/Src/stm32f3xx_hal_tim_ex.c ****   * @}
2558:Drivers/STM32F3xx_HAL_Driver/Src/stm32f3xx_hal_tim_ex.c ****   */
2559:Drivers/STM32F3xx_HAL_Driver/Src/stm32f3xx_hal_tim_ex.c **** 
2560:Drivers/STM32F3xx_HAL_Driver/Src/stm32f3xx_hal_tim_ex.c **** /** @defgroup TIMEx_Exported_Functions_Group7 Extended Peripheral State functions 
2561:Drivers/STM32F3xx_HAL_Driver/Src/stm32f3xx_hal_tim_ex.c ****   * @brief    Extended Peripheral State functions
2562:Drivers/STM32F3xx_HAL_Driver/Src/stm32f3xx_hal_tim_ex.c ****   *
2563:Drivers/STM32F3xx_HAL_Driver/Src/stm32f3xx_hal_tim_ex.c **** @verbatim   
2564:Drivers/STM32F3xx_HAL_Driver/Src/stm32f3xx_hal_tim_ex.c ****   ==============================================================================
2565:Drivers/STM32F3xx_HAL_Driver/Src/stm32f3xx_hal_tim_ex.c ****                 ##### Extended Peripheral State functions #####
2566:Drivers/STM32F3xx_HAL_Driver/Src/stm32f3xx_hal_tim_ex.c ****   ==============================================================================  
2567:Drivers/STM32F3xx_HAL_Driver/Src/stm32f3xx_hal_tim_ex.c ****   [..]
2568:Drivers/STM32F3xx_HAL_Driver/Src/stm32f3xx_hal_tim_ex.c ****     This subsection permit to get in run-time the status of the peripheral 
2569:Drivers/STM32F3xx_HAL_Driver/Src/stm32f3xx_hal_tim_ex.c ****     and the data flow.
2570:Drivers/STM32F3xx_HAL_Driver/Src/stm32f3xx_hal_tim_ex.c **** 
2571:Drivers/STM32F3xx_HAL_Driver/Src/stm32f3xx_hal_tim_ex.c **** @endverbatim
2572:Drivers/STM32F3xx_HAL_Driver/Src/stm32f3xx_hal_tim_ex.c ****   * @{
2573:Drivers/STM32F3xx_HAL_Driver/Src/stm32f3xx_hal_tim_ex.c ****   */
2574:Drivers/STM32F3xx_HAL_Driver/Src/stm32f3xx_hal_tim_ex.c **** 
2575:Drivers/STM32F3xx_HAL_Driver/Src/stm32f3xx_hal_tim_ex.c **** /**
2576:Drivers/STM32F3xx_HAL_Driver/Src/stm32f3xx_hal_tim_ex.c ****   * @brief  Return the TIM Hall Sensor interface state
2577:Drivers/STM32F3xx_HAL_Driver/Src/stm32f3xx_hal_tim_ex.c ****   * @param  htim: TIM Hall Sensor handle
2578:Drivers/STM32F3xx_HAL_Driver/Src/stm32f3xx_hal_tim_ex.c ****   * @retval HAL state
2579:Drivers/STM32F3xx_HAL_Driver/Src/stm32f3xx_hal_tim_ex.c ****   */
2580:Drivers/STM32F3xx_HAL_Driver/Src/stm32f3xx_hal_tim_ex.c **** HAL_TIM_StateTypeDef HAL_TIMEx_HallSensor_GetState(TIM_HandleTypeDef *htim)
2581:Drivers/STM32F3xx_HAL_Driver/Src/stm32f3xx_hal_tim_ex.c **** {
 4600              		.loc 1 2581 0
 4601              		.cfi_startproc
 4602              		@ args = 0, pretend = 0, frame = 8
 4603              		@ frame_needed = 1, uses_anonymous_args = 0
 4604              		@ link register save eliminated.
 4605 0000 80B4     		push	{r7}
ARM GAS  /tmp/ccRzvoJq.s 			page 126


 4606              	.LCFI114:
 4607              		.cfi_def_cfa_offset 4
 4608              		.cfi_offset 7, -4
 4609 0002 83B0     		sub	sp, sp, #12
 4610              	.LCFI115:
 4611              		.cfi_def_cfa_offset 16
 4612 0004 00AF     		add	r7, sp, #0
 4613              	.LCFI116:
 4614              		.cfi_def_cfa_register 7
 4615 0006 7860     		str	r0, [r7, #4]
2582:Drivers/STM32F3xx_HAL_Driver/Src/stm32f3xx_hal_tim_ex.c ****   return htim->State;
 4616              		.loc 1 2582 0
 4617 0008 7B68     		ldr	r3, [r7, #4]
 4618 000a 93F83930 		ldrb	r3, [r3, #57]
 4619 000e DBB2     		uxtb	r3, r3
2583:Drivers/STM32F3xx_HAL_Driver/Src/stm32f3xx_hal_tim_ex.c **** }
 4620              		.loc 1 2583 0
 4621 0010 1846     		mov	r0, r3
 4622 0012 0C37     		adds	r7, r7, #12
 4623 0014 BD46     		mov	sp, r7
 4624              		@ sp needed
 4625 0016 5DF8047B 		ldr	r7, [sp], #4
 4626 001a 7047     		bx	lr
 4627              		.cfi_endproc
 4628              	.LFE163:
 4630              		.section	.text.TIMEx_DMACommutationCplt,"ax",%progbits
 4631              		.align	2
 4632              		.global	TIMEx_DMACommutationCplt
 4633              		.thumb
 4634              		.thumb_func
 4636              	TIMEx_DMACommutationCplt:
 4637              	.LFB164:
2584:Drivers/STM32F3xx_HAL_Driver/Src/stm32f3xx_hal_tim_ex.c **** 
2585:Drivers/STM32F3xx_HAL_Driver/Src/stm32f3xx_hal_tim_ex.c **** /**
2586:Drivers/STM32F3xx_HAL_Driver/Src/stm32f3xx_hal_tim_ex.c ****   * @}
2587:Drivers/STM32F3xx_HAL_Driver/Src/stm32f3xx_hal_tim_ex.c ****   */
2588:Drivers/STM32F3xx_HAL_Driver/Src/stm32f3xx_hal_tim_ex.c **** 
2589:Drivers/STM32F3xx_HAL_Driver/Src/stm32f3xx_hal_tim_ex.c **** /**
2590:Drivers/STM32F3xx_HAL_Driver/Src/stm32f3xx_hal_tim_ex.c ****   * @}
2591:Drivers/STM32F3xx_HAL_Driver/Src/stm32f3xx_hal_tim_ex.c ****   */ 
2592:Drivers/STM32F3xx_HAL_Driver/Src/stm32f3xx_hal_tim_ex.c **** 
2593:Drivers/STM32F3xx_HAL_Driver/Src/stm32f3xx_hal_tim_ex.c **** /** @addtogroup TIMEx_Private_Functions
2594:Drivers/STM32F3xx_HAL_Driver/Src/stm32f3xx_hal_tim_ex.c ****   * @{
2595:Drivers/STM32F3xx_HAL_Driver/Src/stm32f3xx_hal_tim_ex.c ****   */
2596:Drivers/STM32F3xx_HAL_Driver/Src/stm32f3xx_hal_tim_ex.c **** /**
2597:Drivers/STM32F3xx_HAL_Driver/Src/stm32f3xx_hal_tim_ex.c ****   * @brief  TIM DMA Commutation callback. 
2598:Drivers/STM32F3xx_HAL_Driver/Src/stm32f3xx_hal_tim_ex.c ****   * @param  hdma : pointer to DMA handle.
2599:Drivers/STM32F3xx_HAL_Driver/Src/stm32f3xx_hal_tim_ex.c ****   * @retval None
2600:Drivers/STM32F3xx_HAL_Driver/Src/stm32f3xx_hal_tim_ex.c ****   */
2601:Drivers/STM32F3xx_HAL_Driver/Src/stm32f3xx_hal_tim_ex.c **** void TIMEx_DMACommutationCplt(DMA_HandleTypeDef *hdma)
2602:Drivers/STM32F3xx_HAL_Driver/Src/stm32f3xx_hal_tim_ex.c **** {
 4638              		.loc 1 2602 0
 4639              		.cfi_startproc
 4640              		@ args = 0, pretend = 0, frame = 16
 4641              		@ frame_needed = 1, uses_anonymous_args = 0
 4642 0000 80B5     		push	{r7, lr}
 4643              	.LCFI117:
ARM GAS  /tmp/ccRzvoJq.s 			page 127


 4644              		.cfi_def_cfa_offset 8
 4645              		.cfi_offset 7, -8
 4646              		.cfi_offset 14, -4
 4647 0002 84B0     		sub	sp, sp, #16
 4648              	.LCFI118:
 4649              		.cfi_def_cfa_offset 24
 4650 0004 00AF     		add	r7, sp, #0
 4651              	.LCFI119:
 4652              		.cfi_def_cfa_register 7
 4653 0006 7860     		str	r0, [r7, #4]
2603:Drivers/STM32F3xx_HAL_Driver/Src/stm32f3xx_hal_tim_ex.c ****   TIM_HandleTypeDef* htim = ( TIM_HandleTypeDef* )((DMA_HandleTypeDef* )hdma)->Parent;
 4654              		.loc 1 2603 0
 4655 0008 7B68     		ldr	r3, [r7, #4]
 4656 000a 5B6A     		ldr	r3, [r3, #36]
 4657 000c FB60     		str	r3, [r7, #12]
2604:Drivers/STM32F3xx_HAL_Driver/Src/stm32f3xx_hal_tim_ex.c ****   
2605:Drivers/STM32F3xx_HAL_Driver/Src/stm32f3xx_hal_tim_ex.c ****   htim->State= HAL_TIM_STATE_READY;
 4658              		.loc 1 2605 0
 4659 000e FB68     		ldr	r3, [r7, #12]
 4660 0010 0122     		movs	r2, #1
 4661 0012 83F83920 		strb	r2, [r3, #57]
2606:Drivers/STM32F3xx_HAL_Driver/Src/stm32f3xx_hal_tim_ex.c ****     
2607:Drivers/STM32F3xx_HAL_Driver/Src/stm32f3xx_hal_tim_ex.c ****   HAL_TIMEx_CommutationCallback(htim); 
 4662              		.loc 1 2607 0
 4663 0016 F868     		ldr	r0, [r7, #12]
 4664 0018 FFF7FEFF 		bl	HAL_TIMEx_CommutationCallback
2608:Drivers/STM32F3xx_HAL_Driver/Src/stm32f3xx_hal_tim_ex.c **** }
 4665              		.loc 1 2608 0
 4666 001c 1037     		adds	r7, r7, #16
 4667 001e BD46     		mov	sp, r7
 4668              		@ sp needed
 4669 0020 80BD     		pop	{r7, pc}
 4670              		.cfi_endproc
 4671              	.LFE164:
 4673 0022 00BF     		.section	.text.TIM_CCxNChannelCmd,"ax",%progbits
 4674              		.align	2
 4675              		.thumb
 4676              		.thumb_func
 4678              	TIM_CCxNChannelCmd:
 4679              	.LFB165:
2609:Drivers/STM32F3xx_HAL_Driver/Src/stm32f3xx_hal_tim_ex.c **** 
2610:Drivers/STM32F3xx_HAL_Driver/Src/stm32f3xx_hal_tim_ex.c **** /**
2611:Drivers/STM32F3xx_HAL_Driver/Src/stm32f3xx_hal_tim_ex.c ****   * @brief  Enables or disables the TIM Capture Compare Channel xN.
2612:Drivers/STM32F3xx_HAL_Driver/Src/stm32f3xx_hal_tim_ex.c ****   * @param  TIMx to select the TIM peripheral
2613:Drivers/STM32F3xx_HAL_Driver/Src/stm32f3xx_hal_tim_ex.c ****   * @param  Channel: specifies the TIM Channel
2614:Drivers/STM32F3xx_HAL_Driver/Src/stm32f3xx_hal_tim_ex.c ****   *          This parameter can be one of the following values:
2615:Drivers/STM32F3xx_HAL_Driver/Src/stm32f3xx_hal_tim_ex.c ****   *            @arg TIM_CHANNEL_1: TIM Channel 1
2616:Drivers/STM32F3xx_HAL_Driver/Src/stm32f3xx_hal_tim_ex.c ****   *            @arg TIM_CHANNEL_2: TIM Channel 2
2617:Drivers/STM32F3xx_HAL_Driver/Src/stm32f3xx_hal_tim_ex.c ****   *            @arg TIM_CHANNEL_3: TIM Channel 3
2618:Drivers/STM32F3xx_HAL_Driver/Src/stm32f3xx_hal_tim_ex.c ****   * @param  ChannelNState: specifies the TIM Channel CCxNE bit new state.
2619:Drivers/STM32F3xx_HAL_Driver/Src/stm32f3xx_hal_tim_ex.c ****   *          This parameter can be: TIM_CCxN_ENABLE or TIM_CCxN_Disable. 
2620:Drivers/STM32F3xx_HAL_Driver/Src/stm32f3xx_hal_tim_ex.c ****   * @retval None
2621:Drivers/STM32F3xx_HAL_Driver/Src/stm32f3xx_hal_tim_ex.c ****   */
2622:Drivers/STM32F3xx_HAL_Driver/Src/stm32f3xx_hal_tim_ex.c **** static void TIM_CCxNChannelCmd(TIM_TypeDef* TIMx, uint32_t Channel, uint32_t ChannelNState)
2623:Drivers/STM32F3xx_HAL_Driver/Src/stm32f3xx_hal_tim_ex.c **** {
 4680              		.loc 1 2623 0
 4681              		.cfi_startproc
ARM GAS  /tmp/ccRzvoJq.s 			page 128


 4682              		@ args = 0, pretend = 0, frame = 24
 4683              		@ frame_needed = 1, uses_anonymous_args = 0
 4684              		@ link register save eliminated.
 4685 0000 80B4     		push	{r7}
 4686              	.LCFI120:
 4687              		.cfi_def_cfa_offset 4
 4688              		.cfi_offset 7, -4
 4689 0002 87B0     		sub	sp, sp, #28
 4690              	.LCFI121:
 4691              		.cfi_def_cfa_offset 32
 4692 0004 00AF     		add	r7, sp, #0
 4693              	.LCFI122:
 4694              		.cfi_def_cfa_register 7
 4695 0006 F860     		str	r0, [r7, #12]
 4696 0008 B960     		str	r1, [r7, #8]
 4697 000a 7A60     		str	r2, [r7, #4]
2624:Drivers/STM32F3xx_HAL_Driver/Src/stm32f3xx_hal_tim_ex.c ****   uint32_t tmp = 0;
 4698              		.loc 1 2624 0
 4699 000c 0023     		movs	r3, #0
 4700 000e 7B61     		str	r3, [r7, #20]
2625:Drivers/STM32F3xx_HAL_Driver/Src/stm32f3xx_hal_tim_ex.c **** 
2626:Drivers/STM32F3xx_HAL_Driver/Src/stm32f3xx_hal_tim_ex.c ****   tmp = TIM_CCER_CC1NE << Channel;
 4701              		.loc 1 2626 0
 4702 0010 BB68     		ldr	r3, [r7, #8]
 4703 0012 0422     		movs	r2, #4
 4704 0014 02FA03F3 		lsl	r3, r2, r3
 4705 0018 7B61     		str	r3, [r7, #20]
2627:Drivers/STM32F3xx_HAL_Driver/Src/stm32f3xx_hal_tim_ex.c **** 
2628:Drivers/STM32F3xx_HAL_Driver/Src/stm32f3xx_hal_tim_ex.c ****   /* Reset the CCxNE Bit */
2629:Drivers/STM32F3xx_HAL_Driver/Src/stm32f3xx_hal_tim_ex.c ****   TIMx->CCER &=  ~tmp;
 4706              		.loc 1 2629 0
 4707 001a FB68     		ldr	r3, [r7, #12]
 4708 001c 1A6A     		ldr	r2, [r3, #32]
 4709 001e 7B69     		ldr	r3, [r7, #20]
 4710 0020 DB43     		mvns	r3, r3
 4711 0022 1A40     		ands	r2, r2, r3
 4712 0024 FB68     		ldr	r3, [r7, #12]
 4713 0026 1A62     		str	r2, [r3, #32]
2630:Drivers/STM32F3xx_HAL_Driver/Src/stm32f3xx_hal_tim_ex.c **** 
2631:Drivers/STM32F3xx_HAL_Driver/Src/stm32f3xx_hal_tim_ex.c ****   /* Set or reset the CCxNE Bit */ 
2632:Drivers/STM32F3xx_HAL_Driver/Src/stm32f3xx_hal_tim_ex.c ****   TIMx->CCER |=  (uint32_t)(ChannelNState << Channel);
 4714              		.loc 1 2632 0
 4715 0028 FB68     		ldr	r3, [r7, #12]
 4716 002a 1A6A     		ldr	r2, [r3, #32]
 4717 002c BB68     		ldr	r3, [r7, #8]
 4718 002e 7968     		ldr	r1, [r7, #4]
 4719 0030 01FA03F3 		lsl	r3, r1, r3
 4720 0034 1A43     		orrs	r2, r2, r3
 4721 0036 FB68     		ldr	r3, [r7, #12]
 4722 0038 1A62     		str	r2, [r3, #32]
2633:Drivers/STM32F3xx_HAL_Driver/Src/stm32f3xx_hal_tim_ex.c **** }
 4723              		.loc 1 2633 0
 4724 003a 1C37     		adds	r7, r7, #28
 4725 003c BD46     		mov	sp, r7
 4726              		@ sp needed
 4727 003e 5DF8047B 		ldr	r7, [sp], #4
 4728 0042 7047     		bx	lr
ARM GAS  /tmp/ccRzvoJq.s 			page 129


 4729              		.cfi_endproc
 4730              	.LFE165:
 4732              		.section	.text.TIM_OC5_SetConfig,"ax",%progbits
 4733              		.align	2
 4734              		.thumb
 4735              		.thumb_func
 4737              	TIM_OC5_SetConfig:
 4738              	.LFB166:
2634:Drivers/STM32F3xx_HAL_Driver/Src/stm32f3xx_hal_tim_ex.c **** 
2635:Drivers/STM32F3xx_HAL_Driver/Src/stm32f3xx_hal_tim_ex.c **** #if defined(STM32F302xE) || defined(STM32F303xE) || defined(STM32F398xx) || \
2636:Drivers/STM32F3xx_HAL_Driver/Src/stm32f3xx_hal_tim_ex.c ****     defined(STM32F302xC) || defined(STM32F303xC) || defined(STM32F358xx) || \
2637:Drivers/STM32F3xx_HAL_Driver/Src/stm32f3xx_hal_tim_ex.c ****     defined(STM32F303x8) || defined(STM32F334x8) || defined(STM32F328xx) || \
2638:Drivers/STM32F3xx_HAL_Driver/Src/stm32f3xx_hal_tim_ex.c ****     defined(STM32F301x8) || defined(STM32F302x8) || defined(STM32F318xx)
2639:Drivers/STM32F3xx_HAL_Driver/Src/stm32f3xx_hal_tim_ex.c **** /**
2640:Drivers/STM32F3xx_HAL_Driver/Src/stm32f3xx_hal_tim_ex.c ****   * @brief  Timer Ouput Compare 5 configuration
2641:Drivers/STM32F3xx_HAL_Driver/Src/stm32f3xx_hal_tim_ex.c ****   * @param  TIMx to select the TIM peripheral
2642:Drivers/STM32F3xx_HAL_Driver/Src/stm32f3xx_hal_tim_ex.c ****   * @param  OC_Config: The ouput configuration structure
2643:Drivers/STM32F3xx_HAL_Driver/Src/stm32f3xx_hal_tim_ex.c ****   * @retval None
2644:Drivers/STM32F3xx_HAL_Driver/Src/stm32f3xx_hal_tim_ex.c ****   */
2645:Drivers/STM32F3xx_HAL_Driver/Src/stm32f3xx_hal_tim_ex.c **** static void TIM_OC5_SetConfig(TIM_TypeDef *TIMx, 
2646:Drivers/STM32F3xx_HAL_Driver/Src/stm32f3xx_hal_tim_ex.c ****                               TIM_OC_InitTypeDef *OC_Config)
2647:Drivers/STM32F3xx_HAL_Driver/Src/stm32f3xx_hal_tim_ex.c **** {
 4739              		.loc 1 2647 0
 4740              		.cfi_startproc
 4741              		@ args = 0, pretend = 0, frame = 24
 4742              		@ frame_needed = 1, uses_anonymous_args = 0
 4743              		@ link register save eliminated.
 4744 0000 80B4     		push	{r7}
 4745              	.LCFI123:
 4746              		.cfi_def_cfa_offset 4
 4747              		.cfi_offset 7, -4
 4748 0002 87B0     		sub	sp, sp, #28
 4749              	.LCFI124:
 4750              		.cfi_def_cfa_offset 32
 4751 0004 00AF     		add	r7, sp, #0
 4752              	.LCFI125:
 4753              		.cfi_def_cfa_register 7
 4754 0006 7860     		str	r0, [r7, #4]
 4755 0008 3960     		str	r1, [r7]
2648:Drivers/STM32F3xx_HAL_Driver/Src/stm32f3xx_hal_tim_ex.c ****   uint32_t tmpccmrx = 0;
 4756              		.loc 1 2648 0
 4757 000a 0023     		movs	r3, #0
 4758 000c 3B61     		str	r3, [r7, #16]
2649:Drivers/STM32F3xx_HAL_Driver/Src/stm32f3xx_hal_tim_ex.c ****   uint32_t tmpccer = 0;
 4759              		.loc 1 2649 0
 4760 000e 0023     		movs	r3, #0
 4761 0010 FB60     		str	r3, [r7, #12]
2650:Drivers/STM32F3xx_HAL_Driver/Src/stm32f3xx_hal_tim_ex.c ****   uint32_t tmpcr2 = 0; 
 4762              		.loc 1 2650 0
 4763 0012 0023     		movs	r3, #0
 4764 0014 7B61     		str	r3, [r7, #20]
2651:Drivers/STM32F3xx_HAL_Driver/Src/stm32f3xx_hal_tim_ex.c **** 
2652:Drivers/STM32F3xx_HAL_Driver/Src/stm32f3xx_hal_tim_ex.c ****   /* Disable the output: Reset the CCxE Bit */
2653:Drivers/STM32F3xx_HAL_Driver/Src/stm32f3xx_hal_tim_ex.c ****   TIMx->CCER &= ~TIM_CCER_CC5E;
 4765              		.loc 1 2653 0
 4766 0016 7B68     		ldr	r3, [r7, #4]
 4767 0018 1B6A     		ldr	r3, [r3, #32]
ARM GAS  /tmp/ccRzvoJq.s 			page 130


 4768 001a 23F48032 		bic	r2, r3, #65536
 4769 001e 7B68     		ldr	r3, [r7, #4]
 4770 0020 1A62     		str	r2, [r3, #32]
2654:Drivers/STM32F3xx_HAL_Driver/Src/stm32f3xx_hal_tim_ex.c ****   
2655:Drivers/STM32F3xx_HAL_Driver/Src/stm32f3xx_hal_tim_ex.c ****   /* Get the TIMx CCER register value */
2656:Drivers/STM32F3xx_HAL_Driver/Src/stm32f3xx_hal_tim_ex.c ****   tmpccer = TIMx->CCER;
 4771              		.loc 1 2656 0
 4772 0022 7B68     		ldr	r3, [r7, #4]
 4773 0024 1B6A     		ldr	r3, [r3, #32]
 4774 0026 FB60     		str	r3, [r7, #12]
2657:Drivers/STM32F3xx_HAL_Driver/Src/stm32f3xx_hal_tim_ex.c ****   /* Get the TIMx CR2 register value */
2658:Drivers/STM32F3xx_HAL_Driver/Src/stm32f3xx_hal_tim_ex.c ****   tmpcr2 =  TIMx->CR2; 
 4775              		.loc 1 2658 0
 4776 0028 7B68     		ldr	r3, [r7, #4]
 4777 002a 5B68     		ldr	r3, [r3, #4]
 4778 002c 7B61     		str	r3, [r7, #20]
2659:Drivers/STM32F3xx_HAL_Driver/Src/stm32f3xx_hal_tim_ex.c ****   /* Get the TIMx CCMR1 register value */
2660:Drivers/STM32F3xx_HAL_Driver/Src/stm32f3xx_hal_tim_ex.c ****   tmpccmrx = TIMx->CCMR3;
 4779              		.loc 1 2660 0
 4780 002e 7B68     		ldr	r3, [r7, #4]
 4781 0030 5B6D     		ldr	r3, [r3, #84]
 4782 0032 3B61     		str	r3, [r7, #16]
2661:Drivers/STM32F3xx_HAL_Driver/Src/stm32f3xx_hal_tim_ex.c **** 
2662:Drivers/STM32F3xx_HAL_Driver/Src/stm32f3xx_hal_tim_ex.c ****   /* Reset the Output Compare Mode Bits */
2663:Drivers/STM32F3xx_HAL_Driver/Src/stm32f3xx_hal_tim_ex.c ****   tmpccmrx &= ~(TIM_CCMR3_OC5M);
 4783              		.loc 1 2663 0
 4784 0034 3B69     		ldr	r3, [r7, #16]
 4785 0036 23F48033 		bic	r3, r3, #65536
 4786 003a 23F07003 		bic	r3, r3, #112
 4787 003e 3B61     		str	r3, [r7, #16]
2664:Drivers/STM32F3xx_HAL_Driver/Src/stm32f3xx_hal_tim_ex.c ****   /* Select the Output Compare Mode */
2665:Drivers/STM32F3xx_HAL_Driver/Src/stm32f3xx_hal_tim_ex.c ****   tmpccmrx |= OC_Config->OCMode;
 4788              		.loc 1 2665 0
 4789 0040 3B68     		ldr	r3, [r7]
 4790 0042 1B68     		ldr	r3, [r3]
 4791 0044 3A69     		ldr	r2, [r7, #16]
 4792 0046 1343     		orrs	r3, r3, r2
 4793 0048 3B61     		str	r3, [r7, #16]
2666:Drivers/STM32F3xx_HAL_Driver/Src/stm32f3xx_hal_tim_ex.c ****   
2667:Drivers/STM32F3xx_HAL_Driver/Src/stm32f3xx_hal_tim_ex.c ****   /* Reset the Output Polarity level */
2668:Drivers/STM32F3xx_HAL_Driver/Src/stm32f3xx_hal_tim_ex.c ****   tmpccer &= ~TIM_CCER_CC5P;
 4794              		.loc 1 2668 0
 4795 004a FB68     		ldr	r3, [r7, #12]
 4796 004c 23F40033 		bic	r3, r3, #131072
 4797 0050 FB60     		str	r3, [r7, #12]
2669:Drivers/STM32F3xx_HAL_Driver/Src/stm32f3xx_hal_tim_ex.c ****   /* Set the Output Compare Polarity */
2670:Drivers/STM32F3xx_HAL_Driver/Src/stm32f3xx_hal_tim_ex.c ****   tmpccer |= (OC_Config->OCPolarity << 16);
 4798              		.loc 1 2670 0
 4799 0052 3B68     		ldr	r3, [r7]
 4800 0054 9B68     		ldr	r3, [r3, #8]
 4801 0056 1B04     		lsls	r3, r3, #16
 4802 0058 FA68     		ldr	r2, [r7, #12]
 4803 005a 1343     		orrs	r3, r3, r2
 4804 005c FB60     		str	r3, [r7, #12]
2671:Drivers/STM32F3xx_HAL_Driver/Src/stm32f3xx_hal_tim_ex.c **** 
2672:Drivers/STM32F3xx_HAL_Driver/Src/stm32f3xx_hal_tim_ex.c ****   if(IS_TIM_BREAK_INSTANCE(TIMx))
 4805              		.loc 1 2672 0
ARM GAS  /tmp/ccRzvoJq.s 			page 131


 4806 005e 7A68     		ldr	r2, [r7, #4]
 4807 0060 174B     		ldr	r3, .L258
 4808 0062 9A42     		cmp	r2, r3
 4809 0064 0FD0     		beq	.L256
 4810              		.loc 1 2672 0 is_stmt 0 discriminator 1
 4811 0066 7A68     		ldr	r2, [r7, #4]
 4812 0068 164B     		ldr	r3, .L258+4
 4813 006a 9A42     		cmp	r2, r3
 4814 006c 0BD0     		beq	.L256
 4815 006e 7A68     		ldr	r2, [r7, #4]
 4816 0070 154B     		ldr	r3, .L258+8
 4817 0072 9A42     		cmp	r2, r3
 4818 0074 07D0     		beq	.L256
 4819 0076 7A68     		ldr	r2, [r7, #4]
 4820 0078 144B     		ldr	r3, .L258+12
 4821 007a 9A42     		cmp	r2, r3
 4822 007c 03D0     		beq	.L256
 4823 007e 7A68     		ldr	r2, [r7, #4]
 4824 0080 134B     		ldr	r3, .L258+16
 4825 0082 9A42     		cmp	r2, r3
 4826 0084 09D1     		bne	.L257
 4827              	.L256:
2673:Drivers/STM32F3xx_HAL_Driver/Src/stm32f3xx_hal_tim_ex.c ****   {   
2674:Drivers/STM32F3xx_HAL_Driver/Src/stm32f3xx_hal_tim_ex.c ****     /* Reset the Output Compare IDLE State */
2675:Drivers/STM32F3xx_HAL_Driver/Src/stm32f3xx_hal_tim_ex.c ****     tmpcr2 &= ~TIM_CR2_OIS5;
 4828              		.loc 1 2675 0 is_stmt 1
 4829 0086 7B69     		ldr	r3, [r7, #20]
 4830 0088 23F48033 		bic	r3, r3, #65536
 4831 008c 7B61     		str	r3, [r7, #20]
2676:Drivers/STM32F3xx_HAL_Driver/Src/stm32f3xx_hal_tim_ex.c ****     /* Set the Output Idle state */
2677:Drivers/STM32F3xx_HAL_Driver/Src/stm32f3xx_hal_tim_ex.c ****     tmpcr2 |= (OC_Config->OCIdleState << 8);
 4832              		.loc 1 2677 0
 4833 008e 3B68     		ldr	r3, [r7]
 4834 0090 5B69     		ldr	r3, [r3, #20]
 4835 0092 1B02     		lsls	r3, r3, #8
 4836 0094 7A69     		ldr	r2, [r7, #20]
 4837 0096 1343     		orrs	r3, r3, r2
 4838 0098 7B61     		str	r3, [r7, #20]
 4839              	.L257:
2678:Drivers/STM32F3xx_HAL_Driver/Src/stm32f3xx_hal_tim_ex.c ****   }
2679:Drivers/STM32F3xx_HAL_Driver/Src/stm32f3xx_hal_tim_ex.c ****   /* Write to TIMx CR2 */
2680:Drivers/STM32F3xx_HAL_Driver/Src/stm32f3xx_hal_tim_ex.c ****   TIMx->CR2 = tmpcr2;
 4840              		.loc 1 2680 0
 4841 009a 7B68     		ldr	r3, [r7, #4]
 4842 009c 7A69     		ldr	r2, [r7, #20]
 4843 009e 5A60     		str	r2, [r3, #4]
2681:Drivers/STM32F3xx_HAL_Driver/Src/stm32f3xx_hal_tim_ex.c ****   
2682:Drivers/STM32F3xx_HAL_Driver/Src/stm32f3xx_hal_tim_ex.c ****   /* Write to TIMx CCMR3 */
2683:Drivers/STM32F3xx_HAL_Driver/Src/stm32f3xx_hal_tim_ex.c ****   TIMx->CCMR3 = tmpccmrx;
 4844              		.loc 1 2683 0
 4845 00a0 7B68     		ldr	r3, [r7, #4]
 4846 00a2 3A69     		ldr	r2, [r7, #16]
 4847 00a4 5A65     		str	r2, [r3, #84]
2684:Drivers/STM32F3xx_HAL_Driver/Src/stm32f3xx_hal_tim_ex.c ****   
2685:Drivers/STM32F3xx_HAL_Driver/Src/stm32f3xx_hal_tim_ex.c ****   /* Set the Capture Compare Register value */
2686:Drivers/STM32F3xx_HAL_Driver/Src/stm32f3xx_hal_tim_ex.c ****   TIMx->CCR5 = OC_Config->Pulse;
 4848              		.loc 1 2686 0
ARM GAS  /tmp/ccRzvoJq.s 			page 132


 4849 00a6 3B68     		ldr	r3, [r7]
 4850 00a8 5A68     		ldr	r2, [r3, #4]
 4851 00aa 7B68     		ldr	r3, [r7, #4]
 4852 00ac 9A65     		str	r2, [r3, #88]
2687:Drivers/STM32F3xx_HAL_Driver/Src/stm32f3xx_hal_tim_ex.c ****   
2688:Drivers/STM32F3xx_HAL_Driver/Src/stm32f3xx_hal_tim_ex.c ****   /* Write to TIMx CCER */
2689:Drivers/STM32F3xx_HAL_Driver/Src/stm32f3xx_hal_tim_ex.c ****   TIMx->CCER = tmpccer;  
 4853              		.loc 1 2689 0
 4854 00ae 7B68     		ldr	r3, [r7, #4]
 4855 00b0 FA68     		ldr	r2, [r7, #12]
 4856 00b2 1A62     		str	r2, [r3, #32]
2690:Drivers/STM32F3xx_HAL_Driver/Src/stm32f3xx_hal_tim_ex.c **** }
 4857              		.loc 1 2690 0
 4858 00b4 1C37     		adds	r7, r7, #28
 4859 00b6 BD46     		mov	sp, r7
 4860              		@ sp needed
 4861 00b8 5DF8047B 		ldr	r7, [sp], #4
 4862 00bc 7047     		bx	lr
 4863              	.L259:
 4864 00be 00BF     		.align	2
 4865              	.L258:
 4866 00c0 002C0140 		.word	1073818624
 4867 00c4 00340140 		.word	1073820672
 4868 00c8 00400140 		.word	1073823744
 4869 00cc 00440140 		.word	1073824768
 4870 00d0 00480140 		.word	1073825792
 4871              		.cfi_endproc
 4872              	.LFE166:
 4874              		.section	.text.TIM_OC6_SetConfig,"ax",%progbits
 4875              		.align	2
 4876              		.thumb
 4877              		.thumb_func
 4879              	TIM_OC6_SetConfig:
 4880              	.LFB167:
2691:Drivers/STM32F3xx_HAL_Driver/Src/stm32f3xx_hal_tim_ex.c **** 
2692:Drivers/STM32F3xx_HAL_Driver/Src/stm32f3xx_hal_tim_ex.c **** /**
2693:Drivers/STM32F3xx_HAL_Driver/Src/stm32f3xx_hal_tim_ex.c ****   * @brief  Timer Ouput Compare 6 configuration
2694:Drivers/STM32F3xx_HAL_Driver/Src/stm32f3xx_hal_tim_ex.c ****   * @param  TIMx to select the TIM peripheral
2695:Drivers/STM32F3xx_HAL_Driver/Src/stm32f3xx_hal_tim_ex.c ****   * @param  OC_Config: The ouput configuration structure
2696:Drivers/STM32F3xx_HAL_Driver/Src/stm32f3xx_hal_tim_ex.c ****   * @retval None
2697:Drivers/STM32F3xx_HAL_Driver/Src/stm32f3xx_hal_tim_ex.c ****   */
2698:Drivers/STM32F3xx_HAL_Driver/Src/stm32f3xx_hal_tim_ex.c **** static void TIM_OC6_SetConfig(TIM_TypeDef *TIMx, 
2699:Drivers/STM32F3xx_HAL_Driver/Src/stm32f3xx_hal_tim_ex.c ****                               TIM_OC_InitTypeDef *OC_Config)
2700:Drivers/STM32F3xx_HAL_Driver/Src/stm32f3xx_hal_tim_ex.c **** {
 4881              		.loc 1 2700 0
 4882              		.cfi_startproc
 4883              		@ args = 0, pretend = 0, frame = 24
 4884              		@ frame_needed = 1, uses_anonymous_args = 0
 4885              		@ link register save eliminated.
 4886 0000 80B4     		push	{r7}
 4887              	.LCFI126:
 4888              		.cfi_def_cfa_offset 4
 4889              		.cfi_offset 7, -4
 4890 0002 87B0     		sub	sp, sp, #28
 4891              	.LCFI127:
 4892              		.cfi_def_cfa_offset 32
 4893 0004 00AF     		add	r7, sp, #0
ARM GAS  /tmp/ccRzvoJq.s 			page 133


 4894              	.LCFI128:
 4895              		.cfi_def_cfa_register 7
 4896 0006 7860     		str	r0, [r7, #4]
 4897 0008 3960     		str	r1, [r7]
2701:Drivers/STM32F3xx_HAL_Driver/Src/stm32f3xx_hal_tim_ex.c ****   uint32_t tmpccmrx = 0;
 4898              		.loc 1 2701 0
 4899 000a 0023     		movs	r3, #0
 4900 000c 3B61     		str	r3, [r7, #16]
2702:Drivers/STM32F3xx_HAL_Driver/Src/stm32f3xx_hal_tim_ex.c ****   uint32_t tmpccer = 0;
 4901              		.loc 1 2702 0
 4902 000e 0023     		movs	r3, #0
 4903 0010 FB60     		str	r3, [r7, #12]
2703:Drivers/STM32F3xx_HAL_Driver/Src/stm32f3xx_hal_tim_ex.c ****   uint32_t tmpcr2 = 0; 
 4904              		.loc 1 2703 0
 4905 0012 0023     		movs	r3, #0
 4906 0014 7B61     		str	r3, [r7, #20]
2704:Drivers/STM32F3xx_HAL_Driver/Src/stm32f3xx_hal_tim_ex.c **** 
2705:Drivers/STM32F3xx_HAL_Driver/Src/stm32f3xx_hal_tim_ex.c ****   /* Disable the output: Reset the CCxE Bit */
2706:Drivers/STM32F3xx_HAL_Driver/Src/stm32f3xx_hal_tim_ex.c ****   TIMx->CCER &= ~TIM_CCER_CC6E;
 4907              		.loc 1 2706 0
 4908 0016 7B68     		ldr	r3, [r7, #4]
 4909 0018 1B6A     		ldr	r3, [r3, #32]
 4910 001a 23F48012 		bic	r2, r3, #1048576
 4911 001e 7B68     		ldr	r3, [r7, #4]
 4912 0020 1A62     		str	r2, [r3, #32]
2707:Drivers/STM32F3xx_HAL_Driver/Src/stm32f3xx_hal_tim_ex.c ****   
2708:Drivers/STM32F3xx_HAL_Driver/Src/stm32f3xx_hal_tim_ex.c ****   /* Get the TIMx CCER register value */
2709:Drivers/STM32F3xx_HAL_Driver/Src/stm32f3xx_hal_tim_ex.c ****   tmpccer = TIMx->CCER;
 4913              		.loc 1 2709 0
 4914 0022 7B68     		ldr	r3, [r7, #4]
 4915 0024 1B6A     		ldr	r3, [r3, #32]
 4916 0026 FB60     		str	r3, [r7, #12]
2710:Drivers/STM32F3xx_HAL_Driver/Src/stm32f3xx_hal_tim_ex.c ****   /* Get the TIMx CR2 register value */
2711:Drivers/STM32F3xx_HAL_Driver/Src/stm32f3xx_hal_tim_ex.c ****   tmpcr2 =  TIMx->CR2; 
 4917              		.loc 1 2711 0
 4918 0028 7B68     		ldr	r3, [r7, #4]
 4919 002a 5B68     		ldr	r3, [r3, #4]
 4920 002c 7B61     		str	r3, [r7, #20]
2712:Drivers/STM32F3xx_HAL_Driver/Src/stm32f3xx_hal_tim_ex.c ****   /* Get the TIMx CCMR1 register value */
2713:Drivers/STM32F3xx_HAL_Driver/Src/stm32f3xx_hal_tim_ex.c ****   tmpccmrx = TIMx->CCMR3;
 4921              		.loc 1 2713 0
 4922 002e 7B68     		ldr	r3, [r7, #4]
 4923 0030 5B6D     		ldr	r3, [r3, #84]
 4924 0032 3B61     		str	r3, [r7, #16]
2714:Drivers/STM32F3xx_HAL_Driver/Src/stm32f3xx_hal_tim_ex.c ****     
2715:Drivers/STM32F3xx_HAL_Driver/Src/stm32f3xx_hal_tim_ex.c ****   /* Reset the Output Compare Mode Bits */
2716:Drivers/STM32F3xx_HAL_Driver/Src/stm32f3xx_hal_tim_ex.c ****   tmpccmrx &= ~(TIM_CCMR3_OC6M);
 4925              		.loc 1 2716 0
 4926 0034 3B69     		ldr	r3, [r7, #16]
 4927 0036 23F08073 		bic	r3, r3, #16777216
 4928 003a 23F4E043 		bic	r3, r3, #28672
 4929 003e 3B61     		str	r3, [r7, #16]
2717:Drivers/STM32F3xx_HAL_Driver/Src/stm32f3xx_hal_tim_ex.c ****   /* Select the Output Compare Mode */
2718:Drivers/STM32F3xx_HAL_Driver/Src/stm32f3xx_hal_tim_ex.c ****   tmpccmrx |= (OC_Config->OCMode << 8);
 4930              		.loc 1 2718 0
 4931 0040 3B68     		ldr	r3, [r7]
 4932 0042 1B68     		ldr	r3, [r3]
ARM GAS  /tmp/ccRzvoJq.s 			page 134


 4933 0044 1B02     		lsls	r3, r3, #8
 4934 0046 3A69     		ldr	r2, [r7, #16]
 4935 0048 1343     		orrs	r3, r3, r2
 4936 004a 3B61     		str	r3, [r7, #16]
2719:Drivers/STM32F3xx_HAL_Driver/Src/stm32f3xx_hal_tim_ex.c ****   
2720:Drivers/STM32F3xx_HAL_Driver/Src/stm32f3xx_hal_tim_ex.c ****   /* Reset the Output Polarity level */
2721:Drivers/STM32F3xx_HAL_Driver/Src/stm32f3xx_hal_tim_ex.c ****   tmpccer &= (uint32_t)~TIM_CCER_CC6P;
 4937              		.loc 1 2721 0
 4938 004c FB68     		ldr	r3, [r7, #12]
 4939 004e 23F40013 		bic	r3, r3, #2097152
 4940 0052 FB60     		str	r3, [r7, #12]
2722:Drivers/STM32F3xx_HAL_Driver/Src/stm32f3xx_hal_tim_ex.c ****   /* Set the Output Compare Polarity */
2723:Drivers/STM32F3xx_HAL_Driver/Src/stm32f3xx_hal_tim_ex.c ****   tmpccer |= (OC_Config->OCPolarity << 20);
 4941              		.loc 1 2723 0
 4942 0054 3B68     		ldr	r3, [r7]
 4943 0056 9B68     		ldr	r3, [r3, #8]
 4944 0058 1B05     		lsls	r3, r3, #20
 4945 005a FA68     		ldr	r2, [r7, #12]
 4946 005c 1343     		orrs	r3, r3, r2
 4947 005e FB60     		str	r3, [r7, #12]
2724:Drivers/STM32F3xx_HAL_Driver/Src/stm32f3xx_hal_tim_ex.c **** 
2725:Drivers/STM32F3xx_HAL_Driver/Src/stm32f3xx_hal_tim_ex.c ****   if(IS_TIM_BREAK_INSTANCE(TIMx))
 4948              		.loc 1 2725 0
 4949 0060 7A68     		ldr	r2, [r7, #4]
 4950 0062 174B     		ldr	r3, .L263
 4951 0064 9A42     		cmp	r2, r3
 4952 0066 0FD0     		beq	.L261
 4953              		.loc 1 2725 0 is_stmt 0 discriminator 1
 4954 0068 7A68     		ldr	r2, [r7, #4]
 4955 006a 164B     		ldr	r3, .L263+4
 4956 006c 9A42     		cmp	r2, r3
 4957 006e 0BD0     		beq	.L261
 4958 0070 7A68     		ldr	r2, [r7, #4]
 4959 0072 154B     		ldr	r3, .L263+8
 4960 0074 9A42     		cmp	r2, r3
 4961 0076 07D0     		beq	.L261
 4962 0078 7A68     		ldr	r2, [r7, #4]
 4963 007a 144B     		ldr	r3, .L263+12
 4964 007c 9A42     		cmp	r2, r3
 4965 007e 03D0     		beq	.L261
 4966 0080 7A68     		ldr	r2, [r7, #4]
 4967 0082 134B     		ldr	r3, .L263+16
 4968 0084 9A42     		cmp	r2, r3
 4969 0086 09D1     		bne	.L262
 4970              	.L261:
2726:Drivers/STM32F3xx_HAL_Driver/Src/stm32f3xx_hal_tim_ex.c ****   {   
2727:Drivers/STM32F3xx_HAL_Driver/Src/stm32f3xx_hal_tim_ex.c ****     /* Reset the Output Compare IDLE State */
2728:Drivers/STM32F3xx_HAL_Driver/Src/stm32f3xx_hal_tim_ex.c ****     tmpcr2 &= ~TIM_CR2_OIS6;
 4971              		.loc 1 2728 0 is_stmt 1
 4972 0088 7B69     		ldr	r3, [r7, #20]
 4973 008a 23F48023 		bic	r3, r3, #262144
 4974 008e 7B61     		str	r3, [r7, #20]
2729:Drivers/STM32F3xx_HAL_Driver/Src/stm32f3xx_hal_tim_ex.c ****     /* Set the Output Idle state */
2730:Drivers/STM32F3xx_HAL_Driver/Src/stm32f3xx_hal_tim_ex.c ****     tmpcr2 |= (OC_Config->OCIdleState << 10);
 4975              		.loc 1 2730 0
 4976 0090 3B68     		ldr	r3, [r7]
 4977 0092 5B69     		ldr	r3, [r3, #20]
ARM GAS  /tmp/ccRzvoJq.s 			page 135


 4978 0094 9B02     		lsls	r3, r3, #10
 4979 0096 7A69     		ldr	r2, [r7, #20]
 4980 0098 1343     		orrs	r3, r3, r2
 4981 009a 7B61     		str	r3, [r7, #20]
 4982              	.L262:
2731:Drivers/STM32F3xx_HAL_Driver/Src/stm32f3xx_hal_tim_ex.c ****   }
2732:Drivers/STM32F3xx_HAL_Driver/Src/stm32f3xx_hal_tim_ex.c ****   
2733:Drivers/STM32F3xx_HAL_Driver/Src/stm32f3xx_hal_tim_ex.c ****   /* Write to TIMx CR2 */
2734:Drivers/STM32F3xx_HAL_Driver/Src/stm32f3xx_hal_tim_ex.c ****   TIMx->CR2 = tmpcr2;
 4983              		.loc 1 2734 0
 4984 009c 7B68     		ldr	r3, [r7, #4]
 4985 009e 7A69     		ldr	r2, [r7, #20]
 4986 00a0 5A60     		str	r2, [r3, #4]
2735:Drivers/STM32F3xx_HAL_Driver/Src/stm32f3xx_hal_tim_ex.c ****   
2736:Drivers/STM32F3xx_HAL_Driver/Src/stm32f3xx_hal_tim_ex.c ****   /* Write to TIMx CCMR3 */
2737:Drivers/STM32F3xx_HAL_Driver/Src/stm32f3xx_hal_tim_ex.c ****   TIMx->CCMR3 = tmpccmrx;
 4987              		.loc 1 2737 0
 4988 00a2 7B68     		ldr	r3, [r7, #4]
 4989 00a4 3A69     		ldr	r2, [r7, #16]
 4990 00a6 5A65     		str	r2, [r3, #84]
2738:Drivers/STM32F3xx_HAL_Driver/Src/stm32f3xx_hal_tim_ex.c ****   
2739:Drivers/STM32F3xx_HAL_Driver/Src/stm32f3xx_hal_tim_ex.c ****   /* Set the Capture Compare Register value */
2740:Drivers/STM32F3xx_HAL_Driver/Src/stm32f3xx_hal_tim_ex.c ****   TIMx->CCR6 = OC_Config->Pulse;
 4991              		.loc 1 2740 0
 4992 00a8 3B68     		ldr	r3, [r7]
 4993 00aa 5A68     		ldr	r2, [r3, #4]
 4994 00ac 7B68     		ldr	r3, [r7, #4]
 4995 00ae DA65     		str	r2, [r3, #92]
2741:Drivers/STM32F3xx_HAL_Driver/Src/stm32f3xx_hal_tim_ex.c ****   
2742:Drivers/STM32F3xx_HAL_Driver/Src/stm32f3xx_hal_tim_ex.c ****   /* Write to TIMx CCER */
2743:Drivers/STM32F3xx_HAL_Driver/Src/stm32f3xx_hal_tim_ex.c ****   TIMx->CCER = tmpccer;  
 4996              		.loc 1 2743 0
 4997 00b0 7B68     		ldr	r3, [r7, #4]
 4998 00b2 FA68     		ldr	r2, [r7, #12]
 4999 00b4 1A62     		str	r2, [r3, #32]
2744:Drivers/STM32F3xx_HAL_Driver/Src/stm32f3xx_hal_tim_ex.c **** } 
 5000              		.loc 1 2744 0
 5001 00b6 1C37     		adds	r7, r7, #28
 5002 00b8 BD46     		mov	sp, r7
 5003              		@ sp needed
 5004 00ba 5DF8047B 		ldr	r7, [sp], #4
 5005 00be 7047     		bx	lr
 5006              	.L264:
 5007              		.align	2
 5008              	.L263:
 5009 00c0 002C0140 		.word	1073818624
 5010 00c4 00340140 		.word	1073820672
 5011 00c8 00400140 		.word	1073823744
 5012 00cc 00440140 		.word	1073824768
 5013 00d0 00480140 		.word	1073825792
 5014              		.cfi_endproc
 5015              	.LFE167:
 5017              		.text
 5018              	.Letext0:
 5019              		.file 2 "/usr/include/newlib/machine/_default_types.h"
 5020              		.file 3 "/usr/include/newlib/stdint.h"
 5021              		.file 4 "Drivers/CMSIS/Device/ST/STM32F3xx/Include/stm32f303xc.h"
ARM GAS  /tmp/ccRzvoJq.s 			page 136


 5022              		.file 5 "Drivers/CMSIS/Device/ST/STM32F3xx/Include/stm32f3xx.h"
 5023              		.file 6 "Drivers/STM32F3xx_HAL_Driver/Inc/stm32f3xx_hal_def.h"
 5024              		.file 7 "Drivers/STM32F3xx_HAL_Driver/Inc/stm32f3xx_hal_dma.h"
 5025              		.file 8 "Drivers/STM32F3xx_HAL_Driver/Inc/stm32f3xx_hal_tim.h"
 5026              		.file 9 "Drivers/STM32F3xx_HAL_Driver/Inc/stm32f3xx_hal_tim_ex.h"
 5027              		.file 10 "Drivers/CMSIS/Include/core_cm4.h"
ARM GAS  /tmp/ccRzvoJq.s 			page 137


DEFINED SYMBOLS
                            *ABS*:0000000000000000 stm32f3xx_hal_tim_ex.c
     /tmp/ccRzvoJq.s:21     .text.HAL_TIMEx_HallSensor_Init:0000000000000000 $t
     /tmp/ccRzvoJq.s:26     .text.HAL_TIMEx_HallSensor_Init:0000000000000000 HAL_TIMEx_HallSensor_Init
     /tmp/ccRzvoJq.s:291    .text.HAL_TIMEx_HallSensor_MspInit:0000000000000000 HAL_TIMEx_HallSensor_MspInit
     /tmp/ccRzvoJq.s:212    .text.HAL_TIMEx_HallSensor_DeInit:0000000000000000 $t
     /tmp/ccRzvoJq.s:217    .text.HAL_TIMEx_HallSensor_DeInit:0000000000000000 HAL_TIMEx_HallSensor_DeInit
     /tmp/ccRzvoJq.s:324    .text.HAL_TIMEx_HallSensor_MspDeInit:0000000000000000 HAL_TIMEx_HallSensor_MspDeInit
     /tmp/ccRzvoJq.s:286    .text.HAL_TIMEx_HallSensor_MspInit:0000000000000000 $t
     /tmp/ccRzvoJq.s:319    .text.HAL_TIMEx_HallSensor_MspDeInit:0000000000000000 $t
     /tmp/ccRzvoJq.s:352    .text.HAL_TIMEx_HallSensor_Start:0000000000000000 $t
     /tmp/ccRzvoJq.s:357    .text.HAL_TIMEx_HallSensor_Start:0000000000000000 HAL_TIMEx_HallSensor_Start
     /tmp/ccRzvoJq.s:402    .text.HAL_TIMEx_HallSensor_Stop:0000000000000000 $t
     /tmp/ccRzvoJq.s:407    .text.HAL_TIMEx_HallSensor_Stop:0000000000000000 HAL_TIMEx_HallSensor_Stop
     /tmp/ccRzvoJq.s:468    .text.HAL_TIMEx_HallSensor_Start_IT:0000000000000000 $t
     /tmp/ccRzvoJq.s:473    .text.HAL_TIMEx_HallSensor_Start_IT:0000000000000000 HAL_TIMEx_HallSensor_Start_IT
     /tmp/ccRzvoJq.s:526    .text.HAL_TIMEx_HallSensor_Stop_IT:0000000000000000 $t
     /tmp/ccRzvoJq.s:531    .text.HAL_TIMEx_HallSensor_Stop_IT:0000000000000000 HAL_TIMEx_HallSensor_Stop_IT
     /tmp/ccRzvoJq.s:600    .text.HAL_TIMEx_HallSensor_Start_DMA:0000000000000000 $t
     /tmp/ccRzvoJq.s:605    .text.HAL_TIMEx_HallSensor_Start_DMA:0000000000000000 HAL_TIMEx_HallSensor_Start_DMA
     /tmp/ccRzvoJq.s:714    .text.HAL_TIMEx_HallSensor_Start_DMA:00000000000000a0 $d
     /tmp/ccRzvoJq.s:720    .text.HAL_TIMEx_HallSensor_Stop_DMA:0000000000000000 $t
     /tmp/ccRzvoJq.s:725    .text.HAL_TIMEx_HallSensor_Stop_DMA:0000000000000000 HAL_TIMEx_HallSensor_Stop_DMA
     /tmp/ccRzvoJq.s:794    .text.HAL_TIMEx_OCN_Start:0000000000000000 $t
     /tmp/ccRzvoJq.s:799    .text.HAL_TIMEx_OCN_Start:0000000000000000 HAL_TIMEx_OCN_Start
     /tmp/ccRzvoJq.s:4678   .text.TIM_CCxNChannelCmd:0000000000000000 TIM_CCxNChannelCmd
     /tmp/ccRzvoJq.s:853    .text.HAL_TIMEx_OCN_Stop:0000000000000000 $t
     /tmp/ccRzvoJq.s:858    .text.HAL_TIMEx_OCN_Stop:0000000000000000 HAL_TIMEx_OCN_Stop
     /tmp/ccRzvoJq.s:944    .text.HAL_TIMEx_OCN_Start_IT:0000000000000000 $t
     /tmp/ccRzvoJq.s:949    .text.HAL_TIMEx_OCN_Start_IT:0000000000000000 HAL_TIMEx_OCN_Start_IT
     /tmp/ccRzvoJq.s:976    .text.HAL_TIMEx_OCN_Start_IT:0000000000000018 $d
     /tmp/ccRzvoJq.s:989    .text.HAL_TIMEx_OCN_Start_IT:000000000000004c $t
     /tmp/ccRzvoJq.s:1081   .text.HAL_TIMEx_OCN_Stop_IT:0000000000000000 $t
     /tmp/ccRzvoJq.s:1086   .text.HAL_TIMEx_OCN_Stop_IT:0000000000000000 HAL_TIMEx_OCN_Stop_IT
     /tmp/ccRzvoJq.s:1116   .text.HAL_TIMEx_OCN_Stop_IT:000000000000001c $d
     /tmp/ccRzvoJq.s:1129   .text.HAL_TIMEx_OCN_Stop_IT:0000000000000050 $t
     /tmp/ccRzvoJq.s:1265   .text.HAL_TIMEx_OCN_Start_DMA:0000000000000000 $t
     /tmp/ccRzvoJq.s:1270   .text.HAL_TIMEx_OCN_Start_DMA:0000000000000000 HAL_TIMEx_OCN_Start_DMA
     /tmp/ccRzvoJq.s:1332   .text.HAL_TIMEx_OCN_Start_DMA:0000000000000050 $d
     /tmp/ccRzvoJq.s:1345   .text.HAL_TIMEx_OCN_Start_DMA:0000000000000084 $t
     /tmp/ccRzvoJq.s:1509   .text.HAL_TIMEx_OCN_Start_DMA:0000000000000198 $d
     /tmp/ccRzvoJq.s:1515   .text.HAL_TIMEx_OCN_Stop_DMA:0000000000000000 $t
     /tmp/ccRzvoJq.s:1520   .text.HAL_TIMEx_OCN_Stop_DMA:0000000000000000 HAL_TIMEx_OCN_Stop_DMA
     /tmp/ccRzvoJq.s:1547   .text.HAL_TIMEx_OCN_Stop_DMA:0000000000000018 $d
     /tmp/ccRzvoJq.s:1560   .text.HAL_TIMEx_OCN_Stop_DMA:000000000000004c $t
     /tmp/ccRzvoJq.s:1680   .text.HAL_TIMEx_PWMN_Start:0000000000000000 $t
     /tmp/ccRzvoJq.s:1685   .text.HAL_TIMEx_PWMN_Start:0000000000000000 HAL_TIMEx_PWMN_Start
     /tmp/ccRzvoJq.s:1739   .text.HAL_TIMEx_PWMN_Stop:0000000000000000 $t
     /tmp/ccRzvoJq.s:1744   .text.HAL_TIMEx_PWMN_Stop:0000000000000000 HAL_TIMEx_PWMN_Stop
     /tmp/ccRzvoJq.s:1830   .text.HAL_TIMEx_PWMN_Start_IT:0000000000000000 $t
     /tmp/ccRzvoJq.s:1835   .text.HAL_TIMEx_PWMN_Start_IT:0000000000000000 HAL_TIMEx_PWMN_Start_IT
     /tmp/ccRzvoJq.s:1862   .text.HAL_TIMEx_PWMN_Start_IT:0000000000000018 $d
     /tmp/ccRzvoJq.s:1875   .text.HAL_TIMEx_PWMN_Start_IT:000000000000004c $t
     /tmp/ccRzvoJq.s:1967   .text.HAL_TIMEx_PWMN_Stop_IT:0000000000000000 $t
     /tmp/ccRzvoJq.s:1972   .text.HAL_TIMEx_PWMN_Stop_IT:0000000000000000 HAL_TIMEx_PWMN_Stop_IT
     /tmp/ccRzvoJq.s:2002   .text.HAL_TIMEx_PWMN_Stop_IT:000000000000001c $d
     /tmp/ccRzvoJq.s:2015   .text.HAL_TIMEx_PWMN_Stop_IT:0000000000000050 $t
ARM GAS  /tmp/ccRzvoJq.s 			page 138


     /tmp/ccRzvoJq.s:2151   .text.HAL_TIMEx_PWMN_Start_DMA:0000000000000000 $t
     /tmp/ccRzvoJq.s:2156   .text.HAL_TIMEx_PWMN_Start_DMA:0000000000000000 HAL_TIMEx_PWMN_Start_DMA
     /tmp/ccRzvoJq.s:2218   .text.HAL_TIMEx_PWMN_Start_DMA:0000000000000050 $d
     /tmp/ccRzvoJq.s:2231   .text.HAL_TIMEx_PWMN_Start_DMA:0000000000000084 $t
     /tmp/ccRzvoJq.s:2395   .text.HAL_TIMEx_PWMN_Start_DMA:0000000000000198 $d
     /tmp/ccRzvoJq.s:2401   .text.HAL_TIMEx_PWMN_Stop_DMA:0000000000000000 $t
     /tmp/ccRzvoJq.s:2406   .text.HAL_TIMEx_PWMN_Stop_DMA:0000000000000000 HAL_TIMEx_PWMN_Stop_DMA
     /tmp/ccRzvoJq.s:2433   .text.HAL_TIMEx_PWMN_Stop_DMA:0000000000000018 $d
     /tmp/ccRzvoJq.s:2446   .text.HAL_TIMEx_PWMN_Stop_DMA:000000000000004c $t
     /tmp/ccRzvoJq.s:2566   .text.HAL_TIMEx_OnePulseN_Start:0000000000000000 $t
     /tmp/ccRzvoJq.s:2571   .text.HAL_TIMEx_OnePulseN_Start:0000000000000000 HAL_TIMEx_OnePulseN_Start
     /tmp/ccRzvoJq.s:2617   .text.HAL_TIMEx_OnePulseN_Stop:0000000000000000 $t
     /tmp/ccRzvoJq.s:2622   .text.HAL_TIMEx_OnePulseN_Stop:0000000000000000 HAL_TIMEx_OnePulseN_Stop
     /tmp/ccRzvoJq.s:2708   .text.HAL_TIMEx_OnePulseN_Start_IT:0000000000000000 $t
     /tmp/ccRzvoJq.s:2713   .text.HAL_TIMEx_OnePulseN_Start_IT:0000000000000000 HAL_TIMEx_OnePulseN_Start_IT
     /tmp/ccRzvoJq.s:2775   .text.HAL_TIMEx_OnePulseN_Stop_IT:0000000000000000 $t
     /tmp/ccRzvoJq.s:2780   .text.HAL_TIMEx_OnePulseN_Stop_IT:0000000000000000 HAL_TIMEx_OnePulseN_Stop_IT
     /tmp/ccRzvoJq.s:2882   .text.HAL_TIMEx_ConfigCommutationEvent:0000000000000000 $t
     /tmp/ccRzvoJq.s:2887   .text.HAL_TIMEx_ConfigCommutationEvent:0000000000000000 HAL_TIMEx_ConfigCommutationEvent
     /tmp/ccRzvoJq.s:2997   .text.HAL_TIMEx_ConfigCommutationEvent_IT:0000000000000000 $t
     /tmp/ccRzvoJq.s:3002   .text.HAL_TIMEx_ConfigCommutationEvent_IT:0000000000000000 HAL_TIMEx_ConfigCommutationEvent_IT
     /tmp/ccRzvoJq.s:3120   .text.HAL_TIMEx_ConfigCommutationEvent_DMA:0000000000000000 $t
     /tmp/ccRzvoJq.s:3125   .text.HAL_TIMEx_ConfigCommutationEvent_DMA:0000000000000000 HAL_TIMEx_ConfigCommutationEvent_DMA
     /tmp/ccRzvoJq.s:3252   .text.HAL_TIMEx_ConfigCommutationEvent_DMA:00000000000000c0 $d
     /tmp/ccRzvoJq.s:4636   .text.TIMEx_DMACommutationCplt:0000000000000000 TIMEx_DMACommutationCplt
     /tmp/ccRzvoJq.s:3258   .text.HAL_TIM_OC_ConfigChannel:0000000000000000 $t
     /tmp/ccRzvoJq.s:3263   .text.HAL_TIM_OC_ConfigChannel:0000000000000000 HAL_TIM_OC_ConfigChannel
     /tmp/ccRzvoJq.s:3308   .text.HAL_TIM_OC_ConfigChannel:0000000000000038 $d
     /tmp/ccRzvoJq.s:3329   .text.HAL_TIM_OC_ConfigChannel:000000000000008c $t
     /tmp/ccRzvoJq.s:4737   .text.TIM_OC5_SetConfig:0000000000000000 TIM_OC5_SetConfig
     /tmp/ccRzvoJq.s:4879   .text.TIM_OC6_SetConfig:0000000000000000 TIM_OC6_SetConfig
     /tmp/ccRzvoJq.s:3409   .text.HAL_TIM_PWM_ConfigChannel:0000000000000000 $t
     /tmp/ccRzvoJq.s:3414   .text.HAL_TIM_PWM_ConfigChannel:0000000000000000 HAL_TIM_PWM_ConfigChannel
     /tmp/ccRzvoJq.s:3459   .text.HAL_TIM_PWM_ConfigChannel:0000000000000038 $d
     /tmp/ccRzvoJq.s:3480   .text.HAL_TIM_PWM_ConfigChannel:000000000000008c $t
     /tmp/ccRzvoJq.s:3719   .text.HAL_TIM_ConfigOCrefClear:0000000000000000 $t
     /tmp/ccRzvoJq.s:3724   .text.HAL_TIM_ConfigOCrefClear:0000000000000000 HAL_TIM_ConfigOCrefClear
     /tmp/ccRzvoJq.s:3837   .text.HAL_TIM_ConfigOCrefClear:00000000000000a8 $d
     /tmp/ccRzvoJq.s:3858   .text.HAL_TIM_ConfigOCrefClear:00000000000000fc $t
     /tmp/ccRzvoJq.s:4046   .text.HAL_TIMEx_MasterConfigSynchronization:0000000000000000 $t
     /tmp/ccRzvoJq.s:4051   .text.HAL_TIMEx_MasterConfigSynchronization:0000000000000000 HAL_TIMEx_MasterConfigSynchronization
     /tmp/ccRzvoJq.s:4164   .text.HAL_TIMEx_MasterConfigSynchronization:00000000000000a0 $d
     /tmp/ccRzvoJq.s:4170   .text.HAL_TIMEx_ConfigBreakDeadTime:0000000000000000 $t
     /tmp/ccRzvoJq.s:4175   .text.HAL_TIMEx_ConfigBreakDeadTime:0000000000000000 HAL_TIMEx_ConfigBreakDeadTime
     /tmp/ccRzvoJq.s:4374   .text.HAL_TIMEx_ConfigBreakDeadTime:000000000000012c $d
     /tmp/ccRzvoJq.s:4380   .text.HAL_TIMEx_RemapConfig:0000000000000000 $t
     /tmp/ccRzvoJq.s:4385   .text.HAL_TIMEx_RemapConfig:0000000000000000 HAL_TIMEx_RemapConfig
     /tmp/ccRzvoJq.s:4447   .text.HAL_TIMEx_GroupChannel5:0000000000000000 $t
     /tmp/ccRzvoJq.s:4452   .text.HAL_TIMEx_GroupChannel5:0000000000000000 HAL_TIMEx_GroupChannel5
     /tmp/ccRzvoJq.s:4527   .text.HAL_TIMEx_CommutationCallback:0000000000000000 $t
     /tmp/ccRzvoJq.s:4532   .text.HAL_TIMEx_CommutationCallback:0000000000000000 HAL_TIMEx_CommutationCallback
     /tmp/ccRzvoJq.s:4560   .text.HAL_TIMEx_BreakCallback:0000000000000000 $t
     /tmp/ccRzvoJq.s:4565   .text.HAL_TIMEx_BreakCallback:0000000000000000 HAL_TIMEx_BreakCallback
     /tmp/ccRzvoJq.s:4593   .text.HAL_TIMEx_HallSensor_GetState:0000000000000000 $t
     /tmp/ccRzvoJq.s:4598   .text.HAL_TIMEx_HallSensor_GetState:0000000000000000 HAL_TIMEx_HallSensor_GetState
     /tmp/ccRzvoJq.s:4631   .text.TIMEx_DMACommutationCplt:0000000000000000 $t
     /tmp/ccRzvoJq.s:4674   .text.TIM_CCxNChannelCmd:0000000000000000 $t
ARM GAS  /tmp/ccRzvoJq.s 			page 139


     /tmp/ccRzvoJq.s:4733   .text.TIM_OC5_SetConfig:0000000000000000 $t
     /tmp/ccRzvoJq.s:4866   .text.TIM_OC5_SetConfig:00000000000000c0 $d
     /tmp/ccRzvoJq.s:4875   .text.TIM_OC6_SetConfig:0000000000000000 $t
     /tmp/ccRzvoJq.s:5009   .text.TIM_OC6_SetConfig:00000000000000c0 $d
                     .debug_frame:0000000000000010 $d

UNDEFINED SYMBOLS
TIM_Base_SetConfig
TIM_TI1_SetConfig
TIM_OC2_SetConfig
TIM_CCxChannelCmd
HAL_DMA_Start_IT
TIM_DMACaptureCplt
TIM_DMAError
TIM_DMADelayPulseCplt
TIM_OC1_SetConfig
TIM_OC3_SetConfig
TIM_OC4_SetConfig
TIM_ETR_SetConfig
