ARM GAS  /tmp/cccMkWxB.s 			page 1


   1              		.syntax unified
   2              		.cpu cortex-m4
   3              		.eabi_attribute 27, 3
   4              		.eabi_attribute 28, 1
   5              		.fpu fpv4-sp-d16
   6              		.eabi_attribute 20, 1
   7              		.eabi_attribute 21, 1
   8              		.eabi_attribute 23, 3
   9              		.eabi_attribute 24, 1
  10              		.eabi_attribute 25, 1
  11              		.eabi_attribute 26, 1
  12              		.eabi_attribute 30, 6
  13              		.eabi_attribute 34, 1
  14              		.eabi_attribute 18, 4
  15              		.thumb
  16              		.file	"stm32f3xx_hal_msp.c"
  17              		.text
  18              	.Ltext0:
  19              		.cfi_sections	.debug_frame
  20              		.section	.text.HAL_MspInit,"ax",%progbits
  21              		.align	2
  22              		.global	HAL_MspInit
  23              		.thumb
  24              		.thumb_func
  26              	HAL_MspInit:
  27              	.LFB125:
  28              		.file 1 "Src/stm32f3xx_hal_msp.c"
   1:Src/stm32f3xx_hal_msp.c **** /**
   2:Src/stm32f3xx_hal_msp.c ****   ******************************************************************************
   3:Src/stm32f3xx_hal_msp.c ****   * File Name          : stm32f3xx_hal_msp.c
   4:Src/stm32f3xx_hal_msp.c ****   * Description        : This file provides code for the MSP Initialization 
   5:Src/stm32f3xx_hal_msp.c ****   *                      and de-Initialization codes.
   6:Src/stm32f3xx_hal_msp.c ****   ******************************************************************************
   7:Src/stm32f3xx_hal_msp.c ****   *
   8:Src/stm32f3xx_hal_msp.c ****   * COPYRIGHT(c) 2016 STMicroelectronics
   9:Src/stm32f3xx_hal_msp.c ****   *
  10:Src/stm32f3xx_hal_msp.c ****   * Redistribution and use in source and binary forms, with or without modification,
  11:Src/stm32f3xx_hal_msp.c ****   * are permitted provided that the following conditions are met:
  12:Src/stm32f3xx_hal_msp.c ****   *   1. Redistributions of source code must retain the above copyright notice,
  13:Src/stm32f3xx_hal_msp.c ****   *      this list of conditions and the following disclaimer.
  14:Src/stm32f3xx_hal_msp.c ****   *   2. Redistributions in binary form must reproduce the above copyright notice,
  15:Src/stm32f3xx_hal_msp.c ****   *      this list of conditions and the following disclaimer in the documentation
  16:Src/stm32f3xx_hal_msp.c ****   *      and/or other materials provided with the distribution.
  17:Src/stm32f3xx_hal_msp.c ****   *   3. Neither the name of STMicroelectronics nor the names of its contributors
  18:Src/stm32f3xx_hal_msp.c ****   *      may be used to endorse or promote products derived from this software
  19:Src/stm32f3xx_hal_msp.c ****   *      without specific prior written permission.
  20:Src/stm32f3xx_hal_msp.c ****   *
  21:Src/stm32f3xx_hal_msp.c ****   * THIS SOFTWARE IS PROVIDED BY THE COPYRIGHT HOLDERS AND CONTRIBUTORS "AS IS"
  22:Src/stm32f3xx_hal_msp.c ****   * AND ANY EXPRESS OR IMPLIED WARRANTIES, INCLUDING, BUT NOT LIMITED TO, THE
  23:Src/stm32f3xx_hal_msp.c ****   * IMPLIED WARRANTIES OF MERCHANTABILITY AND FITNESS FOR A PARTICULAR PURPOSE ARE
  24:Src/stm32f3xx_hal_msp.c ****   * DISCLAIMED. IN NO EVENT SHALL THE COPYRIGHT HOLDER OR CONTRIBUTORS BE LIABLE
  25:Src/stm32f3xx_hal_msp.c ****   * FOR ANY DIRECT, INDIRECT, INCIDENTAL, SPECIAL, EXEMPLARY, OR CONSEQUENTIAL
  26:Src/stm32f3xx_hal_msp.c ****   * DAMAGES (INCLUDING, BUT NOT LIMITED TO, PROCUREMENT OF SUBSTITUTE GOODS OR
  27:Src/stm32f3xx_hal_msp.c ****   * SERVICES; LOSS OF USE, DATA, OR PROFITS; OR BUSINESS INTERRUPTION) HOWEVER
  28:Src/stm32f3xx_hal_msp.c ****   * CAUSED AND ON ANY THEORY OF LIABILITY, WHETHER IN CONTRACT, STRICT LIABILITY,
  29:Src/stm32f3xx_hal_msp.c ****   * OR TORT (INCLUDING NEGLIGENCE OR OTHERWISE) ARISING IN ANY WAY OUT OF THE USE
  30:Src/stm32f3xx_hal_msp.c ****   * OF THIS SOFTWARE, EVEN IF ADVISED OF THE POSSIBILITY OF SUCH DAMAGE.
ARM GAS  /tmp/cccMkWxB.s 			page 2


  31:Src/stm32f3xx_hal_msp.c ****   *
  32:Src/stm32f3xx_hal_msp.c ****   ******************************************************************************
  33:Src/stm32f3xx_hal_msp.c ****   */
  34:Src/stm32f3xx_hal_msp.c **** /* Includes ------------------------------------------------------------------*/
  35:Src/stm32f3xx_hal_msp.c **** #include "stm32f3xx_hal.h"
  36:Src/stm32f3xx_hal_msp.c **** 
  37:Src/stm32f3xx_hal_msp.c **** extern void Error_Handler(void);
  38:Src/stm32f3xx_hal_msp.c **** /* USER CODE BEGIN 0 */
  39:Src/stm32f3xx_hal_msp.c **** 
  40:Src/stm32f3xx_hal_msp.c **** /* USER CODE END 0 */
  41:Src/stm32f3xx_hal_msp.c **** 
  42:Src/stm32f3xx_hal_msp.c **** /**
  43:Src/stm32f3xx_hal_msp.c ****   * Initializes the Global MSP.
  44:Src/stm32f3xx_hal_msp.c ****   */
  45:Src/stm32f3xx_hal_msp.c **** void HAL_MspInit(void)
  46:Src/stm32f3xx_hal_msp.c **** {
  29              		.loc 1 46 0
  30              		.cfi_startproc
  31              		@ args = 0, pretend = 0, frame = 8
  32              		@ frame_needed = 1, uses_anonymous_args = 0
  33 0000 80B5     		push	{r7, lr}
  34              	.LCFI0:
  35              		.cfi_def_cfa_offset 8
  36              		.cfi_offset 7, -8
  37              		.cfi_offset 14, -4
  38 0002 82B0     		sub	sp, sp, #8
  39              	.LCFI1:
  40              		.cfi_def_cfa_offset 16
  41 0004 00AF     		add	r7, sp, #0
  42              	.LCFI2:
  43              		.cfi_def_cfa_register 7
  44              	.LBB2:
  47:Src/stm32f3xx_hal_msp.c ****   /* USER CODE BEGIN MspInit 0 */
  48:Src/stm32f3xx_hal_msp.c **** 
  49:Src/stm32f3xx_hal_msp.c ****   /* USER CODE END MspInit 0 */
  50:Src/stm32f3xx_hal_msp.c **** 
  51:Src/stm32f3xx_hal_msp.c ****   __HAL_RCC_SYSCFG_CLK_ENABLE();
  45              		.loc 1 51 0
  46 0006 1E4B     		ldr	r3, .L2
  47 0008 1D4A     		ldr	r2, .L2
  48 000a 9269     		ldr	r2, [r2, #24]
  49 000c 42F00102 		orr	r2, r2, #1
  50 0010 9A61     		str	r2, [r3, #24]
  51 0012 1B4B     		ldr	r3, .L2
  52 0014 9B69     		ldr	r3, [r3, #24]
  53 0016 03F00103 		and	r3, r3, #1
  54 001a 7B60     		str	r3, [r7, #4]
  55 001c 7B68     		ldr	r3, [r7, #4]
  56              	.LBE2:
  52:Src/stm32f3xx_hal_msp.c **** 
  53:Src/stm32f3xx_hal_msp.c ****   HAL_NVIC_SetPriorityGrouping(NVIC_PRIORITYGROUP_0);
  57              		.loc 1 53 0
  58 001e 0720     		movs	r0, #7
  59 0020 FFF7FEFF 		bl	HAL_NVIC_SetPriorityGrouping
  54:Src/stm32f3xx_hal_msp.c **** 
  55:Src/stm32f3xx_hal_msp.c ****   /* System interrupt init*/
  56:Src/stm32f3xx_hal_msp.c ****   /* MemoryManagement_IRQn interrupt configuration */
ARM GAS  /tmp/cccMkWxB.s 			page 3


  57:Src/stm32f3xx_hal_msp.c ****   HAL_NVIC_SetPriority(MemoryManagement_IRQn, 0, 0);
  60              		.loc 1 57 0
  61 0024 6FF00B00 		mvn	r0, #11
  62 0028 0021     		movs	r1, #0
  63 002a 0022     		movs	r2, #0
  64 002c FFF7FEFF 		bl	HAL_NVIC_SetPriority
  58:Src/stm32f3xx_hal_msp.c ****   /* BusFault_IRQn interrupt configuration */
  59:Src/stm32f3xx_hal_msp.c ****   HAL_NVIC_SetPriority(BusFault_IRQn, 0, 0);
  65              		.loc 1 59 0
  66 0030 6FF00A00 		mvn	r0, #10
  67 0034 0021     		movs	r1, #0
  68 0036 0022     		movs	r2, #0
  69 0038 FFF7FEFF 		bl	HAL_NVIC_SetPriority
  60:Src/stm32f3xx_hal_msp.c ****   /* UsageFault_IRQn interrupt configuration */
  61:Src/stm32f3xx_hal_msp.c ****   HAL_NVIC_SetPriority(UsageFault_IRQn, 0, 0);
  70              		.loc 1 61 0
  71 003c 6FF00900 		mvn	r0, #9
  72 0040 0021     		movs	r1, #0
  73 0042 0022     		movs	r2, #0
  74 0044 FFF7FEFF 		bl	HAL_NVIC_SetPriority
  62:Src/stm32f3xx_hal_msp.c ****   /* SVCall_IRQn interrupt configuration */
  63:Src/stm32f3xx_hal_msp.c ****   HAL_NVIC_SetPriority(SVCall_IRQn, 0, 0);
  75              		.loc 1 63 0
  76 0048 6FF00400 		mvn	r0, #4
  77 004c 0021     		movs	r1, #0
  78 004e 0022     		movs	r2, #0
  79 0050 FFF7FEFF 		bl	HAL_NVIC_SetPriority
  64:Src/stm32f3xx_hal_msp.c ****   /* DebugMonitor_IRQn interrupt configuration */
  65:Src/stm32f3xx_hal_msp.c ****   HAL_NVIC_SetPriority(DebugMonitor_IRQn, 0, 0);
  80              		.loc 1 65 0
  81 0054 6FF00300 		mvn	r0, #3
  82 0058 0021     		movs	r1, #0
  83 005a 0022     		movs	r2, #0
  84 005c FFF7FEFF 		bl	HAL_NVIC_SetPriority
  66:Src/stm32f3xx_hal_msp.c ****   /* PendSV_IRQn interrupt configuration */
  67:Src/stm32f3xx_hal_msp.c ****   HAL_NVIC_SetPriority(PendSV_IRQn, 0, 0);
  85              		.loc 1 67 0
  86 0060 6FF00100 		mvn	r0, #1
  87 0064 0021     		movs	r1, #0
  88 0066 0022     		movs	r2, #0
  89 0068 FFF7FEFF 		bl	HAL_NVIC_SetPriority
  68:Src/stm32f3xx_hal_msp.c ****   /* SysTick_IRQn interrupt configuration */
  69:Src/stm32f3xx_hal_msp.c ****   HAL_NVIC_SetPriority(SysTick_IRQn, 0, 0);
  90              		.loc 1 69 0
  91 006c 4FF0FF30 		mov	r0, #-1
  92 0070 0021     		movs	r1, #0
  93 0072 0022     		movs	r2, #0
  94 0074 FFF7FEFF 		bl	HAL_NVIC_SetPriority
  70:Src/stm32f3xx_hal_msp.c **** 
  71:Src/stm32f3xx_hal_msp.c ****   /* USER CODE BEGIN MspInit 1 */
  72:Src/stm32f3xx_hal_msp.c **** 
  73:Src/stm32f3xx_hal_msp.c ****   /* USER CODE END MspInit 1 */
  74:Src/stm32f3xx_hal_msp.c **** }
  95              		.loc 1 74 0
  96 0078 0837     		adds	r7, r7, #8
  97 007a BD46     		mov	sp, r7
  98              		@ sp needed
ARM GAS  /tmp/cccMkWxB.s 			page 4


  99 007c 80BD     		pop	{r7, pc}
 100              	.L3:
 101 007e 00BF     		.align	2
 102              	.L2:
 103 0080 00100240 		.word	1073876992
 104              		.cfi_endproc
 105              	.LFE125:
 107              		.section	.text.HAL_TIM_Encoder_MspInit,"ax",%progbits
 108              		.align	2
 109              		.global	HAL_TIM_Encoder_MspInit
 110              		.thumb
 111              		.thumb_func
 113              	HAL_TIM_Encoder_MspInit:
 114              	.LFB126:
  75:Src/stm32f3xx_hal_msp.c **** 
  76:Src/stm32f3xx_hal_msp.c **** void HAL_TIM_Encoder_MspInit(TIM_HandleTypeDef* htim_encoder)
  77:Src/stm32f3xx_hal_msp.c **** {
 115              		.loc 1 77 0
 116              		.cfi_startproc
 117              		@ args = 0, pretend = 0, frame = 32
 118              		@ frame_needed = 1, uses_anonymous_args = 0
 119 0000 80B5     		push	{r7, lr}
 120              	.LCFI3:
 121              		.cfi_def_cfa_offset 8
 122              		.cfi_offset 7, -8
 123              		.cfi_offset 14, -4
 124 0002 88B0     		sub	sp, sp, #32
 125              	.LCFI4:
 126              		.cfi_def_cfa_offset 40
 127 0004 00AF     		add	r7, sp, #0
 128              	.LCFI5:
 129              		.cfi_def_cfa_register 7
 130 0006 7860     		str	r0, [r7, #4]
  78:Src/stm32f3xx_hal_msp.c **** 
  79:Src/stm32f3xx_hal_msp.c ****   GPIO_InitTypeDef GPIO_InitStruct;
  80:Src/stm32f3xx_hal_msp.c ****   if(htim_encoder->Instance==TIM1)
 131              		.loc 1 80 0
 132 0008 7B68     		ldr	r3, [r7, #4]
 133 000a 1A68     		ldr	r2, [r3]
 134 000c 114B     		ldr	r3, .L6
 135 000e 9A42     		cmp	r2, r3
 136 0010 1DD1     		bne	.L4
 137              	.LBB3:
  81:Src/stm32f3xx_hal_msp.c ****   {
  82:Src/stm32f3xx_hal_msp.c ****   /* USER CODE BEGIN TIM1_MspInit 0 */
  83:Src/stm32f3xx_hal_msp.c **** 
  84:Src/stm32f3xx_hal_msp.c ****   /* USER CODE END TIM1_MspInit 0 */
  85:Src/stm32f3xx_hal_msp.c ****     /* Peripheral clock enable */
  86:Src/stm32f3xx_hal_msp.c ****     __HAL_RCC_TIM1_CLK_ENABLE();
 138              		.loc 1 86 0
 139 0012 114B     		ldr	r3, .L6+4
 140 0014 104A     		ldr	r2, .L6+4
 141 0016 9269     		ldr	r2, [r2, #24]
 142 0018 42F40062 		orr	r2, r2, #2048
 143 001c 9A61     		str	r2, [r3, #24]
 144 001e 0E4B     		ldr	r3, .L6+4
 145 0020 9B69     		ldr	r3, [r3, #24]
ARM GAS  /tmp/cccMkWxB.s 			page 5


 146 0022 03F40063 		and	r3, r3, #2048
 147 0026 BB60     		str	r3, [r7, #8]
 148 0028 BB68     		ldr	r3, [r7, #8]
 149              	.LBE3:
  87:Src/stm32f3xx_hal_msp.c ****   
  88:Src/stm32f3xx_hal_msp.c ****     /**TIM1 GPIO Configuration    
  89:Src/stm32f3xx_hal_msp.c ****     PA8     ------> TIM1_CH1
  90:Src/stm32f3xx_hal_msp.c ****     PA9     ------> TIM1_CH2 
  91:Src/stm32f3xx_hal_msp.c ****     */
  92:Src/stm32f3xx_hal_msp.c ****     GPIO_InitStruct.Pin = GPIO_PIN_8|GPIO_PIN_9;
 150              		.loc 1 92 0
 151 002a 4FF44073 		mov	r3, #768
 152 002e FB60     		str	r3, [r7, #12]
  93:Src/stm32f3xx_hal_msp.c ****     GPIO_InitStruct.Mode = GPIO_MODE_AF_PP;
 153              		.loc 1 93 0
 154 0030 0223     		movs	r3, #2
 155 0032 3B61     		str	r3, [r7, #16]
  94:Src/stm32f3xx_hal_msp.c ****     GPIO_InitStruct.Pull = GPIO_PULLUP;
 156              		.loc 1 94 0
 157 0034 0123     		movs	r3, #1
 158 0036 7B61     		str	r3, [r7, #20]
  95:Src/stm32f3xx_hal_msp.c ****     GPIO_InitStruct.Speed = GPIO_SPEED_FREQ_HIGH;
 159              		.loc 1 95 0
 160 0038 0323     		movs	r3, #3
 161 003a BB61     		str	r3, [r7, #24]
  96:Src/stm32f3xx_hal_msp.c ****     GPIO_InitStruct.Alternate = GPIO_AF6_TIM1;
 162              		.loc 1 96 0
 163 003c 0623     		movs	r3, #6
 164 003e FB61     		str	r3, [r7, #28]
  97:Src/stm32f3xx_hal_msp.c ****     HAL_GPIO_Init(GPIOA, &GPIO_InitStruct);
 165              		.loc 1 97 0
 166 0040 07F10C03 		add	r3, r7, #12
 167 0044 4FF09040 		mov	r0, #1207959552
 168 0048 1946     		mov	r1, r3
 169 004a FFF7FEFF 		bl	HAL_GPIO_Init
 170              	.L4:
  98:Src/stm32f3xx_hal_msp.c **** 
  99:Src/stm32f3xx_hal_msp.c ****   /* USER CODE BEGIN TIM1_MspInit 1 */
 100:Src/stm32f3xx_hal_msp.c **** 
 101:Src/stm32f3xx_hal_msp.c ****   /* USER CODE END TIM1_MspInit 1 */
 102:Src/stm32f3xx_hal_msp.c ****   }
 103:Src/stm32f3xx_hal_msp.c **** 
 104:Src/stm32f3xx_hal_msp.c **** }
 171              		.loc 1 104 0
 172 004e 2037     		adds	r7, r7, #32
 173 0050 BD46     		mov	sp, r7
 174              		@ sp needed
 175 0052 80BD     		pop	{r7, pc}
 176              	.L7:
 177              		.align	2
 178              	.L6:
 179 0054 002C0140 		.word	1073818624
 180 0058 00100240 		.word	1073876992
 181              		.cfi_endproc
 182              	.LFE126:
 184              		.section	.text.HAL_TIM_Encoder_MspDeInit,"ax",%progbits
 185              		.align	2
ARM GAS  /tmp/cccMkWxB.s 			page 6


 186              		.global	HAL_TIM_Encoder_MspDeInit
 187              		.thumb
 188              		.thumb_func
 190              	HAL_TIM_Encoder_MspDeInit:
 191              	.LFB127:
 105:Src/stm32f3xx_hal_msp.c **** 
 106:Src/stm32f3xx_hal_msp.c **** void HAL_TIM_Encoder_MspDeInit(TIM_HandleTypeDef* htim_encoder)
 107:Src/stm32f3xx_hal_msp.c **** {
 192              		.loc 1 107 0
 193              		.cfi_startproc
 194              		@ args = 0, pretend = 0, frame = 8
 195              		@ frame_needed = 1, uses_anonymous_args = 0
 196 0000 80B5     		push	{r7, lr}
 197              	.LCFI6:
 198              		.cfi_def_cfa_offset 8
 199              		.cfi_offset 7, -8
 200              		.cfi_offset 14, -4
 201 0002 82B0     		sub	sp, sp, #8
 202              	.LCFI7:
 203              		.cfi_def_cfa_offset 16
 204 0004 00AF     		add	r7, sp, #0
 205              	.LCFI8:
 206              		.cfi_def_cfa_register 7
 207 0006 7860     		str	r0, [r7, #4]
 108:Src/stm32f3xx_hal_msp.c **** 
 109:Src/stm32f3xx_hal_msp.c ****   if(htim_encoder->Instance==TIM1)
 208              		.loc 1 109 0
 209 0008 7B68     		ldr	r3, [r7, #4]
 210 000a 1A68     		ldr	r2, [r3]
 211 000c 084B     		ldr	r3, .L10
 212 000e 9A42     		cmp	r2, r3
 213 0010 0BD1     		bne	.L8
 110:Src/stm32f3xx_hal_msp.c ****   {
 111:Src/stm32f3xx_hal_msp.c ****   /* USER CODE BEGIN TIM1_MspDeInit 0 */
 112:Src/stm32f3xx_hal_msp.c **** 
 113:Src/stm32f3xx_hal_msp.c ****   /* USER CODE END TIM1_MspDeInit 0 */
 114:Src/stm32f3xx_hal_msp.c ****     /* Peripheral clock disable */
 115:Src/stm32f3xx_hal_msp.c ****     __HAL_RCC_TIM1_CLK_DISABLE();
 214              		.loc 1 115 0
 215 0012 084B     		ldr	r3, .L10+4
 216 0014 074A     		ldr	r2, .L10+4
 217 0016 9269     		ldr	r2, [r2, #24]
 218 0018 22F40062 		bic	r2, r2, #2048
 219 001c 9A61     		str	r2, [r3, #24]
 116:Src/stm32f3xx_hal_msp.c ****   
 117:Src/stm32f3xx_hal_msp.c ****     /**TIM1 GPIO Configuration    
 118:Src/stm32f3xx_hal_msp.c ****     PA8     ------> TIM1_CH1
 119:Src/stm32f3xx_hal_msp.c ****     PA9     ------> TIM1_CH2 
 120:Src/stm32f3xx_hal_msp.c ****     */
 121:Src/stm32f3xx_hal_msp.c ****     HAL_GPIO_DeInit(GPIOA, GPIO_PIN_8|GPIO_PIN_9);
 220              		.loc 1 121 0
 221 001e 4FF09040 		mov	r0, #1207959552
 222 0022 4FF44071 		mov	r1, #768
 223 0026 FFF7FEFF 		bl	HAL_GPIO_DeInit
 224              	.L8:
 122:Src/stm32f3xx_hal_msp.c **** 
 123:Src/stm32f3xx_hal_msp.c ****   }
ARM GAS  /tmp/cccMkWxB.s 			page 7


 124:Src/stm32f3xx_hal_msp.c ****   /* USER CODE BEGIN TIM1_MspDeInit 1 */
 125:Src/stm32f3xx_hal_msp.c **** 
 126:Src/stm32f3xx_hal_msp.c ****   /* USER CODE END TIM1_MspDeInit 1 */
 127:Src/stm32f3xx_hal_msp.c **** 
 128:Src/stm32f3xx_hal_msp.c **** }
 225              		.loc 1 128 0
 226 002a 0837     		adds	r7, r7, #8
 227 002c BD46     		mov	sp, r7
 228              		@ sp needed
 229 002e 80BD     		pop	{r7, pc}
 230              	.L11:
 231              		.align	2
 232              	.L10:
 233 0030 002C0140 		.word	1073818624
 234 0034 00100240 		.word	1073876992
 235              		.cfi_endproc
 236              	.LFE127:
 238              		.text
 239              	.Letext0:
 240              		.file 2 "/usr/include/newlib/machine/_default_types.h"
 241              		.file 3 "/usr/include/newlib/stdint.h"
 242              		.file 4 "Drivers/CMSIS/Device/ST/STM32F3xx/Include/stm32f303xc.h"
 243              		.file 5 "Drivers/STM32F3xx_HAL_Driver/Inc/stm32f3xx_hal_def.h"
 244              		.file 6 "Drivers/STM32F3xx_HAL_Driver/Inc/stm32f3xx_hal_gpio.h"
 245              		.file 7 "Drivers/STM32F3xx_HAL_Driver/Inc/stm32f3xx_hal_dma.h"
 246              		.file 8 "Drivers/STM32F3xx_HAL_Driver/Inc/stm32f3xx_hal_tim.h"
 247              		.file 9 "Drivers/CMSIS/Include/core_cm4.h"
ARM GAS  /tmp/cccMkWxB.s 			page 8

